ccopy_reg
_reconstructor
p1
(cicarus.results.readwrite
ResultSet
p2
c__builtin__
object
p3
NtRp4
(dp5
S'attr'
p6
(dp7
sS'_results'
p8
ccollections
deque
p9
((lp10
(cicarus.util
Tree
p11
(tRp12
S'workload'
p13
g11
(tRp14
S'n_contents'
p15
I10000
sS'name'
p16
S'STATIONARY'
p17
sS'n_warmup'
p18
I360000
sS'rate'
p19
I1000
sS'n_measured'
p20
I360000
sS'alpha'
p21
F0.80000000000000004
ssS'cache_policy'
p22
g11
(tRp23
g16
S'LRU'
p24
ssS'desc'
p25
S'RSN size sensitivity -> RSN/cache ratio: 2.0'
p26
sS'strategy'
p27
g11
(tRp28
S'p'
F0.17999999999999999
sg16
S'NDN'
p29
ssS'content_placement'
p30
g11
(tRp31
g16
S'LOWEST_DEGREE'
p32
ssS'joint_cache_rsn_placement'
p33
g11
(tRp34
S'network_cache'
p35
F0.94999999999999996
sS'network_rsn'
p36
F1.8999999999999999
sg16
S'CACHE_ALL_RSN_ALL'
p37
sS'rsn_cache_ratio'
p38
F2
ssS'warmup_strategy'
p39
g11
(tRp40
g16
g29
ssS'topology'
p41
g11
(tRp42
S'ext_delay'
p43
I5
sS'source_ratio'
p44
F0.10000000000000001
sg16
S'ROCKET_FUEL'
p45
sS'asn'
p46
I3257
ssg11
(tRp47
S'LATENCY'
p48
g11
(tRp49
S'MEAN'
p50
F73.177999999999997
ssS'CACHE_HIT_RATIO'
p51
g11
(tRp52
S'MEAN_OFF_PATH'
p53
F0
sS'PER_NODE_SERVER_HIT_RATIO'
p54
g11
(tRp55
S'src_1'
p56
F0.75623333333333331
ssg50
F0.24376666666666666
sS'PER_NODE_CACHE_HIT_RATIO'
p57
g11
(tRp58
I0
F0.00096388888888888891
sI1
F0.0050277777777777777
sI2
F0.00087500000000000002
sI3
F0.00095
sI4
F0.0014972222222222223
sI5
F0.019772222222222222
sI6
F0.0016861111111111111
sI7
F0.0008611111111111111
sI8
F0.00085833333333333334
sI9
F0.00099722222222222226
sI10
F0.0012305555555555555
sI11
F0.0018444444444444443
sI12
F0.0010416666666666667
sI13
F0.00087222222222222226
sI14
F0.00095
sI15
F0.0017333333333333333
sI16
F0.00087500000000000002
sI17
F0.0011916666666666666
sI18
F0.0030305555555555554
sI19
F0.0011527777777777777
sI20
F0.00067500000000000004
sI21
F0.0010250000000000001
sI22
F0.00087777777777777778
sI23
F0.0010111111111111111
sI24
F0.009130555555555555
sI25
F0.0020777777777777778
sI26
F0.00096666666666666667
sI27
F0.0008027777777777778
sI28
F0.00125
sI29
F0.00074444444444444449
sI30
F0.00081944444444444447
sI31
F0.0041777777777777777
sI32
F0.00081111111111111108
sI33
F0.0047333333333333333
sI34
F0.00091944444444444441
sI35
F0.00089999999999999998
sI36
F0.00084999999999999995
sI37
F0.0009277777777777778
sI38
F0.00097499999999999996
sI39
F0.0057499999999999999
sI40
F0.00091388888888888889
sI41
F0.014852777777777777
sI42
F0.00080555555555555556
sI43
F0.00115
sI44
F0.00086388888888888887
sI45
F0.00084999999999999995
sI46
F0.00085277777777777782
sI47
F0.00095555555555555552
sI48
F0.00093333333333333332
sI49
F0.00086388888888888887
sI50
F0.0010055555555555555
sI51
F0.002
sI52
F0.0012416666666666667
sI53
F0.00095833333333333328
sI54
F0.00094444444444444448
sI55
F0.00082222222222222223
sI56
F0.00090833333333333337
sI57
F0.00092222222222222217
sI58
F0.00095833333333333328
sI59
F0.00079722222222222217
sI60
F0.00090555555555555561
sI61
F0.00096388888888888891
sI62
F0.00093055555555555556
sI63
F0.00096388888888888891
sI64
F0.0017083333333333334
sI65
F0.0013027777777777777
sI66
F0.0013027777777777777
sI67
F0.0010527777777777777
sI68
F0.00098055555555555548
sI69
F0.00098333333333333324
sI70
F0.00092222222222222217
sI71
F0.00080555555555555556
sI72
F0.0018861111111111112
sI73
F0.00087777777777777778
sI74
F0.014658333333333334
sI75
F0.0010555555555555555
sI76
F0.00095833333333333328
sI77
F0.0013027777777777777
sI78
F0.00089722222222222221
sI79
F0.00092222222222222217
sI80
F0.0038888888888888888
sI81
F0.00099722222222222226
sI82
F0.00095277777777777776
sI83
F0.00083888888888888891
sI84
F0.0020722222222222223
sI85
F0.00078611111111111113
sI86
F0.00085833333333333334
sI87
F0.00083333333333333339
sI88
F0.00087500000000000002
sI89
F0.00085277777777777782
sI90
F0.00087500000000000002
sI91
F0.00091666666666666665
sI92
F0.00088888888888888893
sI93
F0.0023305555555555558
sI94
F0.00089444444444444445
sI95
F0.00077499999999999997
sI96
F0.00094166666666666672
sI97
F0.00088611111111111106
sI98
F0.00125
sI99
F0.00080833333333333332
sI100
F0.00081388888888888884
sI101
F0.0011000000000000001
sI102
F0.0012611111111111111
sI103
F0.00070833333333333338
sI104
F0.0012833333333333334
sI105
F0.0010138888888888888
sI106
F0.0010583333333333334
sI107
F0.0010083333333333333
sI108
F0.0008694444444444445
sI109
F0.0013166666666666667
sI110
F0.00087777777777777778
sI111
F0.0011027777777777778
sI112
F0.00082777777777777776
sI113
F0.0018083333333333332
sI114
F0.00091111111111111113
sI115
F0.0012916666666666667
sI116
F0.00085555555555555558
sI117
F0.0010055555555555555
sI118
F0.0010972222222222223
sI119
F0.00084166666666666667
sI120
F0.0008027777777777778
sI121
F0.000825
sI122
F0.00074444444444444449
sI123
F0.00089999999999999998
sI124
F0.00072777777777777782
sI125
F0.00080000000000000004
sI126
F0.0020388888888888887
sI127
F0.00096111111111111115
sI128
F0.00096111111111111115
sI129
F0.00096111111111111115
sI130
F0.00092500000000000004
sI131
F0.0008694444444444445
sI132
F0.0011000000000000001
sI133
F0.0019444444444444444
sI134
F0.00077499999999999997
sI135
F0.00077777777777777773
sI136
F0.00085555555555555558
sI137
F0.00086666666666666663
sI138
F0.0014138888888888888
sI139
F0.0048444444444444446
sI140
F0.00091111111111111113
sI141
F0.00091111111111111113
sI142
F0.00082222222222222223
sI143
F0.00098888888888888898
sI144
F0.0010972222222222223
sI145
F0.0011444444444444445
sI146
F0.00079722222222222217
sI147
F0.00078888888888888889
sI148
F0.00081388888888888884
sI149
F0.00086666666666666663
sI150
F0.00085555555555555558
sI151
F0.00093333333333333332
sI152
F0.00079444444444444441
sI153
F0.00085833333333333334
sI154
F0.0008611111111111111
sI155
F0.00094444444444444448
sI156
F0.00088888888888888893
sI157
F0.00092222222222222217
sI158
F0.00093611111111111108
sI159
F0.00084166666666666667
sI160
F0.0013027777777777777
ssS'MEAN_ON_PATH'
p59
F0.24376666666666666
ssS'OVERHEAD'
p60
g11
(tRp61
g50
F11.459813888888888
sstp62
a(g11
(tRp63
S'workload'
p64
g11
(tRp65
S'n_contents'
p66
I10000
sS'name'
p67
S'STATIONARY'
p68
sS'n_warmup'
p69
I360000
sS'rate'
p70
I1000
sS'n_measured'
p71
I360000
sS'alpha'
p72
F0.80000000000000004
ssS'cache_policy'
p73
g11
(tRp74
g67
S'LRU'
p75
ssS'desc'
p76
S'RSN size sensitivity -> RSN/cache ratio: 4.0'
p77
sS'strategy'
p78
g11
(tRp79
S'p'
F0.17999999999999999
sg67
S'NDN'
p80
ssS'content_placement'
p81
g11
(tRp82
g67
S'LOWEST_DEGREE'
p83
ssS'joint_cache_rsn_placement'
p84
g11
(tRp85
S'network_cache'
p86
F0.94999999999999996
sS'network_rsn'
p87
F3.7999999999999998
sg67
S'CACHE_ALL_RSN_ALL'
p88
sS'rsn_cache_ratio'
p89
F4
ssS'warmup_strategy'
p90
g11
(tRp91
g67
g80
ssS'topology'
p92
g11
(tRp93
S'ext_delay'
p94
I5
sS'source_ratio'
p95
F0.10000000000000001
sg67
S'ROCKET_FUEL'
p96
sS'asn'
p97
I3257
ssg11
(tRp98
S'LATENCY'
p99
g11
(tRp100
S'MEAN'
p101
F73.119261111111115
ssS'CACHE_HIT_RATIO'
p102
g11
(tRp103
S'MEAN_OFF_PATH'
p104
F0
sS'PER_NODE_SERVER_HIT_RATIO'
p105
g11
(tRp106
S'src_1'
p107
F0.75549166666666667
ssg101
F0.24450833333333333
sS'PER_NODE_CACHE_HIT_RATIO'
p108
g11
(tRp109
I0
F0.00092222222222222217
sI1
F0.004966666666666667
sI2
F0.00085833333333333334
sI3
F0.00088055555555555554
sI4
F0.0016361111111111112
sI5
F0.019563888888888888
sI6
F0.0013083333333333334
sI7
F0.00091111111111111113
sI8
F0.0009277777777777778
sI9
F0.00092500000000000004
sI10
F0.0010805555555555555
sI11
F0.0020861111111111111
sI12
F0.0010166666666666666
sI13
F0.0008611111111111111
sI14
F0.0010416666666666667
sI15
F0.0014027777777777777
sI16
F0.00092500000000000004
sI17
F0.0012472222222222223
sI18
F0.003477777777777778
sI19
F0.0010472222222222222
sI20
F0.00084444444444444443
sI21
F0.00095277777777777776
sI22
F0.00096944444444444443
sI23
F0.00093055555555555556
sI24
F0.0087916666666666664
sI25
F0.0019944444444444445
sI26
F0.00089999999999999998
sI27
F0.0008833333333333333
sI28
F0.00096944444444444443
sI29
F0.00077499999999999997
sI30
F0.00095277777777777776
sI31
F0.0038722222222222222
sI32
F0.00090277777777777774
sI33
F0.0046833333333333336
sI34
F0.00093888888888888885
sI35
F0.00090555555555555561
sI36
F0.00086666666666666663
sI37
F0.00088888888888888893
sI38
F0.00086388888888888887
sI39
F0.0055444444444444447
sI40
F0.00086666666666666663
sI41
F0.015361111111111112
sI42
F0.00094166666666666672
sI43
F0.0010722222222222222
sI44
F0.0008694444444444445
sI45
F0.00096944444444444443
sI46
F0.00084999999999999995
sI47
F0.00086666666666666663
sI48
F0.00081944444444444447
sI49
F0.00094166666666666672
sI50
F0.0011166666666666666
sI51
F0.0018083333333333332
sI52
F0.0014444444444444444
sI53
F0.00092500000000000004
sI54
F0.00091944444444444441
sI55
F0.00088055555555555554
sI56
F0.00091666666666666665
sI57
F0.00085833333333333334
sI58
F0.00097499999999999996
sI59
F0.00095277777777777776
sI60
F0.00078333333333333336
sI61
F0.0010722222222222222
sI62
F0.0009277777777777778
sI63
F0.0010333333333333334
sI64
F0.0016583333333333333
sI65
F0.0015583333333333332
sI66
F0.001063888888888889
sI67
F0.0010944444444444445
sI68
F0.00082222222222222223
sI69
F0.00092500000000000004
sI70
F0.00092500000000000004
sI71
F0.00088888888888888893
sI72
F0.0016638888888888888
sI73
F0.000825
sI74
F0.014500000000000001
sI75
F0.0012722222222222223
sI76
F0.00087500000000000002
sI77
F0.0013916666666666667
sI78
F0.00096388888888888891
sI79
F0.00078888888888888889
sI80
F0.0042472222222222225
sI81
F0.00095555555555555552
sI82
F0.00092222222222222217
sI83
F0.00092500000000000004
sI84
F0.0018388888888888888
sI85
F0.00097222222222222219
sI86
F0.00095277777777777776
sI87
F0.00086666666666666663
sI88
F0.00070277777777777775
sI89
F0.00090277777777777774
sI90
F0.00089722222222222221
sI91
F0.00094722222222222224
sI92
F0.00092500000000000004
sI93
F0.0025111111111111111
sI94
F0.00091944444444444441
sI95
F0.00085277777777777782
sI96
F0.00098333333333333324
sI97
F0.00089722222222222221
sI98
F0.0012277777777777777
sI99
F0.00096111111111111115
sI100
F0.00085555555555555558
sI101
F0.0012888888888888889
sI102
F0.0011944444444444444
sI103
F0.00085833333333333334
sI104
F0.0010694444444444445
sI105
F0.00089722222222222221
sI106
F0.0013777777777777777
sI107
F0.00090833333333333337
sI108
F0.00085277777777777782
sI109
F0.0012027777777777779
sI110
F0.00064722222222222221
sI111
F0.0010472222222222222
sI112
F0.00076111111111111106
sI113
F0.0018638888888888889
sI114
F0.00083055555555555552
sI115
F0.0011722222222222223
sI116
F0.00087777777777777778
sI117
F0.00094166666666666672
sI118
F0.0011111111111111111
sI119
F0.00095
sI120
F0.00083888888888888891
sI121
F0.00098611111111111122
sI122
F0.00099722222222222226
sI123
F0.0010250000000000001
sI124
F0.00084999999999999995
sI125
F0.00082222222222222223
sI126
F0.0018583333333333334
sI127
F0.00098333333333333324
sI128
F0.0010027777777777778
sI129
F0.00088888888888888893
sI130
F0.00081388888888888884
sI131
F0.00088055555555555554
sI132
F0.0011888888888888889
sI133
F0.001813888888888889
sI134
F0.00093055555555555556
sI135
F0.00076666666666666669
sI136
F0.0008611111111111111
sI137
F0.00094166666666666672
sI138
F0.0012472222222222223
sI139
F0.0046416666666666663
sI140
F0.00090555555555555561
sI141
F0.00085277777777777782
sI142
F0.0008833333333333333
sI143
F0.0010222222222222223
sI144
F0.0011138888888888889
sI145
F0.0010777777777777778
sI146
F0.00096944444444444443
sI147
F0.00090277777777777774
sI148
F0.00087500000000000002
sI149
F0.00092222222222222217
sI150
F0.00095277777777777776
sI151
F0.00093611111111111108
sI152
F0.00097499999999999996
sI153
F0.00084166666666666667
sI154
F0.00089444444444444445
sI155
F0.0010166666666666666
sI156
F0.00090833333333333337
sI157
F0.00096388888888888891
sI158
F0.00094722222222222224
sI159
F0.00082777777777777776
sI160
F0.0013583333333333334
ssS'MEAN_ON_PATH'
p110
F0.24450833333333333
ssS'OVERHEAD'
p111
g11
(tRp112
g101
F11.448716666666666
sstp113
a(g11
(tRp114
S'workload'
p115
g11
(tRp116
S'n_contents'
p117
I10000
sS'name'
p118
S'STATIONARY'
p119
sS'n_warmup'
p120
I360000
sS'rate'
p121
I1000
sS'n_measured'
p122
I360000
sS'alpha'
p123
F0.80000000000000004
ssS'cache_policy'
p124
g11
(tRp125
g118
S'LRU'
p126
ssS'desc'
p127
S'RSN size sensitivity -> RSN/cache ratio: 2.0'
p128
sS'strategy'
p129
g11
(tRp130
S'p'
F0.17999999999999999
sg118
S'LIRA_BC'
p131
ssS'content_placement'
p132
g11
(tRp133
g118
S'LOWEST_DEGREE'
p134
ssS'joint_cache_rsn_placement'
p135
g11
(tRp136
S'network_cache'
p137
F0.94999999999999996
sS'network_rsn'
p138
F1.8999999999999999
sg118
S'CACHE_ALL_RSN_ALL'
p139
sS'rsn_cache_ratio'
p140
F2
ssS'warmup_strategy'
p141
g11
(tRp142
g118
S'NDN'
p143
ssS'topology'
p144
g11
(tRp145
S'ext_delay'
p146
I5
sS'source_ratio'
p147
F0.10000000000000001
sg118
S'ROCKET_FUEL'
p148
sS'asn'
p149
I3257
ssg11
(tRp150
S'LATENCY'
p151
g11
(tRp152
S'MEAN'
p153
F73.281977777777783
ssS'CACHE_HIT_RATIO'
p154
g11
(tRp155
S'MEAN_OFF_PATH'
p156
F0.016369444444444443
sS'PER_NODE_SERVER_HIT_RATIO'
p157
g11
(tRp158
S'src_1'
p159
F0.74645277777777774
ssg153
F0.2535472222222222
sS'PER_NODE_CACHE_HIT_RATIO'
p160
g11
(tRp161
I0
F0.00071666666666666667
sI1
F0.0070388888888888888
sI2
F0.00076388888888888893
sI3
F0.00076388888888888893
sI4
F0.0018666666666666666
sI5
F0.017819444444444443
sI6
F0.0021833333333333331
sI7
F0.00073888888888888886
sI8
F0.00074166666666666662
sI9
F0.00097499999999999996
sI10
F0.001411111111111111
sI11
F0.0027055555555555557
sI12
F0.0010805555555555555
sI13
F0.0006111111111111111
sI14
F0.00061666666666666662
sI15
F0.0021194444444444446
sI16
F0.00082222222222222223
sI17
F0.0015972222222222223
sI18
F0.0042777777777777779
sI19
F0.0014722222222222222
sI20
F0.00064722222222222221
sI21
F0.0015499999999999999
sI22
F0.00092500000000000004
sI23
F0.00083888888888888891
sI24
F0.010455555555555555
sI25
F0.0032861111111111112
sI26
F0.00091111111111111113
sI27
F0.00059722222222222219
sI28
F0.0014277777777777778
sI29
F0.00055000000000000003
sI30
F0.00058611111111111114
sI31
F0.0052472222222222226
sI32
F0.00059166666666666666
sI33
F0.0058777777777777778
sI34
F0.00076111111111111106
sI35
F0.00078611111111111113
sI36
F0.00088888888888888893
sI37
F0.00077499999999999997
sI38
F0.00076666666666666669
sI39
F0.0069916666666666669
sI40
F0.00064444444444444445
sI41
F0.012441666666666667
sI42
F0.00083333333333333339
sI43
F0.0016805555555555556
sI44
F0.00060555555555555558
sI45
F0.0010222222222222223
sI46
F0.00059999999999999995
sI47
F0.00082222222222222223
sI48
F0.00073333333333333334
sI49
F0.00076388888888888893
sI50
F0.0013527777777777778
sI51
F0.0025416666666666665
sI52
F0.0025611111111111112
sI53
F0.00077499999999999997
sI54
F0.00057499999999999999
sI55
F0.00080833333333333332
sI56
F0.00088611111111111106
sI57
F0.00066111111111111112
sI58
F0.0011944444444444444
sI59
F0.00083055555555555552
sI60
F0.00081666666666666671
sI61
F0.0011055555555555556
sI62
F0.00050833333333333329
sI63
F0.0013916666666666667
sI64
F0.0018666666666666666
sI65
F0.0017861111111111111
sI66
F0.0013111111111111112
sI67
F0.0012861111111111111
sI68
F0.00097777777777777772
sI69
F0.00071111111111111115
sI70
F0.00070277777777777775
sI71
F0.00077499999999999997
sI72
F0.0020999999999999999
sI73
F0.00074722222222222225
sI74
F0.014666666666666666
sI75
F0.0014305555555555556
sI76
F0.00068611111111111108
sI77
F0.001238888888888889
sI78
F0.00070555555555555551
sI79
F0.00064722222222222221
sI80
F0.0057555555555555554
sI81
F0.00055555555555555556
sI82
F0.00074166666666666662
sI83
F0.00088611111111111106
sI84
F0.0031805555555555554
sI85
F0.00069722222222222223
sI86
F0.00085277777777777782
sI87
F0.00064444444444444445
sI88
F0.00053611111111111112
sI89
F0.00083333333333333339
sI90
F0.00057777777777777775
sI91
F0.00069444444444444447
sI92
F0.00062500000000000001
sI93
F0.0040777777777777774
sI94
F0.00063055555555555553
sI95
F0.00071944444444444443
sI96
F0.00078888888888888889
sI97
F0.00049166666666666662
sI98
F0.0012944444444444444
sI99
F0.0008833333333333333
sI100
F0.00081388888888888884
sI101
F0.001725
sI102
F0.00087222222222222226
sI103
F0.00081111111111111108
sI104
F0.0015416666666666667
sI105
F0.00074166666666666662
sI106
F0.0018111111111111112
sI107
F0.00068333333333333332
sI108
F0.00055833333333333332
sI109
F0.0022000000000000001
sI110
F0.00060277777777777782
sI111
F0.0013861111111111112
sI112
F0.00078333333333333336
sI113
F0.0024638888888888887
sI114
F0.00098611111111111122
sI115
F0.0015222222222222221
sI116
F0.00087500000000000002
sI117
F0.00064166666666666669
sI118
F0.001225
sI119
F0.00064444444444444445
sI120
F0.00066944444444444441
sI121
F0.00070555555555555551
sI122
F0.00081111111111111108
sI123
F0.00051111111111111116
sI124
F0.00076111111111111106
sI125
F0.00078611111111111113
sI126
F0.0022166666666666667
sI127
F0.00078333333333333336
sI128
F0.0012583333333333333
sI129
F0.00070833333333333338
sI130
F0.00085555555555555558
sI131
F0.00079444444444444441
sI132
F0.0013666666666666666
sI133
F0.0022888888888888889
sI134
F0.00070555555555555551
sI135
F0.00073888888888888886
sI136
F0.00078888888888888889
sI137
F0.00079722222222222217
sI138
F0.0021555555555555555
sI139
F0.0058027777777777774
sI140
F0.00070277777777777775
sI141
F0.0006111111111111111
sI142
F0.00081111111111111108
sI143
F0.0012222222222222222
sI144
F0.0012694444444444444
sI145
F0.0010055555555555555
sI146
F0.00084722222222222219
sI147
F0.00057777777777777775
sI148
F0.00060833333333333334
sI149
F0.00080000000000000004
sI150
F0.00060833333333333334
sI151
F0.00076388888888888893
sI152
F0.00068333333333333332
sI153
F0.00077499999999999997
sI154
F0.00059444444444444443
sI155
F0.00081111111111111108
sI156
F0.00071111111111111115
sI157
F0.00060277777777777782
sI158
F0.00065277777777777773
sI159
F0.00068055555555555556
sI160
F0.0017694444444444444
ssS'MEAN_ON_PATH'
p162
F0.23717777777777777
ssS'OVERHEAD'
p163
g11
(tRp164
g153
F5.7360749999999996
sstp165
a(g11
(tRp166
S'workload'
p167
g11
(tRp168
S'n_contents'
p169
I10000
sS'name'
p170
S'STATIONARY'
p171
sS'n_warmup'
p172
I360000
sS'rate'
p173
I1000
sS'n_measured'
p174
I360000
sS'alpha'
p175
F0.80000000000000004
ssS'cache_policy'
p176
g11
(tRp177
g170
S'LRU'
p178
ssS'desc'
p179
S'RSN size sensitivity -> RSN/cache ratio: 4.0'
p180
sS'strategy'
p181
g11
(tRp182
S'p'
F0.17999999999999999
sg170
S'LIRA_BC'
p183
ssS'content_placement'
p184
g11
(tRp185
g170
S'LOWEST_DEGREE'
p186
ssS'joint_cache_rsn_placement'
p187
g11
(tRp188
S'network_cache'
p189
F0.94999999999999996
sS'network_rsn'
p190
F3.7999999999999998
sg170
S'CACHE_ALL_RSN_ALL'
p191
sS'rsn_cache_ratio'
p192
F4
ssS'warmup_strategy'
p193
g11
(tRp194
g170
S'NDN'
p195
ssS'topology'
p196
g11
(tRp197
S'ext_delay'
p198
I5
sS'source_ratio'
p199
F0.10000000000000001
sg170
S'ROCKET_FUEL'
p200
sS'asn'
p201
I3257
ssg11
(tRp202
S'LATENCY'
p203
g11
(tRp204
S'MEAN'
p205
F72.797250000000005
ssS'CACHE_HIT_RATIO'
p206
g11
(tRp207
S'MEAN_OFF_PATH'
p208
F0.033816666666666668
sS'PER_NODE_SERVER_HIT_RATIO'
p209
g11
(tRp210
S'src_1'
p211
F0.73395833333333338
ssg205
F0.26604166666666668
sS'PER_NODE_CACHE_HIT_RATIO'
p212
g11
(tRp213
I0
F0.0008833333333333333
sI1
F0.0076222222222222221
sI2
F0.00079166666666666665
sI3
F0.00066666666666666664
sI4
F0.0020333333333333332
sI5
F0.016574999999999999
sI6
F0.0023194444444444443
sI7
F0.00074444444444444449
sI8
F0.00066388888888888888
sI9
F0.00055277777777777779
sI10
F0.0020222222222222221
sI11
F0.0028611111111111111
sI12
F0.0016388888888888889
sI13
F0.00098333333333333324
sI14
F0.00073333333333333334
sI15
F0.0020083333333333333
sI16
F0.00062500000000000001
sI17
F0.0017083333333333334
sI18
F0.0048083333333333337
sI19
F0.0023055555555555555
sI20
F0.00060555555555555558
sI21
F0.0016027777777777778
sI22
F0.00046111111111111109
sI23
F0.00069166666666666671
sI24
F0.011538888888888888
sI25
F0.0028805555555555555
sI26
F0.00062777777777777777
sI27
F0.00093888888888888885
sI28
F0.0013972222222222222
sI29
F0.00068611111111111108
sI30
F0.00057222222222222223
sI31
F0.0062805555555555557
sI32
F0.00060277777777777782
sI33
F0.0070111111111111112
sI34
F0.00070277777777777775
sI35
F0.00086666666666666663
sI36
F0.00087500000000000002
sI37
F0.00072499999999999995
sI38
F0.00035277777777777776
sI39
F0.0077194444444444446
sI40
F0.00063055555555555553
sI41
F0.010297222222222221
sI42
F0.00062500000000000001
sI43
F0.0014194444444444445
sI44
F0.00085277777777777782
sI45
F0.0013944444444444445
sI46
F0.0008833333333333333
sI47
F0.00070277777777777775
sI48
F0.00048888888888888886
sI49
F0.00068611111111111108
sI50
F0.0014250000000000001
sI51
F0.0025972222222222221
sI52
F0.0022111111111111112
sI53
F0.0016305555555555554
sI54
F0.00072499999999999995
sI55
F0.00077777777777777773
sI56
F0.00052777777777777773
sI57
F0.00038333333333333334
sI58
F0.0017027777777777779
sI59
F0.00066666666666666664
sI60
F0.0007805555555555556
sI61
F0.0015722222222222223
sI62
F0.00035277777777777776
sI63
F0.001336111111111111
sI64
F0.002063888888888889
sI65
F0.0022638888888888891
sI66
F0.00092222222222222217
sI67
F0.0010944444444444445
sI68
F0.0010111111111111111
sI69
F0.00087777777777777778
sI70
F0.00057222222222222223
sI71
F0.00063888888888888893
sI72
F0.0022611111111111113
sI73
F0.00071388888888888891
sI74
F0.015497222222222223
sI75
F0.0015694444444444445
sI76
F0.00070555555555555551
sI77
F0.0020027777777777778
sI78
F0.00069444444444444447
sI79
F0.00064722222222222221
sI80
F0.0060083333333333334
sI81
F0.00086666666666666663
sI82
F0.00070833333333333338
sI83
F0.00083055555555555552
sI84
F0.003988888888888889
sI85
F0.00056944444444444447
sI86
F0.00090555555555555561
sI87
F0.00061666666666666662
sI88
F0.00085277777777777782
sI89
F0.00076666666666666669
sI90
F0.00085833333333333334
sI91
F0.00064722222222222221
sI92
F0.00093055555555555556
sI93
F0.0039583333333333337
sI94
F0.00080555555555555556
sI95
F0.00084166666666666667
sI96
F0.00034444444444444442
sI97
F0.00078333333333333336
sI98
F0.0018333333333333333
sI99
F0.00092500000000000004
sI100
F0.00084166666666666667
sI101
F0.0018972222222222222
sI102
F0.0015388888888888889
sI103
F0.00075555555555555554
sI104
F0.0010138888888888888
sI105
F0.00071388888888888891
sI106
F0.0015666666666666667
sI107
F0.00082222222222222223
sI108
F0.00079166666666666665
sI109
F0.0022083333333333334
sI110
F0.00089166666666666669
sI111
F0.0014499999999999999
sI112
F0.00084999999999999995
sI113
F0.0026805555555555554
sI114
F0.000825
sI115
F0.0016333333333333334
sI116
F0.00085555555555555558
sI117
F0.00073888888888888886
sI118
F0.0013333333333333333
sI119
F0.00077222222222222221
sI120
F0.00075277777777777778
sI121
F0.00098888888888888898
sI122
F0.00083055555555555552
sI123
F0.00076944444444444445
sI124
F0.00082222222222222223
sI125
F0.00075277777777777778
sI126
F0.0026277777777777779
sI127
F0.00078333333333333336
sI128
F0.001486111111111111
sI129
F0.00046666666666666666
sI130
F0.00073055555555555558
sI131
F0.00063888888888888893
sI132
F0.0016027777777777778
sI133
F0.002225
sI134
F0.0008027777777777778
sI135
F0.00094166666666666672
sI136
F0.00062500000000000001
sI137
F0.00066666666666666664
sI138
F0.0027499999999999998
sI139
F0.0063666666666666663
sI140
F0.0006111111111111111
sI141
F0.00077222222222222221
sI142
F0.00078888888888888889
sI143
F0.0012888888888888889
sI144
F0.001563888888888889
sI145
F0.0014055555555555555
sI146
F0.00080833333333333332
sI147
F0.00071944444444444443
sI148
F0.00061944444444444449
sI149
F0.00064166666666666669
sI150
F0.00081111111111111108
sI151
F0.00076388888888888893
sI152
F0.00082222222222222223
sI153
F0.00087222222222222226
sI154
F0.00078611111111111113
sI155
F0.0008694444444444445
sI156
F0.00092222222222222217
sI157
F0.00059722222222222219
sI158
F0.00061944444444444449
sI159
F0.00060833333333333334
sI160
F0.0014055555555555555
ssS'MEAN_ON_PATH'
p214
F0.23222500000000001
ssS'OVERHEAD'
p215
g11
(tRp216
g205
F5.7183722222222224
sstp217
a(g11
(tRp218
S'workload'
p219
g11
(tRp220
S'n_contents'
p221
I10000
sS'name'
p222
S'STATIONARY'
p223
sS'n_warmup'
p224
I360000
sS'rate'
p225
I1000
sS'n_measured'
p226
I360000
sS'alpha'
p227
F0.80000000000000004
ssS'cache_policy'
p228
g11
(tRp229
g222
S'LRU'
p230
ssS'desc'
p231
S'RSN size sensitivity -> RSN/cache ratio: 2.0'
p232
sS'strategy'
p233
g11
(tRp234
S'p'
F0.17999999999999999
sg222
S'LIRA_DFIB'
p235
ssS'content_placement'
p236
g11
(tRp237
g222
S'LOWEST_DEGREE'
p238
ssS'joint_cache_rsn_placement'
p239
g11
(tRp240
S'network_cache'
p241
F0.94999999999999996
sS'network_rsn'
p242
F1.8999999999999999
sg222
S'CACHE_ALL_RSN_ALL'
p243
sS'rsn_cache_ratio'
p244
F2
ssS'warmup_strategy'
p245
g11
(tRp246
g222
S'NDN'
p247
ssS'topology'
p248
g11
(tRp249
S'ext_delay'
p250
I5
sS'source_ratio'
p251
F0.10000000000000001
sg222
S'ROCKET_FUEL'
p252
sS'asn'
p253
I3257
ssg11
(tRp254
S'LATENCY'
p255
g11
(tRp256
S'MEAN'
p257
F71.880161111111107
ssS'CACHE_HIT_RATIO'
p258
g11
(tRp259
S'MEAN_OFF_PATH'
p260
F0.016463888888888889
sS'PER_NODE_SERVER_HIT_RATIO'
p261
g11
(tRp262
S'src_1'
p263
F0.74582499999999996
ssg257
F0.25417499999999998
sS'PER_NODE_CACHE_HIT_RATIO'
p264
g11
(tRp265
I0
F0.00034166666666666666
sI1
F0.0075361111111111115
sI2
F0.00068055555555555556
sI3
F0.000825
sI4
F0.0021861111111111113
sI5
F0.018572222222222223
sI6
F0.0021111111111111109
sI7
F0.00072499999999999995
sI8
F0.00074722222222222225
sI9
F0.00053333333333333336
sI10
F0.0018722222222222222
sI11
F0.0028555555555555556
sI12
F0.0014638888888888889
sI13
F0.00074722222222222225
sI14
F0.0005888888888888889
sI15
F0.0019277777777777778
sI16
F0.00082222222222222223
sI17
F0.001488888888888889
sI18
F0.0038416666666666668
sI19
F0.0016888888888888889
sI20
F0.00077777777777777773
sI21
F0.0012194444444444444
sI22
F0.00071388888888888891
sI23
F0.0007361111111111111
sI24
F0.010075000000000001
sI25
F0.0027111111111111112
sI26
F0.00072222222222222219
sI27
F0.00068333333333333332
sI28
F0.001
sI29
F0.00059444444444444443
sI30
F0.00078611111111111113
sI31
F0.0050305555555555555
sI32
F0.00088888888888888893
sI33
F0.0057000000000000002
sI34
F0.00055000000000000003
sI35
F0.00049444444444444449
sI36
F0.00074722222222222225
sI37
F0.00075277777777777778
sI38
F0.00096111111111111115
sI39
F0.0070583333333333331
sI40
F0.00071388888888888891
sI41
F0.012786111111111111
sI42
F0.0004861111111111111
sI43
F0.0015583333333333332
sI44
F0.00053888888888888888
sI45
F0.00083333333333333339
sI46
F0.00080000000000000004
sI47
F0.00080555555555555556
sI48
F0.00076944444444444445
sI49
F0.00047222222222222224
sI50
F0.0014499999999999999
sI51
F0.0022527777777777776
sI52
F0.0020861111111111111
sI53
F0.0013472222222222223
sI54
F0.00073888888888888886
sI55
F0.00085277777777777782
sI56
F0.00081111111111111108
sI57
F0.00068611111111111108
sI58
F0.0013194444444444445
sI59
F0.00067500000000000004
sI60
F0.00069999999999999999
sI61
F0.001086111111111111
sI62
F0.00070833333333333338
sI63
F0.0012694444444444444
sI64
F0.0020777777777777778
sI65
F0.001738888888888889
sI66
F0.0013222222222222222
sI67
F0.0012944444444444444
sI68
F0.00070277777777777775
sI69
F0.00068333333333333332
sI70
F0.0008611111111111111
sI71
F0.00099166666666666674
sI72
F0.0023916666666666665
sI73
F0.00050555555555555553
sI74
F0.015299999999999999
sI75
F0.0019333333333333333
sI76
F0.00079444444444444441
sI77
F0.0012472222222222223
sI78
F0.00077777777777777773
sI79
F0.00074444444444444449
sI80
F0.005186111111111111
sI81
F0.00091944444444444441
sI82
F0.0005888888888888889
sI83
F0.00070277777777777775
sI84
F0.0027000000000000001
sI85
F0.00076111111111111106
sI86
F0.00083055555555555552
sI87
F0.0008694444444444445
sI88
F0.00087777777777777778
sI89
F0.00052499999999999997
sI90
F0.00072222222222222219
sI91
F0.00071944444444444443
sI92
F0.00076388888888888893
sI93
F0.0041138888888888892
sI94
F0.0006111111111111111
sI95
F0.00040555555555555554
sI96
F0.0007583333333333333
sI97
F0.00054166666666666664
sI98
F0.0018277777777777778
sI99
F0.00074444444444444449
sI100
F0.00087500000000000002
sI101
F0.0016305555555555554
sI102
F0.0011222222222222222
sI103
F0.00089722222222222221
sI104
F0.0011916666666666666
sI105
F0.00098333333333333324
sI106
F0.0016388888888888889
sI107
F0.0005888888888888889
sI108
F0.00053333333333333336
sI109
F0.0020527777777777779
sI110
F0.00082777777777777776
sI111
F0.0015027777777777778
sI112
F0.00068333333333333332
sI113
F0.0037638888888888891
sI114
F0.00068333333333333332
sI115
F0.0015583333333333332
sI116
F0.0006111111111111111
sI117
F0.00091111111111111113
sI118
F0.0013388888888888888
sI119
F0.00056388888888888884
sI120
F0.00036388888888888891
sI121
F0.00056944444444444447
sI122
F0.00076388888888888893
sI123
F0.00081388888888888884
sI124
F0.00078611111111111113
sI125
F0.00069444444444444447
sI126
F0.0025027777777777778
sI127
F0.00066388888888888888
sI128
F0.0013305555555555555
sI129
F0.00076111111111111106
sI130
F0.00071388888888888891
sI131
F0.00048333333333333334
sI132
F0.0012027777777777779
sI133
F0.0025222222222222221
sI134
F0.00070555555555555551
sI135
F0.00078333333333333336
sI136
F0.00056111111111111108
sI137
F0.00075555555555555554
sI138
F0.0017111111111111112
sI139
F0.0064666666666666666
sI140
F0.00063888888888888893
sI141
F0.00062777777777777777
sI142
F0.00069166666666666671
sI143
F0.0012527777777777778
sI144
F0.0015722222222222223
sI145
F0.0014138888888888888
sI146
F0.00069722222222222223
sI147
F0.00080833333333333332
sI148
F0.00073333333333333334
sI149
F0.0005888888888888889
sI150
F0.00074722222222222225
sI151
F0.00071666666666666667
sI152
F0.00062777777777777777
sI153
F0.0010083333333333333
sI154
F0.00060555555555555558
sI155
F0.00070555555555555551
sI156
F0.00059444444444444443
sI157
F0.00060277777777777782
sI158
F0.00069722222222222223
sI159
F0.00045833333333333332
sI160
F0.0012305555555555555
ssS'MEAN_ON_PATH'
p266
F0.2377111111111111
ssS'OVERHEAD'
p267
g11
(tRp268
g257
F5.7369194444444442
sstp269
a(g11
(tRp270
S'workload'
p271
g11
(tRp272
S'n_contents'
p273
I10000
sS'name'
p274
S'STATIONARY'
p275
sS'n_warmup'
p276
I360000
sS'rate'
p277
I1000
sS'n_measured'
p278
I360000
sS'alpha'
p279
F0.80000000000000004
ssS'cache_policy'
p280
g11
(tRp281
g274
S'LRU'
p282
ssS'desc'
p283
S'RSN size sensitivity -> RSN/cache ratio: 4.0'
p284
sS'strategy'
p285
g11
(tRp286
S'p'
F0.17999999999999999
sg274
S'LIRA_DFIB'
p287
ssS'content_placement'
p288
g11
(tRp289
g274
S'LOWEST_DEGREE'
p290
ssS'joint_cache_rsn_placement'
p291
g11
(tRp292
S'network_cache'
p293
F0.94999999999999996
sS'network_rsn'
p294
F3.7999999999999998
sg274
S'CACHE_ALL_RSN_ALL'
p295
sS'rsn_cache_ratio'
p296
F4
ssS'warmup_strategy'
p297
g11
(tRp298
g274
S'NDN'
p299
ssS'topology'
p300
g11
(tRp301
S'ext_delay'
p302
I5
sS'source_ratio'
p303
F0.10000000000000001
sg274
S'ROCKET_FUEL'
p304
sS'asn'
p305
I3257
ssg11
(tRp306
S'LATENCY'
p307
g11
(tRp308
S'MEAN'
p309
F71.363213888888893
ssS'CACHE_HIT_RATIO'
p310
g11
(tRp311
S'MEAN_OFF_PATH'
p312
F0.035602382195753381
sS'PER_NODE_SERVER_HIT_RATIO'
p313
g11
(tRp314
S'src_1'
p315
F0.73354462728191905
ssg309
F0.2664553727180809
sS'PER_NODE_CACHE_HIT_RATIO'
p316
g11
(tRp317
I0
F0.00080832435195164493
sI1
F0.0072665859268230349
sI2
F0.0004916612037644026
sI3
F0.00089443450628326352
sI4
F0.0017055366051488318
sI5
F0.01708314352062755
sI6
F0.0026916367595915601
sI7
F0.00082221308652126088
sI8
F0.0007972133642959523
sI9
F0.00068332574082510193
sI10
F0.0019694225619715337
sI11
F0.0025249719447561695
sI12
F0.0012083199075565826
sI13
F0.00070276996922256419
sI14
F0.00053054966055932713
sI15
F0.0027694136731814091
sI16
F0.00058888234575171382
sI17
F0.0016972033644070622
sI18
F0.0049416117598693344
sI19
F0.0020888656792702304
sI20
F0.00049721669759224903
sI21
F0.0010305441050654993
sI22
F0.00083332407417695362
sI23
F0.00084443506183264625
sI24
F0.011808202131087433
sI25
F0.0033082965744825059
sI26
F0.0010749880556882702
sI27
F0.00074721391984533504
sI28
F0.0014444283952400529
sI29
F0.00045555049388340129
sI30
F0.00083610182109087672
sI31
F0.0055360495994488954
sI32
F0.00092221197542249531
sI33
F0.0067249252786080157
sI34
F0.00082221308652126088
sI35
F0.00077499138898456683
sI36
F0.00080554660503772183
sI37
F0.00087776802479972446
sI38
F0.00059166009266563703
sI39
F0.0084915723158631579
sI40
F0.00056666037044032845
sI41
F0.010433217408695459
sI42
F0.00066943700625548609
sI43
F0.0013860957100476662
sI44
F0.00082221308652126088
sI45
F0.00068610348773902514
sI46
F0.00068888123465294835
sI47
F0.00080554660503772183
sI48
F0.00075832490750102777
sI49
F0.00058054910500994429
sI50
F0.0010472105865490383
sI51
F0.0025138609571004767
sI52
F0.0022027533027410805
sI53
F0.0013555404939945112
sI54
F0.0004444395062277086
sI55
F0.00057777135809602119
sI56
F0.00076943589515672051
sI57
F0.00095276719147565031
sI58
F0.0011833201853312741
sI59
F0.00089443450628326352
sI60
F0.00074999166675925825
sI61
F0.00086387929023010851
sI62
F0.00092776746925034162
sI63
F0.0010166553704958833
sI64
F0.0020999766669259228
sI65
F0.0013666514816502039
sI66
F0.0012083199075565826
sI67
F0.0014333174075843601
sI68
F0.00078610237664025957
sI69
F0.00043055077165809271
sI70
F0.0006138820679770225
sI71
F0.0007055477161364874
sI72
F0.002780524660837102
sI73
F0.0009194342285085721
sI74
F0.015891490094554504
sI75
F0.0019222008644348397
sI76
F0.00065554827168587014
sI77
F0.0014583171298096689
sI78
F0.00091387873468072578
sI79
F0.00066943700625548609
sI80
F0.0068665903712180976
sI81
F0.00084165731491872315
sI82
F0.00059443783957956024
sI83
F0.00087221253097187804
sI84
F0.0038221797535582937
sI85
F0.00055554938278463571
sI86
F0.00077499138898456683
sI87
F0.00078054688281241314
sI88
F0.00086665703714403173
sI89
F0.00081110209886556814
sI90
F0.00078054688281241314
sI91
F0.00066388151242763966
sI92
F0.00086665703714403173
sI93
F0.0037055143831735203
sI94
F0.0005527716358707125
sI95
F0.00084443506183264625
sI96
F0.00071388095687825693
sI97
F0.00092776746925034162
sI98
F0.0014749836112932079
sI99
F0.00061665981489094561
sI100
F0.00066388151242763966
sI101
F0.0023666403706625481
sI102
F0.0012249863890401217
sI103
F0.00086387929023010851
sI104
F0.0014666503705514384
sI105
F0.00090554549393895626
sI106
F0.001680536882923523
sI107
F0.00072221419762002646
sI108
F0.00083054632726303041
sI109
F0.0018166464817057587
sI110
F0.00076110265441495099
sI111
F0.0017777580249108344
sI112
F0.00043332851857201586
sI113
F0.0030999655559382673
sI114
F0.00057499361118209798
sI115
F0.0015194275619159787
sI116
F0.0006416595371162543
sI117
F0.00098332240752880521
sI118
F0.001447206142153976
sI119
F0.00082221308652126088
sI120
F0.00074721391984533504
sI121
F0.00080276885812379862
sI122
F0.00069721447539471788
sI123
F0.00096943367295918936
sI124
F0.0004916612037644026
sI125
F0.00087221253097187804
sI126
F0.0030110776546927258
sI127
F0.00069165898156687145
sI128
F0.0013305407717692026
sI129
F0.0007666581482427973
sI130
F0.00089999000011110983
sI131
F0.00067221475316940919
sI132
F0.001569427006366596
sI133
F0.002894412284307952
sI134
F0.00062499305563271524
sI135
F0.00087221253097187804
sI136
F0.00048332796302263308
sI137
F0.00087499027788580125
sI138
F0.0020360884879056899
sI139
F0.0067582582415750938
sI140
F0.00065554827168587014
sI141
F0.00082499083343518409
sI142
F0.00069443672848079467
sI143
F0.0011333207408806569
sI144
F0.001569427006366596
sI145
F0.0014277619137565139
sI146
F0.00080832435195164493
sI147
F0.0007666581482427973
sI148
F0.00072221419762002646
sI149
F0.0008277685803491072
sI150
F0.00056110487661248213
sI151
F0.00079999111120987541
sI152
F0.0010360995988933457
sI153
F0.00087221253097187804
sI154
F0.00077499138898456683
sI155
F0.0004583282407973245
sI156
F0.00085554604948833899
sI157
F0.00064721503094410061
sI158
F0.00096387817913134294
sI159
F0.00068888123465294835
sI160
F0.0013194297841135098
ssS'MEAN_ON_PATH'
p318
F0.23085299052232752
ssS'OVERHEAD'
p319
g11
(tRp320
g309
F5.7133333333333329
sstp321
a(g11
(tRp322
S'workload'
p323
g11
(tRp324
S'n_contents'
p325
I10000
sS'name'
p326
S'STATIONARY'
p327
sS'n_warmup'
p328
I360000
sS'rate'
p329
I1000
sS'n_measured'
p330
I360000
sS'alpha'
p331
F0.80000000000000004
ssS'cache_policy'
p332
g11
(tRp333
g326
S'LRU'
p334
ssS'desc'
p335
S'RSN size sensitivity -> RSN/cache ratio: 2.0'
p336
sS'strategy'
p337
g11
(tRp338
g326
S'NRR'
p339
ssS'content_placement'
p340
g11
(tRp341
g326
S'LOWEST_DEGREE'
p342
ssS'joint_cache_rsn_placement'
p343
g11
(tRp344
S'network_cache'
p345
F0.94999999999999996
sS'network_rsn'
p346
F1.8999999999999999
sg326
S'CACHE_ALL_RSN_ALL'
p347
sS'rsn_cache_ratio'
p348
F2
ssS'warmup_strategy'
p349
g11
(tRp350
g326
S'NDN'
p351
ssS'topology'
p352
g11
(tRp353
S'ext_delay'
p354
I5
sS'source_ratio'
p355
F0.10000000000000001
sg326
S'ROCKET_FUEL'
p356
sS'asn'
p357
I3257
ssg11
(tRp358
S'LATENCY'
p359
g11
(tRp360
S'MEAN'
p361
F46.679672222222223
ssS'CACHE_HIT_RATIO'
p362
g11
(tRp363
S'MEAN_OFF_PATH'
p364
F0.50132777777777782
sS'PER_NODE_SERVER_HIT_RATIO'
p365
g11
(tRp366
S'src_1'
p367
F0.37108888888888891
ssg361
F0.62891111111111109
sS'PER_NODE_CACHE_HIT_RATIO'
p368
g11
(tRp369
I0
F0.010677777777777777
sI1
F0.015972222222222221
sI2
F0.0075888888888888889
sI3
F0.008288888888888889
sI4
F0.0032777777777777779
sI5
F0.0011805555555555556
sI6
F0.0054805555555555554
sI7
F0.0032416666666666666
sI8
F0.0027722222222222224
sI9
F0.0046888888888888891
sI10
F0.0054194444444444446
sI11
F0.0039722222222222225
sI12
F0.005402777777777778
sI13
F0.0030000000000000001
sI14
F0.0023583333333333334
sI15
F0.0025194444444444444
sI16
F0.007772222222222222
sI17
F0.0052722222222222224
sI18
F0.0050305555555555555
sI19
F0.0027388888888888888
sI20
F0.0025861111111111111
sI21
F0.0034166666666666668
sI22
F0.0025249999999999999
sI23
F0.0019361111111111111
sI24
F0.0032111111111111112
sI25
F0.0069027777777777776
sI26
F0.0021444444444444445
sI27
F0.0023666666666666667
sI28
F0.0023333333333333335
sI29
F0.0081333333333333327
sI30
F0.0045277777777777781
sI31
F0.0012666666666666666
sI32
F0.0077944444444444441
sI33
F0.0041722222222222221
sI34
F0.006966666666666667
sI35
F0.003236111111111111
sI36
F0.0063388888888888887
sI37
F0.0095083333333333339
sI38
F0.0041250000000000002
sI39
F0.0021305555555555557
sI40
F0.0040277777777777777
sI41
F8.6111111111111105e-05
sI42
F0.0036527777777777778
sI43
F0.0033722222222222222
sI44
F0.0015222222222222221
sI45
F0.0047333333333333333
sI46
F0.0038694444444444445
sI47
F0.0033916666666666665
sI48
F0.003638888888888889
sI49
F0.0043555555555555552
sI50
F0.0058277777777777781
sI51
F0.0046750000000000003
sI52
F0.0083055555555555556
sI53
F0.0035000000000000001
sI54
F0.0021583333333333333
sI55
F0.0028500000000000001
sI56
F0.0020833333333333333
sI57
F0.0015194444444444444
sI58
F0.002063888888888889
sI59
F0.0040249999999999999
sI60
F0.0027583333333333331
sI61
F0.0065833333333333334
sI62
F0.0034972222222222223
sI63
F0.0047694444444444442
sI64
F0.0029583333333333332
sI65
F0.0050000000000000001
sI66
F0.0038694444444444445
sI67
F0.0045666666666666668
sI68
F0.0044861111111111109
sI69
F0.0078250000000000004
sI70
F0.003213888888888889
sI71
F0.0063666666666666663
sI72
F0.0030111111111111111
sI73
F0.0030805555555555556
sI74
F0.0022277777777777777
sI75
F0.0045805555555555556
sI76
F0.0048916666666666666
sI77
F0.0045444444444444447
sI78
F0.0031055555555555554
sI79
F0.0036416666666666667
sI80
F0.0028666666666666667
sI81
F0.0020666666666666667
sI82
F0.0027611111111111113
sI83
F0.0039916666666666668
sI84
F0.0058361111111111114
sI85
F0.00315
sI86
F0.0028416666666666668
sI87
F0.0042222222222222218
sI88
F0.003966666666666667
sI89
F0.0034555555555555555
sI90
F0.0031111111111111109
sI91
F0.0031833333333333332
sI92
F0.0029472222222222222
sI93
F0.0029527777777777777
sI94
F0.0031972222222222224
sI95
F0.0028666666666666667
sI96
F0.0044888888888888886
sI97
F0.003977777777777778
sI98
F0.0031638888888888888
sI99
F0.0041749999999999999
sI100
F0.0029083333333333335
sI101
F0.0045388888888888892
sI102
F0.0013555555555555556
sI103
F0.0012416666666666667
sI104
F0.0014333333333333333
sI105
F0.0023027777777777777
sI106
F0.002397222222222222
sI107
F0.0019166666666666666
sI108
F0.0038944444444444443
sI109
F0.0039194444444444441
sI110
F0.0018027777777777777
sI111
F0.0025888888888888888
sI112
F0.0015111111111111111
sI113
F0.0058527777777777779
sI114
F0.0042472222222222225
sI115
F0.0033500000000000001
sI116
F0.0036749999999999999
sI117
F0.0041083333333333336
sI118
F0.0023055555555555555
sI119
F0.0025527777777777779
sI120
F0.0035500000000000002
sI121
F0.0046138888888888887
sI122
F0.0033638888888888889
sI123
F0.0033055555555555555
sI124
F0.0030277777777777777
sI125
F0.0030222222222222222
sI126
F0.0014722222222222222
sI127
F0.0032694444444444446
sI128
F0.0079305555555555553
sI129
F0.0036861111111111109
sI130
F0.0036305555555555557
sI131
F0.0033444444444444446
sI132
F0.0040694444444444441
sI133
F0.0044000000000000003
sI134
F0.013361111111111112
sI135
F0.0030722222222222223
sI136
F0.0056472222222222219
sI137
F0.0050972222222222226
sI138
F0.0053611111111111108
sI139
F0.0020277777777777777
sI140
F0.0047666666666666664
sI141
F0.0039694444444444447
sI142
F0.0032305555555555555
sI143
F0.0056888888888888892
sI144
F0.0034972222222222223
sI145
F0.0050666666666666664
sI146
F0.00175
sI147
F0.0028666666666666667
sI148
F0.0033777777777777777
sI149
F0.0019194444444444445
sI150
F0.0022916666666666667
sI151
F0.0019055555555555555
sI152
F0.0035555555555555557
sI153
F0.0036861111111111109
sI154
F0.0027083333333333334
sI155
F0.0033500000000000001
sI156
F0.002563888888888889
sI157
F0.0037194444444444445
sI158
F0.0018111111111111112
sI159
F0.0031861111111111109
sI160
F0.0027083333333333334
ssS'MEAN_ON_PATH'
p370
F0.12758333333333327
ssS'OVERHEAD'
p371
g11
(tRp372
g361
F4.586525
sstp373
a(g11
(tRp374
S'workload'
p375
g11
(tRp376
S'n_contents'
p377
I10000
sS'name'
p378
S'STATIONARY'
p379
sS'n_warmup'
p380
I360000
sS'rate'
p381
I1000
sS'n_measured'
p382
I360000
sS'alpha'
p383
F0.80000000000000004
ssS'cache_policy'
p384
g11
(tRp385
g378
S'LRU'
p386
ssS'desc'
p387
S'RSN size sensitivity -> RSN/cache ratio: 4.0'
p388
sS'strategy'
p389
g11
(tRp390
g378
S'NRR'
p391
ssS'content_placement'
p392
g11
(tRp393
g378
S'LOWEST_DEGREE'
p394
ssS'joint_cache_rsn_placement'
p395
g11
(tRp396
S'network_cache'
p397
F0.94999999999999996
sS'network_rsn'
p398
F3.7999999999999998
sg378
S'CACHE_ALL_RSN_ALL'
p399
sS'rsn_cache_ratio'
p400
F4
ssS'warmup_strategy'
p401
g11
(tRp402
g378
S'NDN'
p403
ssS'topology'
p404
g11
(tRp405
S'ext_delay'
p406
I5
sS'source_ratio'
p407
F0.10000000000000001
sg378
S'ROCKET_FUEL'
p408
sS'asn'
p409
I3257
ssg11
(tRp410
S'LATENCY'
p411
g11
(tRp412
S'MEAN'
p413
F46.732061111111108
ssS'CACHE_HIT_RATIO'
p414
g11
(tRp415
S'MEAN_OFF_PATH'
p416
F0.50170833333333331
sS'PER_NODE_SERVER_HIT_RATIO'
p417
g11
(tRp418
S'src_1'
p419
F0.37178333333333335
ssg413
F0.62821666666666665
sS'PER_NODE_CACHE_HIT_RATIO'
p420
g11
(tRp421
I0
F0.010622222222222222
sI1
F0.015555555555555555
sI2
F0.007772222222222222
sI3
F0.0079277777777777784
sI4
F0.0032777777777777779
sI5
F0.0013277777777777778
sI6
F0.0052722222222222224
sI7
F0.0032694444444444446
sI8
F0.0027694444444444446
sI9
F0.0045472222222222225
sI10
F0.0054277777777777779
sI11
F0.0036305555555555557
sI12
F0.0053611111111111108
sI13
F0.0029166666666666668
sI14
F0.0023555555555555556
sI15
F0.0026638888888888888
sI16
F0.0073833333333333338
sI17
F0.0055750000000000001
sI18
F0.0048444444444444446
sI19
F0.0028361111111111113
sI20
F0.0025888888888888888
sI21
F0.0033472222222222224
sI22
F0.0024388888888888889
sI23
F0.0019638888888888887
sI24
F0.0031861111111111109
sI25
F0.0070972222222222226
sI26
F0.0022833333333333334
sI27
F0.002322222222222222
sI28
F0.0022277777777777777
sI29
F0.0084444444444444437
sI30
F0.0044000000000000003
sI31
F0.0012944444444444444
sI32
F0.007347222222222222
sI33
F0.0041611111111111111
sI34
F0.0071611111111111111
sI35
F0.0033833333333333332
sI36
F0.0062666666666666669
sI37
F0.0091944444444444443
sI38
F0.004036111111111111
sI39
F0.0020583333333333335
sI40
F0.0042194444444444441
sI41
F0.00011944444444444444
sI42
F0.0036416666666666667
sI43
F0.0031916666666666669
sI44
F0.0014638888888888889
sI45
F0.0048416666666666669
sI46
F0.0037666666666666669
sI47
F0.0031472222222222223
sI48
F0.0037611111111111109
sI49
F0.0043638888888888885
sI50
F0.0061222222222222225
sI51
F0.0046361111111111108
sI52
F0.0085666666666666669
sI53
F0.0032750000000000001
sI54
F0.0022305555555555555
sI55
F0.0026416666666666667
sI56
F0.0019388888888888889
sI57
F0.0013805555555555557
sI58
F0.0020972222222222221
sI59
F0.0040083333333333334
sI60
F0.0028194444444444443
sI61
F0.006358333333333333
sI62
F0.0032944444444444445
sI63
F0.0047666666666666664
sI64
F0.0031638888888888888
sI65
F0.0051111111111111114
sI66
F0.0039305555555555552
sI67
F0.0049722222222222225
sI68
F0.0047222222222222223
sI69
F0.0080000000000000002
sI70
F0.003311111111111111
sI71
F0.0063694444444444441
sI72
F0.0031666666666666666
sI73
F0.0031250000000000002
sI74
F0.0022333333333333333
sI75
F0.0045416666666666669
sI76
F0.0049305555555555552
sI77
F0.0044138888888888891
sI78
F0.0032638888888888891
sI79
F0.0036638888888888888
sI80
F0.0028888888888888888
sI81
F0.0019055555555555555
sI82
F0.0030694444444444445
sI83
F0.0040000000000000001
sI84
F0.005816666666666667
sI85
F0.0030055555555555556
sI86
F0.0029194444444444446
sI87
F0.0039361111111111107
sI88
F0.003966666666666667
sI89
F0.0035083333333333334
sI90
F0.0031666666666666666
sI91
F0.0031611111111111111
sI92
F0.0030083333333333333
sI93
F0.0030777777777777778
sI94
F0.003036111111111111
sI95
F0.0028694444444444444
sI96
F0.0045555555555555557
sI97
F0.0039361111111111107
sI98
F0.0033472222222222224
sI99
F0.0040749999999999996
sI100
F0.0028888888888888888
sI101
F0.0045555555555555557
sI102
F0.0012305555555555555
sI103
F0.0012805555555555556
sI104
F0.0014361111111111111
sI105
F0.0021083333333333332
sI106
F0.0023694444444444444
sI107
F0.0021527777777777778
sI108
F0.0039166666666666664
sI109
F0.0041666666666666666
sI110
F0.0017166666666666667
sI111
F0.002413888888888889
sI112
F0.0015805555555555555
sI113
F0.0057250000000000001
sI114
F0.0045694444444444446
sI115
F0.0033249999999999998
sI116
F0.0036972222222222224
sI117
F0.0042861111111111112
sI118
F0.0024277777777777778
sI119
F0.0024750000000000002
sI120
F0.0036333333333333335
sI121
F0.0048361111111111113
sI122
F0.003563888888888889
sI123
F0.0032194444444444445
sI124
F0.0030277777777777777
sI125
F0.0028166666666666665
sI126
F0.0013749999999999999
sI127
F0.0034166666666666668
sI128
F0.0077361111111111111
sI129
F0.0035249999999999999
sI130
F0.0037888888888888889
sI131
F0.0031083333333333332
sI132
F0.004036111111111111
sI133
F0.0043361111111111109
sI134
F0.013197222222222223
sI135
F0.003075
sI136
F0.0056805555555555559
sI137
F0.0051361111111111113
sI138
F0.0056583333333333329
sI139
F0.0019638888888888887
sI140
F0.0047277777777777778
sI141
F0.0040499999999999998
sI142
F0.0032222222222222222
sI143
F0.0057055555555555557
sI144
F0.0034416666666666667
sI145
F0.0049222222222222219
sI146
F0.0016527777777777778
sI147
F0.0029277777777777778
sI148
F0.0034527777777777777
sI149
F0.0018305555555555555
sI150
F0.002472222222222222
sI151
F0.0017111111111111112
sI152
F0.0033611111111111112
sI153
F0.0038027777777777778
sI154
F0.0027416666666666666
sI155
F0.0033833333333333332
sI156
F0.0027027777777777779
sI157
F0.0036416666666666667
sI158
F0.0019027777777777778
sI159
F0.0030611111111111112
sI160
F0.0026888888888888891
ssS'MEAN_ON_PATH'
p422
F0.12650833333333333
ssS'OVERHEAD'
p423
g11
(tRp424
g413
F4.5949361111111111
sstp425
a(g11
(tRp426
S'workload'
p427
g11
(tRp428
S'n_contents'
p429
I10000
sS'name'
p430
S'STATIONARY'
p431
sS'n_warmup'
p432
I360000
sS'rate'
p433
I1000
sS'n_measured'
p434
I360000
sS'alpha'
p435
F0.80000000000000004
ssS'cache_policy'
p436
g11
(tRp437
g430
S'LRU'
p438
ssS'desc'
p439
S'RSN size sensitivity -> RSN/cache ratio: 8.0'
p440
sS'strategy'
p441
g11
(tRp442
S'p'
F0.17999999999999999
sg430
S'NDN'
p443
ssS'content_placement'
p444
g11
(tRp445
g430
S'LOWEST_DEGREE'
p446
ssS'joint_cache_rsn_placement'
p447
g11
(tRp448
S'network_cache'
p449
F0.94999999999999996
sS'network_rsn'
p450
F7.5999999999999996
sg430
S'CACHE_ALL_RSN_ALL'
p451
sS'rsn_cache_ratio'
p452
F8
ssS'warmup_strategy'
p453
g11
(tRp454
g430
g443
ssS'topology'
p455
g11
(tRp456
S'ext_delay'
p457
I5
sS'source_ratio'
p458
F0.10000000000000001
sg430
S'ROCKET_FUEL'
p459
sS'asn'
p460
I3257
ssg11
(tRp461
S'LATENCY'
p462
g11
(tRp463
S'MEAN'
p464
F73.147611111111118
ssS'CACHE_HIT_RATIO'
p465
g11
(tRp466
S'MEAN_OFF_PATH'
p467
F0
sS'PER_NODE_SERVER_HIT_RATIO'
p468
g11
(tRp469
S'src_1'
p470
F0.75540833333333335
ssg464
F0.24459166666666668
sS'PER_NODE_CACHE_HIT_RATIO'
p471
g11
(tRp472
I0
F0.00081111111111111108
sI1
F0.0051527777777777778
sI2
F0.0008833333333333333
sI3
F0.00089722222222222221
sI4
F0.0014527777777777779
sI5
F0.019719444444444446
sI6
F0.0016055555555555556
sI7
F0.0008611111111111111
sI8
F0.00091944444444444441
sI9
F0.00091388888888888889
sI10
F0.0013388888888888888
sI11
F0.0018666666666666666
sI12
F0.00095833333333333328
sI13
F0.00077499999999999997
sI14
F0.00083611111111111115
sI15
F0.0013805555555555557
sI16
F0.00098611111111111122
sI17
F0.0013666666666666666
sI18
F0.0027222222222222222
sI19
F0.0011972222222222221
sI20
F0.00080833333333333332
sI21
F0.001161111111111111
sI22
F0.00091111111111111113
sI23
F0.0008694444444444445
sI24
F0.0088055555555555561
sI25
F0.0020583333333333335
sI26
F0.00088888888888888893
sI27
F0.00091666666666666665
sI28
F0.0010583333333333334
sI29
F0.00091666666666666665
sI30
F0.00090555555555555561
sI31
F0.0041944444444444442
sI32
F0.0008833333333333333
sI33
F0.0047861111111111108
sI34
F0.00095833333333333328
sI35
F0.00084999999999999995
sI36
F0.00078888888888888889
sI37
F0.00091111111111111113
sI38
F0.00094166666666666672
sI39
F0.0058583333333333334
sI40
F0.00089444444444444445
sI41
F0.015572222222222222
sI42
F0.00088611111111111106
sI43
F0.00093055555555555556
sI44
F0.00088611111111111106
sI45
F0.00096944444444444443
sI46
F0.00093333333333333332
sI47
F0.00090833333333333337
sI48
F0.00083888888888888891
sI49
F0.00090555555555555561
sI50
F0.0010361111111111111
sI51
F0.0017222222222222222
sI52
F0.0012999999999999999
sI53
F0.0009277777777777778
sI54
F0.0010611111111111112
sI55
F0.00094444444444444448
sI56
F0.00081944444444444447
sI57
F0.00095555555555555552
sI58
F0.00094722222222222224
sI59
F0.00073055555555555558
sI60
F0.00084722222222222219
sI61
F0.0010416666666666667
sI62
F0.00089999999999999998
sI63
F0.0010361111111111111
sI64
F0.0016388888888888889
sI65
F0.0014305555555555556
sI66
F0.0010305555555555556
sI67
F0.00098333333333333324
sI68
F0.00093333333333333332
sI69
F0.00095555555555555552
sI70
F0.00097499999999999996
sI71
F0.0008694444444444445
sI72
F0.0018194444444444445
sI73
F0.0010722222222222222
sI74
F0.013913888888888889
sI75
F0.0011638888888888888
sI76
F0.00090555555555555561
sI77
F0.001161111111111111
sI78
F0.00084722222222222219
sI79
F0.0008611111111111111
sI80
F0.004391666666666667
sI81
F0.00094722222222222224
sI82
F0.00086666666666666663
sI83
F0.00080833333333333332
sI84
F0.0019083333333333333
sI85
F0.00092222222222222217
sI86
F0.00084999999999999995
sI87
F0.00095
sI88
F0.00083055555555555552
sI89
F0.00087777777777777778
sI90
F0.0008694444444444445
sI91
F0.0009944444444444445
sI92
F0.00085277777777777782
sI93
F0.0025666666666666667
sI94
F0.00088055555555555554
sI95
F0.00086388888888888887
sI96
F0.0008833333333333333
sI97
F0.00097499999999999996
sI98
F0.0012277777777777777
sI99
F0.00085277777777777782
sI100
F0.00087777777777777778
sI101
F0.0011138888888888889
sI102
F0.00097222222222222219
sI103
F0.00078333333333333336
sI104
F0.0013083333333333334
sI105
F0.00096666666666666667
sI106
F0.0012888888888888889
sI107
F0.00088611111111111106
sI108
F0.00095
sI109
F0.0016388888888888889
sI110
F0.00086666666666666663
sI111
F0.00085277777777777782
sI112
F0.0008694444444444445
sI113
F0.0019166666666666666
sI114
F0.00084722222222222219
sI115
F0.0013083333333333334
sI116
F0.00084999999999999995
sI117
F0.00087777777777777778
sI118
F0.0011388888888888889
sI119
F0.00095
sI120
F0.00085555555555555558
sI121
F0.00091111111111111113
sI122
F0.00084444444444444443
sI123
F0.0009944444444444445
sI124
F0.00098333333333333324
sI125
F0.0008833333333333333
sI126
F0.0018916666666666667
sI127
F0.00088888888888888893
sI128
F0.0011722222222222223
sI129
F0.0010222222222222223
sI130
F0.00087500000000000002
sI131
F0.00074444444444444449
sI132
F0.0010277777777777778
sI133
F0.0017916666666666667
sI134
F0.00087500000000000002
sI135
F0.0009277777777777778
sI136
F0.00078611111111111113
sI137
F0.00081111111111111108
sI138
F0.0014361111111111111
sI139
F0.0045888888888888889
sI140
F0.0010499999999999999
sI141
F0.00085833333333333334
sI142
F0.00080833333333333332
sI143
F0.0010777777777777778
sI144
F0.0010388888888888889
sI145
F0.0012694444444444444
sI146
F0.00089999999999999998
sI147
F0.00081388888888888884
sI148
F0.00093888888888888885
sI149
F0.00096944444444444443
sI150
F0.00094444444444444448
sI151
F0.00083333333333333339
sI152
F0.00090833333333333337
sI153
F0.00081944444444444447
sI154
F0.00090555555555555561
sI155
F0.00094722222222222224
sI156
F0.00087222222222222226
sI157
F0.00094444444444444448
sI158
F0.00095
sI159
F0.00088888888888888893
sI160
F0.0012861111111111111
ssS'MEAN_ON_PATH'
p473
F0.24459166666666668
ssS'OVERHEAD'
p474
g11
(tRp475
g464
F11.453927777777778
sstp476
a(g11
(tRp477
S'workload'
p478
g11
(tRp479
S'n_contents'
p480
I10000
sS'name'
p481
S'STATIONARY'
p482
sS'n_warmup'
p483
I360000
sS'rate'
p484
I1000
sS'n_measured'
p485
I360000
sS'alpha'
p486
F0.80000000000000004
ssS'cache_policy'
p487
g11
(tRp488
g481
S'LRU'
p489
ssS'desc'
p490
S'RSN size sensitivity -> RSN/cache ratio: 8.0'
p491
sS'strategy'
p492
g11
(tRp493
S'p'
F0.17999999999999999
sg481
S'LIRA_BC'
p494
ssS'content_placement'
p495
g11
(tRp496
g481
S'LOWEST_DEGREE'
p497
ssS'joint_cache_rsn_placement'
p498
g11
(tRp499
S'network_cache'
p500
F0.94999999999999996
sS'network_rsn'
p501
F7.5999999999999996
sg481
S'CACHE_ALL_RSN_ALL'
p502
sS'rsn_cache_ratio'
p503
F8
ssS'warmup_strategy'
p504
g11
(tRp505
g481
S'NDN'
p506
ssS'topology'
p507
g11
(tRp508
S'ext_delay'
p509
I5
sS'source_ratio'
p510
F0.10000000000000001
sg481
S'ROCKET_FUEL'
p511
sS'asn'
p512
I3257
ssg11
(tRp513
S'LATENCY'
p514
g11
(tRp515
S'MEAN'
p516
F71.208466666666666
ssS'CACHE_HIT_RATIO'
p517
g11
(tRp518
S'MEAN_OFF_PATH'
p519
F0.076511111111111113
sS'PER_NODE_SERVER_HIT_RATIO'
p520
g11
(tRp521
S'src_1'
p522
F0.69825000000000004
ssg516
F0.30175000000000002
sS'PER_NODE_CACHE_HIT_RATIO'
p523
g11
(tRp524
I0
F0.00040555555555555554
sI1
F0.008911111111111111
sI2
F0.00073333333333333334
sI3
F0.00069166666666666671
sI4
F0.0023999999999999998
sI5
F0.014302777777777777
sI6
F0.0032805555555555557
sI7
F0.00074722222222222225
sI8
F0.00068333333333333332
sI9
F0.0007361111111111111
sI10
F0.0024916666666666668
sI11
F0.0032750000000000001
sI12
F0.0018666666666666666
sI13
F0.0010472222222222222
sI14
F0.00087222222222222226
sI15
F0.0028277777777777776
sI16
F0.00043055555555555555
sI17
F0.0023944444444444443
sI18
F0.0059944444444444446
sI19
F0.0022305555555555555
sI20
F0.00087500000000000002
sI21
F0.0015444444444444444
sI22
F0.0010694444444444445
sI23
F0.00078888888888888889
sI24
F0.013233333333333333
sI25
F0.0036277777777777779
sI26
F0.0010111111111111111
sI27
F0.0010250000000000001
sI28
F0.0013972222222222222
sI29
F0.00097222222222222219
sI30
F0.00058611111111111114
sI31
F0.0070583333333333331
sI32
F0.00083333333333333339
sI33
F0.0086666666666666663
sI34
F0.0010944444444444445
sI35
F0.00099166666666666674
sI36
F0.00069722222222222223
sI37
F0.00083611111111111115
sI38
F0.00080555555555555556
sI39
F0.01035
sI40
F0.00055555555555555556
sI41
F0.0082833333333333335
sI42
F0.00050555555555555553
sI43
F0.0014499999999999999
sI44
F0.00098611111111111122
sI45
F0.0016111111111111111
sI46
F0.00096944444444444443
sI47
F0.00093333333333333332
sI48
F0.00068333333333333332
sI49
F0.00080000000000000004
sI50
F0.0016361111111111112
sI51
F0.0029638888888888887
sI52
F0.0030166666666666666
sI53
F0.0019638888888888887
sI54
F0.00068888888888888884
sI55
F0.00064166666666666669
sI56
F0.0007361111111111111
sI57
F0.0006555555555555556
sI58
F0.001977777777777778
sI59
F0.00059722222222222219
sI60
F0.00085555555555555558
sI61
F0.0018333333333333333
sI62
F0.00096388888888888891
sI63
F0.0011305555555555557
sI64
F0.0019499999999999999
sI65
F0.0022138888888888889
sI66
F0.0016055555555555556
sI67
F0.0014166666666666668
sI68
F0.00088611111111111106
sI69
F0.0006555555555555556
sI70
F0.000825
sI71
F0.0010027777777777778
sI72
F0.0027222222222222222
sI73
F0.00089722222222222221
sI74
F0.016302777777777777
sI75
F0.0018833333333333334
sI76
F0.00069166666666666671
sI77
F0.0016805555555555556
sI78
F0.00071388888888888891
sI79
F0.00086388888888888887
sI80
F0.0074361111111111112
sI81
F0.001
sI82
F0.0010333333333333334
sI83
F0.00077222222222222221
sI84
F0.0051805555555555554
sI85
F0.00076388888888888893
sI86
F0.00089444444444444445
sI87
F0.00087777777777777778
sI88
F0.00059999999999999995
sI89
F0.00082222222222222223
sI90
F0.00084166666666666667
sI91
F0.00061388888888888886
sI92
F0.00039444444444444444
sI93
F0.005772222222222222
sI94
F0.00088055555555555554
sI95
F0.00075555555555555554
sI96
F0.00068611111111111108
sI97
F0.00065833333333333336
sI98
F0.0026277777777777779
sI99
F0.00076666666666666669
sI100
F0.0007583333333333333
sI101
F0.0021305555555555557
sI102
F0.0018472222222222223
sI103
F0.00085277777777777782
sI104
F0.0014638888888888889
sI105
F0.00099722222222222226
sI106
F0.0022888888888888889
sI107
F0.00075555555555555554
sI108
F0.00078333333333333336
sI109
F0.0028777777777777777
sI110
F0.00072222222222222219
sI111
F0.0019055555555555555
sI112
F0.00068611111111111108
sI113
F0.0040222222222222222
sI114
F0.00068611111111111108
sI115
F0.0018
sI116
F0.000825
sI117
F0.00087777777777777778
sI118
F0.002311111111111111
sI119
F0.00094166666666666672
sI120
F0.00062500000000000001
sI121
F0.00072499999999999995
sI122
F0.00084444444444444443
sI123
F0.0005888888888888889
sI124
F0.00078333333333333336
sI125
F0.00063611111111111117
sI126
F0.0035944444444444444
sI127
F0.00077499999999999997
sI128
F0.0019916666666666668
sI129
F0.00085277777777777782
sI130
F0.00097222222222222219
sI131
F0.00077499999999999997
sI132
F0.0017277777777777777
sI133
F0.0033166666666666665
sI134
F0.00075000000000000002
sI135
F0.00093611111111111108
sI136
F0.00076944444444444445
sI137
F0.00073333333333333334
sI138
F0.0024416666666666666
sI139
F0.0081027777777777782
sI140
F0.00067500000000000004
sI141
F0.00069999999999999999
sI142
F0.00084999999999999995
sI143
F0.0016027777777777778
sI144
F0.001736111111111111
sI145
F0.0018638888888888889
sI146
F0.00069166666666666671
sI147
F0.00096111111111111115
sI148
F0.0011027777777777778
sI149
F0.00089166666666666669
sI150
F0.00081944444444444447
sI151
F0.00083611111111111115
sI152
F0.00063888888888888893
sI153
F0.00081388888888888884
sI154
F0.00069999999999999999
sI155
F0.00071944444444444443
sI156
F0.0010527777777777777
sI157
F0.00088888888888888893
sI158
F0.00071388888888888891
sI159
F0.00069999999999999999
sI160
F0.0014027777777777777
ssS'MEAN_ON_PATH'
p525
F0.22523888888888891
ssS'OVERHEAD'
p526
g11
(tRp527
g516
F5.636338888888889
sstp528
a(g11
(tRp529
S'workload'
p530
g11
(tRp531
S'n_contents'
p532
I10000
sS'name'
p533
S'STATIONARY'
p534
sS'n_warmup'
p535
I360000
sS'rate'
p536
I1000
sS'n_measured'
p537
I360000
sS'alpha'
p538
F0.80000000000000004
ssS'cache_policy'
p539
g11
(tRp540
g533
S'LRU'
p541
ssS'desc'
p542
S'RSN size sensitivity -> RSN/cache ratio: 8.0'
p543
sS'strategy'
p544
g11
(tRp545
S'p'
F0.17999999999999999
sg533
S'LIRA_DFIB'
p546
ssS'content_placement'
p547
g11
(tRp548
g533
S'LOWEST_DEGREE'
p549
ssS'joint_cache_rsn_placement'
p550
g11
(tRp551
S'network_cache'
p552
F0.94999999999999996
sS'network_rsn'
p553
F7.5999999999999996
sg533
S'CACHE_ALL_RSN_ALL'
p554
sS'rsn_cache_ratio'
p555
F8
ssS'warmup_strategy'
p556
g11
(tRp557
g533
S'NDN'
p558
ssS'topology'
p559
g11
(tRp560
S'ext_delay'
p561
I5
sS'source_ratio'
p562
F0.10000000000000001
sg533
S'ROCKET_FUEL'
p563
sS'asn'
p564
I3257
ssg11
(tRp565
S'LATENCY'
p566
g11
(tRp567
S'MEAN'
p568
F69.431122222222228
ssS'CACHE_HIT_RATIO'
p569
g11
(tRp570
S'MEAN_OFF_PATH'
p571
F0.081250433985584736
sS'PER_NODE_SERVER_HIT_RATIO'
p572
g11
(tRp573
S'src_1'
p574
F0.69907925618342659
ssg568
F0.30092074381657341
sS'PER_NODE_CACHE_HIT_RATIO'
p575
g11
(tRp576
I0
F0.00049717388587220692
sI1
F0.0091685530573416465
sI2
F0.00076103712139097583
sI3
F0.00081658727623703251
sI4
F0.0020220256363964613
sI5
F0.014562473092893746
sI6
F0.0029997083616870581
sI7
F0.00083325232269084945
sI8
F0.00068882192009110221
sI9
F0.00089157998527920901
sI10
F0.0019886955434888277
sI11
F0.0035357673559515048
sI12
F0.00171649978474315
sI13
F0.00078881219881400417
sI14
F0.00090546752399072318
sI15
F0.0028136153429527684
sI16
F0.00062493924201813711
sI17
F0.0021025733609232435
sI18
F0.0067771188912189089
sI19
F0.0022747788409460193
sI20
F0.00085824989237157502
sI21
F0.0017526073853930868
sI22
F0.00085824989237157502
sI23
F0.00082214229172163816
sI24
F0.01339869734886886
sI25
F0.0036885302817781605
sI26
F0.00082214229172163816
sI27
F0.00098879275625980809
sI28
F0.0016831696918355159
sI29
F0.00085269487688696937
sI30
F0.00056383407168747479
sI31
F0.0078214618023247744
sI32
F0.00079436721429860982
sI33
F0.0081853153165664452
sI34
F0.00091380004721763159
sI35
F0.001022122849167442
sI36
F0.00052772647103753803
sI37
F0.00051661644006832674
sI38
F0.00070270945880261638
sI39
F0.010104573166497701
sI40
F0.00061660671879122859
sI41
F0.007904787034593859
sI42
F0.00067493438137958815
sI43
F0.0019053703112197424
sI44
F0.00079714472204091269
sI45
F0.0010637854653019845
sI46
F0.00089713500076381465
sI47
F0.0010471204188481676
sI48
F0.00076659213687558158
sI49
F0.000594386656852806
sI50
F0.0017276098157123613
sI51
F0.0039273959476162036
sI52
F0.0025608621384032109
sI53
F0.0018998152957351369
sI54
F0.00098879275625980809
sI55
F0.00089435749302151177
sI56
F0.001038787895621259
sI57
F0.00097212770980599104
sI58
F0.0015081867040704377
sI59
F0.0010582304498173789
sI60
F0.00094990764786756846
sI61
F0.0013582012859860847
sI62
F0.0010610079575596816
sI63
F0.0013470912550168734
sI64
F0.0020053605899426445
sI65
F0.0018775952337967141
sI66
F0.0014665240879358952
sI67
F0.0012998736233977252
sI68
F0.00091102253947532882
sI69
F0.00070826447428722203
sI70
F0.0005832766258835946
sI71
F0.00064160428847195416
sI72
F0.0032607940894635243
sI73
F0.0010276778646520477
sI74
F0.016087324843418002
sI75
F0.0019553654505811936
sI76
F0.00068326690460649656
sI77
F0.0016915022150624246
sI78
F0.00065271431944116545
sI79
F0.00063049425750274276
sI80
F0.0075520435513213996
sI81
F0.00099157026400211097
sI82
F0.00083047481494854668
sI83
F0.00069437693557570796
sI84
F0.0043329120779924176
sI85
F0.00086935992334078631
sI86
F0.00080547724526782122
sI87
F0.00087769244656769484
sI88
F0.00068882192009110221
sI89
F0.00076936964461788435
sI90
F0.00035829849875706527
sI91
F0.00083047481494854668
sI92
F0.00099157026400211097
sI93
F0.0057105559181746222
sI94
F0.00080269973752551834
sI95
F0.00056383407168747479
sI96
F0.0010443429111058648
sI97
F0.00078047967558709565
sI98
F0.0021025733609232435
sI99
F0.00076659213687558158
sI100
F0.0010082353104559278
sI101
F0.0018109350479814464
sI102
F0.0019275903731581653
sI103
F0.00084713986140236362
sI104
F0.0011776632827364007
sI105
F0.00085269487688696937
sI106
F0.0019775855125196162
sI107
F0.00077492466010249
sI108
F0.00084713986140236362
sI109
F0.0028441679281180996
sI110
F0.00093602010915605429
sI111
F0.0016498395989278821
sI112
F0.00091380004721763159
sI113
F0.0038940658547085699
sI114
F0.0009971252794867165
sI115
F0.0020609107447887012
sI116
F0.00094990764786756846
sI117
F0.00095824017109447698
sI118
F0.0016776146763509104
sI119
F0.0009026900162484203
sI120
F0.00057494410265668619
sI121
F0.00079992222978321557
sI122
F0.00033330092907633981
sI123
F0.00076381462913327871
sI124
F0.00056105656394517202
sI125
F0.00071659699751413055
sI126
F0.0038524032385740276
sI127
F0.00061105170330662294
sI128
F0.0011693307595094921
sI129
F0.0012276584220978516
sI130
F0.00079992222978321557
sI131
F0.0010110128181982307
sI132
F0.0016776146763509104
sI133
F0.0038524032385740276
sI134
F0.00079714472204091269
sI135
F0.00074437207493715889
sI136
F0.00060827419556432017
sI137
F0.0007110419820295249
sI138
F0.0028497229436027054
sI139
F0.0083686308275584317
sI140
F0.00089157998527920901
sI141
F0.00081380976849472963
sI142
F0.00055827905620286914
sI143
F0.0015081867040704377
sI144
F0.0015942894440818254
sI145
F0.0018109350479814464
sI146
F0.00094435263238296281
sI147
F0.0010276778646520477
sI148
F0.00089435749302151177
sI149
F0.00098323774077520233
sI150
F0.0010887830349827099
sI151
F0.00054716902523365785
sI152
F0.0011693307595094921
sI153
F0.00066104684266807398
sI154
F0.00086102740011387779
sI155
F0.00098323774077520233
sI156
F0.00089991250850611742
sI157
F0.00079436721429860982
sI158
F0.00073881705945255324
sI159
F0.00079992222978321557
sI160
F0.0012582110072631826
ssS'MEAN_ON_PATH'
p577
F0.21967030983098867
ssS'OVERHEAD'
p578
g11
(tRp579
g568
F5.6433583333333335
sstp580
a(g11
(tRp581
S'workload'
p582
g11
(tRp583
S'n_contents'
p584
I10000
sS'name'
p585
S'STATIONARY'
p586
sS'n_warmup'
p587
I360000
sS'rate'
p588
I1000
sS'n_measured'
p589
I360000
sS'alpha'
p590
F0.80000000000000004
ssS'cache_policy'
p591
g11
(tRp592
g585
S'LRU'
p593
ssS'desc'
p594
S'RSN size sensitivity -> RSN/cache ratio: 16.0'
p595
sS'strategy'
p596
g11
(tRp597
S'p'
F0.17999999999999999
sg585
S'LIRA_BC'
p598
ssS'content_placement'
p599
g11
(tRp600
g585
S'LOWEST_DEGREE'
p601
ssS'joint_cache_rsn_placement'
p602
g11
(tRp603
S'network_cache'
p604
F0.94999999999999996
sS'network_rsn'
p605
F15.199999999999999
sg585
S'CACHE_ALL_RSN_ALL'
p606
sS'rsn_cache_ratio'
p607
F16
ssS'warmup_strategy'
p608
g11
(tRp609
g585
S'NDN'
p610
ssS'topology'
p611
g11
(tRp612
S'ext_delay'
p613
I5
sS'source_ratio'
p614
F0.10000000000000001
sg585
S'ROCKET_FUEL'
p615
sS'asn'
p616
I3257
ssg11
(tRp617
S'LATENCY'
p618
g11
(tRp619
S'MEAN'
p620
F68.568433333333331
ssS'CACHE_HIT_RATIO'
p621
g11
(tRp622
S'MEAN_OFF_PATH'
p623
F0.14315833333333333
sS'PER_NODE_SERVER_HIT_RATIO'
p624
g11
(tRp625
S'src_1'
p626
F0.64565277777777774
ssg620
F0.3543472222222222
sS'PER_NODE_CACHE_HIT_RATIO'
p627
g11
(tRp628
I0
F0.00073888888888888886
sI1
F0.01016111111111111
sI2
F0.00076944444444444445
sI3
F0.0011222222222222222
sI4
F0.0026361111111111112
sI5
F0.0112
sI6
F0.003397222222222222
sI7
F0.00095833333333333328
sI8
F0.0010777777777777778
sI9
F0.0011527777777777777
sI10
F0.0029055555555555558
sI11
F0.0052750000000000002
sI12
F0.0022861111111111112
sI13
F0.0011222222222222222
sI14
F0.0014416666666666666
sI15
F0.0035750000000000001
sI16
F0.00062500000000000001
sI17
F0.0031305555555555557
sI18
F0.0068694444444444445
sI19
F0.0029750000000000002
sI20
F0.00087222222222222226
sI21
F0.0019388888888888889
sI22
F0.0009277777777777778
sI23
F0.0011999999999999999
sI24
F0.012747222222222222
sI25
F0.004944444444444444
sI26
F0.00098055555555555548
sI27
F0.0011194444444444444
sI28
F0.0019527777777777777
sI29
F0.00088611111111111106
sI30
F0.00052777777777777773
sI31
F0.0075694444444444446
sI32
F0.00072499999999999995
sI33
F0.0096805555555555551
sI34
F0.0009944444444444445
sI35
F0.00094444444444444448
sI36
F0.00081388888888888884
sI37
F0.0010250000000000001
sI38
F0.00084166666666666667
sI39
F0.012122222222222222
sI40
F0.00034444444444444442
sI41
F0.0064027777777777781
sI42
F0.00070833333333333338
sI43
F0.0033527777777777779
sI44
F0.00091111111111111113
sI45
F0.0017611111111111111
sI46
F0.00084722222222222219
sI47
F0.00061944444444444449
sI48
F0.00068611111111111108
sI49
F0.00096944444444444443
sI50
F0.0023916666666666665
sI51
F0.0041527777777777778
sI52
F0.004197222222222222
sI53
F0.0025333333333333332
sI54
F0.00090555555555555561
sI55
F0.0011694444444444445
sI56
F0.0013111111111111112
sI57
F0.00086666666666666663
sI58
F0.0025583333333333335
sI59
F0.00091388888888888889
sI60
F0.00098611111111111122
sI61
F0.0021666666666666666
sI62
F0.0010083333333333333
sI63
F0.0015250000000000001
sI64
F0.0032166666666666667
sI65
F0.0026444444444444445
sI66
F0.001736111111111111
sI67
F0.0017138888888888889
sI68
F0.0010694444444444445
sI69
F0.00061666666666666662
sI70
F0.00060555555555555558
sI71
F0.0011055555555555556
sI72
F0.0042611111111111113
sI73
F0.0010388888888888889
sI74
F0.012911111111111111
sI75
F0.0024555555555555554
sI76
F0.00064722222222222221
sI77
F0.0023333333333333335
sI78
F0.00097777777777777772
sI79
F0.0008694444444444445
sI80
F0.0075222222222222218
sI81
F0.0012583333333333333
sI82
F0.00081388888888888884
sI83
F0.0011222222222222222
sI84
F0.0063361111111111109
sI85
F0.0011916666666666666
sI86
F0.0011111111111111111
sI87
F0.00097777777777777772
sI88
F0.00070555555555555551
sI89
F0.00088888888888888893
sI90
F0.000825
sI91
F0.0012166666666666667
sI92
F0.00087500000000000002
sI93
F0.0059194444444444442
sI94
F0.00073055555555555558
sI95
F0.00088611111111111106
sI96
F0.00070277777777777775
sI97
F0.00091111111111111113
sI98
F0.0037833333333333334
sI99
F0.00088888888888888893
sI100
F0.0011027777777777778
sI101
F0.0033416666666666668
sI102
F0.0022861111111111112
sI103
F0.00069444444444444447
sI104
F0.0021916666666666668
sI105
F0.00077222222222222221
sI106
F0.0030027777777777778
sI107
F0.000825
sI108
F0.0010555555555555555
sI109
F0.0044916666666666664
sI110
F0.0010250000000000001
sI111
F0.0032194444444444445
sI112
F0.00085555555555555558
sI113
F0.0056888888888888892
sI114
F0.00098888888888888898
sI115
F0.0027722222222222224
sI116
F0.0012527777777777778
sI117
F0.00115
sI118
F0.0029916666666666668
sI119
F0.0010222222222222223
sI120
F0.00092222222222222217
sI121
F0.0011194444444444444
sI122
F0.00084444444444444443
sI123
F0.0008611111111111111
sI124
F0.00067500000000000004
sI125
F0.0010416666666666667
sI126
F0.0047416666666666666
sI127
F0.00095833333333333328
sI128
F0.0024638888888888887
sI129
F0.00072777777777777782
sI130
F0.0012694444444444444
sI131
F0.0011305555555555557
sI132
F0.0026444444444444445
sI133
F0.0041111111111111114
sI134
F0.001236111111111111
sI135
F0.00055277777777777779
sI136
F0.00084444444444444443
sI137
F0.00078888888888888889
sI138
F0.0048666666666666667
sI139
F0.010675
sI140
F0.00068611111111111108
sI141
F0.00068333333333333332
sI142
F0.00080555555555555556
sI143
F0.0020138888888888888
sI144
F0.0017611111111111111
sI145
F0.0027222222222222222
sI146
F0.0010111111111111111
sI147
F0.00079166666666666665
sI148
F0.0009277777777777778
sI149
F0.00095555555555555552
sI150
F0.00073888888888888886
sI151
F0.0014166666666666668
sI152
F0.00091944444444444441
sI153
F0.0015083333333333333
sI154
F0.00095833333333333328
sI155
F0.0008833333333333333
sI156
F0.0013416666666666666
sI157
F0.00059999999999999995
sI158
F0.00095833333333333328
sI159
F0.0012138888888888889
sI160
F0.0018527777777777778
ssS'MEAN_ON_PATH'
p629
F0.21118888888888887
ssS'OVERHEAD'
p630
g11
(tRp631
g620
F5.5127972222222219
sstp632
a(g11
(tRp633
S'workload'
p634
g11
(tRp635
S'n_contents'
p636
I10000
sS'name'
p637
S'STATIONARY'
p638
sS'n_warmup'
p639
I360000
sS'rate'
p640
I1000
sS'n_measured'
p641
I360000
sS'alpha'
p642
F0.80000000000000004
ssS'cache_policy'
p643
g11
(tRp644
g637
S'LRU'
p645
ssS'desc'
p646
S'RSN size sensitivity -> RSN/cache ratio: 16.0'
p647
sS'strategy'
p648
g11
(tRp649
S'p'
F0.17999999999999999
sg637
S'LIRA_DFIB'
p650
ssS'content_placement'
p651
g11
(tRp652
g637
S'LOWEST_DEGREE'
p653
ssS'joint_cache_rsn_placement'
p654
g11
(tRp655
S'network_cache'
p656
F0.94999999999999996
sS'network_rsn'
p657
F15.199999999999999
sg637
S'CACHE_ALL_RSN_ALL'
p658
sS'rsn_cache_ratio'
p659
F16
ssS'warmup_strategy'
p660
g11
(tRp661
g637
S'NDN'
p662
ssS'topology'
p663
g11
(tRp664
S'ext_delay'
p665
I5
sS'source_ratio'
p666
F0.10000000000000001
sg637
S'ROCKET_FUEL'
p667
sS'asn'
p668
I3257
ssg11
(tRp669
S'LATENCY'
p670
g11
(tRp671
S'MEAN'
p672
F66.304402777777781
ssS'CACHE_HIT_RATIO'
p673
g11
(tRp674
S'MEAN_OFF_PATH'
p675
F0.14399622552488794
sS'PER_NODE_SERVER_HIT_RATIO'
p676
g11
(tRp677
S'src_1'
p678
F0.64781926925051692
ssg672
F0.35218073074948308
sS'PER_NODE_CACHE_HIT_RATIO'
p679
g11
(tRp680
I0
F0.00089366248976589931
sI1
F0.0095416510553265887
sI2
F0.00099357506626146573
sI3
F0.00085480759890651235
sI4
F0.0032998903737007897
sI5
F0.011711974244758059
sI6
F0.0033331945658659785
sI7
F0.0013960007215908302
sI8
F0.00092419133258398898
sI9
F0.0010518574025505461
sI10
F0.0028058781899171557
sI11
F0.0047791515757045922
sI12
F0.0024228799800174849
sI13
F0.00087145969498910673
sI14
F0.00077709781718773852
sI15
F0.0037272941731540457
sI16
F0.00093529272997238528
sI17
F0.0033220931684775821
sI18
F0.006083565768841153
sI19
F0.0028169795873055521
sI20
F0.0010296546077737535
sI21
F0.0022813371633154324
sI22
F0.0010463067038563479
sI23
F0.0010324299571208525
sI24
F0.014129303526081346
sI25
F0.0047208692394155117
sI26
F0.0007937499132703329
sI27
F0.00093529272997238528
sI28
F0.0019593966390519407
sI29
F0.00090198853780719651
sI30
F0.00042462845010615713
sI31
F0.0082760917530494155
sI32
F0.00084093085217101706
sI33
F0.0095916073435743723
sI34
F0.00082705410543552167
sI35
F0.0010185532103853573
sI36
F0.00098247366887306933
sI37
F0.00074934432371674784
sI38
F0.0012433565075003817
sI39
F0.012602861385176859
sI40
F0.00076322107045224312
sI41
F0.0067857291536572162
sI42
F0.00066330849395667682
sI43
F0.0022813371633154324
sI44
F0.0012738853503184713
sI45
F0.00083815550282391796
sI46
F0.00085758294825361145
sI47
F0.0011906248699054993
sI48
F0.00089366248976589931
sI49
F0.00083815550282391796
sI50
F0.0016235793680529536
sI51
F0.0036690118368649656
sI52
F0.0031361447622219448
sI53
F0.0023562715956871069
sI54
F0.00057449731484950669
sI55
F0.00092974203127818718
sI56
F0.00074101827567545065
sI57
F0.00086868434564200774
sI58
F0.0025449953512898436
sI59
F0.0015014639967805947
sI60
F0.00096304622344337595
sI61
F0.0022535836698444416
sI62
F0.0011934002192525983
sI63
F0.0015819491278464676
sI64
F0.0032027531465523224
sI65
F0.0025755241941079333
sI66
F0.0025977269888847257
sI67
F0.0012822113983597685
sI68
F0.0013377183853017498
sI69
F0.00086035829760071044
sI70
F0.00084648155086521515
sI71
F0.00094361877801368247
sI72
F0.0050594618597615973
sI73
F0.00089366248976589931
sI74
F0.013787935556388161
sI75
F0.002903015417065623
sI76
F0.00074934432371674784
sI77
F0.0021786492374727671
sI78
F0.00089366248976589931
sI79
F0.00068828663808056839
sI80
F0.0077126958355883046
sI81
F0.0010685094986331405
sI82
F0.00078819921457613481
sI83
F0.00080485131065872919
sI84
F0.0060447108779817663
sI85
F0.0010657341492860415
sI86
F0.00087978574303040392
sI87
F0.00072991687828705435
sI88
F0.00084925690021231425
sI89
F0.0013016388437894621
sI90
F0.00081040200935292728
sI91
F0.00064110569917988423
sI92
F0.00057172196550240759
sI93
F0.0063111444153032764
sI94
F0.00061057685636179456
sI95
F0.0010712848479802395
sI96
F0.0011101397388396264
sI97
F0.0010296546077737535
sI98
F0.0034969401773448233
sI99
F0.00092974203127818718
sI100
F0.00064943174722118142
sI101
F0.0036745625355591636
sI102
F0.0020759613116301014
sI103
F0.0010102271623440601
sI104
F0.0022313808750676492
sI105
F0.00073824292632835155
sI106
F0.0029723991507431
sI107
F0.0010768355466744377
sI108
F0.00094916947670788056
sI109
F0.0039104672300625844
sI110
F0.0011462192803519144
sI111
F0.0023534962463400079
sI112
F0.00089088714041880021
sI113
F0.0051427223401745697
sI114
F0.0011795234725171032
sI115
F0.0026754367706034996
sI116
F0.0007937499132703329
sI117
F0.0010601834505918433
sI118
F0.0022591343685386396
sI119
F0.0010074518129969609
sI120
F0.00099635041560856472
sI121
F0.00097969831952597034
sI122
F0.0011462192803519144
sI123
F0.00077987316653483762
sI124
F0.00069661268612186559
sI125
F0.00063555500048568614
sI126
F0.0053092433010005135
sI127
F0.00071881548089865817
sI128
F0.0019510705910106435
sI129
F0.0013682472281198396
sI130
F0.00043572984749455336
sI131
F0.0010435313545092489
sI132
F0.0027920014431816603
sI133
F0.0053258953970831075
sI134
F0.0011934002192525983
sI135
F0.0012156030140293909
sI136
F0.00080762666000582818
sI137
F0.00081872805739422448
sI138
F0.0034636359851796346
sI139
F0.012144928742905512
sI140
F0.00059114941093210108
sI141
F0.00057727266419660579
sI142
F0.00072159083024575716
sI143
F0.0018012017262672938
sI144
F0.0020010268792584269
sI145
F0.0022230548270263518
sI146
F0.00096027087409627685
sI147
F0.00086035829760071044
sI148
F0.0014015514202850284
sI149
F0.0011267918349222208
sI150
F0.00059392476027920018
sI151
F0.0011184657868809236
sI152
F0.0011989509179467965
sI153
F0.00071881548089865817
sI154
F0.0010268792584266545
sI155
F0.00064110569917988423
sI156
F0.0012433565075003817
sI157
F0.00079930061196453099
sI158
F0.0010268792584266545
sI159
F0.0010130025116911591
sI160
F0.0020343310714236156
ssS'MEAN_ON_PATH'
p681
F0.20818450522459514
ssS'OVERHEAD'
p682
g11
(tRp683
g672
F5.5490805555555553
sstp684
a(g11
(tRp685
S'workload'
p686
g11
(tRp687
S'n_contents'
p688
I10000
sS'name'
p689
S'STATIONARY'
p690
sS'n_warmup'
p691
I360000
sS'rate'
p692
I1000
sS'n_measured'
p693
I360000
sS'alpha'
p694
F0.80000000000000004
ssS'cache_policy'
p695
g11
(tRp696
g689
S'LRU'
p697
ssS'desc'
p698
S'RSN size sensitivity -> RSN/cache ratio: 16.0'
p699
sS'strategy'
p700
g11
(tRp701
S'p'
F0.17999999999999999
sg689
S'NDN'
p702
ssS'content_placement'
p703
g11
(tRp704
g689
S'LOWEST_DEGREE'
p705
ssS'joint_cache_rsn_placement'
p706
g11
(tRp707
S'network_cache'
p708
F0.94999999999999996
sS'network_rsn'
p709
F15.199999999999999
sg689
S'CACHE_ALL_RSN_ALL'
p710
sS'rsn_cache_ratio'
p711
F16
ssS'warmup_strategy'
p712
g11
(tRp713
g689
g702
ssS'topology'
p714
g11
(tRp715
S'ext_delay'
p716
I5
sS'source_ratio'
p717
F0.10000000000000001
sg689
S'ROCKET_FUEL'
p718
sS'asn'
p719
I3257
ssg11
(tRp720
S'LATENCY'
p721
g11
(tRp722
S'MEAN'
p723
F73.074583333333337
ssS'CACHE_HIT_RATIO'
p724
g11
(tRp725
S'MEAN_OFF_PATH'
p726
F0
sS'PER_NODE_SERVER_HIT_RATIO'
p727
g11
(tRp728
S'src_1'
p729
F0.75456388888888892
ssg723
F0.2454361111111111
sS'PER_NODE_CACHE_HIT_RATIO'
p730
g11
(tRp731
I0
F0.00082777777777777776
sI1
F0.0050972222222222226
sI2
F0.0007805555555555556
sI3
F0.0010361111111111111
sI4
F0.0016944444444444444
sI5
F0.019716666666666667
sI6
F0.0015277777777777779
sI7
F0.00082222222222222223
sI8
F0.001
sI9
F0.00084722222222222219
sI10
F0.0013611111111111111
sI11
F0.0021305555555555557
sI12
F0.0010222222222222223
sI13
F0.00087500000000000002
sI14
F0.00089444444444444445
sI15
F0.0012722222222222223
sI16
F0.0010138888888888888
sI17
F0.001175
sI18
F0.0031222222222222224
sI19
F0.0010527777777777777
sI20
F0.00084444444444444443
sI21
F0.0011527777777777777
sI22
F0.00097499999999999996
sI23
F0.00099166666666666674
sI24
F0.0086083333333333342
sI25
F0.0018055555555555555
sI26
F0.00090277777777777774
sI27
F0.00083888888888888891
sI28
F0.00096111111111111115
sI29
F0.00087777777777777778
sI30
F0.0010277777777777778
sI31
F0.0037194444444444445
sI32
F0.00085277777777777782
sI33
F0.0047944444444444441
sI34
F0.00089999999999999998
sI35
F0.00087500000000000002
sI36
F0.00091111111111111113
sI37
F0.0010277777777777778
sI38
F0.00089722222222222221
sI39
F0.0060277777777777777
sI40
F0.00091666666666666665
sI41
F0.015375
sI42
F0.00083333333333333339
sI43
F0.00090555555555555561
sI44
F0.0010499999999999999
sI45
F0.00097777777777777772
sI46
F0.00097222222222222219
sI47
F0.00096111111111111115
sI48
F0.00092500000000000004
sI49
F0.00085277777777777782
sI50
F0.0010250000000000001
sI51
F0.0019833333333333335
sI52
F0.001313888888888889
sI53
F0.0010444444444444444
sI54
F0.00089722222222222221
sI55
F0.00093333333333333332
sI56
F0.00085833333333333334
sI57
F0.00098888888888888898
sI58
F0.0010694444444444445
sI59
F0.0008833333333333333
sI60
F0.00089166666666666669
sI61
F0.0008694444444444445
sI62
F0.00095277777777777776
sI63
F0.00099166666666666674
sI64
F0.0017694444444444444
sI65
F0.0014027777777777777
sI66
F0.0010527777777777777
sI67
F0.00095555555555555552
sI68
F0.00076111111111111106
sI69
F0.00083055555555555552
sI70
F0.00091666666666666665
sI71
F0.0010361111111111111
sI72
F0.0015833333333333333
sI73
F0.00098333333333333324
sI74
F0.014222222222222223
sI75
F0.0011194444444444444
sI76
F0.00081944444444444447
sI77
F0.0013583333333333334
sI78
F0.00092222222222222217
sI79
F0.00084999999999999995
sI80
F0.0041944444444444442
sI81
F0.0008694444444444445
sI82
F0.00096666666666666667
sI83
F0.0010250000000000001
sI84
F0.001725
sI85
F0.00085555555555555558
sI86
F0.00087500000000000002
sI87
F0.00081944444444444447
sI88
F0.00087222222222222226
sI89
F0.00093333333333333332
sI90
F0.0008694444444444445
sI91
F0.00092222222222222217
sI92
F0.00095833333333333328
sI93
F0.0024805555555555557
sI94
F0.00091666666666666665
sI95
F0.0009277777777777778
sI96
F0.0010250000000000001
sI97
F0.00087222222222222226
sI98
F0.0011583333333333333
sI99
F0.00090277777777777774
sI100
F0.00091111111111111113
sI101
F0.0010555555555555555
sI102
F0.0010250000000000001
sI103
F0.00091111111111111113
sI104
F0.0012277777777777777
sI105
F0.00091666666666666665
sI106
F0.0010527777777777777
sI107
F0.00093611111111111108
sI108
F0.00089166666666666669
sI109
F0.0013944444444444445
sI110
F0.00091388888888888889
sI111
F0.0011583333333333333
sI112
F0.00089722222222222221
sI113
F0.0019388888888888889
sI114
F0.00087500000000000002
sI115
F0.0013722222222222222
sI116
F0.0010305555555555556
sI117
F0.0008833333333333333
sI118
F0.0010333333333333334
sI119
F0.00093333333333333332
sI120
F0.00090555555555555561
sI121
F0.00067500000000000004
sI122
F0.00091944444444444441
sI123
F0.00091666666666666665
sI124
F0.00090277777777777774
sI125
F0.00084999999999999995
sI126
F0.0020027777777777778
sI127
F0.00088611111111111106
sI128
F0.0010194444444444443
sI129
F0.00080555555555555556
sI130
F0.00088055555555555554
sI131
F0.00095
sI132
F0.0011055555555555556
sI133
F0.0019694444444444442
sI134
F0.0010333333333333334
sI135
F0.00080833333333333332
sI136
F0.00088611111111111106
sI137
F0.00091111111111111113
sI138
F0.0016694444444444445
sI139
F0.0048222222222222225
sI140
F0.00080555555555555556
sI141
F0.00089166666666666669
sI142
F0.00099166666666666674
sI143
F0.00096944444444444443
sI144
F0.00088611111111111106
sI145
F0.0011638888888888888
sI146
F0.00098055555555555548
sI147
F0.00097222222222222219
sI148
F0.00084166666666666667
sI149
F0.00083611111111111115
sI150
F0.00088611111111111106
sI151
F0.00082777777777777776
sI152
F0.001
sI153
F0.00098055555555555548
sI154
F0.00083333333333333339
sI155
F0.00094166666666666672
sI156
F0.0007805555555555556
sI157
F0.00080555555555555556
sI158
F0.00097222222222222219
sI159
F0.0008833333333333333
sI160
F0.0014222222222222223
ssS'MEAN_ON_PATH'
p732
F0.2454361111111111
ssS'OVERHEAD'
p733
g11
(tRp734
g723
F11.439683333333333
sstp735
a(g11
(tRp736
S'workload'
p737
g11
(tRp738
S'n_contents'
p739
I10000
sS'name'
p740
S'STATIONARY'
p741
sS'n_warmup'
p742
I360000
sS'rate'
p743
I1000
sS'n_measured'
p744
I360000
sS'alpha'
p745
F0.80000000000000004
ssS'cache_policy'
p746
g11
(tRp747
g740
S'LRU'
p748
ssS'desc'
p749
S'RSN size sensitivity -> RSN/cache ratio: 8.0'
p750
sS'strategy'
p751
g11
(tRp752
g740
S'NRR'
p753
ssS'content_placement'
p754
g11
(tRp755
g740
S'LOWEST_DEGREE'
p756
ssS'joint_cache_rsn_placement'
p757
g11
(tRp758
S'network_cache'
p759
F0.94999999999999996
sS'network_rsn'
p760
F7.5999999999999996
sg740
S'CACHE_ALL_RSN_ALL'
p761
sS'rsn_cache_ratio'
p762
F8
ssS'warmup_strategy'
p763
g11
(tRp764
g740
S'NDN'
p765
ssS'topology'
p766
g11
(tRp767
S'ext_delay'
p768
I5
sS'source_ratio'
p769
F0.10000000000000001
sg740
S'ROCKET_FUEL'
p770
sS'asn'
p771
I3257
ssg11
(tRp772
S'LATENCY'
p773
g11
(tRp774
S'MEAN'
p775
F46.660022222222224
ssS'CACHE_HIT_RATIO'
p776
g11
(tRp777
S'MEAN_OFF_PATH'
p778
F0.50276944444444449
sS'PER_NODE_SERVER_HIT_RATIO'
p779
g11
(tRp780
S'src_1'
p781
F0.37103333333333333
ssg775
F0.62896666666666667
sS'PER_NODE_CACHE_HIT_RATIO'
p782
g11
(tRp783
I0
F0.010469444444444444
sI1
F0.015686111111111112
sI2
F0.0078611111111111104
sI3
F0.0077777777777777776
sI4
F0.0032000000000000002
sI5
F0.0012611111111111111
sI6
F0.0054666666666666665
sI7
F0.0032222222222222222
sI8
F0.0028583333333333334
sI9
F0.0042361111111111115
sI10
F0.005241666666666667
sI11
F0.0038416666666666668
sI12
F0.0054527777777777777
sI13
F0.0029388888888888889
sI14
F0.0022861111111111112
sI15
F0.0027111111111111112
sI16
F0.0074333333333333335
sI17
F0.0055750000000000001
sI18
F0.004933333333333333
sI19
F0.002886111111111111
sI20
F0.0026055555555555554
sI21
F0.0031916666666666669
sI22
F0.0023916666666666665
sI23
F0.0017111111111111112
sI24
F0.0032861111111111112
sI25
F0.0067305555555555556
sI26
F0.0021444444444444445
sI27
F0.0023638888888888889
sI28
F0.0021916666666666668
sI29
F0.0081333333333333327
sI30
F0.0046361111111111108
sI31
F0.0013083333333333334
sI32
F0.0079166666666666673
sI33
F0.0040916666666666671
sI34
F0.0072611111111111114
sI35
F0.0032833333333333334
sI36
F0.0064861111111111109
sI37
F0.0093416666666666665
sI38
F0.0038555555555555556
sI39
F0.0020805555555555555
sI40
F0.0044444444444444444
sI41
F0.000125
sI42
F0.0037444444444444443
sI43
F0.0033722222222222222
sI44
F0.0014194444444444445
sI45
F0.0046750000000000003
sI46
F0.0038222222222222221
sI47
F0.0032499999999999999
sI48
F0.003875
sI49
F0.0043083333333333333
sI50
F0.0059916666666666668
sI51
F0.0045999999999999999
sI52
F0.0087055555555555549
sI53
F0.0033416666666666668
sI54
F0.0020305555555555554
sI55
F0.0027416666666666666
sI56
F0.0018444444444444443
sI57
F0.0013972222222222222
sI58
F0.0021722222222222221
sI59
F0.0038472222222222224
sI60
F0.0027583333333333331
sI61
F0.006197222222222222
sI62
F0.00365
sI63
F0.0048388888888888891
sI64
F0.002977777777777778
sI65
F0.0053944444444444448
sI66
F0.0038722222222222222
sI67
F0.0047555555555555554
sI68
F0.0046249999999999998
sI69
F0.0079722222222222226
sI70
F0.0032388888888888888
sI71
F0.0061888888888888887
sI72
F0.0029111111111111113
sI73
F0.0030249999999999999
sI74
F0.0022111111111111112
sI75
F0.0047416666666666666
sI76
F0.0050000000000000001
sI77
F0.0044111111111111113
sI78
F0.0033472222222222224
sI79
F0.0038527777777777779
sI80
F0.0028472222222222223
sI81
F0.0020277777777777777
sI82
F0.0029527777777777777
sI83
F0.0038222222222222221
sI84
F0.0059361111111111108
sI85
F0.0029416666666666666
sI86
F0.0028722222222222222
sI87
F0.0041749999999999999
sI88
F0.0039249999999999997
sI89
F0.0035555555555555557
sI90
F0.0031916666666666669
sI91
F0.0030611111111111112
sI92
F0.002897222222222222
sI93
F0.0030166666666666666
sI94
F0.0032055555555555557
sI95
F0.0028611111111111111
sI96
F0.0043750000000000004
sI97
F0.003875
sI98
F0.0034583333333333332
sI99
F0.0041861111111111109
sI100
F0.0028222222222222221
sI101
F0.0048111111111111115
sI102
F0.0012527777777777778
sI103
F0.0012555555555555555
sI104
F0.0014055555555555555
sI105
F0.0021222222222222224
sI106
F0.0024750000000000002
sI107
F0.0021138888888888887
sI108
F0.0040249999999999999
sI109
F0.0039555555555555559
sI110
F0.0018500000000000001
sI111
F0.0025555555555555557
sI112
F0.0014222222222222223
sI113
F0.0060111111111111112
sI114
F0.0044583333333333332
sI115
F0.0032472222222222221
sI116
F0.0039111111111111109
sI117
F0.0041194444444444447
sI118
F0.0022833333333333334
sI119
F0.002386111111111111
sI120
F0.0034388888888888889
sI121
F0.0048805555555555555
sI122
F0.0035944444444444444
sI123
F0.0032777777777777779
sI124
F0.0030277777777777777
sI125
F0.0028194444444444443
sI126
F0.0012861111111111111
sI127
F0.0031638888888888888
sI128
F0.0080333333333333333
sI129
F0.0037055555555555557
sI130
F0.0037722222222222224
sI131
F0.0030166666666666666
sI132
F0.0039750000000000002
sI133
F0.0045416666666666669
sI134
F0.013619444444444444
sI135
F0.0031611111111111111
sI136
F0.0054361111111111112
sI137
F0.0053555555555555552
sI138
F0.0055722222222222223
sI139
F0.0019527777777777777
sI140
F0.0045861111111111111
sI141
F0.0040249999999999999
sI142
F0.0032916666666666667
sI143
F0.0054777777777777776
sI144
F0.0037694444444444446
sI145
F0.005036111111111111
sI146
F0.0018194444444444445
sI147
F0.002897222222222222
sI148
F0.0034194444444444446
sI149
F0.0019722222222222224
sI150
F0.0023638888888888889
sI151
F0.0019333333333333333
sI152
F0.0035388888888888887
sI153
F0.0038527777777777779
sI154
F0.0025472222222222224
sI155
F0.0033444444444444446
sI156
F0.0027666666666666668
sI157
F0.0035861111111111111
sI158
F0.0017222222222222222
sI159
F0.0030388888888888887
sI160
F0.0026527777777777778
ssS'MEAN_ON_PATH'
p784
F0.12619722222222218
ssS'OVERHEAD'
p785
g11
(tRp786
g775
F4.5943166666666668
sstp787
a(g11
(tRp788
S'workload'
p789
g11
(tRp790
S'n_contents'
p791
I10000
sS'name'
p792
S'STATIONARY'
p793
sS'n_warmup'
p794
I360000
sS'rate'
p795
I1000
sS'n_measured'
p796
I360000
sS'alpha'
p797
F0.80000000000000004
ssS'cache_policy'
p798
g11
(tRp799
g792
S'LRU'
p800
ssS'desc'
p801
S'RSN size sensitivity -> RSN/cache ratio: 16.0'
p802
sS'strategy'
p803
g11
(tRp804
g792
S'NRR'
p805
ssS'content_placement'
p806
g11
(tRp807
g792
S'LOWEST_DEGREE'
p808
ssS'joint_cache_rsn_placement'
p809
g11
(tRp810
S'network_cache'
p811
F0.94999999999999996
sS'network_rsn'
p812
F15.199999999999999
sg792
S'CACHE_ALL_RSN_ALL'
p813
sS'rsn_cache_ratio'
p814
F16
ssS'warmup_strategy'
p815
g11
(tRp816
g792
S'NDN'
p817
ssS'topology'
p818
g11
(tRp819
S'ext_delay'
p820
I5
sS'source_ratio'
p821
F0.10000000000000001
sg792
S'ROCKET_FUEL'
p822
sS'asn'
p823
I3257
ssg11
(tRp824
S'LATENCY'
p825
g11
(tRp826
S'MEAN'
p827
F46.681244444444445
ssS'CACHE_HIT_RATIO'
p828
g11
(tRp829
S'MEAN_OFF_PATH'
p830
F0.50190833333333329
sS'PER_NODE_SERVER_HIT_RATIO'
p831
g11
(tRp832
S'src_1'
p833
F0.37077500000000002
ssg827
F0.62922500000000003
sS'PER_NODE_CACHE_HIT_RATIO'
p834
g11
(tRp835
I0
F0.010744444444444444
sI1
F0.016661111111111113
sI2
F0.0078250000000000004
sI3
F0.0079305555555555553
sI4
F0.0031305555555555557
sI5
F0.0012166666666666667
sI6
F0.0055250000000000004
sI7
F0.0033611111111111112
sI8
F0.0028416666666666668
sI9
F0.0043333333333333331
sI10
F0.0053194444444444444
sI11
F0.0039500000000000004
sI12
F0.0055500000000000002
sI13
F0.0028944444444444443
sI14
F0.0023249999999999998
sI15
F0.0028583333333333334
sI16
F0.0075361111111111115
sI17
F0.0052833333333333335
sI18
F0.0050222222222222222
sI19
F0.0028638888888888889
sI20
F0.0024055555555555557
sI21
F0.0033694444444444444
sI22
F0.002413888888888889
sI23
F0.001888888888888889
sI24
F0.0033277777777777776
sI25
F0.0067888888888888886
sI26
F0.0023527777777777779
sI27
F0.0024805555555555557
sI28
F0.0022833333333333334
sI29
F0.0082166666666666673
sI30
F0.00445
sI31
F0.001225
sI32
F0.007691666666666667
sI33
F0.0042833333333333334
sI34
F0.0071111111111111115
sI35
F0.0034305555555555556
sI36
F0.0064000000000000003
sI37
F0.009519444444444445
sI38
F0.0040222222222222222
sI39
F0.0019083333333333333
sI40
F0.0040916666666666671
sI41
F0.00014722222222222223
sI42
F0.0037527777777777776
sI43
F0.0034361111111111111
sI44
F0.0015416666666666667
sI45
F0.004783333333333333
sI46
F0.0039833333333333335
sI47
F0.0033888888888888888
sI48
F0.0038055555555555555
sI49
F0.0044749999999999998
sI50
F0.0061583333333333334
sI51
F0.0046861111111111114
sI52
F0.0083888888888888884
sI53
F0.0033888888888888888
sI54
F0.0019694444444444442
sI55
F0.0025944444444444444
sI56
F0.0020999999999999999
sI57
F0.0015416666666666667
sI58
F0.0020888888888888888
sI59
F0.0039611111111111114
sI60
F0.002638888888888889
sI61
F0.0062694444444444447
sI62
F0.003552777777777778
sI63
F0.0047444444444444444
sI64
F0.0029972222222222223
sI65
F0.0053194444444444444
sI66
F0.0038666666666666667
sI67
F0.0047805555555555553
sI68
F0.0045222222222222226
sI69
F0.0077555555555555555
sI70
F0.0033194444444444443
sI71
F0.0059972222222222224
sI72
F0.0030111111111111111
sI73
F0.0031805555555555554
sI74
F0.0020722222222222223
sI75
F0.0046944444444444447
sI76
F0.0049888888888888891
sI77
F0.0044416666666666667
sI78
F0.0032944444444444445
sI79
F0.0039305555555555552
sI80
F0.0028222222222222221
sI81
F0.0019972222222222223
sI82
F0.0028527777777777779
sI83
F0.0037361111111111111
sI84
F0.0057250000000000001
sI85
F0.0029972222222222223
sI86
F0.0028833333333333332
sI87
F0.0040083333333333334
sI88
F0.003933333333333333
sI89
F0.0033583333333333334
sI90
F0.003036111111111111
sI91
F0.0031027777777777777
sI92
F0.0028638888888888889
sI93
F0.0027777777777777779
sI94
F0.0032444444444444443
sI95
F0.0028222222222222221
sI96
F0.00445
sI97
F0.0037972222222222222
sI98
F0.0034027777777777776
sI99
F0.0038583333333333334
sI100
F0.0030444444444444442
sI101
F0.0046277777777777775
sI102
F0.0013027777777777777
sI103
F0.0014083333333333333
sI104
F0.0014055555555555555
sI105
F0.0022305555555555555
sI106
F0.0024222222222222223
sI107
F0.0021583333333333333
sI108
F0.0038611111111111112
sI109
F0.0041722222222222221
sI110
F0.0017944444444444444
sI111
F0.002477777777777778
sI112
F0.0014944444444444445
sI113
F0.0057194444444444445
sI114
F0.0043666666666666663
sI115
F0.0033805555555555555
sI116
F0.0037055555555555557
sI117
F0.0040527777777777775
sI118
F0.0024388888888888889
sI119
F0.0025277777777777777
sI120
F0.003563888888888889
sI121
F0.0046944444444444447
sI122
F0.0034250000000000001
sI123
F0.0034805555555555557
sI124
F0.0030305555555555554
sI125
F0.0028194444444444443
sI126
F0.0014333333333333333
sI127
F0.0032916666666666667
sI128
F0.0079000000000000008
sI129
F0.0036611111111111111
sI130
F0.0037555555555555554
sI131
F0.0032694444444444446
sI132
F0.0037472222222222221
sI133
F0.0043888888888888892
sI134
F0.013147222222222222
sI135
F0.0031277777777777779
sI136
F0.0055583333333333335
sI137
F0.0053305555555555554
sI138
F0.0054166666666666669
sI139
F0.0019138888888888888
sI140
F0.004875
sI141
F0.0042388888888888893
sI142
F0.0032166666666666667
sI143
F0.0055222222222222226
sI144
F0.0035055555555555556
sI145
F0.0050416666666666665
sI146
F0.0016999999999999999
sI147
F0.0028500000000000001
sI148
F0.0035916666666666666
sI149
F0.0018749999999999999
sI150
F0.0021916666666666668
sI151
F0.0019166666666666666
sI152
F0.0033472222222222224
sI153
F0.0038138888888888888
sI154
F0.0027583333333333331
sI155
F0.003397222222222222
sI156
F0.0027000000000000001
sI157
F0.0035083333333333334
sI158
F0.0018583333333333334
sI159
F0.0031749999999999999
sI160
F0.0025222222222222221
ssS'MEAN_ON_PATH'
p836
F0.12731666666666674
ssS'OVERHEAD'
p837
g11
(tRp838
g827
F4.5915805555555558
sstp839
a(g11
(tRp840
S'workload'
p841
g11
(tRp842
S'n_contents'
p843
I10000
sS'name'
p844
S'STATIONARY'
p845
sS'n_warmup'
p846
I360000
sS'rate'
p847
I1000
sS'n_measured'
p848
I360000
sS'alpha'
p849
F0.80000000000000004
ssS'cache_policy'
p850
g11
(tRp851
g844
S'LRU'
p852
ssS'desc'
p853
S'RSN size sensitivity -> RSN/cache ratio: 32.0'
p854
sS'strategy'
p855
g11
(tRp856
S'p'
F0.17999999999999999
sg844
S'LIRA_BC'
p857
ssS'content_placement'
p858
g11
(tRp859
g844
S'LOWEST_DEGREE'
p860
ssS'joint_cache_rsn_placement'
p861
g11
(tRp862
S'network_cache'
p863
F0.94999999999999996
sS'network_rsn'
p864
F30.399999999999999
sg844
S'CACHE_ALL_RSN_ALL'
p865
sS'rsn_cache_ratio'
p866
F32
ssS'warmup_strategy'
p867
g11
(tRp868
g844
S'NDN'
p869
ssS'topology'
p870
g11
(tRp871
S'ext_delay'
p872
I5
sS'source_ratio'
p873
F0.10000000000000001
sg844
S'ROCKET_FUEL'
p874
sS'asn'
p875
I3257
ssg11
(tRp876
S'LATENCY'
p877
g11
(tRp878
S'MEAN'
p879
F65.675711111111113
ssS'CACHE_HIT_RATIO'
p880
g11
(tRp881
S'MEAN_OFF_PATH'
p882
F0.22336666666666666
sS'PER_NODE_SERVER_HIT_RATIO'
p883
g11
(tRp884
S'src_1'
p885
F0.57928611111111106
ssg879
F0.42071388888888889
sS'PER_NODE_CACHE_HIT_RATIO'
p886
g11
(tRp887
I0
F0.0011055555555555556
sI1
F0.0091583333333333326
sI2
F0.0011555555555555555
sI3
F0.00098611111111111122
sI4
F0.006127777777777778
sI5
F0.0083555555555555553
sI6
F0.0040638888888888886
sI7
F0.0014638888888888889
sI8
F0.0010722222222222222
sI9
F0.0014527777777777779
sI10
F0.0035722222222222223
sI11
F0.0065388888888888892
sI12
F0.0031083333333333332
sI13
F0.0012916666666666667
sI14
F0.00098333333333333324
sI15
F0.0044916666666666664
sI16
F0.0012722222222222223
sI17
F0.0036166666666666665
sI18
F0.0066805555555555559
sI19
F0.0037222222222222223
sI20
F0.0011000000000000001
sI21
F0.0021694444444444443
sI22
F0.0010916666666666666
sI23
F0.0012555555555555555
sI24
F0.010263888888888888
sI25
F0.0059027777777777776
sI26
F0.0010194444444444443
sI27
F0.00092500000000000004
sI28
F0.0023527777777777779
sI29
F0.00089444444444444445
sI30
F0.001813888888888889
sI31
F0.0059138888888888887
sI32
F0.0010805555555555555
sI33
F0.0067888888888888886
sI34
F0.0027222222222222222
sI35
F0.0011111111111111111
sI36
F0.0013333333333333333
sI37
F0.0019250000000000001
sI38
F0.0010083333333333333
sI39
F0.008380555555555556
sI40
F0.00075277777777777778
sI41
F0.0047305555555555556
sI42
F0.00070277777777777775
sI43
F0.0035611111111111112
sI44
F0.0010111111111111111
sI45
F0.0017638888888888888
sI46
F0.0019722222222222224
sI47
F0.0012277777777777777
sI48
F0.0011138888888888889
sI49
F0.0015388888888888889
sI50
F0.0029916666666666668
sI51
F0.004805555555555556
sI52
F0.0061111111111111114
sI53
F0.0031944444444444446
sI54
F0.0012555555555555555
sI55
F0.0013749999999999999
sI56
F0.00082222222222222223
sI57
F0.0011416666666666667
sI58
F0.0036749999999999999
sI59
F0.00071666666666666667
sI60
F0.0011999999999999999
sI61
F0.0035500000000000002
sI62
F0.0015499999999999999
sI63
F0.0023500000000000001
sI64
F0.0064861111111111109
sI65
F0.0027222222222222222
sI66
F0.002725
sI67
F0.0021055555555555554
sI68
F0.00089722222222222221
sI69
F0.00059166666666666666
sI70
F0.0015888888888888888
sI71
F0.0015138888888888888
sI72
F0.0085833333333333334
sI73
F0.00082777777777777776
sI74
F0.0088611111111111113
sI75
F0.0027444444444444443
sI76
F0.00087777777777777778
sI77
F0.0042194444444444441
sI78
F0.0020138888888888888
sI79
F0.0027138888888888889
sI80
F0.0064444444444444445
sI81
F0.001475
sI82
F0.0015361111111111111
sI83
F0.0013472222222222223
sI84
F0.0070166666666666667
sI85
F0.0013833333333333334
sI86
F0.0016083333333333334
sI87
F0.001486111111111111
sI88
F0.0020833333333333333
sI89
F0.0013472222222222223
sI90
F0.001813888888888889
sI91
F0.0016249999999999999
sI92
F0.0015916666666666666
sI93
F0.0055583333333333335
sI94
F0.0018472222222222223
sI95
F0.0013055555555555555
sI96
F0.0012861111111111111
sI97
F0.0014055555555555555
sI98
F0.0049944444444444446
sI99
F0.0014722222222222222
sI100
F0.0010833333333333333
sI101
F0.0041749999999999999
sI102
F0.002225
sI103
F0.0010444444444444444
sI104
F0.0025999999999999999
sI105
F0.0010333333333333334
sI106
F0.0034833333333333335
sI107
F0.001336111111111111
sI108
F0.0013027777777777777
sI109
F0.0059500000000000004
sI110
F0.00099722222222222226
sI111
F0.0035972222222222221
sI112
F0.0010305555555555556
sI113
F0.0070777777777777775
sI114
F0.0011999999999999999
sI115
F0.0054444444444444445
sI116
F0.00090277777777777774
sI117
F0.0014222222222222223
sI118
F0.0026250000000000002
sI119
F0.0013222222222222222
sI120
F0.0016333333333333334
sI121
F0.0014250000000000001
sI122
F0.0010194444444444443
sI123
F0.0010055555555555555
sI124
F0.0021138888888888887
sI125
F0.0022305555555555555
sI126
F0.0044444444444444444
sI127
F0.001411111111111111
sI128
F0.002886111111111111
sI129
F0.0014333333333333333
sI130
F0.0013666666666666666
sI131
F0.0020527777777777779
sI132
F0.0028138888888888888
sI133
F0.0057888888888888886
sI134
F0.001736111111111111
sI135
F0.0010111111111111111
sI136
F0.0021888888888888891
sI137
F0.0015388888888888889
sI138
F0.0060805555555555552
sI139
F0.010094444444444444
sI140
F0.0014277777777777778
sI141
F0.0010527777777777777
sI142
F0.00095555555555555552
sI143
F0.0036055555555555554
sI144
F0.0030972222222222221
sI145
F0.0040138888888888889
sI146
F0.00089444444444444445
sI147
F0.0014666666666666667
sI148
F0.00098333333333333324
sI149
F0.0012694444444444444
sI150
F0.0013722222222222222
sI151
F0.0011638888888888888
sI152
F0.0014555555555555556
sI153
F0.0021916666666666668
sI154
F0.0016166666666666666
sI155
F0.00094166666666666672
sI156
F0.0013305555555555555
sI157
F0.0014611111111111112
sI158
F0.0011027777777777778
sI159
F0.0014777777777777777
sI160
F0.0032194444444444445
ssS'MEAN_ON_PATH'
p888
F0.19734722222222223
ssS'OVERHEAD'
p889
g11
(tRp890
g879
F5.345102777777778
sstp891
a(g11
(tRp892
S'workload'
p893
g11
(tRp894
S'n_contents'
p895
I10000
sS'name'
p896
S'STATIONARY'
p897
sS'n_warmup'
p898
I360000
sS'rate'
p899
I1000
sS'n_measured'
p900
I360000
sS'alpha'
p901
F0.80000000000000004
ssS'cache_policy'
p902
g11
(tRp903
g896
S'LRU'
p904
ssS'desc'
p905
S'RSN size sensitivity -> RSN/cache ratio: 32.0'
p906
sS'strategy'
p907
g11
(tRp908
S'p'
F0.17999999999999999
sg896
S'NDN'
p909
ssS'content_placement'
p910
g11
(tRp911
g896
S'LOWEST_DEGREE'
p912
ssS'joint_cache_rsn_placement'
p913
g11
(tRp914
S'network_cache'
p915
F0.94999999999999996
sS'network_rsn'
p916
F30.399999999999999
sg896
S'CACHE_ALL_RSN_ALL'
p917
sS'rsn_cache_ratio'
p918
F32
ssS'warmup_strategy'
p919
g11
(tRp920
g896
g909
ssS'topology'
p921
g11
(tRp922
S'ext_delay'
p923
I5
sS'source_ratio'
p924
F0.10000000000000001
sg896
S'ROCKET_FUEL'
p925
sS'asn'
p926
I3257
ssg11
(tRp927
S'LATENCY'
p928
g11
(tRp929
S'MEAN'
p930
F73.141216666666665
ssS'CACHE_HIT_RATIO'
p931
g11
(tRp932
S'MEAN_OFF_PATH'
p933
F0
sS'PER_NODE_SERVER_HIT_RATIO'
p934
g11
(tRp935
S'src_1'
p936
F0.75576944444444449
ssg930
F0.24423055555555556
sS'PER_NODE_CACHE_HIT_RATIO'
p937
g11
(tRp938
I0
F0.00087500000000000002
sI1
F0.0049861111111111113
sI2
F0.0008694444444444445
sI3
F0.00087222222222222226
sI4
F0.0015361111111111111
sI5
F0.020177777777777777
sI6
F0.0016111111111111111
sI7
F0.00084722222222222219
sI8
F0.00072222222222222219
sI9
F0.0009277777777777778
sI10
F0.0011388888888888889
sI11
F0.0019333333333333333
sI12
F0.0010194444444444443
sI13
F0.00096111111111111115
sI14
F0.00075277777777777778
sI15
F0.001313888888888889
sI16
F0.00089444444444444445
sI17
F0.0011888888888888889
sI18
F0.0031444444444444445
sI19
F0.001236111111111111
sI20
F0.00094722222222222224
sI21
F0.0011305555555555557
sI22
F0.00099166666666666674
sI23
F0.00091666666666666665
sI24
F0.0084027777777777781
sI25
F0.0017944444444444444
sI26
F0.00097499999999999996
sI27
F0.00092500000000000004
sI28
F0.00096944444444444443
sI29
F0.00099722222222222226
sI30
F0.00079722222222222217
sI31
F0.0041416666666666668
sI32
F0.00077222222222222221
sI33
F0.0048277777777777781
sI34
F0.00089166666666666669
sI35
F0.00077222222222222221
sI36
F0.00092222222222222217
sI37
F0.00082777777777777776
sI38
F0.00092500000000000004
sI39
F0.0056722222222222226
sI40
F0.00094444444444444448
sI41
F0.015094444444444445
sI42
F0.00095555555555555552
sI43
F0.00094444444444444448
sI44
F0.00085277777777777782
sI45
F0.00098333333333333324
sI46
F0.00080555555555555556
sI47
F0.00080555555555555556
sI48
F0.00097222222222222219
sI49
F0.00082222222222222223
sI50
F0.0010833333333333333
sI51
F0.0017833333333333334
sI52
F0.0014583333333333334
sI53
F0.00095833333333333328
sI54
F0.0008611111111111111
sI55
F0.00078888888888888889
sI56
F0.00099166666666666674
sI57
F0.00077499999999999997
sI58
F0.00098888888888888898
sI59
F0.00091666666666666665
sI60
F0.00084722222222222219
sI61
F0.0010611111111111112
sI62
F0.00095555555555555552
sI63
F0.0010611111111111112
sI64
F0.0020416666666666665
sI65
F0.0011805555555555556
sI66
F0.0010611111111111112
sI67
F0.00096666666666666667
sI68
F0.0010361111111111111
sI69
F0.00090555555555555561
sI70
F0.00088888888888888893
sI71
F0.00086666666666666663
sI72
F0.0018472222222222223
sI73
F0.00083888888888888891
sI74
F0.014277777777777778
sI75
F0.0013111111111111112
sI76
F0.0010027777777777778
sI77
F0.0012083333333333334
sI78
F0.00099166666666666674
sI79
F0.00088888888888888893
sI80
F0.004288888888888889
sI81
F0.00093333333333333332
sI82
F0.00091111111111111113
sI83
F0.00098333333333333324
sI84
F0.001911111111111111
sI85
F0.00083333333333333339
sI86
F0.00091944444444444441
sI87
F0.0008027777777777778
sI88
F0.00088888888888888893
sI89
F0.00095
sI90
F0.00086666666666666663
sI91
F0.00084444444444444443
sI92
F0.00092500000000000004
sI93
F0.0025055555555555556
sI94
F0.00083888888888888891
sI95
F0.0009277777777777778
sI96
F0.00095277777777777776
sI97
F0.00093333333333333332
sI98
F0.0011138888888888889
sI99
F0.0010361111111111111
sI100
F0.00084722222222222219
sI101
F0.0012972222222222222
sI102
F0.00093611111111111108
sI103
F0.00090833333333333337
sI104
F0.0013777777777777777
sI105
F0.0008027777777777778
sI106
F0.0012055555555555556
sI107
F0.00088055555555555554
sI108
F0.00091944444444444441
sI109
F0.0012027777777777779
sI110
F0.00093611111111111108
sI111
F0.00096666666666666667
sI112
F0.00077499999999999997
sI113
F0.001977777777777778
sI114
F0.00084166666666666667
sI115
F0.0012888888888888889
sI116
F0.0010222222222222223
sI117
F0.0010111111111111111
sI118
F0.00092500000000000004
sI119
F0.00089166666666666669
sI120
F0.0008833333333333333
sI121
F0.00092222222222222217
sI122
F0.0008027777777777778
sI123
F0.00082777777777777776
sI124
F0.00072499999999999995
sI125
F0.00088611111111111106
sI126
F0.0019722222222222224
sI127
F0.00073055555555555558
sI128
F0.001075
sI129
F0.00087222222222222226
sI130
F0.00094722222222222224
sI131
F0.00079722222222222217
sI132
F0.00115
sI133
F0.0020166666666666666
sI134
F0.0009277777777777778
sI135
F0.00092500000000000004
sI136
F0.00081666666666666671
sI137
F0.00087500000000000002
sI138
F0.0015222222222222221
sI139
F0.0049694444444444447
sI140
F0.0010138888888888888
sI141
F0.00094722222222222224
sI142
F0.00070833333333333338
sI143
F0.0011888888888888889
sI144
F0.0009944444444444445
sI145
F0.0012194444444444444
sI146
F0.0010055555555555555
sI147
F0.00099722222222222226
sI148
F0.00088055555555555554
sI149
F0.00084166666666666667
sI150
F0.00093333333333333332
sI151
F0.00097222222222222219
sI152
F0.00080833333333333332
sI153
F0.00080833333333333332
sI154
F0.0008833333333333333
sI155
F0.0008611111111111111
sI156
F0.00071666666666666667
sI157
F0.00094166666666666672
sI158
F0.0008833333333333333
sI159
F0.00086388888888888887
sI160
F0.0011027777777777778
ssS'MEAN_ON_PATH'
p939
F0.24423055555555556
ssS'OVERHEAD'
p940
g11
(tRp941
g930
F11.460313888888889
sstp942
a(g11
(tRp943
S'workload'
p944
g11
(tRp945
S'n_contents'
p946
I10000
sS'name'
p947
S'STATIONARY'
p948
sS'n_warmup'
p949
I360000
sS'rate'
p950
I1000
sS'n_measured'
p951
I360000
sS'alpha'
p952
F0.80000000000000004
ssS'cache_policy'
p953
g11
(tRp954
g947
S'LRU'
p955
ssS'desc'
p956
S'RSN size sensitivity -> RSN/cache ratio: 32.0'
p957
sS'strategy'
p958
g11
(tRp959
S'p'
F0.17999999999999999
sg947
S'LIRA_DFIB'
p960
ssS'content_placement'
p961
g11
(tRp962
g947
S'LOWEST_DEGREE'
p963
ssS'joint_cache_rsn_placement'
p964
g11
(tRp965
S'network_cache'
p966
F0.94999999999999996
sS'network_rsn'
p967
F30.399999999999999
sg947
S'CACHE_ALL_RSN_ALL'
p968
sS'rsn_cache_ratio'
p969
F32
ssS'warmup_strategy'
p970
g11
(tRp971
g947
S'NDN'
p972
ssS'topology'
p973
g11
(tRp974
S'ext_delay'
p975
I5
sS'source_ratio'
p976
F0.10000000000000001
sg947
S'ROCKET_FUEL'
p977
sS'asn'
p978
I3257
ssg11
(tRp979
S'LATENCY'
p980
g11
(tRp981
S'MEAN'
p982
F63.263038888888886
ssS'CACHE_HIT_RATIO'
p983
g11
(tRp984
S'MEAN_OFF_PATH'
p985
F0.2090393759225054
sS'PER_NODE_SERVER_HIT_RATIO'
p986
g11
(tRp987
S'src_1'
p988
F0.59070806875486348
ssg982
F0.40929193124513652
sS'PER_NODE_CACHE_HIT_RATIO'
p989
g11
(tRp990
I0
F0.0011021602895524619
sI1
F0.0094985170682536299
sI2
F0.00098585191728813178
sI3
F0.0011769299574366742
sI4
F0.0074908130232145976
sI5
F0.011065910846863413
sI6
F0.0040071003492020418
sI7
F0.001647701940411344
sI8
F0.0008058508649742875
sI9
F0.0010052366459988534
sI10
F0.0039018689647724093
sI11
F0.0061006510499599844
sI12
F0.0027498622299638059
sI13
F0.0013264692932050987
sI14
F0.0010412368564616224
sI15
F0.0043144867616149137
sI16
F0.0010356983625442733
sI17
F0.0033507888199961785
sI18
F0.0061421897543401027
sI19
F0.0035529438479794191
sI20
F0.0013735464915025657
sI21
F0.0020741659720472211
sI22
F0.0014566239002628016
sI23
F0.0013624695036678677
sI24
F0.011279142862681351
sI25
F0.0052061842823081118
sI26
F0.0011270835121805327
sI27
F0.00094154396594933938
sI28
F0.0020797044659645702
sI29
F0.00064246529441249042
sI30
F0.00096092869466006113
sI31
F0.00706434899157872
sI32
F0.0011658529696019762
sI33
F0.0075877366667682061
sI34
F0.00089723601461054697
sI35
F0.0010578523382136695
sI36
F0.0010356983625442733
sI37
F0.00088062053285849976
sI38
F0.0015120088394362922
sI39
F0.009285285052435692
sI40
F0.0005649263795696036
sI41
F0.006277882855315154
sI42
F0.00065077303528851397
sI43
F0.0029492480109883719
sI44
F0.0015867785073205042
sI45
F0.00088338977981717432
sI46
F0.001811087510973141
sI47
F0.0011713914635193253
sI48
F0.00093877471899066482
sI49
F0.00096092869466006113
sI50
F0.002508937744559122
sI51
F0.0044972570608874333
sI52
F0.0049569520560274047
sI53
F0.0030267869258312585
sI54
F0.00098585191728813178
sI55
F0.0015757015194858062
sI56
F0.0015369320620643627
sI57
F0.0014898548637668958
sI58
F0.0024286295827575608
sI59
F0.0010633908321310186
sI60
F0.00096923643553608468
sI61
F0.0033895582774176218
sI62
F0.0013846234793372639
sI63
F0.002387090878377443
sI64
F0.0081498937993791341
sI65
F0.0034781741800952067
sI66
F0.0026861695499142916
sI67
F0.0023704753966253956
sI68
F0.0013707772445438911
sI69
F0.00082523559368500926
sI70
F0.0010301598686269242
sI71
F0.0010578523382136695
sI72
F0.0085431268675109171
sI73
F0.0012738536009902826
sI74
F0.011639144967309039
sI75
F0.0037052524307065178
sI76
F0.00068954249270995738
sI77
F0.0053861853346219559
sI78
F0.0012295456496514902
sI79
F0.00096923643553608468
sI80
F0.0066489619477775406
sI81
F0.0012627766131555846
sI82
F0.0011630837226433016
sI83
F0.00090554375548657052
sI84
F0.0067237316156617535
sI85
F0.0014870856168082214
sI86
F0.0010135443868748771
sI87
F0.00093046697811464127
sI88
F0.0010107751399162025
sI89
F0.0015673937786097826
sI90
F0.0011104680304284856
sI91
F0.0012184686618167922
sI92
F0.0017086253735021835
sI93
F0.0056686485244067577
sI94
F0.0012932383297010045
sI95
F0.0015812400134031554
sI96
F0.0012101609209407686
sI97
F0.0011824684513540233
sI98
F0.0050815681691677586
sI99
F0.0012267764026928157
sI100
F0.0012406226374861884
sI101
F0.0046329501618624846
sI102
F0.0024424758175509336
sI103
F0.00093046697811464127
sI104
F0.0028357088856827161
sI105
F0.00087508203894115077
sI106
F0.0035003281557646031
sI107
F0.0010910833017177639
sI108
F0.0012267764026928157
sI109
F0.0053806468407046068
sI110
F0.0012960075766596788
sI111
F0.0024313988297162354
sI112
F0.001243391884444863
sI113
F0.0063831142397447862
sI114
F0.00098308267032945723
sI115
F0.0046827966071186266
sI116
F0.0010024673990401791
sI117
F0.0010772370669243911
sI118
F0.0028329396387240416
sI119
F0.00070615797446200459
sI120
F0.0010052366459988534
sI121
F0.0012627766131555846
sI122
F0.00094985170682536293
sI123
F0.0014510854063454525
sI124
F0.0010190828807922262
sI125
F0.0013458540219158203
sI126
F0.005416647051167376
sI127
F0.00093046697811464127
sI128
F0.0031929417433517304
sI129
F0.0012184686618167922
sI130
F0.0013181615523290753
sI131
F0.0012987768236183534
sI132
F0.0029270940353189759
sI133
F0.0060923433090839607
sI134
F0.0012267764026928157
sI135
F0.001060621585172344
sI136
F0.00089446676765187242
sI137
F0.0010495445973376461
sI138
F0.0043283329964082864
sI139
F0.013018229952728954
sI140
F0.00091938999027994317
sI141
F0.0011049295365111365
sI142
F0.0013486232688744949
sI143
F0.002240320789567693
sI144
F0.002439706570592259
sI145
F0.0035030974027232776
sI146
F0.0012378533905275139
sI147
F0.0014981626046429194
sI148
F0.0014095467019653346
sI149
F0.0011381605000152309
sI150
F0.0013153923053704007
sI151
F0.0008169278528089856
sI152
F0.00079200463018091495
sI153
F0.0011160065243458347
sI154
F0.00089446676765187242
sI155
F0.0010744678199657168
sI156
F0.00081415860585031116
sI157
F0.00093323622507331583
sI158
F0.0013763157384612402
sI159
F0.0011160065243458347
sI160
F0.0047132583236640458
ssS'MEAN_ON_PATH'
p991
F0.20025255532263112
ssS'OVERHEAD'
p992
g11
(tRp993
g982
F5.4651805555555555
sstp994
a(g11
(tRp995
S'workload'
p996
g11
(tRp997
S'n_contents'
p998
I10000
sS'name'
p999
S'STATIONARY'
p1000
sS'n_warmup'
p1001
I360000
sS'rate'
p1002
I1000
sS'n_measured'
p1003
I360000
sS'alpha'
p1004
F0.80000000000000004
ssS'cache_policy'
p1005
g11
(tRp1006
g999
S'LRU'
p1007
ssS'desc'
p1008
S'RSN size sensitivity -> RSN/cache ratio: 64.0'
p1009
sS'strategy'
p1010
g11
(tRp1011
S'p'
F0.17999999999999999
sg999
S'LIRA_BC'
p1012
ssS'content_placement'
p1013
g11
(tRp1014
g999
S'LOWEST_DEGREE'
p1015
ssS'joint_cache_rsn_placement'
p1016
g11
(tRp1017
S'network_cache'
p1018
F0.94999999999999996
sS'network_rsn'
p1019
F60.799999999999997
sg999
S'CACHE_ALL_RSN_ALL'
p1020
sS'rsn_cache_ratio'
p1021
F64
ssS'warmup_strategy'
p1022
g11
(tRp1023
g999
S'NDN'
p1024
ssS'topology'
p1025
g11
(tRp1026
S'ext_delay'
p1027
I5
sS'source_ratio'
p1028
F0.10000000000000001
sg999
S'ROCKET_FUEL'
p1029
sS'asn'
p1030
I3257
ssg11
(tRp1031
S'LATENCY'
p1032
g11
(tRp1033
S'MEAN'
p1034
F62.286216666666668
ssS'CACHE_HIT_RATIO'
p1035
g11
(tRp1036
S'MEAN_OFF_PATH'
p1037
F0.3211222222222222
sS'PER_NODE_SERVER_HIT_RATIO'
p1038
g11
(tRp1039
S'src_1'
p1040
F0.48838055555555554
ssg1034
F0.5116194444444444
sS'PER_NODE_CACHE_HIT_RATIO'
p1041
g11
(tRp1042
I0
F0.0023305555555555558
sI1
F0.0078972222222222221
sI2
F0.0013777777777777777
sI3
F0.0012527777777777778
sI4
F0.0098499999999999994
sI5
F0.0068666666666666668
sI6
F0.0060416666666666665
sI7
F0.0015611111111111112
sI8
F0.0018361111111111111
sI9
F0.001736111111111111
sI10
F0.0046499999999999996
sI11
F0.0059694444444444448
sI12
F0.0033166666666666665
sI13
F0.0017666666666666666
sI14
F0.002
sI15
F0.0043666666666666663
sI16
F0.001977777777777778
sI17
F0.0049722222222222225
sI18
F0.0060472222222222221
sI19
F0.0049972222222222223
sI20
F0.0013277777777777778
sI21
F0.0027722222222222224
sI22
F0.0015222222222222221
sI23
F0.0016805555555555556
sI24
F0.0085583333333333327
sI25
F0.0053249999999999999
sI26
F0.0013888888888888889
sI27
F0.0012666666666666666
sI28
F0.0028888888888888888
sI29
F0.0026555555555555555
sI30
F0.0024194444444444446
sI31
F0.0045333333333333337
sI32
F0.0025500000000000002
sI33
F0.0050527777777777776
sI34
F0.0022638888888888891
sI35
F0.0014138888888888888
sI36
F0.0023333333333333335
sI37
F0.0026555555555555555
sI38
F0.0016527777777777778
sI39
F0.0058722222222222223
sI40
F0.00079444444444444441
sI41
F0.0033249999999999998
sI42
F0.0011833333333333333
sI43
F0.0037916666666666667
sI44
F0.0018111111111111112
sI45
F0.004402777777777778
sI46
F0.0019638888888888887
sI47
F0.002075
sI48
F0.0029333333333333334
sI49
F0.0027333333333333333
sI50
F0.0042444444444444448
sI51
F0.0065805555555555556
sI52
F0.005508333333333333
sI53
F0.003413888888888889
sI54
F0.0015805555555555555
sI55
F0.0017055555555555556
sI56
F0.0014777777777777777
sI57
F0.0014611111111111112
sI58
F0.0039222222222222219
sI59
F0.0015722222222222223
sI60
F0.0013694444444444444
sI61
F0.0045833333333333334
sI62
F0.0015166666666666666
sI63
F0.0040111111111111111
sI64
F0.0094361111111111104
sI65
F0.0044944444444444441
sI66
F0.0034972222222222223
sI67
F0.0048361111111111113
sI68
F0.0010444444444444444
sI69
F0.0019166666666666666
sI70
F0.0025361111111111109
sI71
F0.0016694444444444445
sI72
F0.0068194444444444448
sI73
F0.0010305555555555556
sI74
F0.006519444444444444
sI75
F0.0036777777777777776
sI76
F0.0018666666666666666
sI77
F0.0077999999999999996
sI78
F0.0022166666666666667
sI79
F0.0028500000000000001
sI80
F0.0061722222222222222
sI81
F0.0016555555555555555
sI82
F0.0024666666666666665
sI83
F0.0016305555555555554
sI84
F0.0075055555555555552
sI85
F0.001988888888888889
sI86
F0.002811111111111111
sI87
F0.0028388888888888891
sI88
F0.0023138888888888888
sI89
F0.0031555555555555555
sI90
F0.0020500000000000002
sI91
F0.0021083333333333332
sI92
F0.0019805555555555557
sI93
F0.0054694444444444443
sI94
F0.0031805555555555554
sI95
F0.0017972222222222222
sI96
F0.0018777777777777777
sI97
F0.0020999999999999999
sI98
F0.0039222222222222219
sI99
F0.002477777777777778
sI100
F0.0018861111111111112
sI101
F0.0053249999999999999
sI102
F0.0025999999999999999
sI103
F0.0013083333333333334
sI104
F0.0032805555555555557
sI105
F0.0015611111111111112
sI106
F0.0040166666666666666
sI107
F0.0020249999999999999
sI108
F0.0014277777777777778
sI109
F0.006186111111111111
sI110
F0.0016305555555555554
sI111
F0.0038388888888888891
sI112
F0.0014166666666666668
sI113
F0.0066055555555555555
sI114
F0.0017222222222222222
sI115
F0.0062138888888888886
sI116
F0.0012694444444444444
sI117
F0.0017666666666666666
sI118
F0.0037888888888888889
sI119
F0.0029944444444444445
sI120
F0.0022388888888888888
sI121
F0.0027111111111111112
sI122
F0.00175
sI123
F0.002886111111111111
sI124
F0.0025361111111111109
sI125
F0.0030999999999999999
sI126
F0.0050888888888888893
sI127
F0.0028194444444444443
sI128
F0.0042555555555555558
sI129
F0.0015222222222222221
sI130
F0.0023249999999999998
sI131
F0.0023611111111111111
sI132
F0.0035166666666666666
sI133
F0.0060583333333333331
sI134
F0.0019499999999999999
sI135
F0.0011944444444444444
sI136
F0.0016916666666666666
sI137
F0.0024305555555555556
sI138
F0.0051416666666666668
sI139
F0.007288888888888889
sI140
F0.0022833333333333334
sI141
F0.0030138888888888889
sI142
F0.0020166666666666666
sI143
F0.0051749999999999999
sI144
F0.00545
sI145
F0.0058833333333333333
sI146
F0.0012166666666666667
sI147
F0.0014305555555555556
sI148
F0.0020500000000000002
sI149
F0.0012277777777777777
sI150
F0.0015916666666666666
sI151
F0.0012861111111111111
sI152
F0.0019333333333333333
sI153
F0.0023527777777777779
sI154
F0.0017833333333333334
sI155
F0.0020999999999999999
sI156
F0.0015305555555555556
sI157
F0.0025000000000000001
sI158
F0.0012444444444444445
sI159
F0.0018027777777777777
sI160
F0.0093944444444444448
ssS'MEAN_ON_PATH'
p1043
F0.19049722222222221
ssS'OVERHEAD'
p1044
g11
(tRp1045
g1034
F5.1825777777777775
sstp1046
a(g11
(tRp1047
S'workload'
p1048
g11
(tRp1049
S'n_contents'
p1050
I10000
sS'name'
p1051
S'STATIONARY'
p1052
sS'n_warmup'
p1053
I360000
sS'rate'
p1054
I1000
sS'n_measured'
p1055
I360000
sS'alpha'
p1056
F0.80000000000000004
ssS'cache_policy'
p1057
g11
(tRp1058
g1051
S'LRU'
p1059
ssS'desc'
p1060
S'RSN size sensitivity -> RSN/cache ratio: 32.0'
p1061
sS'strategy'
p1062
g11
(tRp1063
g1051
S'NRR'
p1064
ssS'content_placement'
p1065
g11
(tRp1066
g1051
S'LOWEST_DEGREE'
p1067
ssS'joint_cache_rsn_placement'
p1068
g11
(tRp1069
S'network_cache'
p1070
F0.94999999999999996
sS'network_rsn'
p1071
F30.399999999999999
sg1051
S'CACHE_ALL_RSN_ALL'
p1072
sS'rsn_cache_ratio'
p1073
F32
ssS'warmup_strategy'
p1074
g11
(tRp1075
g1051
S'NDN'
p1076
ssS'topology'
p1077
g11
(tRp1078
S'ext_delay'
p1079
I5
sS'source_ratio'
p1080
F0.10000000000000001
sg1051
S'ROCKET_FUEL'
p1081
sS'asn'
p1082
I3257
ssg11
(tRp1083
S'LATENCY'
p1084
g11
(tRp1085
S'MEAN'
p1086
F46.596511111111113
ssS'CACHE_HIT_RATIO'
p1087
g11
(tRp1088
S'MEAN_OFF_PATH'
p1089
F0.50292777777777775
sS'PER_NODE_SERVER_HIT_RATIO'
p1090
g11
(tRp1091
S'src_1'
p1092
F0.37030000000000002
ssg1086
F0.62970000000000004
sS'PER_NODE_CACHE_HIT_RATIO'
p1093
g11
(tRp1094
I0
F0.010741666666666667
sI1
F0.016113888888888889
sI2
F0.0079027777777777777
sI3
F0.0078027777777777774
sI4
F0.0031861111111111109
sI5
F0.0012916666666666667
sI6
F0.0053861111111111115
sI7
F0.0034333333333333334
sI8
F0.0027194444444444445
sI9
F0.004563888888888889
sI10
F0.0051749999999999999
sI11
F0.0037750000000000001
sI12
F0.005541666666666667
sI13
F0.0031111111111111109
sI14
F0.0024333333333333334
sI15
F0.0026944444444444446
sI16
F0.0073666666666666663
sI17
F0.0053166666666666666
sI18
F0.0050888888888888893
sI19
F0.0026444444444444445
sI20
F0.0024194444444444446
sI21
F0.0033138888888888888
sI22
F0.0023638888888888889
sI23
F0.0018277777777777778
sI24
F0.0031027777777777777
sI25
F0.007036111111111111
sI26
F0.0023722222222222222
sI27
F0.0024638888888888887
sI28
F0.0022666666666666668
sI29
F0.0080611111111111109
sI30
F0.0043722222222222227
sI31
F0.0012833333333333334
sI32
F0.0076722222222222226
sI33
F0.0041583333333333333
sI34
F0.0076444444444444442
sI35
F0.0034472222222222222
sI36
F0.0062944444444444445
sI37
F0.0090222222222222214
sI38
F0.0039972222222222223
sI39
F0.0020388888888888887
sI40
F0.0040444444444444443
sI41
F0.00013888888888888889
sI42
F0.0037416666666666666
sI43
F0.0033249999999999998
sI44
F0.001488888888888889
sI45
F0.0048694444444444445
sI46
F0.0039361111111111107
sI47
F0.0033611111111111112
sI48
F0.0038
sI49
F0.004311111111111111
sI50
F0.0064000000000000003
sI51
F0.0045277777777777781
sI52
F0.0084499999999999992
sI53
F0.0032861111111111112
sI54
F0.002138888888888889
sI55
F0.0028027777777777777
sI56
F0.0020055555555555556
sI57
F0.0015277777777777779
sI58
F0.0021972222222222224
sI59
F0.0038888888888888888
sI60
F0.0027888888888888889
sI61
F0.0065166666666666663
sI62
F0.0033305555555555554
sI63
F0.0047611111111111109
sI64
F0.0029916666666666668
sI65
F0.0051555555555555556
sI66
F0.0039555555555555559
sI67
F0.0048611111111111112
sI68
F0.0045277777777777781
sI69
F0.0079472222222222218
sI70
F0.0030055555555555556
sI71
F0.0062361111111111115
sI72
F0.0029499999999999999
sI73
F0.0030333333333333332
sI74
F0.0022861111111111112
sI75
F0.0048416666666666669
sI76
F0.0050527777777777776
sI77
F0.0045972222222222222
sI78
F0.0033222222222222221
sI79
F0.0037111111111111112
sI80
F0.0028527777777777779
sI81
F0.0022000000000000001
sI82
F0.0030083333333333333
sI83
F0.0037611111111111109
sI84
F0.0055472222222222225
sI85
F0.0030305555555555554
sI86
F0.0029527777777777777
sI87
F0.0042611111111111113
sI88
F0.0039472222222222226
sI89
F0.0033694444444444444
sI90
F0.0032222222222222222
sI91
F0.0030777777777777778
sI92
F0.003036111111111111
sI93
F0.0029916666666666668
sI94
F0.0031194444444444447
sI95
F0.0027833333333333334
sI96
F0.0042861111111111112
sI97
F0.0039416666666666662
sI98
F0.0032750000000000001
sI99
F0.0041916666666666665
sI100
F0.0030166666666666666
sI101
F0.0044749999999999998
sI102
F0.0012555555555555555
sI103
F0.0012611111111111111
sI104
F0.0014944444444444445
sI105
F0.0022944444444444444
sI106
F0.0024472222222222222
sI107
F0.0020277777777777777
sI108
F0.0040305555555555555
sI109
F0.0041833333333333332
sI110
F0.0019416666666666666
sI111
F0.0025305555555555554
sI112
F0.0013833333333333334
sI113
F0.0057361111111111111
sI114
F0.0041444444444444445
sI115
F0.0033638888888888889
sI116
F0.0037388888888888888
sI117
F0.0039500000000000004
sI118
F0.0023083333333333332
sI119
F0.0026361111111111112
sI120
F0.003413888888888889
sI121
F0.0047499999999999999
sI122
F0.003536111111111111
sI123
F0.0033999999999999998
sI124
F0.0030222222222222222
sI125
F0.0028527777777777779
sI126
F0.0014666666666666667
sI127
F0.0032027777777777779
sI128
F0.0078333333333333328
sI129
F0.0036305555555555557
sI130
F0.0037666666666666669
sI131
F0.0033055555555555555
sI132
F0.0041916666666666665
sI133
F0.004311111111111111
sI134
F0.013236111111111112
sI135
F0.003236111111111111
sI136
F0.0055972222222222222
sI137
F0.0052750000000000002
sI138
F0.0055333333333333337
sI139
F0.0019416666666666666
sI140
F0.0046638888888888893
sI141
F0.0039833333333333335
sI142
F0.0035055555555555556
sI143
F0.0054472222222222222
sI144
F0.0036444444444444445
sI145
F0.0051916666666666665
sI146
F0.0016583333333333333
sI147
F0.0029055555555555558
sI148
F0.0035333333333333332
sI149
F0.0019583333333333332
sI150
F0.0023777777777777777
sI151
F0.0019388888888888889
sI152
F0.0034583333333333332
sI153
F0.0038083333333333333
sI154
F0.0025166666666666666
sI155
F0.0034027777777777776
sI156
F0.002638888888888889
sI157
F0.0036222222222222224
sI158
F0.0018944444444444445
sI159
F0.0029083333333333335
sI160
F0.0025027777777777778
ssS'MEAN_ON_PATH'
p1095
F0.12677222222222229
ssS'OVERHEAD'
p1096
g11
(tRp1097
g1086
F4.5904666666666669
sstp1098
a(g11
(tRp1099
S'workload'
p1100
g11
(tRp1101
S'n_contents'
p1102
I10000
sS'name'
p1103
S'STATIONARY'
p1104
sS'n_warmup'
p1105
I360000
sS'rate'
p1106
I1000
sS'n_measured'
p1107
I360000
sS'alpha'
p1108
F0.80000000000000004
ssS'cache_policy'
p1109
g11
(tRp1110
g1103
S'LRU'
p1111
ssS'desc'
p1112
S'RSN size sensitivity -> RSN/cache ratio: 64.0'
p1113
sS'strategy'
p1114
g11
(tRp1115
S'p'
F0.17999999999999999
sg1103
S'NDN'
p1116
ssS'content_placement'
p1117
g11
(tRp1118
g1103
S'LOWEST_DEGREE'
p1119
ssS'joint_cache_rsn_placement'
p1120
g11
(tRp1121
S'network_cache'
p1122
F0.94999999999999996
sS'network_rsn'
p1123
F60.799999999999997
sg1103
S'CACHE_ALL_RSN_ALL'
p1124
sS'rsn_cache_ratio'
p1125
F64
ssS'warmup_strategy'
p1126
g11
(tRp1127
g1103
g1116
ssS'topology'
p1128
g11
(tRp1129
S'ext_delay'
p1130
I5
sS'source_ratio'
p1131
F0.10000000000000001
sg1103
S'ROCKET_FUEL'
p1132
sS'asn'
p1133
I3257
ssg11
(tRp1134
S'LATENCY'
p1135
g11
(tRp1136
S'MEAN'
p1137
F73.12744444444445
ssS'CACHE_HIT_RATIO'
p1138
g11
(tRp1139
S'MEAN_OFF_PATH'
p1140
F0
sS'PER_NODE_SERVER_HIT_RATIO'
p1141
g11
(tRp1142
S'src_1'
p1143
F0.75558055555555559
ssg1137
F0.24441944444444444
sS'PER_NODE_CACHE_HIT_RATIO'
p1144
g11
(tRp1145
I0
F0.0009277777777777778
sI1
F0.0052388888888888893
sI2
F0.0010611111111111112
sI3
F0.00098333333333333324
sI4
F0.0014583333333333334
sI5
F0.019813888888888888
sI6
F0.0013583333333333334
sI7
F0.00087222222222222226
sI8
F0.00091111111111111113
sI9
F0.00098055555555555548
sI10
F0.0011694444444444445
sI11
F0.0020083333333333333
sI12
F0.0011055555555555556
sI13
F0.00085833333333333334
sI14
F0.00091111111111111113
sI15
F0.0014805555555555555
sI16
F0.00076666666666666669
sI17
F0.0012055555555555556
sI18
F0.0030333333333333332
sI19
F0.0011916666666666666
sI20
F0.00083611111111111115
sI21
F0.0011166666666666666
sI22
F0.00093888888888888885
sI23
F0.00086666666666666663
sI24
F0.0084416666666666668
sI25
F0.0017916666666666667
sI26
F0.00094444444444444448
sI27
F0.00091666666666666665
sI28
F0.0010111111111111111
sI29
F0.00089999999999999998
sI30
F0.00091666666666666665
sI31
F0.0043083333333333333
sI32
F0.00084166666666666667
sI33
F0.0049111111111111109
sI34
F0.00087777777777777778
sI35
F0.0010111111111111111
sI36
F0.00091111111111111113
sI37
F0.00091944444444444441
sI38
F0.0010444444444444444
sI39
F0.0056527777777777774
sI40
F0.00097222222222222219
sI41
F0.015438888888888889
sI42
F0.00076388888888888893
sI43
F0.0010194444444444443
sI44
F0.00085277777777777782
sI45
F0.00090555555555555561
sI46
F0.0010361111111111111
sI47
F0.00098333333333333324
sI48
F0.0008611111111111111
sI49
F0.00092500000000000004
sI50
F0.0010277777777777778
sI51
F0.0018194444444444445
sI52
F0.0013111111111111112
sI53
F0.0010222222222222223
sI54
F0.0008027777777777778
sI55
F0.00091666666666666665
sI56
F0.00091111111111111113
sI57
F0.0008833333333333333
sI58
F0.0010472222222222222
sI59
F0.00093055555555555556
sI60
F0.00098055555555555548
sI61
F0.0010444444444444444
sI62
F0.00077499999999999997
sI63
F0.00090833333333333337
sI64
F0.0017305555555555555
sI65
F0.0014444444444444444
sI66
F0.0011000000000000001
sI67
F0.0010138888888888888
sI68
F0.00079166666666666665
sI69
F0.00080833333333333332
sI70
F0.00089166666666666669
sI71
F0.00089722222222222221
sI72
F0.001736111111111111
sI73
F0.00093888888888888885
sI74
F0.01416111111111111
sI75
F0.0010361111111111111
sI76
F0.00084722222222222219
sI77
F0.001236111111111111
sI78
F0.00092222222222222217
sI79
F0.0009277777777777778
sI80
F0.0038055555555555555
sI81
F0.00088055555555555554
sI82
F0.00083888888888888891
sI83
F0.00084444444444444443
sI84
F0.0019388888888888889
sI85
F0.00090555555555555561
sI86
F0.0008694444444444445
sI87
F0.00097777777777777772
sI88
F0.00090833333333333337
sI89
F0.00096111111111111115
sI90
F0.00091944444444444441
sI91
F0.00088055555555555554
sI92
F0.00091111111111111113
sI93
F0.0024055555555555557
sI94
F0.00080833333333333332
sI95
F0.00079722222222222217
sI96
F0.00095833333333333328
sI97
F0.0010027777777777778
sI98
F0.0011999999999999999
sI99
F0.0010305555555555556
sI100
F0.00094166666666666672
sI101
F0.0011861111111111111
sI102
F0.0011305555555555557
sI103
F0.00096111111111111115
sI104
F0.0011527777777777777
sI105
F0.00091111111111111113
sI106
F0.001075
sI107
F0.00084444444444444443
sI108
F0.00080833333333333332
sI109
F0.0015333333333333334
sI110
F0.00091944444444444441
sI111
F0.00098333333333333324
sI112
F0.00083888888888888891
sI113
F0.0020083333333333333
sI114
F0.00089999999999999998
sI115
F0.0015222222222222221
sI116
F0.0008833333333333333
sI117
F0.00087500000000000002
sI118
F0.0010972222222222223
sI119
F0.00099166666666666674
sI120
F0.0008611111111111111
sI121
F0.00080000000000000004
sI122
F0.00083055555555555552
sI123
F0.000825
sI124
F0.00091111111111111113
sI125
F0.00093888888888888885
sI126
F0.001825
sI127
F0.00083611111111111115
sI128
F0.0010388888888888889
sI129
F0.00090277777777777774
sI130
F0.00089999999999999998
sI131
F0.00081666666666666671
sI132
F0.0010361111111111111
sI133
F0.0019499999999999999
sI134
F0.00089999999999999998
sI135
F0.0008027777777777778
sI136
F0.00087222222222222226
sI137
F0.00079166666666666665
sI138
F0.0013944444444444445
sI139
F0.0047611111111111109
sI140
F0.00090277777777777774
sI141
F0.00094166666666666672
sI142
F0.00087500000000000002
sI143
F0.00098055555555555548
sI144
F0.0011416666666666667
sI145
F0.001175
sI146
F0.00095833333333333328
sI147
F0.00076111111111111106
sI148
F0.00092500000000000004
sI149
F0.00093055555555555556
sI150
F0.00094722222222222224
sI151
F0.00084999999999999995
sI152
F0.00084722222222222219
sI153
F0.00084166666666666667
sI154
F0.00096111111111111115
sI155
F0.0010555555555555555
sI156
F0.00094444444444444448
sI157
F0.00089166666666666669
sI158
F0.00077777777777777773
sI159
F0.00083611111111111115
sI160
F0.0013555555555555556
ssS'MEAN_ON_PATH'
p1146
F0.24441944444444444
ssS'OVERHEAD'
p1147
g11
(tRp1148
g1137
F11.459063888888888
sstp1149
a(g11
(tRp1150
S'workload'
p1151
g11
(tRp1152
S'n_contents'
p1153
I10000
sS'name'
p1154
S'STATIONARY'
p1155
sS'n_warmup'
p1156
I360000
sS'rate'
p1157
I1000
sS'n_measured'
p1158
I360000
sS'alpha'
p1159
F0.80000000000000004
ssS'cache_policy'
p1160
g11
(tRp1161
g1154
S'LRU'
p1162
ssS'desc'
p1163
S'RSN size sensitivity -> RSN/cache ratio: 64.0'
p1164
sS'strategy'
p1165
g11
(tRp1166
S'p'
F0.17999999999999999
sg1154
S'LIRA_DFIB'
p1167
ssS'content_placement'
p1168
g11
(tRp1169
g1154
S'LOWEST_DEGREE'
p1170
ssS'joint_cache_rsn_placement'
p1171
g11
(tRp1172
S'network_cache'
p1173
F0.94999999999999996
sS'network_rsn'
p1174
F60.799999999999997
sg1154
S'CACHE_ALL_RSN_ALL'
p1175
sS'rsn_cache_ratio'
p1176
F64
ssS'warmup_strategy'
p1177
g11
(tRp1178
g1154
S'NDN'
p1179
ssS'topology'
p1180
g11
(tRp1181
S'ext_delay'
p1182
I5
sS'source_ratio'
p1183
F0.10000000000000001
sg1154
S'ROCKET_FUEL'
p1184
sS'asn'
p1185
I3257
ssg11
(tRp1186
S'LATENCY'
p1187
g11
(tRp1188
S'MEAN'
p1189
F59.594919444444443
ssS'CACHE_HIT_RATIO'
p1190
g11
(tRp1191
S'MEAN_OFF_PATH'
p1192
F0.27836982639473196
sS'PER_NODE_SERVER_HIT_RATIO'
p1193
g11
(tRp1194
S'src_1'
p1195
F0.52374554814077112
ssg1189
F0.47625445185922882
sS'PER_NODE_CACHE_HIT_RATIO'
p1196
g11
(tRp1197
I0
F0.0012193473457125595
sI1
F0.0077905812314304707
sI2
F0.0012248647545166887
sI3
F0.0013103845909806918
sI4
F0.012240371431960695
sI5
F0.011456899381774344
sI6
F0.006019493005304989
sI7
F0.0016883270940635439
sI8
F0.0013600412702178548
sI9
F0.0016938445028676732
sI10
F0.0039449472949523983
sI11
F0.0057270703386861398
sI12
F0.0038401165276739434
sI13
F0.0011890015972898487
sI14
F0.0014759068551045687
sI15
F0.0046125537602520351
sI16
F0.0014703894463004394
sI17
F0.0034787262510034785
sI18
F0.0053491278356032875
sI19
F0.0040083974961998845
sI20
F0.00096554654072261508
sI21
F0.0027366347668480976
sI22
F0.0016110833708057348
sI23
F0.0013848696098364365
sI24
F0.0089906176463285786
sI25
F0.005539478439345746
sI26
F0.0012772801381559164
sI27
F0.001180725484083655
sI28
F0.002846982942930682
sI29
F0.0016634987544449625
sI30
F0.0011558971444650735
sI31
F0.0054649934204900009
sI32
F0.0013490064526095965
sI33
F0.0061160476593772502
sI34
F0.0016276355972181225
sI35
F0.00090761374827925815
sI36
F0.001108999169629975
sI37
F0.001194519006093978
sI38
F0.0016441878236305102
sI39
F0.0072029771937907085
sI40
F0.0010510663771866181
sI41
F0.0065739925901199762
sI42
F0.0012248647545166887
sI43
F0.003227684150415599
sI44
F0.0015310809431458609
sI45
F0.0017903991569399348
sI46
F0.0019090234462287132
sI47
F0.0017324663644965779
sI48
F0.0015503918739603133
sI49
F0.0014207327670632765
sI50
F0.004634623395468552
sI51
F0.0056553440242324594
sI52
F0.0060691496845421515
sI53
F0.0035449351566530295
sI54
F0.0015007351947231502
sI55
F0.0022235157480640791
sI56
F0.0014593546286921809
sI57
F0.0013352129305992733
sI58
F0.003205614515199082
sI59
F0.0014731481507025042
sI60
F0.0011641732576712673
sI61
F0.0048166978860048164
sI62
F0.0016221181884139933
sI63
F0.0066264079737592034
sI64
F0.012714868589115807
sI65
F0.0041380566030969216
sI66
F0.0031338882007454021
sI67
F0.0076057480364921416
sI68
F0.0014786655595066334
sI69
F0.0013462477482075318
sI70
F0.0015365983519499901
sI71
F0.0014814242639086979
sI72
F0.0076360937849148528
sI73
F0.001194519006093978
sI74
F0.010621011947948766
sI75
F0.004024949722612272
sI76
F0.0010317554463721659
sI77
F0.0082154217093484208
sI78
F0.001630394301620187
sI79
F0.0015283222387437964
sI80
F0.0062457067662742873
sI81
F0.0018786776978060025
sI82
F0.0012607279117435287
sI83
F0.0017517772953110301
sI84
F0.0055367197349436813
sI85
F0.0016497052324346395
sI86
F0.0016221181884139933
sI87
F0.0017959165657440641
sI88
F0.0015503918739603133
sI89
F0.0017103967292800609
sI90
F0.0015834963267850886
sI91
F0.0015283222387437964
sI92
F0.0014510785154859872
sI93
F0.0063119156719238373
sI94
F0.0015034938991252149
sI95
F0.0014897003771148917
sI96
F0.0019807497606823929
sI97
F0.0013793522010323073
sI98
F0.0051173966658298597
sI99
F0.0015531505783623778
sI100
F0.0013241781129910148
sI101
F0.0051753294582732165
sI102
F0.0025490428675077038
sI103
F0.0010952056476196518
sI104
F0.0032525124900341803
sI105
F0.001401421836248824
sI106
F0.0035670047918695464
sI107
F0.0017407424777027716
sI108
F0.0012827975469600456
sI109
F0.0058870751940058872
sI110
F0.0010289967419701011
sI111
F0.0028276720121162297
sI112
F0.0015669441003727011
sI113
F0.0060001820744905359
sI114
F0.0017103967292800609
sI115
F0.0049546331061080476
sI116
F0.0013324542261972088
sI117
F0.001602807257599541
sI118
F0.0031587165403639834
sI119
F0.0014179740626612117
sI120
F0.0014124566538570825
sI121
F0.0014979764903210856
sI122
F0.0013627999746199195
sI123
F0.001602807257599541
sI124
F0.0015917724399912825
sI125
F0.0017159141380841902
sI126
F0.0050870509174071486
sI127
F0.00086899188665035356
sI128
F0.0037683902132202634
sI129
F0.0013710760878261133
sI130
F0.0019062647418266485
sI131
F0.0019559214210638116
sI132
F0.0031559578359619186
sI133
F0.0050649812821906316
sI134
F0.0017986752701461286
sI135
F0.0012993497733724334
sI136
F0.0011890015972898487
sI137
F0.0016138420752077995
sI138
F0.0049049764268708843
sI139
F0.010091340702752359
sI140
F0.0013103845909806918
sI141
F0.0013103845909806918
sI142
F0.0015807376223830241
sI143
F0.0034870023642096727
sI144
F0.0036497659239314848
sI145
F0.0046677278482933279
sI146
F0.0013352129305992733
sI147
F0.0017186728424862547
sI148
F0.001431767584671535
sI149
F0.0013048671821765626
sI150
F0.00088554411306274118
sI151
F0.0013683173834240488
sI152
F0.0015697028047747656
sI153
F0.0014179740626612117
sI154
F0.0015503918739603133
sI155
F0.0021352372071980117
sI156
F0.0013959044274446948
sI157
F0.0018179862009605808
sI158
F0.0010731360124031351
sI159
F0.0013379716350013381
sI160
F0.011139648375536913
ssS'MEAN_ON_PATH'
p1198
F0.19788462546449687
ssS'OVERHEAD'
p1199
g11
(tRp1200
g1189
F5.4275111111111114
sstp1201
a(g11
(tRp1202
S'workload'
p1203
g11
(tRp1204
S'n_contents'
p1205
I10000
sS'name'
p1206
S'STATIONARY'
p1207
sS'n_warmup'
p1208
I360000
sS'rate'
p1209
I1000
sS'n_measured'
p1210
I360000
sS'alpha'
p1211
F0.80000000000000004
ssS'cache_policy'
p1212
g11
(tRp1213
g1206
S'LRU'
p1214
ssS'desc'
p1215
S'RSN size sensitivity -> RSN/cache ratio: 64.0'
p1216
sS'strategy'
p1217
g11
(tRp1218
g1206
S'NRR'
p1219
ssS'content_placement'
p1220
g11
(tRp1221
g1206
S'LOWEST_DEGREE'
p1222
ssS'joint_cache_rsn_placement'
p1223
g11
(tRp1224
S'network_cache'
p1225
F0.94999999999999996
sS'network_rsn'
p1226
F60.799999999999997
sg1206
S'CACHE_ALL_RSN_ALL'
p1227
sS'rsn_cache_ratio'
p1228
F64
ssS'warmup_strategy'
p1229
g11
(tRp1230
g1206
S'NDN'
p1231
ssS'topology'
p1232
g11
(tRp1233
S'ext_delay'
p1234
I5
sS'source_ratio'
p1235
F0.10000000000000001
sg1206
S'ROCKET_FUEL'
p1236
sS'asn'
p1237
I3257
ssg11
(tRp1238
S'LATENCY'
p1239
g11
(tRp1240
S'MEAN'
p1241
F46.661466666666669
ssS'CACHE_HIT_RATIO'
p1242
g11
(tRp1243
S'MEAN_OFF_PATH'
p1244
F0.50299444444444441
sS'PER_NODE_SERVER_HIT_RATIO'
p1245
g11
(tRp1246
S'src_1'
p1247
F0.37059166666666665
ssg1241
F0.62940833333333335
sS'PER_NODE_CACHE_HIT_RATIO'
p1248
g11
(tRp1249
I0
F0.010563888888888888
sI1
F0.016008333333333333
sI2
F0.0078250000000000004
sI3
F0.008058333333333334
sI4
F0.0033611111111111112
sI5
F0.0012305555555555555
sI6
F0.005380555555555556
sI7
F0.0034333333333333334
sI8
F0.0027555555555555554
sI9
F0.004241666666666667
sI10
F0.0054527777777777777
sI11
F0.0038916666666666665
sI12
F0.0050888888888888893
sI13
F0.0031916666666666669
sI14
F0.0022722222222222224
sI15
F0.0027000000000000001
sI16
F0.0077861111111111108
sI17
F0.0058222222222222226
sI18
F0.0051055555555555559
sI19
F0.0028916666666666665
sI20
F0.0025500000000000002
sI21
F0.0032472222222222221
sI22
F0.0024055555555555557
sI23
F0.0018694444444444444
sI24
F0.0033055555555555555
sI25
F0.006933333333333333
sI26
F0.0023999999999999998
sI27
F0.002402777777777778
sI28
F0.0022305555555555555
sI29
F0.0085138888888888885
sI30
F0.0048111111111111115
sI31
F0.0011083333333333333
sI32
F0.0076972222222222225
sI33
F0.0041194444444444447
sI34
F0.0074083333333333336
sI35
F0.003552777777777778
sI36
F0.0060888888888888885
sI37
F0.0092638888888888892
sI38
F0.0041138888888888892
sI39
F0.0020999999999999999
sI40
F0.004127777777777778
sI41
F0.00010277777777777778
sI42
F0.0038805555555555555
sI43
F0.003375
sI44
F0.0014472222222222221
sI45
F0.0047027777777777779
sI46
F0.0038888888888888888
sI47
F0.0031861111111111109
sI48
F0.0039027777777777776
sI49
F0.0042527777777777781
sI50
F0.0060444444444444443
sI51
F0.0047416666666666666
sI52
F0.0083250000000000008
sI53
F0.003547222222222222
sI54
F0.0019027777777777778
sI55
F0.0027777777777777779
sI56
F0.0017805555555555556
sI57
F0.0014694444444444444
sI58
F0.0020249999999999999
sI59
F0.0041138888888888892
sI60
F0.0025361111111111109
sI61
F0.0063
sI62
F0.0034277777777777779
sI63
F0.0043027777777777778
sI64
F0.0029083333333333335
sI65
F0.0052166666666666663
sI66
F0.0040222222222222222
sI67
F0.0047166666666666668
sI68
F0.0047111111111111112
sI69
F0.0077000000000000002
sI70
F0.0031805555555555554
sI71
F0.0061416666666666668
sI72
F0.0029361111111111111
sI73
F0.0029527777777777777
sI74
F0.0021444444444444445
sI75
F0.0047666666666666664
sI76
F0.004977777777777778
sI77
F0.0043666666666666663
sI78
F0.0034472222222222222
sI79
F0.0036638888888888888
sI80
F0.002961111111111111
sI81
F0.0019083333333333333
sI82
F0.0030666666666666668
sI83
F0.0037527777777777776
sI84
F0.0057444444444444444
sI85
F0.00315
sI86
F0.0028166666666666665
sI87
F0.00415
sI88
F0.0038277777777777776
sI89
F0.0035166666666666666
sI90
F0.0031749999999999999
sI91
F0.003375
sI92
F0.0029805555555555557
sI93
F0.0028138888888888888
sI94
F0.0032166666666666667
sI95
F0.0026166666666666669
sI96
F0.0042694444444444446
sI97
F0.0040611111111111108
sI98
F0.003236111111111111
sI99
F0.0039722222222222225
sI100
F0.002736111111111111
sI101
F0.0045888888888888889
sI102
F0.0013444444444444445
sI103
F0.0012750000000000001
sI104
F0.0014416666666666666
sI105
F0.0021250000000000002
sI106
F0.0023555555555555556
sI107
F0.00215
sI108
F0.0039861111111111113
sI109
F0.0042472222222222225
sI110
F0.0018416666666666666
sI111
F0.0025527777777777779
sI112
F0.0015250000000000001
sI113
F0.0058666666666666667
sI114
F0.0044888888888888886
sI115
F0.0033638888888888889
sI116
F0.0037083333333333334
sI117
F0.0041111111111111114
sI118
F0.0024277777777777778
sI119
F0.0025305555555555554
sI120
F0.0035055555555555556
sI121
F0.0050555555555555553
sI122
F0.0033222222222222221
sI123
F0.0032583333333333331
sI124
F0.0030388888888888887
sI125
F0.0029305555555555556
sI126
F0.0014277777777777778
sI127
F0.0033888888888888888
sI128
F0.0079638888888888884
sI129
F0.0037861111111111112
sI130
F0.0039194444444444441
sI131
F0.0030444444444444442
sI132
F0.0039500000000000004
sI133
F0.0043388888888888887
sI134
F0.013205555555555555
sI135
F0.0030916666666666666
sI136
F0.0056916666666666669
sI137
F0.0053777777777777782
sI138
F0.0056833333333333336
sI139
F0.0019166666666666666
sI140
F0.0046166666666666665
sI141
F0.0039638888888888892
sI142
F0.0031472222222222223
sI143
F0.0056666666666666671
sI144
F0.0034527777777777777
sI145
F0.0048472222222222224
sI146
F0.0015694444444444445
sI147
F0.0029166666666666668
sI148
F0.0034833333333333335
sI149
F0.0019
sI150
F0.0022444444444444443
sI151
F0.0018805555555555555
sI152
F0.0037111111111111112
sI153
F0.0036472222222222223
sI154
F0.0026194444444444446
sI155
F0.003386111111111111
sI156
F0.0026305555555555557
sI157
F0.0037111111111111112
sI158
F0.0018916666666666667
sI159
F0.0031833333333333332
sI160
F0.0025666666666666667
ssS'MEAN_ON_PATH'
p1250
F0.12641388888888894
ssS'OVERHEAD'
p1251
g11
(tRp1252
g1241
F4.5947944444444442
sstp1253
atRp1254
sb.