ccopy_reg
_reconstructor
p1
(cicarus.results.readwrite
ResultSet
p2
c__builtin__
object
p3
NtRp4
(dp5
S'attr'
p6
(dp7
sS'_results'
p8
ccollections
deque
p9
((lp10
(cicarus.util
Tree
p11
(tRp12
S'workload'
p13
g11
(tRp14
S'n_contents'
p15
I30000
sS'name'
p16
S'STATIONARY'
p17
sS'n_warmup'
p18
I20000
sS'rate'
p19
I10
sS'n_measured'
p20
I40000
sS'alpha'
p21
F0.80000000000000004
ssS'cache_policy'
p22
g11
(tRp23
g16
S'LRU'
p24
ssS'strategy'
p25
g11
(tRp26
g16
S'LIRA_LCE'
p27
ssS'content_placement'
p28
g11
(tRp29
g16
S'UNIFORM'
p30
ssS'joint_cache_rsn_placement'
p31
g11
(tRp32
S'network_cache'
p33
F0.01
sS'network_rsn'
p34
F0.02
sg16
S'CACHE_ALL_RSN_ALL'
p35
sS'rsn_cache_ratio'
p36
F2
ssS'desc'
p37
S'RSN size sensitivity -> RSN/cache ratio: 2.0'
p38
sS'topology'
p39
g11
(tRp40
S'ext_delay'
p41
I34
sS'source_ratio'
p42
F0.10000000000000001
sg16
S'ROCKET_FUEL'
p43
sS'asn'
p44
I3257
ssg11
(tRp45
S'LATENCY'
p46
g11
(tRp47
S'MEAN'
p48
F110.254825
ssS'CACHE_HIT_RATIO'
p49
g11
(tRp50
S'MEAN_OFF_PATH'
p51
F0.018374999999999999
sS'PER_NODE_SERVER_HIT_RATIO'
p52
g11
(tRp53
S'src_13'
p54
F0.069275000000000003
sS'src_14'
p55
F0.062725000000000003
sS'src_11'
p56
F0.060425
sS'src_15'
p57
F0.06055
sS'src_10'
p58
F0.053824999999999998
sS'src_12'
p59
F0.057875000000000003
sS'src_8'
p60
F0.070824999999999999
sS'src_9'
p61
F0.062375
sS'src_6'
p62
F0.057275
sS'src_7'
p63
F0.048750000000000002
sS'src_4'
p64
F0.0596
sS'src_5'
p65
F0.052999999999999999
sS'src_2'
p66
F0.049549999999999997
sS'src_3'
p67
F0.0487
sS'src_0'
p68
F0.077274999999999996
sS'src_1'
p69
F0.057674999999999997
ssg48
F0.050299999999999997
sS'PER_NODE_CACHE_HIT_RATIO'
p70
g11
(tRp71
I0
F5.0000000000000002e-05
sI1
F0.00075000000000000002
sI2
F0.00014999999999999999
sI3
F0.0001
sI4
F0.00055000000000000003
sI5
F0.0029250000000000001
sI6
F0.00020000000000000001
sI7
F2.5000000000000001e-05
sI8
F0.0001
sI9
F5.0000000000000002e-05
sI10
F0.00014999999999999999
sI11
F0.00077499999999999997
sI12
F0.000175
sI13
F5.0000000000000002e-05
sI14
F5.0000000000000002e-05
sI15
F0.00029999999999999997
sI16
F0.0001
sI17
F2.5000000000000001e-05
sI18
F0.00064999999999999997
sI19
F0.00014999999999999999
sI21
F7.4999999999999993e-05
sI22
F0.0001
sI23
F2.5000000000000001e-05
sI24
F0.0016999999999999999
sI25
F0.0012999999999999999
sI26
F2.5000000000000001e-05
sI27
F0.0001
sI29
F0.000125
sI30
F0.00089999999999999998
sI31
F0.00025000000000000001
sI32
F0.000175
sI33
F0.00042499999999999998
sI34
F2.5000000000000001e-05
sI35
F5.0000000000000002e-05
sI36
F2.5000000000000001e-05
sI37
F7.4999999999999993e-05
sI38
F0.00014999999999999999
sI39
F0.0014250000000000001
sI40
F0.0026250000000000002
sI41
F0.00089999999999999998
sI42
F0.00020000000000000001
sI43
F0.00025000000000000001
sI45
F0.00020000000000000001
sI46
F0.0001
sI47
F0.00025000000000000001
sI49
F0.00032499999999999999
sI50
F0.00067500000000000004
sI51
F0.00020000000000000001
sI52
F0.00052499999999999997
sI53
F0.00025000000000000001
sI54
F2.5000000000000001e-05
sI55
F0.000125
sI56
F0.00029999999999999997
sI57
F5.0000000000000002e-05
sI58
F0.00020000000000000001
sI60
F7.4999999999999993e-05
sI61
F0.00029999999999999997
sI62
F7.4999999999999993e-05
sI63
F0.00027500000000000002
sI64
F0.00064999999999999997
sI65
F0.00037500000000000001
sI66
F2.5000000000000001e-05
sI67
F0.000175
sI68
F2.5000000000000001e-05
sI69
F0.00022499999999999999
sI70
F0.0014499999999999999
sI71
F0.000125
sI72
F0.00050000000000000001
sI73
F0.0001
sI74
F0.0022000000000000001
sI75
F0.000175
sI76
F0.000125
sI77
F0.00052499999999999997
sI79
F0.001475
sI80
F0.00084999999999999995
sI81
F5.0000000000000002e-05
sI82
F5.0000000000000002e-05
sI83
F0.0010499999999999999
sI84
F0.0016750000000000001
sI85
F0.000475
sI86
F0.00089999999999999998
sI87
F0.0001
sI88
F5.0000000000000002e-05
sI89
F0.0001
sI90
F0.0001
sI91
F0.0025999999999999999
sI92
F2.5000000000000001e-05
sI93
F0.00027500000000000002
sI94
F5.0000000000000002e-05
sI95
F0.00029999999999999997
sI96
F0.00052499999999999997
sI97
F2.5000000000000001e-05
sI98
F0.00029999999999999997
sI99
F5.0000000000000002e-05
sI101
F0.00040000000000000002
sI102
F7.4999999999999993e-05
sI103
F2.5000000000000001e-05
sI104
F7.4999999999999993e-05
sI105
F2.5000000000000001e-05
sI106
F5.0000000000000002e-05
sI107
F0.0001
sI108
F5.0000000000000002e-05
sI109
F0.00055000000000000003
sI110
F5.0000000000000002e-05
sI111
F0.000175
sI112
F2.5000000000000001e-05
sI113
F0.00089999999999999998
sI114
F0.00014999999999999999
sI115
F0.00020000000000000001
sI116
F0.0001
sI117
F0.0001
sI118
F0.000175
sI119
F7.4999999999999993e-05
sI120
F2.5000000000000001e-05
sI121
F0.00014999999999999999
sI122
F2.5000000000000001e-05
sI123
F0.0001
sI124
F5.0000000000000002e-05
sI125
F7.4999999999999993e-05
sI126
F0.00040000000000000002
sI127
F7.4999999999999993e-05
sI128
F0.0001
sI129
F5.0000000000000002e-05
sI130
F5.0000000000000002e-05
sI131
F0.000125
sI132
F5.0000000000000002e-05
sI133
F0.00092500000000000004
sI134
F0.00069999999999999999
sI135
F0.00014999999999999999
sI136
F0.0001
sI137
F2.5000000000000001e-05
sI138
F0.00014999999999999999
sI139
F0.001225
sI140
F0.0001
sI141
F0.0001
sI142
F0.000125
sI143
F0.00029999999999999997
sI144
F0.00022499999999999999
sI145
F0.000175
sI146
F7.4999999999999993e-05
sI147
F7.4999999999999993e-05
sI148
F5.0000000000000002e-05
sI150
F7.4999999999999993e-05
sI151
F0.00014999999999999999
sI152
F7.4999999999999993e-05
sI153
F0.000125
sI154
F7.4999999999999993e-05
sI155
F0.000175
sI156
F7.4999999999999993e-05
sI157
F0.000175
sI158
F2.5000000000000001e-05
sI159
F5.0000000000000002e-05
sI160
F0.00032499999999999999
ssS'MEAN_ON_PATH'
p72
F0.031924999999999995
sstp73
a(g11
(tRp74
S'workload'
p75
g11
(tRp76
S'n_contents'
p77
I30000
sS'name'
p78
S'STATIONARY'
p79
sS'n_warmup'
p80
I20000
sS'rate'
p81
I10
sS'n_measured'
p82
I40000
sS'alpha'
p83
F0.80000000000000004
ssS'cache_policy'
p84
g11
(tRp85
g78
S'LRU'
p86
ssS'strategy'
p87
g11
(tRp88
g78
S'LIRA_LCE'
p89
ssS'content_placement'
p90
g11
(tRp91
g78
S'UNIFORM'
p92
ssS'joint_cache_rsn_placement'
p93
g11
(tRp94
S'network_cache'
p95
F0.01
sS'network_rsn'
p96
F0.080000000000000002
sg78
S'CACHE_ALL_RSN_ALL'
p97
sS'rsn_cache_ratio'
p98
F8
ssS'desc'
p99
S'RSN size sensitivity -> RSN/cache ratio: 8.0'
p100
sS'topology'
p101
g11
(tRp102
S'ext_delay'
p103
I34
sS'source_ratio'
p104
F0.10000000000000001
sg78
S'ROCKET_FUEL'
p105
sS'asn'
p106
I3257
ssg11
(tRp107
S'LATENCY'
p108
g11
(tRp109
S'MEAN'
p110
F109.70605
ssS'CACHE_HIT_RATIO'
p111
g11
(tRp112
S'MEAN_OFF_PATH'
p113
F0.041799999999999997
sS'PER_NODE_SERVER_HIT_RATIO'
p114
g11
(tRp115
S'src_13'
p116
F0.055449999999999999
sS'src_14'
p117
F0.052174999999999999
sS'src_11'
p118
F0.062399999999999997
sS'src_15'
p119
F0.062549999999999994
sS'src_10'
p120
F0.065424999999999997
sS'src_12'
p121
F0.060650000000000003
sS'src_8'
p122
F0.054925000000000002
sS'src_9'
p123
F0.052150000000000002
sS'src_6'
p124
F0.049175000000000003
sS'src_7'
p125
F0.053525000000000003
sS'src_4'
p126
F0.062825000000000006
sS'src_5'
p127
F0.056425000000000003
sS'src_2'
p128
F0.070699999999999999
sS'src_3'
p129
F0.067449999999999996
sS'src_0'
p130
F0.058650000000000001
sS'src_1'
p131
F0.050674999999999998
ssg110
F0.064850000000000005
sS'PER_NODE_CACHE_HIT_RATIO'
p132
g11
(tRp133
I0
F0.00052499999999999997
sI1
F0.0024250000000000001
sI2
F0.00037500000000000001
sI3
F0.00020000000000000001
sI4
F0.00064999999999999997
sI5
F0.0015499999999999999
sI6
F0.00075000000000000002
sI7
F5.0000000000000002e-05
sI8
F7.4999999999999993e-05
sI9
F2.5000000000000001e-05
sI10
F0.00042499999999999998
sI11
F0.0010499999999999999
sI12
F0.00064999999999999997
sI13
F7.4999999999999993e-05
sI14
F7.4999999999999993e-05
sI15
F0.00022499999999999999
sI16
F0.000175
sI17
F0.00052499999999999997
sI18
F0.00025000000000000001
sI19
F0.00025000000000000001
sI20
F2.5000000000000001e-05
sI21
F0.00042499999999999998
sI22
F5.0000000000000002e-05
sI24
F0.00115
sI25
F0.00057499999999999999
sI26
F2.5000000000000001e-05
sI27
F7.4999999999999993e-05
sI28
F0.000125
sI29
F0.00044999999999999999
sI30
F0.001225
sI31
F0.000175
sI32
F0.00032499999999999999
sI33
F0.00035
sI34
F0.00052499999999999997
sI35
F5.0000000000000002e-05
sI36
F0.00037500000000000001
sI37
F0.00037500000000000001
sI38
F7.4999999999999993e-05
sI39
F0.0010250000000000001
sI40
F0.00035
sI41
F0.000175
sI42
F0.0015
sI43
F0.001175
sI44
F0.00022499999999999999
sI45
F0.00025000000000000001
sI46
F0.00025000000000000001
sI47
F0.00044999999999999999
sI48
F0.0001
sI49
F0.00062500000000000001
sI50
F0.00077499999999999997
sI51
F0.00052499999999999997
sI52
F0.00059999999999999995
sI53
F0.00055000000000000003
sI54
F7.4999999999999993e-05
sI55
F5.0000000000000002e-05
sI56
F0.000175
sI57
F5.0000000000000002e-05
sI58
F0.00022499999999999999
sI59
F0.000175
sI60
F2.5000000000000001e-05
sI61
F0.00020000000000000001
sI62
F0.00027500000000000002
sI63
F0.00062500000000000001
sI64
F0.001075
sI65
F0.000475
sI66
F7.4999999999999993e-05
sI67
F0.00044999999999999999
sI68
F0.00035
sI69
F0.00064999999999999997
sI70
F0.00029999999999999997
sI71
F0.00027500000000000002
sI72
F0.0010250000000000001
sI73
F0.00059999999999999995
sI74
F0.001475
sI75
F0.00055000000000000003
sI76
F0.00035
sI77
F0.00072499999999999995
sI78
F0.000125
sI79
F0.000125
sI80
F0.00029999999999999997
sI81
F0.00057499999999999999
sI82
F7.4999999999999993e-05
sI83
F0.00075000000000000002
sI84
F0.000825
sI85
F0.000475
sI86
F0.00032499999999999999
sI87
F0.00020000000000000001
sI88
F0.000475
sI89
F0.00022499999999999999
sI90
F0.00027500000000000002
sI91
F0.00022499999999999999
sI92
F0.00035
sI93
F0.0010250000000000001
sI94
F5.0000000000000002e-05
sI95
F0.00059999999999999995
sI96
F0.00044999999999999999
sI97
F0.00020000000000000001
sI98
F0.00064999999999999997
sI99
F0.00014999999999999999
sI100
F0.000175
sI101
F0.00075000000000000002
sI102
F5.0000000000000002e-05
sI103
F0.00014999999999999999
sI104
F2.5000000000000001e-05
sI105
F5.0000000000000002e-05
sI106
F5.0000000000000002e-05
sI107
F0.000125
sI108
F0.000175
sI109
F0.0011249999999999999
sI110
F0.000125
sI111
F0.00027500000000000002
sI112
F7.4999999999999993e-05
sI113
F0.00165
sI114
F0.00014999999999999999
sI115
F0.00062500000000000001
sI116
F0.00014999999999999999
sI117
F0.00042499999999999998
sI118
F0.00027500000000000002
sI119
F0.00020000000000000001
sI120
F7.4999999999999993e-05
sI121
F0.000175
sI122
F0.0001
sI123
F0.000175
sI124
F0.000125
sI125
F0.000175
sI126
F0.0013500000000000001
sI127
F0.00042499999999999998
sI128
F0.00032499999999999999
sI129
F0.000175
sI130
F0.00025000000000000001
sI131
F0.000175
sI132
F0.000125
sI133
F0.001175
sI134
F0.00092500000000000004
sI135
F0.00022499999999999999
sI136
F0.00037500000000000001
sI137
F0.00037500000000000001
sI138
F0.00040000000000000002
sI139
F0.0015
sI140
F0.00022499999999999999
sI141
F0.00035
sI142
F0.00025000000000000001
sI143
F0.00075000000000000002
sI144
F0.00022499999999999999
sI145
F0.00089999999999999998
sI146
F5.0000000000000002e-05
sI147
F0.00020000000000000001
sI148
F0.00020000000000000001
sI149
F2.5000000000000001e-05
sI150
F0.000175
sI151
F0.00020000000000000001
sI152
F0.00027500000000000002
sI153
F0.00027500000000000002
sI154
F7.4999999999999993e-05
sI155
F0.00022499999999999999
sI156
F0.000175
sI157
F0.000175
sI158
F7.4999999999999993e-05
sI159
F0.00037500000000000001
sI160
F0.00042499999999999998
ssS'MEAN_ON_PATH'
p134
F0.023050000000000008
sstp135
a(g11
(tRp136
S'workload'
p137
g11
(tRp138
S'n_contents'
p139
I30000
sS'name'
p140
S'STATIONARY'
p141
sS'n_warmup'
p142
I20000
sS'rate'
p143
I10
sS'n_measured'
p144
I40000
sS'alpha'
p145
F0.80000000000000004
ssS'cache_policy'
p146
g11
(tRp147
g140
S'LRU'
p148
ssS'strategy'
p149
g11
(tRp150
g140
S'LIRA_LCE'
p151
ssS'content_placement'
p152
g11
(tRp153
g140
S'UNIFORM'
p154
ssS'joint_cache_rsn_placement'
p155
g11
(tRp156
S'network_cache'
p157
F0.01
sS'network_rsn'
p158
F0.040000000000000001
sg140
S'CACHE_ALL_RSN_ALL'
p159
sS'rsn_cache_ratio'
p160
F4
ssS'desc'
p161
S'RSN size sensitivity -> RSN/cache ratio: 4.0'
p162
sS'topology'
p163
g11
(tRp164
S'ext_delay'
p165
I34
sS'source_ratio'
p166
F0.10000000000000001
sg140
S'ROCKET_FUEL'
p167
sS'asn'
p168
I3257
ssg11
(tRp169
S'LATENCY'
p170
g11
(tRp171
S'MEAN'
p172
F111.142825
ssS'CACHE_HIT_RATIO'
p173
g11
(tRp174
S'MEAN_OFF_PATH'
p175
F0.025149999999999999
sS'PER_NODE_SERVER_HIT_RATIO'
p176
g11
(tRp177
S'src_13'
p178
F0.05475
sS'src_14'
p179
F0.067324999999999996
sS'src_11'
p180
F0.058549999999999998
sS'src_15'
p181
F0.064524999999999999
sS'src_10'
p182
F0.056800000000000003
sS'src_12'
p183
F0.051624999999999997
sS'src_8'
p184
F0.058599999999999999
sS'src_9'
p185
F0.056024999999999998
sS'src_6'
p186
F0.049825000000000001
sS'src_7'
p187
F0.0683
sS'src_4'
p188
F0.059499999999999997
sS'src_5'
p189
F0.059124999999999997
sS'src_2'
p190
F0.075675000000000006
sS'src_3'
p191
F0.059249999999999997
sS'src_0'
p192
F0.050575000000000002
sS'src_1'
p193
F0.058424999999999998
ssg172
F0.051124999999999997
sS'PER_NODE_CACHE_HIT_RATIO'
p194
g11
(tRp195
I0
F0.00020000000000000001
sI1
F0.0012999999999999999
sI2
F0.00014999999999999999
sI3
F0.0001
sI4
F0.00044999999999999999
sI5
F0.001225
sI6
F0.00035
sI8
F5.0000000000000002e-05
sI10
F0.00022499999999999999
sI11
F0.00059999999999999995
sI12
F0.000475
sI13
F0.00025000000000000001
sI14
F5.0000000000000002e-05
sI15
F0.000125
sI16
F5.0000000000000002e-05
sI17
F0.00025000000000000001
sI18
F0.0011249999999999999
sI19
F7.4999999999999993e-05
sI20
F0.0001
sI21
F0.00022499999999999999
sI23
F5.0000000000000002e-05
sI24
F0.0012999999999999999
sI25
F0.000825
sI26
F2.5000000000000001e-05
sI27
F7.4999999999999993e-05
sI28
F5.0000000000000002e-05
sI29
F0.00025000000000000001
sI30
F0.0016750000000000001
sI31
F0.00029999999999999997
sI32
F0.000175
sI33
F0.00084999999999999995
sI34
F0.00032499999999999999
sI35
F2.5000000000000001e-05
sI36
F0.000125
sI37
F0.00029999999999999997
sI38
F0.000175
sI39
F0.0016750000000000001
sI40
F0.00022499999999999999
sI41
F0.00025000000000000001
sI42
F0.0012750000000000001
sI43
F0.00044999999999999999
sI44
F7.4999999999999993e-05
sI45
F0.00050000000000000001
sI46
F0.000125
sI47
F0.000475
sI48
F5.0000000000000002e-05
sI49
F0.00042499999999999998
sI50
F0.00055000000000000003
sI51
F0.00029999999999999997
sI52
F0.00069999999999999999
sI53
F0.00014999999999999999
sI55
F0.00022499999999999999
sI56
F0.0001
sI57
F0.00037500000000000001
sI58
F0.0030249999999999999
sI59
F0.000175
sI60
F5.0000000000000002e-05
sI61
F0.000125
sI62
F0.00025000000000000001
sI63
F0.00067500000000000004
sI64
F0.000475
sI65
F0.00022499999999999999
sI66
F0.000125
sI67
F0.00035
sI68
F0.00022499999999999999
sI69
F0.00032499999999999999
sI70
F0.00050000000000000001
sI71
F0.00014999999999999999
sI72
F0.00057499999999999999
sI73
F0.00025000000000000001
sI74
F0.001075
sI75
F0.000175
sI76
F0.00020000000000000001
sI77
F0.00042499999999999998
sI78
F0.0001
sI79
F0.00037500000000000001
sI80
F0.001225
sI81
F0.000175
sI82
F7.4999999999999993e-05
sI83
F0.00067500000000000004
sI84
F0.0011249999999999999
sI85
F0.00020000000000000001
sI86
F0.0011249999999999999
sI87
F0.0001
sI88
F0.00059999999999999995
sI89
F0.00020000000000000001
sI90
F0.00035
sI91
F0.00084999999999999995
sI92
F7.4999999999999993e-05
sI93
F0.00025000000000000001
sI94
F0.0001
sI95
F0.00050000000000000001
sI96
F0.00064999999999999997
sI97
F7.4999999999999993e-05
sI98
F0.00035
sI99
F2.5000000000000001e-05
sI100
F7.4999999999999993e-05
sI101
F0.000825
sI102
F7.4999999999999993e-05
sI104
F0.00014999999999999999
sI105
F0.0001
sI106
F0.0001
sI107
F0.00020000000000000001
sI108
F0.000125
sI109
F0.00067500000000000004
sI110
F5.0000000000000002e-05
sI111
F0.000175
sI112
F7.4999999999999993e-05
sI113
F0.00080000000000000004
sI114
F0.0001
sI115
F0.000125
sI116
F5.0000000000000002e-05
sI117
F0.00027500000000000002
sI118
F0.000125
sI119
F7.4999999999999993e-05
sI120
F7.4999999999999993e-05
sI121
F0.00014999999999999999
sI122
F0.0001
sI123
F0.000125
sI124
F0.0001
sI125
F0.00014999999999999999
sI126
F0.00029999999999999997
sI127
F0.00020000000000000001
sI128
F0.000125
sI129
F7.4999999999999993e-05
sI130
F7.4999999999999993e-05
sI131
F5.0000000000000002e-05
sI132
F5.0000000000000002e-05
sI133
F0.00032499999999999999
sI134
F0.00052499999999999997
sI135
F0.0001
sI136
F0.00014999999999999999
sI137
F0.0001
sI138
F0.000475
sI139
F0.0011249999999999999
sI140
F0.00014999999999999999
sI141
F7.4999999999999993e-05
sI142
F5.0000000000000002e-05
sI143
F0.00029999999999999997
sI144
F7.4999999999999993e-05
sI145
F0.000125
sI146
F2.5000000000000001e-05
sI147
F0.0001
sI148
F0.000175
sI149
F5.0000000000000002e-05
sI150
F7.4999999999999993e-05
sI151
F2.5000000000000001e-05
sI152
F0.000125
sI153
F2.5000000000000001e-05
sI155
F0.000125
sI156
F0.0001
sI157
F0.000125
sI158
F2.5000000000000001e-05
sI159
F0.00020000000000000001
sI160
F0.00022499999999999999
ssS'MEAN_ON_PATH'
p196
F0.025974999999999998
sstp197
a(g11
(tRp198
S'workload'
p199
g11
(tRp200
S'n_contents'
p201
I30000
sS'name'
p202
S'STATIONARY'
p203
sS'n_warmup'
p204
I20000
sS'rate'
p205
I10
sS'n_measured'
p206
I40000
sS'alpha'
p207
F0.80000000000000004
ssS'cache_policy'
p208
g11
(tRp209
g202
S'LRU'
p210
ssS'strategy'
p211
g11
(tRp212
g202
S'LIRA_LCE'
p213
ssS'content_placement'
p214
g11
(tRp215
g202
S'UNIFORM'
p216
ssS'joint_cache_rsn_placement'
p217
g11
(tRp218
S'network_cache'
p219
F0.01
sS'network_rsn'
p220
F0.16
sg202
S'CACHE_ALL_RSN_ALL'
p221
sS'rsn_cache_ratio'
p222
F16
ssS'desc'
p223
S'RSN size sensitivity -> RSN/cache ratio: 16.0'
p224
sS'topology'
p225
g11
(tRp226
S'ext_delay'
p227
I34
sS'source_ratio'
p228
F0.10000000000000001
sg202
S'ROCKET_FUEL'
p229
sS'asn'
p230
I3257
ssg11
(tRp231
S'LATENCY'
p232
g11
(tRp233
S'MEAN'
p234
F109.36794999999999
ssS'CACHE_HIT_RATIO'
p235
g11
(tRp236
S'MEAN_OFF_PATH'
p237
F0.050999999999999997
sS'PER_NODE_SERVER_HIT_RATIO'
p238
g11
(tRp239
S'src_13'
p240
F0.068650000000000003
sS'src_14'
p241
F0.056099999999999997
sS'src_11'
p242
F0.061850000000000002
sS'src_15'
p243
F0.054225000000000002
sS'src_10'
p244
F0.062649999999999997
sS'src_12'
p245
F0.056099999999999997
sS'src_8'
p246
F0.055100000000000003
sS'src_9'
p247
F0.053275000000000003
sS'src_6'
p248
F0.066775000000000001
sS'src_7'
p249
F0.047274999999999998
sS'src_4'
p250
F0.050849999999999999
sS'src_5'
p251
F0.052275000000000002
sS'src_2'
p252
F0.056300000000000003
sS'src_3'
p253
F0.058424999999999998
sS'src_0'
p254
F0.057750000000000003
sS'src_1'
p255
F0.067574999999999996
ssg234
F0.074825000000000003
sS'PER_NODE_CACHE_HIT_RATIO'
p256
g11
(tRp257
I0
F0.00044999999999999999
sI1
F0.00055000000000000003
sI2
F0.000825
sI3
F0.00037500000000000001
sI4
F0.00080000000000000004
sI5
F0.00097499999999999996
sI6
F0.00027500000000000002
sI7
F0.00020000000000000001
sI8
F5.0000000000000002e-05
sI9
F0.00020000000000000001
sI10
F0.00075000000000000002
sI11
F0.00125
sI12
F0.00059999999999999995
sI13
F0.00020000000000000001
sI14
F0.00022499999999999999
sI15
F0.00029999999999999997
sI16
F0.00029999999999999997
sI17
F0.00022499999999999999
sI18
F0.00029999999999999997
sI19
F0.00040000000000000002
sI20
F0.000175
sI21
F0.00052499999999999997
sI22
F0.000125
sI23
F0.000125
sI24
F0.0012750000000000001
sI25
F0.0015
sI26
F7.4999999999999993e-05
sI27
F2.5000000000000001e-05
sI28
F0.00020000000000000001
sI29
F0.00044999999999999999
sI30
F0.00022499999999999999
sI31
F0.00032499999999999999
sI32
F0.00027500000000000002
sI33
F0.00067500000000000004
sI34
F0.00044999999999999999
sI35
F5.0000000000000002e-05
sI36
F0.00069999999999999999
sI37
F0.00022499999999999999
sI38
F0.00022499999999999999
sI39
F0.00059999999999999995
sI40
F0.0001
sI41
F0.00125
sI42
F7.4999999999999993e-05
sI43
F0.00057499999999999999
sI44
F0.00014999999999999999
sI45
F0.00064999999999999997
sI46
F0.00044999999999999999
sI47
F0.00032499999999999999
sI48
F0.00040000000000000002
sI49
F0.000125
sI50
F0.00175
sI51
F0.00052499999999999997
sI52
F0.00087500000000000002
sI53
F0.00050000000000000001
sI54
F0.0001
sI55
F0.000125
sI56
F0.00022499999999999999
sI57
F2.5000000000000001e-05
sI58
F0.00022499999999999999
sI59
F0.000125
sI60
F0.0001
sI61
F0.00050000000000000001
sI62
F0.0010499999999999999
sI63
F0.00035
sI64
F0.00084999999999999995
sI65
F0.00052499999999999997
sI66
F0.00020000000000000001
sI67
F0.00032499999999999999
sI68
F0.00062500000000000001
sI69
F0.00040000000000000002
sI70
F0.00020000000000000001
sI71
F0.00027500000000000002
sI72
F0.0011000000000000001
sI73
F0.00067500000000000004
sI74
F0.00097499999999999996
sI75
F0.00067500000000000004
sI76
F0.000475
sI77
F0.00080000000000000004
sI78
F0.00029999999999999997
sI79
F0.000175
sI80
F0.00040000000000000002
sI81
F0.00020000000000000001
sI82
F0.00035
sI83
F0.00032499999999999999
sI84
F0.0019499999999999999
sI85
F0.00057499999999999999
sI86
F0.0046249999999999998
sI87
F0.00035
sI88
F0.00050000000000000001
sI89
F0.00027500000000000002
sI90
F0.00044999999999999999
sI91
F0.00092500000000000004
sI92
F0.00020000000000000001
sI93
F0.00029999999999999997
sI94
F0.00027500000000000002
sI95
F0.000475
sI96
F0.00037500000000000001
sI97
F0.00040000000000000002
sI98
F0.00069999999999999999
sI99
F0.00032499999999999999
sI100
F0.00022499999999999999
sI101
F0.00095
sI102
F0.000125
sI103
F7.4999999999999993e-05
sI104
F0.00014999999999999999
sI105
F0.0001
sI106
F0.0001
sI107
F0.00025000000000000001
sI108
F2.5000000000000001e-05
sI109
F0.00089999999999999998
sI110
F7.4999999999999993e-05
sI111
F0.00062500000000000001
sI112
F2.5000000000000001e-05
sI113
F0.001
sI114
F0.00027500000000000002
sI115
F0.0010250000000000001
sI116
F0.00027500000000000002
sI117
F0.00050000000000000001
sI118
F0.00040000000000000002
sI119
F0.00040000000000000002
sI120
F0.00035
sI121
F0.00057499999999999999
sI122
F0.000175
sI123
F0.00035
sI124
F0.00022499999999999999
sI125
F0.00022499999999999999
sI126
F0.00067500000000000004
sI127
F0.00027500000000000002
sI128
F0.00062500000000000001
sI129
F0.00014999999999999999
sI130
F0.00055000000000000003
sI131
F0.00027500000000000002
sI132
F0.000475
sI133
F0.0010250000000000001
sI134
F0.0019750000000000002
sI135
F0.00044999999999999999
sI136
F0.00032499999999999999
sI137
F0.00032499999999999999
sI138
F0.00069999999999999999
sI139
F0.001075
sI140
F0.00042499999999999998
sI141
F0.00035
sI142
F0.00025000000000000001
sI143
F0.00059999999999999995
sI144
F0.00042499999999999998
sI145
F0.00064999999999999997
sI146
F0.000125
sI147
F0.000125
sI148
F0.00040000000000000002
sI149
F7.4999999999999993e-05
sI150
F0.000125
sI151
F0.00022499999999999999
sI152
F0.00025000000000000001
sI153
F0.000175
sI154
F0.00029999999999999997
sI155
F0.000175
sI156
F0.00025000000000000001
sI157
F0.00029999999999999997
sI158
F5.0000000000000002e-05
sI159
F0.00014999999999999999
sI160
F0.00050000000000000001
ssS'MEAN_ON_PATH'
p258
F0.023825000000000006
sstp259
a(g11
(tRp260
S'workload'
p261
g11
(tRp262
S'n_contents'
p263
I30000
sS'name'
p264
S'STATIONARY'
p265
sS'n_warmup'
p266
I20000
sS'rate'
p267
I10
sS'n_measured'
p268
I40000
sS'alpha'
p269
F0.80000000000000004
ssS'cache_policy'
p270
g11
(tRp271
g264
S'LRU'
p272
ssS'strategy'
p273
g11
(tRp274
g264
S'LIRA_DFIB'
p275
ssS'content_placement'
p276
g11
(tRp277
g264
S'UNIFORM'
p278
ssS'joint_cache_rsn_placement'
p279
g11
(tRp280
S'network_cache'
p281
F0.01
sS'network_rsn'
p282
F0.02
sg264
S'CACHE_ALL_RSN_ALL'
p283
sS'rsn_cache_ratio'
p284
F2
ssS'desc'
p285
S'RSN size sensitivity -> RSN/cache ratio: 2.0'
p286
sS'topology'
p287
g11
(tRp288
S'ext_delay'
p289
I34
sS'source_ratio'
p290
F0.10000000000000001
sg264
S'ROCKET_FUEL'
p291
sS'asn'
p292
I3257
ssg11
(tRp293
S'LATENCY'
p294
g11
(tRp295
S'MEAN'
p296
F110.7372
ssS'CACHE_HIT_RATIO'
p297
g11
(tRp298
S'MEAN_OFF_PATH'
p299
F0.008060715791562291
sS'PER_NODE_SERVER_HIT_RATIO'
p300
g11
(tRp301
S'src_13'
p302
F0.058483593343088863
sS'src_14'
p303
F0.052754284580470746
sS'src_11'
p304
F0.078672586125647953
sS'src_15'
p305
F0.069322155807435698
sS'src_10'
p306
F0.058830824177186936
sS'src_12'
p307
F0.06230313251816761
sS'src_8'
p308
F0.054366427738783203
sS'src_9'
p309
F0.057218681018874479
sS'src_6'
p310
F0.053175922021875544
sS'src_7'
p311
F0.053696768273022645
sS'src_4'
p312
F0.071207123192539495
sS'src_5'
p313
F0.060914209181775342
sS'src_2'
p314
F0.047074580222723775
sS'src_3'
p315
F0.052779086782906319
sS'src_0'
p316
F0.058781219772315783
sS'src_1'
p317
F0.057937944889506189
ssg296
F0.052481460353679406
sS'PER_NODE_CACHE_HIT_RATIO'
p318
g11
(tRp319
I0
F7.4406607306728837e-05
sI1
F0.0068702100746546296
sI2
F0.00014881321461345767
sI4
F2.4802202435576278e-05
sI5
F0.00081847268037401721
sI6
F0.00024802202435576277
sI10
F0.00029762642922691535
sI11
F0.00044643964384037302
sI12
F2.4802202435576278e-05
sI15
F0.00014881321461345767
sI17
F0.00057045065601825438
sI18
F0.00024802202435576277
sI19
F0.00014881321461345767
sI21
F4.9604404871152556e-05
sI23
F7.4406607306728837e-05
sI24
F0.0011160991096009327
sI25
F0.0011160991096009327
sI28
F4.9604404871152556e-05
sI30
F0.00106649470472978
sI31
F0.00014881321461345767
sI33
F0.00062005506088940701
sI34
F0.00012401101217788139
sI36
F0.00029762642922691535
sI37
F0.00032242863166249161
sI38
F0.00012401101217788139
sI39
F0.00032242863166249161
sI40
F0.0011160991096009327
sI41
F0.0010168902998586274
sI42
F0.00027282422679133909
sI43
F0.00032242863166249161
sI44
F9.9208809742305112e-05
sI45
F2.4802202435576278e-05
sI47
F4.9604404871152556e-05
sI49
F0.0062501550137652228
sI50
F0.00014881321461345767
sI51
F9.9208809742305112e-05
sI52
F0.00106649470472978
sI53
F9.9208809742305112e-05
sI55
F0.00074406607306728837
sI56
F0.00032242863166249161
sI57
F9.9208809742305112e-05
sI58
F0.00017361541704903396
sI60
F0.00024802202435576277
sI61
F7.4406607306728837e-05
sI62
F0.00022321982192018651
sI63
F7.4406607306728837e-05
sI64
F0.00029762642922691535
sI65
F9.9208809742305112e-05
sI66
F4.9604404871152556e-05
sI67
F7.4406607306728837e-05
sI68
F7.4406607306728837e-05
sI69
F0.00037203303653364419
sI70
F0.00022321982192018651
sI72
F0.00022321982192018651
sI73
F0.00022321982192018651
sI74
F0.00094248369255189857
sI75
F0.00022321982192018651
sI77
F4.9604404871152556e-05
sI79
F0.00057045065601825438
sI80
F0.00054564845358267818
sI81
F0.0014633299436990004
sI83
F0.0046132096530171881
sI84
F0.0021081872070239835
sI85
F0.00099208809742305109
sI86
F0.00076886827550286469
sI88
F2.4802202435576278e-05
sI90
F2.4802202435576278e-05
sI91
F0.00057045065601825438
sI93
F0.00084327488280959352
sI95
F0.00017361541704903396
sI96
F0.0032242863166249162
sI98
F0.00069446166819613585
sI101
F0.0005952528584538307
sI102
F4.9604404871152556e-05
sI104
F2.4802202435576278e-05
sI106
F0.00012401101217788139
sI109
F9.9208809742305112e-05
sI111
F4.9604404871152556e-05
sI113
F0.00054564845358267818
sI115
F0.00014881321461345767
sI116
F2.4802202435576278e-05
sI117
F0.00012401101217788139
sI118
F7.4406607306728837e-05
sI126
F0.00096728589498747488
sI128
F7.4406607306728837e-05
sI129
F2.4802202435576278e-05
sI132
F4.9604404871152556e-05
sI133
F9.9208809742305112e-05
sI134
F0.00052084625114710186
sI135
F2.4802202435576278e-05
sI136
F7.4406607306728837e-05
sI138
F0.00034723083409806793
sI139
F0.00054564845358267818
sI143
F9.9208809742305112e-05
sI144
F9.9208809742305112e-05
sI145
F0.00017361541704903396
sI160
F2.4802202435576278e-05
ssS'MEAN_ON_PATH'
p320
F0.044420744562117115
sstp321
a(g11
(tRp322
S'workload'
p323
g11
(tRp324
S'n_contents'
p325
I30000
sS'name'
p326
S'STATIONARY'
p327
sS'n_warmup'
p328
I20000
sS'rate'
p329
I10
sS'n_measured'
p330
I40000
sS'alpha'
p331
F0.80000000000000004
ssS'cache_policy'
p332
g11
(tRp333
g326
S'LRU'
p334
ssS'strategy'
p335
g11
(tRp336
g326
S'LIRA_DFIB'
p337
ssS'content_placement'
p338
g11
(tRp339
g326
S'UNIFORM'
p340
ssS'joint_cache_rsn_placement'
p341
g11
(tRp342
S'network_cache'
p343
F0.01
sS'network_rsn'
p344
F0.040000000000000001
sg326
S'CACHE_ALL_RSN_ALL'
p345
sS'rsn_cache_ratio'
p346
F4
ssS'desc'
p347
S'RSN size sensitivity -> RSN/cache ratio: 4.0'
p348
sS'topology'
p349
g11
(tRp350
S'ext_delay'
p351
I34
sS'source_ratio'
p352
F0.10000000000000001
sg326
S'ROCKET_FUEL'
p353
sS'asn'
p354
I3257
ssg11
(tRp355
S'LATENCY'
p356
g11
(tRp357
S'MEAN'
p358
F112.01779999999999
ssS'CACHE_HIT_RATIO'
p359
g11
(tRp360
S'MEAN_OFF_PATH'
p361
F0.023873003448866278
sS'PER_NODE_SERVER_HIT_RATIO'
p362
g11
(tRp363
S'src_13'
p364
F0.062299733385514762
sS'src_14'
p365
F0.065503999217278577
sS'src_11'
p366
F0.054301298828363868
sS'src_15'
p367
F0.058508426485336204
sS'src_10'
p368
F0.046889905339627717
sS'src_12'
p369
F0.06552845926179586
sS'src_8'
p370
F0.061663772228065454
sS'src_9'
p371
F0.054252378739329303
sS'src_6'
p372
F0.056331482523298192
sS'src_7'
p373
F0.052368955311498669
sS'src_4'
p374
F0.057627864882714083
sS'src_5'
p375
F0.062201893207445638
sS'src_2'
p376
F0.061541472005479048
sS'src_3'
p377
F0.064354377124966361
sS'src_0'
p378
F0.053347357092189907
sS'src_1'
p379
F0.052711395934740599
ssg358
F0.070567228432355744
sS'PER_NODE_CACHE_HIT_RATIO'
p380
g11
(tRp381
I0
F0.00031798057872465326
sI1
F0.0021769439620380111
sI2
F0.00017122031162096715
sI4
F0.00024460044517281022
sI5
F0.00088056160262211679
sI6
F0.00041582075679377734
sI10
F0.00017122031162096715
sI11
F0.00075826138003571165
sI12
F0.00063596115744930651
sI15
F4.8920089034562044e-05
sI17
F0.00085610155810483574
sI18
F0.0014186825820022993
sI19
F9.7840178069124087e-05
sI21
F0.00026906048969009121
sI23
F0.00012230022258640511
sI24
F0.001271922314898613
sI25
F0.0017611232052442336
sI28
F4.8920089034562044e-05
sI29
F0.00029352053420737226
sI30
F0.0029841254311082847
sI31
F0.00061150111293202557
sI33
F0.00088056160262211679
sI34
F0.00039136071227649635
sI36
F2.4460044517281022e-05
sI37
F0.00041582075679377734
sI38
F7.3380133551843066e-05
sI39
F0.0021769439620380111
sI40
F0.00034244062324193431
sI41
F0.00066042120196658756
sI42
F0.0025927647188317884
sI43
F0.0083164151358755475
sI44
F0.00097840178069124087
sI45
F0.00041582075679377734
sI46
F7.3380133551843066e-05
sI47
F0.00048920089034562044
sI49
F0.0029107452975564415
sI50
F0.00056258102389746348
sI51
F0.00017122031162096715
sI52
F0.0016632830271751094
sI53
F0.00051366093486290149
sI55
F0.00090502164713939784
sI56
F0.00063596115744930651
sI57
F0.00017122031162096715
sI58
F0.00075826138003571165
sI61
F2.4460044517281022e-05
sI62
F0.00051366093486290149
sI63
F0.00024460044517281022
sI64
F0.00044028080131105839
sI65
F0.00019568035613824817
sI66
F9.7840178069124087e-05
sI67
F7.3380133551843066e-05
sI68
F4.8920089034562044e-05
sI70
F0.001027321869725803
sI72
F0.00061150111293202557
sI73
F0.0014186825820022993
sI74
F0.00063596115744930651
sI75
F0.00017122031162096715
sI77
F0.00048920089034562044
sI79
F0.00083164151358755469
sI80
F0.0014186825820022993
sI81
F0.00019568035613824817
sI83
F0.00051366093486290149
sI84
F0.0014676026710368612
sI85
F0.0013208424039331751
sI86
F0.00058704106841474452
sI90
F4.8920089034562044e-05
sI91
F0.0046229484137661134
sI93
F0.00070934129100114966
sI95
F0.00058704106841474452
sI96
F0.00061150111293202557
sI98
F0.00063596115744930651
sI101
F0.0013942225374850182
sI102
F9.7840178069124087e-05
sI104
F9.7840178069124087e-05
sI106
F2.4460044517281022e-05
sI109
F0.00039136071227649635
sI111
F0.00034244062324193431
sI113
F0.001125162047794927
sI115
F0.0002201404006555292
sI116
F7.3380133551843066e-05
sI117
F0.00019568035613824817
sI118
F7.3380133551843066e-05
sI126
F0.0012474622703813321
sI128
F7.3380133551843066e-05
sI129
F9.7840178069124087e-05
sI132
F2.4460044517281022e-05
sI133
F0.00083164151358755469
sI134
F0.00046474084582833939
sI135
F7.3380133551843066e-05
sI136
F0.00029352053420737226
sI138
F0.00026906048969009121
sI139
F0.0012230022258640511
sI143
F0.00029352053420737226
sI144
F0.00014676026710368613
sI145
F4.8920089034562044e-05
sI160
F0.0002201404006555292
ssS'MEAN_ON_PATH'
p382
F0.046694224983489463
sstp383
a(g11
(tRp384
S'workload'
p385
g11
(tRp386
S'n_contents'
p387
I30000
sS'name'
p388
S'STATIONARY'
p389
sS'n_warmup'
p390
I20000
sS'rate'
p391
I10
sS'n_measured'
p392
I40000
sS'alpha'
p393
F0.80000000000000004
ssS'cache_policy'
p394
g11
(tRp395
g388
S'LRU'
p396
ssS'strategy'
p397
g11
(tRp398
g388
S'LIRA_DFIB'
p399
ssS'content_placement'
p400
g11
(tRp401
g388
S'UNIFORM'
p402
ssS'joint_cache_rsn_placement'
p403
g11
(tRp404
S'network_cache'
p405
F0.01
sS'network_rsn'
p406
F0.080000000000000002
sg388
S'CACHE_ALL_RSN_ALL'
p407
sS'rsn_cache_ratio'
p408
F8
ssS'desc'
p409
S'RSN size sensitivity -> RSN/cache ratio: 8.0'
p410
sS'topology'
p411
g11
(tRp412
S'ext_delay'
p413
I34
sS'source_ratio'
p414
F0.10000000000000001
sg388
S'ROCKET_FUEL'
p415
sS'asn'
p416
I3257
ssg11
(tRp417
S'LATENCY'
p418
g11
(tRp419
S'MEAN'
p420
F114.17975
ssS'CACHE_HIT_RATIO'
p421
g11
(tRp422
S'MEAN_OFF_PATH'
p423
F0.06701736176637102
sS'PER_NODE_SERVER_HIT_RATIO'
p424
g11
(tRp425
S'src_13'
p426
F0.049844310247216458
sS'src_14'
p427
F0.05699188526137007
sS'src_11'
p428
F0.063219475372711831
sS'src_15'
p429
F0.054420645404793355
sS'src_10'
p430
F0.060719003585582187
sS'src_12'
p431
F0.052557086242687297
sS'src_8'
p432
F0.052085299113040197
sS'src_9'
p433
F0.053382713719569728
sS'src_6'
p434
F0.060341573881864501
sS'src_7'
p435
F0.056826759765993586
sS'src_4'
p436
F0.049466880543498772
sS'src_5'
p437
F0.06734761275712399
sS'src_2'
p438
F0.056307793923381769
sS'src_3'
p439
F0.055434987733534627
sS'src_0'
p440
F0.049183808265710512
sS'src_1'
p441
F0.053547839214946213
ssg420
F0.1083223249669749
sS'PER_NODE_CACHE_HIT_RATIO'
p442
g11
(tRp443
I0
F0.0003066616342706171
sI1
F0.00066050198150594452
sI2
F0.0011086997546706926
sI4
F0.00044819777316474805
sI5
F0.00084921683336478578
sI6
F0.00091998490281185131
sI10
F0.0013681826759765993
sI11
F0.00094357425929420642
sI12
F0.0022645782223060956
sI15
F0.00018871485185884129
sI17
F0.00094357425929420642
sI18
F0.0015804868843177957
sI19
F0.00016512549537648613
sI21
F0.0022409888658237401
sI23
F4.7178712964710322e-05
sI24
F0.0014389507454236649
sI25
F0.001179467824117758
sI28
F0.00040101906020003773
sI29
F0.00075485940743536515
sI30
F0.0047414606529533878
sI31
F0.00033025099075297226
sI33
F0.0011086997546706926
sI34
F0.00094357425929420642
sI37
F2.3589356482355161e-05
sI38
F9.4357425929420644e-05
sI39
F0.0029486695602943952
sI40
F0.0003066616342706171
sI41
F0.001910737875070768
sI42
F0.00044819777316474805
sI43
F0.00099075297225891673
sI44
F0.0001179467824117758
sI45
F0.0018635591621060578
sI46
F9.4357425929420644e-05
sI47
F0.0013681826759765993
sI49
F0.0003066616342706171
sI50
F0.002311756935270806
sI51
F0.0010379316852236272
sI52
F0.0019579165880354785
sI53
F0.0010851103981883374
sI55
F0.00099075297225891673
sI56
F0.00061332326854123421
sI57
F0.00042460841668239289
sI58
F0.0060152859030005662
sI61
F0.00014153613889413097
sI62
F0.00096716361577656163
sI63
F0.0016276655972825062
sI64
F0.00061332326854123421
sI65
F0.000872806189847141
sI66
F7.0768069447065487e-05
sI67
F0.00033025099075297226
sI68
F0.0001179467824117758
sI69
F0.00025948292130590679
sI70
F0.0003066616342706171
sI72
F0.0010615210417059824
sI73
F0.0017927910926589922
sI74
F0.00033025099075297226
sI75
F0.00061332326854123421
sI77
F0.0016040762408001509
sI79
F0.00061332326854123421
sI80
F0.001321003963011889
sI81
F0.0026655972825061331
sI83
F0.0037978863936591811
sI84
F0.0012974146065295338
sI85
F0.00021230420834119645
sI86
F0.00033025099075297226
sI88
F0.0015333081713530855
sI90
F0.00084921683336478578
sI91
F0.00049537648612945837
sI93
F0.0015097188148707303
sI94
F9.4357425929420644e-05
sI95
F0.0038922438195886015
sI96
F0.0010379316852236272
sI98
F0.0029722589167767502
sI101
F0.0039394225325533119
sI102
F0.00016512549537648613
sI104
F7.0768069447065487e-05
sI106
F0.00016512549537648613
sI109
F0.0014625401019060201
sI111
F0.00091998490281185131
sI113
F0.0032553311945650123
sI115
F0.00066050198150594452
sI116
F0.00035384034723532742
sI117
F0.0016748443102472164
sI118
F0.00073127005095301005
sI126
F0.0030194376297414606
sI128
F0.00016512549537648613
sI129
F0.00044819777316474805
sI132
F2.3589356482355161e-05
sI133
F0.0018399698056237026
sI134
F0.0013445933194942443
sI135
F0.00021230420834119645
sI136
F0.0010143423287412719
sI138
F0.00025948292130590679
sI139
F0.0014861294583883751
sI143
F0.0012266465370824684
sI144
F0.00021230420834119645
sI160
F0.00049537648612945837
ssS'MEAN_ON_PATH'
p444
F0.041304963200603881
sstp445
a(g11
(tRp446
S'workload'
p447
g11
(tRp448
S'n_contents'
p449
I30000
sS'name'
p450
S'STATIONARY'
p451
sS'n_warmup'
p452
I20000
sS'rate'
p453
I10
sS'n_measured'
p454
I40000
sS'alpha'
p455
F0.80000000000000004
ssS'cache_policy'
p456
g11
(tRp457
g450
S'LRU'
p458
ssS'strategy'
p459
g11
(tRp460
g450
S'LIRA_DFIB'
p461
ssS'content_placement'
p462
g11
(tRp463
g450
S'UNIFORM'
p464
ssS'joint_cache_rsn_placement'
p465
g11
(tRp466
S'network_cache'
p467
F0.01
sS'network_rsn'
p468
F0.16
sg450
S'CACHE_ALL_RSN_ALL'
p469
sS'rsn_cache_ratio'
p470
F16
ssS'desc'
p471
S'RSN size sensitivity -> RSN/cache ratio: 16.0'
p472
sS'topology'
p473
g11
(tRp474
S'ext_delay'
p475
I34
sS'source_ratio'
p476
F0.10000000000000001
sg450
S'ROCKET_FUEL'
p477
sS'asn'
p478
I3257
ssg11
(tRp479
S'LATENCY'
p480
g11
(tRp481
S'MEAN'
p482
F114.719525
ssS'CACHE_HIT_RATIO'
p483
g11
(tRp484
S'MEAN_OFF_PATH'
p485
F0.090513248100796737
sS'PER_NODE_SERVER_HIT_RATIO'
p486
g11
(tRp487
S'src_13'
p488
F0.048916064480266815
sS'src_14'
p489
F0.049935149156939043
sS'src_11'
p490
F0.05245969983324069
sS'src_15'
p491
F0.064781360014823056
sS'src_10'
p492
F0.055794886047804339
sS'src_12'
p493
F0.053455623494533998
sS'src_8'
p494
F0.044168056327589404
sS'src_9'
p495
F0.058921623123957753
sS'src_6'
p496
F0.049703539003149895
sS'src_7'
p497
F0.051811191402631095
sS'src_4'
p498
F0.055841208078562167
sS'src_5'
p499
F0.061075597554196774
sS'src_2'
p500
F0.046947378173059107
sS'src_3'
p501
F0.058203631647211415
sS'src_0'
p502
F0.052760793033166574
sS'src_1'
p503
F0.062349453400037058
ssg482
F0.13287474522883083
sS'PER_NODE_CACHE_HIT_RATIO'
p504
g11
(tRp505
I0
F0.0010422456920511395
sI1
F0.0012738558458402817
sI2
F0.00071799147674634061
sI4
F0.00081063553826199745
sI5
F0.0013896609227348527
sI6
F0.0011348897535667965
sI10
F0.0025477116916805633
sI11
F0.0021539744302390218
sI12
F0.0035899573837317026
sI15
F0.00083379655364091158
sI17
F0.00044005929219937003
sI18
F0.00067166944598851214
sI19
F0.00048638132295719845
sI21
F0.0026171947378173057
sI23
F0.00018528812303131369
sI24
F0.0017833981841763942
sI25
F0.0013664999073559384
sI28
F0.00041689827682045579
sI29
F0.0009727626459143969
sI30
F0.0039142115990365017
sI31
F0.0006485084306095979
sI33
F0.0011348897535667965
sI34
F0.00092644061515656843
sI36
F0.00032425421530479895
sI37
F0.00039373726144154161
sI38
F0.00016212710765239947
sI39
F0.002084491384102279
sI40
F0.0034509912914582174
sI41
F0.0010422456920511395
sI42
F0.00023161015378914211
sI43
F0.00081063553826199745
sI44
F4.6322030757828421e-05
sI45
F0.0013896609227348527
sI46
F0.0009032795997776543
sI47
F0.001644432091902909
sI49
F0.00085695756901982582
sI50
F0.0017370761534185658
sI51
F0.0012506948304613673
sI52
F0.0016907541226607375
sI53
F0.0025245506763016492
sI55
F0.0011812117843246247
sI56
F0.00046322030757828421
sI57
F4.6322030757828421e-05
sI58
F0.00069483046136742637
sI61
F0.00076431350750416898
sI62
F0.0024087455994070781
sI63
F0.0016675931072818232
sI64
F0.0019686863072077079
sI65
F0.00067166944598851214
sI66
F0.00032425421530479895
sI67
F0.00030109319992588477
sI68
F0.00018528812303131369
sI69
F0.00057902538447285529
sI70
F0.0002084491384102279
sI72
F0.0018992032610709653
sI73
F0.0016907541226607375
sI74
F0.00078747452288308322
sI75
F0.00085695756901982582
sI77
F0.0019686863072077079
sI79
F0.0064387622753381505
sI80
F0.0018992032610709653
sI81
F0.0010422456920511395
sI83
F0.00053270335371502682
sI84
F0.0013201778765981101
sI85
F0.00034741523068371319
sI86
F0.00092644061515656843
sI87
F0.0002084491384102279
sI88
F0.00088011858439874006
sI90
F0.00034741523068371319
sI91
F0.00081063553826199745
sI93
F0.00069483046136742637
sI94
F9.2644061515656843e-05
sI95
F0.0051185843987400408
sI96
F0.0035436353529738744
sI98
F0.0017602371687974801
sI99
F0.00027793218454697053
sI101
F0.0022002964609968501
sI102
F0.00018528812303131369
sI104
F0.00032425421530479895
sI106
F0.00016212710765239947
sI109
F0.0028951269223642766
sI111
F0.00055586436909394106
sI113
F0.0040068556605521582
sI115
F0.0012970168612191958
sI116
F0.00078747452288308322
sI117
F0.001644432091902909
sI118
F0.0013664999073559384
sI126
F0.0020381693533444508
sI128
F0.00076431350750416898
sI129
F0.00076431350750416898
sI132
F0.0002084491384102279
sI133
F0.0063229571984435799
sI134
F0.0023392625532703353
sI135
F0.00046322030757828421
sI136
F0.00055586436909394106
sI138
F0.00081063553826199745
sI139
F0.0022002964609968501
sI143
F0.001644432091902909
sI144
F0.00092644061515656843
sI145
F0.0009727626459143969
sI160
F0.00092644061515656843
ssS'MEAN_ON_PATH'
p506
F0.042361497128034095
sstp507
a(g11
(tRp508
S'workload'
p509
g11
(tRp510
S'n_contents'
p511
I30000
sS'name'
p512
S'STATIONARY'
p513
sS'n_warmup'
p514
I20000
sS'rate'
p515
I10
sS'n_measured'
p516
I40000
sS'alpha'
p517
F0.80000000000000004
ssS'cache_policy'
p518
g11
(tRp519
g512
S'LRU'
p520
ssS'strategy'
p521
g11
(tRp522
g512
S'LIRA_LCE'
p523
ssS'content_placement'
p524
g11
(tRp525
g512
S'UNIFORM'
p526
ssS'joint_cache_rsn_placement'
p527
g11
(tRp528
S'network_cache'
p529
F0.01
sS'network_rsn'
p530
F0.32000000000000001
sg512
S'CACHE_ALL_RSN_ALL'
p531
sS'rsn_cache_ratio'
p532
F32
ssS'desc'
p533
S'RSN size sensitivity -> RSN/cache ratio: 32.0'
p534
sS'topology'
p535
g11
(tRp536
S'ext_delay'
p537
I34
sS'source_ratio'
p538
F0.10000000000000001
sg512
S'ROCKET_FUEL'
p539
sS'asn'
p540
I3257
ssg11
(tRp541
S'LATENCY'
p542
g11
(tRp543
S'MEAN'
p544
F108.6763
ssS'CACHE_HIT_RATIO'
p545
g11
(tRp546
S'MEAN_OFF_PATH'
p547
F0.053925000000000001
sS'PER_NODE_SERVER_HIT_RATIO'
p548
g11
(tRp549
S'src_13'
p550
F0.055649999999999998
sS'src_14'
p551
F0.056125000000000001
sS'src_11'
p552
F0.061874999999999999
sS'src_15'
p553
F0.057875000000000003
sS'src_10'
p554
F0.055550000000000002
sS'src_12'
p555
F0.065449999999999994
sS'src_8'
p556
F0.0574
sS'src_9'
p557
F0.059124999999999997
sS'src_6'
p558
F0.060624999999999998
sS'src_7'
p559
F0.055524999999999998
sS'src_4'
p560
F0.066025
sS'src_5'
p561
F0.061499999999999999
sS'src_2'
p562
F0.047600000000000003
sS'src_3'
p563
F0.051374999999999997
sS'src_0'
p564
F0.055175000000000002
sS'src_1'
p565
F0.052749999999999998
ssg544
F0.080375000000000002
sS'PER_NODE_CACHE_HIT_RATIO'
p566
g11
(tRp567
I0
F0.00064999999999999997
sI1
F0.0018500000000000001
sI2
F0.00092500000000000004
sI3
F0.00052499999999999997
sI4
F0.000125
sI5
F0.00022499999999999999
sI6
F0.00052499999999999997
sI7
F0.0001
sI8
F0.000175
sI9
F0.00025000000000000001
sI10
F0.00087500000000000002
sI11
F0.0012750000000000001
sI12
F0.00084999999999999995
sI13
F0.000175
sI14
F0.00037500000000000001
sI15
F0.000125
sI16
F0.00027500000000000002
sI17
F0.00035
sI18
F0.00032499999999999999
sI19
F0.00042499999999999998
sI20
F0.000125
sI21
F0.00075000000000000002
sI22
F0.00014999999999999999
sI23
F0.00027500000000000002
sI24
F0.000825
sI25
F0.0011999999999999999
sI26
F0.0001
sI27
F0.00025000000000000001
sI28
F0.00022499999999999999
sI29
F0.00055000000000000003
sI30
F0.00059999999999999995
sI31
F0.00014999999999999999
sI32
F0.00052499999999999997
sI33
F0.00059999999999999995
sI34
F0.00050000000000000001
sI35
F0.00014999999999999999
sI36
F0.00042499999999999998
sI37
F0.00067500000000000004
sI38
F0.00052499999999999997
sI39
F0.00029999999999999997
sI40
F0.00014999999999999999
sI41
F0.0001
sI42
F0.000175
sI43
F0.00025000000000000001
sI44
F7.4999999999999993e-05
sI45
F0.00035
sI46
F0.000475
sI47
F0.00037500000000000001
sI48
F0.00044999999999999999
sI49
F0.0011000000000000001
sI50
F0.0015499999999999999
sI51
F0.00062500000000000001
sI52
F0.0010499999999999999
sI53
F0.00057499999999999999
sI54
F5.0000000000000002e-05
sI55
F0.00025000000000000001
sI56
F0.00075000000000000002
sI57
F5.0000000000000002e-05
sI58
F0.00029999999999999997
sI59
F0.00014999999999999999
sI60
F0.0001
sI61
F0.00069999999999999999
sI62
F0.0011249999999999999
sI63
F0.00044999999999999999
sI64
F0.00059999999999999995
sI65
F0.00069999999999999999
sI66
F0.00044999999999999999
sI67
F0.00020000000000000001
sI68
F0.00077499999999999997
sI69
F0.00064999999999999997
sI70
F0.00035
sI71
F0.00042499999999999998
sI72
F0.00067500000000000004
sI73
F0.00062500000000000001
sI74
F0.000475
sI75
F0.00097499999999999996
sI76
F0.00062500000000000001
sI77
F0.00057499999999999999
sI78
F0.00042499999999999998
sI79
F0.00035
sI80
F0.00025000000000000001
sI81
F0.000175
sI82
F0.00032499999999999999
sI83
F0.00029999999999999997
sI84
F0.0023749999999999999
sI85
F0.0013749999999999999
sI86
F0.00055000000000000003
sI87
F0.00029999999999999997
sI88
F0.00052499999999999997
sI89
F0.00014999999999999999
sI90
F0.00077499999999999997
sI91
F0.0051000000000000004
sI92
F0.000475
sI93
F0.00080000000000000004
sI94
F0.00044999999999999999
sI95
F0.00067500000000000004
sI96
F0.000475
sI97
F0.00040000000000000002
sI98
F0.00052499999999999997
sI99
F0.00037500000000000001
sI100
F0.00025000000000000001
sI101
F0.00092500000000000004
sI102
F0.0001
sI103
F2.5000000000000001e-05
sI104
F0.0001
sI105
F0.000175
sI106
F0.00020000000000000001
sI107
F0.00025000000000000001
sI108
F0.00029999999999999997
sI109
F0.00069999999999999999
sI110
F0.0001
sI111
F0.00052499999999999997
sI112
F5.0000000000000002e-05
sI113
F0.00075000000000000002
sI114
F0.00040000000000000002
sI115
F0.00059999999999999995
sI116
F0.00029999999999999997
sI117
F0.00062500000000000001
sI118
F0.00035
sI119
F0.00025000000000000001
sI120
F0.00044999999999999999
sI121
F0.00040000000000000002
sI122
F0.00044999999999999999
sI123
F0.00029999999999999997
sI124
F0.00044999999999999999
sI125
F0.00032499999999999999
sI126
F0.00097499999999999996
sI127
F0.00035
sI128
F0.00062500000000000001
sI129
F0.00029999999999999997
sI130
F0.00027500000000000002
sI131
F0.000175
sI132
F0.00032499999999999999
sI133
F0.00050000000000000001
sI134
F0.0013749999999999999
sI135
F0.00044999999999999999
sI136
F0.00075000000000000002
sI137
F0.000475
sI138
F0.00059999999999999995
sI139
F0.00055000000000000003
sI140
F0.00052499999999999997
sI141
F0.00040000000000000002
sI142
F0.00037500000000000001
sI143
F0.00069999999999999999
sI144
F0.000475
sI145
F0.00072499999999999995
sI146
F0.00014999999999999999
sI147
F0.00029999999999999997
sI148
F0.000475
sI149
F5.0000000000000002e-05
sI150
F0.00020000000000000001
sI151
F0.00020000000000000001
sI152
F0.00042499999999999998
sI153
F0.00040000000000000002
sI154
F0.00037500000000000001
sI155
F0.00020000000000000001
sI156
F0.000125
sI157
F0.00027500000000000002
sI158
F0.00032499999999999999
sI159
F0.00037500000000000001
sI160
F0.00044999999999999999
ssS'MEAN_ON_PATH'
p568
F0.026450000000000001
sstp569
a(g11
(tRp570
S'workload'
p571
g11
(tRp572
S'n_contents'
p573
I30000
sS'name'
p574
S'STATIONARY'
p575
sS'n_warmup'
p576
I20000
sS'rate'
p577
I10
sS'n_measured'
p578
I40000
sS'alpha'
p579
F0.80000000000000004
ssS'cache_policy'
p580
g11
(tRp581
g574
S'LRU'
p582
ssS'strategy'
p583
g11
(tRp584
g574
S'LIRA_LCE'
p585
ssS'content_placement'
p586
g11
(tRp587
g574
S'UNIFORM'
p588
ssS'joint_cache_rsn_placement'
p589
g11
(tRp590
S'network_cache'
p591
F0.01
sS'network_rsn'
p592
F0.64000000000000001
sg574
S'CACHE_ALL_RSN_ALL'
p593
sS'rsn_cache_ratio'
p594
F64
ssS'desc'
p595
S'RSN size sensitivity -> RSN/cache ratio: 64.0'
p596
sS'topology'
p597
g11
(tRp598
S'ext_delay'
p599
I34
sS'source_ratio'
p600
F0.10000000000000001
sg574
S'ROCKET_FUEL'
p601
sS'asn'
p602
I3257
ssg11
(tRp603
S'LATENCY'
p604
g11
(tRp605
S'MEAN'
p606
F110.444225
ssS'CACHE_HIT_RATIO'
p607
g11
(tRp608
S'MEAN_OFF_PATH'
p609
F0.048724999999999997
sS'PER_NODE_SERVER_HIT_RATIO'
p610
g11
(tRp611
S'src_13'
p612
F0.058900000000000001
sS'src_14'
p613
F0.060350000000000001
sS'src_11'
p614
F0.062199999999999998
sS'src_15'
p615
F0.057575000000000001
sS'src_10'
p616
F0.052949999999999997
sS'src_12'
p617
F0.056750000000000002
sS'src_8'
p618
F0.050424999999999998
sS'src_9'
p619
F0.053150000000000003
sS'src_6'
p620
F0.061624999999999999
sS'src_7'
p621
F0.065924999999999997
sS'src_4'
p622
F0.056300000000000003
sS'src_5'
p623
F0.057474999999999998
sS'src_2'
p624
F0.059225
sS'src_3'
p625
F0.057849999999999999
sS'src_0'
p626
F0.055050000000000002
sS'src_1'
p627
F0.056474999999999997
ssg606
F0.077774999999999997
sS'PER_NODE_CACHE_HIT_RATIO'
p628
g11
(tRp629
I0
F0.00052499999999999997
sI1
F0.00064999999999999997
sI2
F0.000475
sI3
F0.00052499999999999997
sI4
F0.00035
sI5
F0.00072499999999999995
sI6
F0.00027500000000000002
sI7
F0.00029999999999999997
sI8
F0.0001
sI9
F0.00020000000000000001
sI10
F0.00067500000000000004
sI11
F0.00064999999999999997
sI12
F0.00080000000000000004
sI13
F0.00035
sI14
F0.00032499999999999999
sI15
F0.000175
sI16
F0.00037500000000000001
sI17
F0.00072499999999999995
sI18
F0.00175
sI19
F0.00029999999999999997
sI20
F0.000175
sI21
F0.00050000000000000001
sI22
F0.00020000000000000001
sI23
F0.00025000000000000001
sI24
F0.00040000000000000002
sI25
F0.00087500000000000002
sI26
F0.0001
sI27
F0.0001
sI28
F0.000175
sI29
F0.00044999999999999999
sI30
F0.001225
sI31
F0.00029999999999999997
sI32
F0.00035
sI33
F0.00050000000000000001
sI34
F0.00059999999999999995
sI35
F0.00020000000000000001
sI36
F0.00042499999999999998
sI37
F0.00042499999999999998
sI38
F0.000175
sI39
F0.00064999999999999997
sI40
F0.00077499999999999997
sI41
F0.00040000000000000002
sI42
F0.00092500000000000004
sI43
F0.000475
sI44
F0.000125
sI45
F0.000475
sI46
F0.00032499999999999999
sI47
F0.000825
sI48
F0.00040000000000000002
sI49
F0.00022499999999999999
sI50
F0.00072499999999999995
sI51
F0.00064999999999999997
sI52
F0.00064999999999999997
sI53
F0.00057499999999999999
sI54
F0.00040000000000000002
sI55
F0.00014999999999999999
sI56
F0.0013749999999999999
sI57
F0.00044999999999999999
sI58
F0.0041000000000000003
sI59
F0.00014999999999999999
sI60
F0.00040000000000000002
sI61
F0.00027500000000000002
sI62
F0.000825
sI63
F0.00052499999999999997
sI64
F0.00035
sI65
F0.00020000000000000001
sI66
F0.00022499999999999999
sI67
F0.00035
sI68
F0.00035
sI69
F0.00075000000000000002
sI70
F0.000175
sI71
F0.000475
sI72
F0.00035
sI73
F0.00040000000000000002
sI74
F0.00042499999999999998
sI75
F0.00052499999999999997
sI76
F0.00072499999999999995
sI77
F0.00064999999999999997
sI78
F0.00035
sI79
F0.00027500000000000002
sI80
F0.0012999999999999999
sI81
F0.000175
sI82
F0.00040000000000000002
sI83
F0.0029750000000000002
sI84
F0.001325
sI85
F0.00020000000000000001
sI86
F0.00035
sI87
F0.00029999999999999997
sI88
F0.00032499999999999999
sI89
F0.00044999999999999999
sI90
F0.00029999999999999997
sI91
F0.00040000000000000002
sI92
F0.00029999999999999997
sI93
F0.001
sI94
F0.00040000000000000002
sI95
F0.00067500000000000004
sI96
F0.00055000000000000003
sI97
F0.00042499999999999998
sI98
F0.00075000000000000002
sI99
F0.00035
sI100
F0.00027500000000000002
sI101
F0.00072499999999999995
sI102
F0.00020000000000000001
sI103
F5.0000000000000002e-05
sI104
F5.0000000000000002e-05
sI105
F0.000175
sI106
F0.00022499999999999999
sI107
F0.00025000000000000001
sI108
F0.00055000000000000003
sI109
F0.00052499999999999997
sI110
F0.00025000000000000001
sI111
F0.00027500000000000002
sI112
F0.0001
sI113
F0.00087500000000000002
sI114
F0.00037500000000000001
sI115
F0.00050000000000000001
sI116
F0.00044999999999999999
sI117
F0.00064999999999999997
sI118
F0.00032499999999999999
sI119
F0.00042499999999999998
sI120
F0.00050000000000000001
sI121
F0.00052499999999999997
sI122
F0.00025000000000000001
sI123
F0.000475
sI124
F0.00029999999999999997
sI125
F0.00032499999999999999
sI126
F0.00052499999999999997
sI127
F0.00040000000000000002
sI128
F0.00040000000000000002
sI129
F0.00029999999999999997
sI130
F0.00035
sI131
F0.00037500000000000001
sI132
F0.00037500000000000001
sI133
F0.00075000000000000002
sI134
F0.00080000000000000004
sI135
F0.00035
sI136
F0.00057499999999999999
sI137
F0.00057499999999999999
sI138
F0.00050000000000000001
sI139
F0.00042499999999999998
sI140
F0.00037500000000000001
sI141
F0.00035
sI142
F0.00040000000000000002
sI143
F0.00080000000000000004
sI144
F0.00052499999999999997
sI145
F0.00040000000000000002
sI146
F0.000175
sI147
F0.00032499999999999999
sI148
F0.00050000000000000001
sI149
F0.00020000000000000001
sI150
F5.0000000000000002e-05
sI151
F0.000175
sI152
F0.000475
sI153
F0.00027500000000000002
sI154
F0.00035
sI155
F0.00020000000000000001
sI156
F0.00029999999999999997
sI157
F0.00032499999999999999
sI158
F0.000175
sI159
F0.00042499999999999998
sI160
F0.00059999999999999995
ssS'MEAN_ON_PATH'
p630
F0.029049999999999999
sstp631
a(g11
(tRp632
S'workload'
p633
g11
(tRp634
S'n_contents'
p635
I30000
sS'name'
p636
S'STATIONARY'
p637
sS'n_warmup'
p638
I20000
sS'rate'
p639
I10
sS'n_measured'
p640
I40000
sS'alpha'
p641
F0.80000000000000004
ssS'cache_policy'
p642
g11
(tRp643
g636
S'LRU'
p644
ssS'strategy'
p645
g11
(tRp646
g636
S'LIRA_DFIB'
p647
ssS'content_placement'
p648
g11
(tRp649
g636
S'UNIFORM'
p650
ssS'joint_cache_rsn_placement'
p651
g11
(tRp652
S'network_cache'
p653
F0.01
sS'network_rsn'
p654
F0.32000000000000001
sg636
S'CACHE_ALL_RSN_ALL'
p655
sS'rsn_cache_ratio'
p656
F32
ssS'desc'
p657
S'RSN size sensitivity -> RSN/cache ratio: 32.0'
p658
sS'topology'
p659
g11
(tRp660
S'ext_delay'
p661
I34
sS'source_ratio'
p662
F0.10000000000000001
sg636
S'ROCKET_FUEL'
p663
sS'asn'
p664
I3257
ssg11
(tRp665
S'LATENCY'
p666
g11
(tRp667
S'MEAN'
p668
F113.400375
ssS'CACHE_HIT_RATIO'
p669
g11
(tRp670
S'MEAN_OFF_PATH'
p671
F0.11028819835775237
sS'PER_NODE_SERVER_HIT_RATIO'
p672
g11
(tRp673
S'src_13'
p674
F0.045909331370609749
sS'src_14'
p675
F0.051383490121213515
sS'src_11'
p676
F0.053844561492283276
sS'src_15'
p677
F0.050164454769188307
sS'src_10'
p678
F0.04354026266761736
sS'src_12'
p679
F0.051544494790348921
sS'src_8'
p680
F0.054994594843250456
sS'src_9'
p681
F0.063895852979736406
sS'src_6'
p682
F0.060813763599144373
sS'src_7'
p683
F0.059318720242887042
sS'src_4'
p684
F0.060330749591738161
sS'src_5'
p685
F0.049014421418221127
sS'src_2'
p686
F0.0489454194171631
sS'src_3'
p687
F0.051521494123329577
sS'src_0'
p688
F0.054005566161418682
sS'src_1'
p689
F0.048393403408698854
ssg668
F0.15237941900315108
sS'PER_NODE_CACHE_HIT_RATIO'
p690
g11
(tRp691
I0
F0.0026450767072245095
sI1
F0.0023460680359730433
sI2
F0.00078202267865768111
sI4
F0.00089702601375439887
sI5
F0.00064401867654161971
sI6
F0.0014030406881799572
sI10
F0.0033350967178048165
sI11
F0.0019550566966442025
sI12
F0.0036111047220369389
sI15
F0.0008510246797157118
sI17
F0.0016100466913540493
sI18
F0.00064401867654161971
sI19
F0.00075902201163833747
sI21
F0.0025530740391471354
sI23
F0.0008510246797157118
sI24
F0.0011270326839478344
sI25
F0.0014030406881799572
sI28
F0.00078202267865768111
sI29
F0.0037031073901143134
sI30
F0.0018630540285668284
sI31
F0.00064401867654161971
sI33
F0.00089702601375439887
sI34
F0.0032200933827080985
sI36
F0.00041401200634818408
sI37
F0.0012190353520252087
sI38
F0.00034501000529015344
sI39
F0.0021850633668376385
sI40
F0.0012650366860638958
sI41
F0.00032200933827080985
sI42
F0.00036801067230949697
sI43
F0.00066701934356096324
sI44
F9.2002668077374242e-05
sI45
F0.0016100466913540493
sI46
F0.00057501667548358901
sI47
F0.002415070037031074
sI49
F0.0023230673689536995
sI50
F0.0016560480253927363
sI51
F0.0013340386871219265
sI52
F0.0014030406881799572
sI53
F0.0027370793753018837
sI55
F0.00039101133932884055
sI56
F0.0036571060560756262
sI57
F0.00013800400211606137
sI58
F0.0012420360190445524
sI60
F4.6001334038687121e-05
sI61
F0.0015870460243347056
sI62
F0.0027830807093405709
sI63
F0.0013570393541412701
sI64
F0.0017480506934701107
sI65
F0.00071302067759965041
sI66
F0.00064401867654161971
sI67
F0.00080502334567702464
sI68
F0.00066701934356096324
sI69
F0.00066701934356096324
sI70
F0.00032200933827080985
sI72
F0.0012420360190445524
sI73
F0.0025990753731858223
sI74
F0.0009200266807737424
sI75
F0.0017940520275087977
sI77
F0.0021620626998182946
sI79
F0.0025070727051084481
sI80
F0.0009200266807737424
sI81
F9.2002668077374242e-05
sI83
F0.0044851300687719945
sI84
F0.0010350300158704603
sI85
F0.00055201600846424548
sI86
F0.0002300066701934356
sI87
F0.00048301400740621478
sI88
F0.0023920693700117302
sI90
F0.00073602134461899394
sI91
F0.00064401867654161971
sI93
F0.002300066701934356
sI94
F6.9002001058030685e-05
sI95
F0.002990086712514663
sI96
F0.00041401200634818408
sI98
F0.0038411113922303748
sI99
F0.00036801067230949697
sI101
F0.0028290820433792582
sI102
F0.00064401867654161971
sI104
F0.00064401867654161971
sI106
F0.00032200933827080985
sI109
F0.0037721093911723441
sI111
F0.0016100466913540493
sI113
F0.002990086712514663
sI115
F0.0012880373530832394
sI116
F0.0010350300158704603
sI117
F0.0022540653678956688
sI118
F0.001725050026450767
sI126
F0.0037721093911723441
sI128
F0.00087402534673505534
sI129
F0.00089702601375439887
sI132
F0.00057501667548358901
sI133
F0.0024840720380891047
sI134
F0.0022310647008763253
sI135
F0.00041401200634818408
sI136
F0.0021850633668376385
sI138
F0.0010120293488511166
sI139
F0.0018860546955861721
sI143
F0.0034731007199208779
sI144
F0.0015410446902960186
sI145
F0.0016560480253927363
sI160
F0.0012650366860638958
ssS'MEAN_ON_PATH'
p692
F0.042091220645398705
sstp693
a(g11
(tRp694
S'workload'
p695
g11
(tRp696
S'n_contents'
p697
I30000
sS'name'
p698
S'STATIONARY'
p699
sS'n_warmup'
p700
I20000
sS'rate'
p701
I10
sS'n_measured'
p702
I40000
sS'alpha'
p703
F0.80000000000000004
ssS'cache_policy'
p704
g11
(tRp705
g698
S'LRU'
p706
ssS'strategy'
p707
g11
(tRp708
g698
S'LIRA_DFIB'
p709
ssS'content_placement'
p710
g11
(tRp711
g698
S'UNIFORM'
p712
ssS'joint_cache_rsn_placement'
p713
g11
(tRp714
S'network_cache'
p715
F0.01
sS'network_rsn'
p716
F0.64000000000000001
sg698
S'CACHE_ALL_RSN_ALL'
p717
sS'rsn_cache_ratio'
p718
F64
ssS'desc'
p719
S'RSN size sensitivity -> RSN/cache ratio: 64.0'
p720
sS'topology'
p721
g11
(tRp722
S'ext_delay'
p723
I34
sS'source_ratio'
p724
F0.10000000000000001
sg698
S'ROCKET_FUEL'
p725
sS'asn'
p726
I3257
ssg11
(tRp727
S'LATENCY'
p728
g11
(tRp729
S'MEAN'
p730
F115.353725
ssS'CACHE_HIT_RATIO'
p731
g11
(tRp732
S'MEAN_OFF_PATH'
p733
F0.11253617316819076
sS'PER_NODE_SERVER_HIT_RATIO'
p734
g11
(tRp735
S'src_13'
p736
F0.05713624262067369
sS'src_14'
p737
F0.057159393448315776
sS'src_11'
p738
F0.058201180692209746
sS'src_15'
p739
F0.058108577381641394
sS'src_10'
p740
F0.042620673689084385
sS'src_12'
p741
F0.052089362194698459
sS'src_8'
p742
F0.053200601921518695
sS'src_9'
p743
F0.047806459080912141
sS'src_6'
p744
F0.052390322954045609
sS'src_7'
p745
F0.052228267160550991
sS'src_4'
p746
F0.045120963074429914
sS'src_5'
p747
F0.046278504456534322
sS'src_2'
p748
F0.061905313114943857
sS'src_3'
p749
F0.05609445537677972
sS'src_0'
p750
F0.046903576802870703
sS'src_1'
p751
F0.057853918277578423
ssg730
F0.15490218775321218
sS'PER_NODE_CACHE_HIT_RATIO'
p752
g11
(tRp753
I0
F0.0011343905544623221
sI1
F0.00062507234633638151
sI2
F0.0023382335918509089
sI4
F0.0026854960064822317
sI5
F0.0026623451788401436
sI6
F0.00071767565690473436
sI10
F0.0037272832503762007
sI11
F0.0029401551105452022
sI12
F0.0034726241463132307
sI15
F0.00087973145039935174
sI17
F0.00064822317397846972
sI18
F0.00020835744877879386
sI19
F0.00090288227804143995
sI21
F0.0018057645560828799
sI23
F0.0014816529690936451
sI24
F0.0023845352471350851
sI25
F0.0011575413821044102
sI28
F0.00057877069105220509
sI29
F0.0014816529690936451
sI30
F0.000787128139830999
sI31
F0.00046301655284176408
sI33
F0.00057877069105220509
sI34
F0.00094918393332561637
sI36
F0.0003935640699154995
sI37
F0.00027780993170505844
sI38
F0.0011806922097464985
sI39
F0.0033800208357448779
sI40
F0.00020835744877879386
sI41
F0.0015048037967357332
sI42
F0.0066211367056372263
sI43
F0.0010880888991781456
sI44
F4.6301655284176411e-05
sI45
F0.0013890496585252923
sI46
F0.00034726241463132307
sI47
F0.0024308369024192613
sI49
F0.00023150827642088204
sI50
F0.0033800208357448779
sI51
F0.0011575413821044102
sI52
F0.00087973145039935174
sI53
F0.0026623451788401436
sI55
F0.00023150827642088204
sI56
F0.002361384419492997
sI57
F9.2603310568352821e-05
sI58
F0.0011806922097464985
sI61
F0.00032411158698923486
sI62
F0.0018752170390091446
sI63
F0.00074082648454682257
sI64
F0.0025928926959138789
sI65
F0.00083342979511517542
sI66
F0.00083342979511517542
sI67
F0.0015511054520199097
sI68
F0.0019446695219354092
sI69
F0.0003935640699154995
sI70
F0.00050931820812594045
sI72
F0.0022687811089246441
sI73
F0.0014353513138094687
sI74
F0.0020835744877879384
sI75
F0.0015279546243778216
sI77
F0.0018983678666512327
sI79
F0.00027780993170505844
sI80
F0.00041671489755758771
sI81
F0.00018520662113670564
sI83
F0.0010417872438939692
sI84
F0.0014816529690936451
sI85
F0.00053246903576802866
sI86
F0.001574256279661998
sI87
F4.6301655284176411e-05
sI88
F0.001250144692672763
sI90
F0.0034263224910290541
sI91
F0.0027780993170505846
sI93
F0.0011806922097464985
sI95
F0.0018289153837249682
sI96
F0.0014353513138094687
sI98
F0.0018983678666512327
sI101
F0.0011112397268202337
sI102
F0.00064822317397846972
sI104
F0.00053246903576802866
sI106
F0.00053246903576802866
sI109
F0.0033337191804607017
sI111
F0.0035652274568815836
sI113
F0.0021993286259983794
sI115
F0.0019215186942933211
sI116
F0.0012732955203148513
sI117
F0.0018752170390091446
sI118
F0.0019678203495774975
sI126
F0.0020141220048616737
sI128
F0.0019446695219354092
sI129
F0.00064822317397846972
sI132
F0.0019215186942933211
sI133
F0.0025697418682717908
sI134
F0.0022687811089246441
sI135
F0.0018983678666512327
sI136
F0.0016668595902303508
sI138
F0.001250144692672763
sI139
F0.0040282440097233474
sI143
F0.0034957749739553188
sI144
F0.0021993286259983794
sI145
F0.0012732955203148513
sI160
F0.0029401551105452022
ssS'MEAN_ON_PATH'
p754
F0.042366014585021428
sstp755
atRp756
sb.