ccopy_reg
_reconstructor
p1
(cicarus.results.readwrite
ResultSet
p2
c__builtin__
object
p3
NtRp4
(dp5
S'attr'
p6
(dp7
sS'_results'
p8
ccollections
deque
p9
((lp10
(cicarus.util
Tree
p11
(tRp12
S'workload'
p13
g11
(tRp14
S'n_contents'
p15
I10000
sS'name'
p16
S'STATIONARY'
p17
sS'n_warmup'
p18
I360000
sS'rate'
p19
I1000
sS'n_measured'
p20
I3600000
sS'alpha'
p21
F0.80000000000000004
ssS'cache_policy'
p22
g11
(tRp23
g16
S'LRU'
p24
ssS'desc'
p25
S'impact of timeout'
p26
sS'strategy'
p27
g11
(tRp28
S'p'
F0.10000000000000001
sg16
S'LIRA_DFIB_OPH'
p29
sS'rsn_timeout'
p30
F240
ssS'content_placement'
p31
g11
(tRp32
g16
S'LOWEST_DEGREE'
p33
ssS'joint_cache_rsn_placement'
p34
g11
(tRp35
S'network_cache'
p36
F0.94999999999999996
sS'network_rsn'
p37
F60.799999999999997
sg16
S'CACHE_ALL_RSN_ALL'
p38
sS'rsn_cache_ratio'
p39
I64
ssS'warmup_strategy'
p40
g11
(tRp41
S'p'
F0.10000000000000001
sg16
S'NDN'
p42
ssS'topology'
p43
g11
(tRp44
S'ext_delay'
p45
I5
sS'source_ratio'
p46
F0.10000000000000001
sg16
S'ROCKET_FUEL'
p47
sS'asn'
p48
I3257
ssg11
(tRp49
S'SAT_RATE'
p50
g11
(tRp51
S'MEAN_CACHE_HIT'
p52
F0.62144222222222223
sS'MEAN_SERVER_HIT'
p53
F0.37777888888888889
sS'MEAN'
p54
F0.99922111111111112
ssS'CACHE_HIT_RATIO'
p55
g11
(tRp56
S'MEAN_OFF_PATH'
p57
F0.337434250760768
sS'MEAN_ON_PATH'
p58
F0.28400797146145423
sg54
F0.62144222222222223
ssS'OVERHEAD'
p59
g11
(tRp60
g54
F7.3270330555555558
ssS'LATENCY'
p61
g11
(tRp62
g54
F58.81283143234544
sstp63
a(g11
(tRp64
S'workload'
p65
g11
(tRp66
S'n_contents'
p67
I10000
sS'name'
p68
S'STATIONARY'
p69
sS'n_warmup'
p70
I360000
sS'rate'
p71
I1000
sS'n_measured'
p72
I3600000
sS'alpha'
p73
F0.80000000000000004
ssS'cache_policy'
p74
g11
(tRp75
g68
S'LRU'
p76
ssS'desc'
p77
S'impact of timeout'
p78
sS'strategy'
p79
g11
(tRp80
S'p'
F0.10000000000000001
sg68
S'LIRA_DFIB_OPH'
p81
sS'rsn_timeout'
p82
F5
ssS'content_placement'
p83
g11
(tRp84
g68
S'LOWEST_DEGREE'
p85
ssS'joint_cache_rsn_placement'
p86
g11
(tRp87
S'network_cache'
p88
F0.94999999999999996
sS'network_rsn'
p89
F60.799999999999997
sg68
S'CACHE_ALL_RSN_ALL'
p90
sS'rsn_cache_ratio'
p91
I64
ssS'warmup_strategy'
p92
g11
(tRp93
S'p'
F0.10000000000000001
sg68
S'NDN'
p94
ssS'topology'
p95
g11
(tRp96
S'ext_delay'
p97
I5
sS'source_ratio'
p98
F0.10000000000000001
sg68
S'ROCKET_FUEL'
p99
sS'asn'
p100
I3257
ssg11
(tRp101
S'SAT_RATE'
p102
g11
(tRp103
S'MEAN_CACHE_HIT'
p104
F0.49738833333333332
sS'MEAN_SERVER_HIT'
p105
F0.50204749999999998
sS'MEAN'
p106
F0.9994358333333333
ssS'CACHE_HIT_RATIO'
p107
g11
(tRp108
S'MEAN_OFF_PATH'
p109
F0.26419019523729076
sS'MEAN_ON_PATH'
p110
F0.23319813809604256
sg106
F0.49738833333333332
ssS'OVERHEAD'
p111
g11
(tRp112
g106
F6.8353655555555557
ssS'LATENCY'
p113
g11
(tRp114
g106
F74.099894467047704
sstp115
a(g11
(tRp116
S'workload'
p117
g11
(tRp118
S'n_contents'
p119
I10000
sS'name'
p120
S'STATIONARY'
p121
sS'n_warmup'
p122
I360000
sS'rate'
p123
I1000
sS'n_measured'
p124
I3600000
sS'alpha'
p125
F0.80000000000000004
ssS'cache_policy'
p126
g11
(tRp127
g120
S'LRU'
p128
ssS'desc'
p129
S'impact of timeout'
p130
sS'strategy'
p131
g11
(tRp132
S'p'
F0.10000000000000001
sg120
S'LIRA_DFIB_OPH'
p133
sS'rsn_timeout'
p134
F30
ssS'content_placement'
p135
g11
(tRp136
g120
S'LOWEST_DEGREE'
p137
ssS'joint_cache_rsn_placement'
p138
g11
(tRp139
S'network_cache'
p140
F0.94999999999999996
sS'network_rsn'
p141
F60.799999999999997
sg120
S'CACHE_ALL_RSN_ALL'
p142
sS'rsn_cache_ratio'
p143
I64
ssS'warmup_strategy'
p144
g11
(tRp145
S'p'
F0.10000000000000001
sg120
S'NDN'
p146
ssS'topology'
p147
g11
(tRp148
S'ext_delay'
p149
I5
sS'source_ratio'
p150
F0.10000000000000001
sg120
S'ROCKET_FUEL'
p151
sS'asn'
p152
I3257
ssg11
(tRp153
S'SAT_RATE'
p154
g11
(tRp155
S'MEAN_CACHE_HIT'
p156
F0.59985722222222226
sS'MEAN_SERVER_HIT'
p157
F0.39949833333333334
sS'MEAN'
p158
F0.99935555555555555
ssS'CACHE_HIT_RATIO'
p159
g11
(tRp160
S'MEAN_OFF_PATH'
p161
F0.32586003405812003
sS'MEAN_ON_PATH'
p162
F0.27399718816410223
sg158
F0.59985722222222226
ssS'OVERHEAD'
p163
g11
(tRp164
g158
F7.2111866666666664
ssS'LATENCY'
p165
g11
(tRp166
g158
F61.55853286483795
sstp167
a(g11
(tRp168
S'workload'
p169
g11
(tRp170
S'n_contents'
p171
I10000
sS'name'
p172
S'STATIONARY'
p173
sS'n_warmup'
p174
I360000
sS'rate'
p175
I1000
sS'n_measured'
p176
I3600000
sS'alpha'
p177
F0.80000000000000004
ssS'cache_policy'
p178
g11
(tRp179
g172
S'LRU'
p180
ssS'desc'
p181
S'impact of timeout'
p182
sS'strategy'
p183
g11
(tRp184
S'p'
F0.10000000000000001
sg172
S'LIRA_DFIB_OPH'
p185
sS'rsn_timeout'
p186
F600
ssS'content_placement'
p187
g11
(tRp188
g172
S'LOWEST_DEGREE'
p189
ssS'joint_cache_rsn_placement'
p190
g11
(tRp191
S'network_cache'
p192
F0.94999999999999996
sS'network_rsn'
p193
F60.799999999999997
sg172
S'CACHE_ALL_RSN_ALL'
p194
sS'rsn_cache_ratio'
p195
I64
ssS'warmup_strategy'
p196
g11
(tRp197
S'p'
F0.10000000000000001
sg172
S'NDN'
p198
ssS'topology'
p199
g11
(tRp200
S'ext_delay'
p201
I5
sS'source_ratio'
p202
F0.10000000000000001
sg172
S'ROCKET_FUEL'
p203
sS'asn'
p204
I3257
ssg11
(tRp205
S'SAT_RATE'
p206
g11
(tRp207
S'MEAN_CACHE_HIT'
p208
F0.6238894444444445
sS'MEAN_SERVER_HIT'
p209
F0.37536027777777775
sS'MEAN'
p210
F0.99924972222222219
ssS'CACHE_HIT_RATIO'
p211
g11
(tRp212
S'MEAN_OFF_PATH'
p213
F0.33983971966636189
sS'MEAN_ON_PATH'
p214
F0.2840497247780826
sg210
F0.6238894444444445
ssS'OVERHEAD'
p215
g11
(tRp216
g210
F7.3678347222222218
ssS'LATENCY'
p217
g11
(tRp218
g210
F58.531860514491541
sstp219
a(g11
(tRp220
S'workload'
p221
g11
(tRp222
S'n_contents'
p223
I10000
sS'name'
p224
S'STATIONARY'
p225
sS'n_warmup'
p226
I360000
sS'rate'
p227
I1000
sS'n_measured'
p228
I3600000
sS'alpha'
p229
F0.80000000000000004
ssS'cache_policy'
p230
g11
(tRp231
g224
S'LRU'
p232
ssS'desc'
p233
S'impact of timeout'
p234
sS'strategy'
p235
g11
(tRp236
S'p'
F0.10000000000000001
sg224
S'LIRA_DFIB_OPH'
p237
sS'rsn_timeout'
p238
F1200
ssS'content_placement'
p239
g11
(tRp240
g224
S'LOWEST_DEGREE'
p241
ssS'joint_cache_rsn_placement'
p242
g11
(tRp243
S'network_cache'
p244
F0.94999999999999996
sS'network_rsn'
p245
F60.799999999999997
sg224
S'CACHE_ALL_RSN_ALL'
p246
sS'rsn_cache_ratio'
p247
I64
ssS'warmup_strategy'
p248
g11
(tRp249
S'p'
F0.10000000000000001
sg224
S'NDN'
p250
ssS'topology'
p251
g11
(tRp252
S'ext_delay'
p253
I5
sS'source_ratio'
p254
F0.10000000000000001
sg224
S'ROCKET_FUEL'
p255
sS'asn'
p256
I3257
ssg11
(tRp257
S'SAT_RATE'
p258
g11
(tRp259
S'MEAN_CACHE_HIT'
p260
F0.62301694444444444
sS'MEAN_SERVER_HIT'
p261
F0.37619277777777776
sS'MEAN'
p262
F0.99920972222222226
ssS'CACHE_HIT_RATIO'
p263
g11
(tRp264
S'MEAN_OFF_PATH'
p265
F0.33983310266204958
sS'MEAN_ON_PATH'
p266
F0.28318384178239486
sg262
F0.62301694444444444
ssS'OVERHEAD'
p267
g11
(tRp268
g262
F7.3473433333333329
ssS'LATENCY'
p269
g11
(tRp270
g262
F58.62723930746084
sstp271
a(g11
(tRp272
S'workload'
p273
g11
(tRp274
S'n_contents'
p275
I10000
sS'name'
p276
S'STATIONARY'
p277
sS'n_warmup'
p278
I360000
sS'rate'
p279
I1000
sS'n_measured'
p280
I3600000
sS'alpha'
p281
F0.80000000000000004
ssS'cache_policy'
p282
g11
(tRp283
g276
S'LRU'
p284
ssS'desc'
p285
S'impact of timeout'
p286
sS'strategy'
p287
g11
(tRp288
S'p'
F0.10000000000000001
sg276
S'LIRA_DFIB_OPH'
p289
sS'rsn_timeout'
p290
F10
ssS'content_placement'
p291
g11
(tRp292
g276
S'LOWEST_DEGREE'
p293
ssS'joint_cache_rsn_placement'
p294
g11
(tRp295
S'network_cache'
p296
F0.94999999999999996
sS'network_rsn'
p297
F60.799999999999997
sg276
S'CACHE_ALL_RSN_ALL'
p298
sS'rsn_cache_ratio'
p299
I64
ssS'warmup_strategy'
p300
g11
(tRp301
S'p'
F0.10000000000000001
sg276
S'NDN'
p302
ssS'topology'
p303
g11
(tRp304
S'ext_delay'
p305
I5
sS'source_ratio'
p306
F0.10000000000000001
sg276
S'ROCKET_FUEL'
p307
sS'asn'
p308
I3257
ssg11
(tRp309
S'SAT_RATE'
p310
g11
(tRp311
S'MEAN_CACHE_HIT'
p312
F0.56057999999999997
sS'MEAN_SERVER_HIT'
p313
F0.43882222222222222
sS'MEAN'
p314
F0.99940222222222219
ssS'CACHE_HIT_RATIO'
p315
g11
(tRp316
S'MEAN_OFF_PATH'
p317
F0.30245184892507943
sS'MEAN_ON_PATH'
p318
F0.25812815107492054
sg314
F0.56057999999999997
ssS'OVERHEAD'
p319
g11
(tRp320
g314
F7.0595397222222225
ssS'LATENCY'
p321
g11
(tRp322
g314
F66.418930316666945
sstp323
a(g11
(tRp324
S'workload'
p325
g11
(tRp326
S'n_contents'
p327
I10000
sS'name'
p328
S'STATIONARY'
p329
sS'n_warmup'
p330
I360000
sS'rate'
p331
I1000
sS'n_measured'
p332
I3600000
sS'alpha'
p333
F0.80000000000000004
ssS'cache_policy'
p334
g11
(tRp335
g328
S'LRU'
p336
ssS'desc'
p337
S'impact of timeout'
p338
sS'strategy'
p339
g11
(tRp340
S'p'
F0.10000000000000001
sg328
S'LIRA_DFIB_OPH'
p341
sS'rsn_timeout'
p342
F120
ssS'content_placement'
p343
g11
(tRp344
g328
S'LOWEST_DEGREE'
p345
ssS'joint_cache_rsn_placement'
p346
g11
(tRp347
S'network_cache'
p348
F0.94999999999999996
sS'network_rsn'
p349
F60.799999999999997
sg328
S'CACHE_ALL_RSN_ALL'
p350
sS'rsn_cache_ratio'
p351
I64
ssS'warmup_strategy'
p352
g11
(tRp353
S'p'
F0.10000000000000001
sg328
S'NDN'
p354
ssS'topology'
p355
g11
(tRp356
S'ext_delay'
p357
I5
sS'source_ratio'
p358
F0.10000000000000001
sg328
S'ROCKET_FUEL'
p359
sS'asn'
p360
I3257
ssg11
(tRp361
S'SAT_RATE'
p362
g11
(tRp363
S'MEAN_CACHE_HIT'
p364
F0.62245416666666664
sS'MEAN_SERVER_HIT'
p365
F0.37679833333333335
sS'MEAN'
p366
F0.99925249999999999
ssS'CACHE_HIT_RATIO'
p367
g11
(tRp368
S'MEAN_OFF_PATH'
p369
F0.33802228765594156
sS'MEAN_ON_PATH'
p370
F0.28443187901072509
sg366
F0.62245416666666664
ssS'OVERHEAD'
p371
g11
(tRp372
g366
F7.3208594444444444
ssS'LATENCY'
p373
g11
(tRp374
g366
F58.660584947418066
sstp375
a(g11
(tRp376
S'workload'
p377
g11
(tRp378
S'n_contents'
p379
I10000
sS'name'
p380
S'STATIONARY'
p381
sS'n_warmup'
p382
I360000
sS'rate'
p383
I1000
sS'n_measured'
p384
I3600000
sS'alpha'
p385
F0.80000000000000004
ssS'cache_policy'
p386
g11
(tRp387
g380
S'LRU'
p388
ssS'desc'
p389
S'impact of timeout'
p390
sS'strategy'
p391
g11
(tRp392
S'p'
F0.10000000000000001
sg380
S'LIRA_DFIB'
p393
sS'rsn_timeout'
p394
F5
ssS'content_placement'
p395
g11
(tRp396
g380
S'LOWEST_DEGREE'
p397
ssS'joint_cache_rsn_placement'
p398
g11
(tRp399
S'network_cache'
p400
F0.94999999999999996
sS'network_rsn'
p401
F60.799999999999997
sg380
S'CACHE_ALL_RSN_ALL'
p402
sS'rsn_cache_ratio'
p403
I64
ssS'warmup_strategy'
p404
g11
(tRp405
S'p'
F0.10000000000000001
sg380
S'NDN'
p406
ssS'topology'
p407
g11
(tRp408
S'ext_delay'
p409
I5
sS'source_ratio'
p410
F0.10000000000000001
sg380
S'ROCKET_FUEL'
p411
sS'asn'
p412
I3257
ssg11
(tRp413
S'SAT_RATE'
p414
g11
(tRp415
S'MEAN_CACHE_HIT'
p416
F0.44918083333333331
sS'MEAN_SERVER_HIT'
p417
F0.54980027777777774
sS'MEAN'
p418
F0.9989811111111111
ssS'CACHE_HIT_RATIO'
p419
g11
(tRp420
S'MEAN_OFF_PATH'
p421
F0.20238090600830869
sS'MEAN_ON_PATH'
p422
F0.24679992732502462
sg418
F0.44918083333333331
ssS'OVERHEAD'
p423
g11
(tRp424
g418
F6.0464780555555553
ssS'LATENCY'
p425
g11
(tRp426
g418
F79.637650295669559
sstp427
a(g11
(tRp428
S'workload'
p429
g11
(tRp430
S'n_contents'
p431
I10000
sS'name'
p432
S'STATIONARY'
p433
sS'n_warmup'
p434
I360000
sS'rate'
p435
I1000
sS'n_measured'
p436
I3600000
sS'alpha'
p437
F0.80000000000000004
ssS'cache_policy'
p438
g11
(tRp439
g432
S'LRU'
p440
ssS'desc'
p441
S'impact of timeout'
p442
sS'strategy'
p443
g11
(tRp444
S'p'
F0.10000000000000001
sg432
S'LIRA_DFIB'
p445
sS'rsn_timeout'
p446
F1200
ssS'content_placement'
p447
g11
(tRp448
g432
S'LOWEST_DEGREE'
p449
ssS'joint_cache_rsn_placement'
p450
g11
(tRp451
S'network_cache'
p452
F0.94999999999999996
sS'network_rsn'
p453
F60.799999999999997
sg432
S'CACHE_ALL_RSN_ALL'
p454
sS'rsn_cache_ratio'
p455
I64
ssS'warmup_strategy'
p456
g11
(tRp457
S'p'
F0.10000000000000001
sg432
S'NDN'
p458
ssS'topology'
p459
g11
(tRp460
S'ext_delay'
p461
I5
sS'source_ratio'
p462
F0.10000000000000001
sg432
S'ROCKET_FUEL'
p463
sS'asn'
p464
I3257
ssg11
(tRp465
S'SAT_RATE'
p466
g11
(tRp467
S'MEAN_CACHE_HIT'
p468
F0.51190861111111108
sS'MEAN_SERVER_HIT'
p469
F0.48262833333333333
sS'MEAN'
p470
F0.9945369444444444
ssS'CACHE_HIT_RATIO'
p471
g11
(tRp472
S'MEAN_OFF_PATH'
p473
F0.26295790663021307
sS'MEAN_ON_PATH'
p474
F0.24895070448089801
sg470
F0.51190861111111108
ssS'OVERHEAD'
p475
g11
(tRp476
g470
F6.0976558333333335
ssS'LATENCY'
p477
g11
(tRp478
g470
F71.087236768513748
sstp479
a(g11
(tRp480
S'workload'
p481
g11
(tRp482
S'n_contents'
p483
I10000
sS'name'
p484
S'STATIONARY'
p485
sS'n_warmup'
p486
I360000
sS'rate'
p487
I1000
sS'n_measured'
p488
I3600000
sS'alpha'
p489
F0.80000000000000004
ssS'cache_policy'
p490
g11
(tRp491
g484
S'LRU'
p492
ssS'desc'
p493
S'impact of timeout'
p494
sS'strategy'
p495
g11
(tRp496
S'p'
F0.10000000000000001
sg484
S'LIRA_DFIB'
p497
sS'rsn_timeout'
p498
F10
ssS'content_placement'
p499
g11
(tRp500
g484
S'LOWEST_DEGREE'
p501
ssS'joint_cache_rsn_placement'
p502
g11
(tRp503
S'network_cache'
p504
F0.94999999999999996
sS'network_rsn'
p505
F60.799999999999997
sg484
S'CACHE_ALL_RSN_ALL'
p506
sS'rsn_cache_ratio'
p507
I64
ssS'warmup_strategy'
p508
g11
(tRp509
S'p'
F0.10000000000000001
sg484
S'NDN'
p510
ssS'topology'
p511
g11
(tRp512
S'ext_delay'
p513
I5
sS'source_ratio'
p514
F0.10000000000000001
sg484
S'ROCKET_FUEL'
p515
sS'asn'
p516
I3257
ssg11
(tRp517
S'SAT_RATE'
p518
g11
(tRp519
S'MEAN_CACHE_HIT'
p520
F0.4969702777777778
sS'MEAN_SERVER_HIT'
p521
F0.50177333333333329
sS'MEAN'
p522
F0.9987436111111111
ssS'CACHE_HIT_RATIO'
p523
g11
(tRp524
S'MEAN_OFF_PATH'
p525
F0.24194274566599344
sS'MEAN_ON_PATH'
p526
F0.25502753211178436
sg522
F0.4969702777777778
ssS'OVERHEAD'
p527
g11
(tRp528
g522
F6.1899955555555559
ssS'LATENCY'
p529
g11
(tRp530
g522
F73.70723084549968
sstp531
a(g11
(tRp532
S'workload'
p533
g11
(tRp534
S'n_contents'
p535
I10000
sS'name'
p536
S'STATIONARY'
p537
sS'n_warmup'
p538
I360000
sS'rate'
p539
I1000
sS'n_measured'
p540
I3600000
sS'alpha'
p541
F0.80000000000000004
ssS'cache_policy'
p542
g11
(tRp543
g536
S'LRU'
p544
ssS'desc'
p545
S'impact of timeout'
p546
sS'strategy'
p547
g11
(tRp548
S'p'
F0.10000000000000001
sg536
S'LIRA_DFIB'
p549
sS'rsn_timeout'
p550
F120
ssS'content_placement'
p551
g11
(tRp552
g536
S'LOWEST_DEGREE'
p553
ssS'joint_cache_rsn_placement'
p554
g11
(tRp555
S'network_cache'
p556
F0.94999999999999996
sS'network_rsn'
p557
F60.799999999999997
sg536
S'CACHE_ALL_RSN_ALL'
p558
sS'rsn_cache_ratio'
p559
I64
ssS'warmup_strategy'
p560
g11
(tRp561
S'p'
F0.10000000000000001
sg536
S'NDN'
p562
ssS'topology'
p563
g11
(tRp564
S'ext_delay'
p565
I5
sS'source_ratio'
p566
F0.10000000000000001
sg536
S'ROCKET_FUEL'
p567
sS'asn'
p568
I3257
ssg11
(tRp569
S'SAT_RATE'
p570
g11
(tRp571
S'MEAN_CACHE_HIT'
p572
F0.51647277777777778
sS'MEAN_SERVER_HIT'
p573
F0.47992777777777779
sS'MEAN'
p574
F0.99640055555555551
ssS'CACHE_HIT_RATIO'
p575
g11
(tRp576
S'MEAN_OFF_PATH'
p577
F0.26618799976887786
sS'MEAN_ON_PATH'
p578
F0.25028477800889992
sg574
F0.51647277777777778
ssS'OVERHEAD'
p579
g11
(tRp580
g574
F6.1630141666666667
ssS'LATENCY'
p581
g11
(tRp582
g574
F70.821939857548571
sstp583
a(g11
(tRp584
S'workload'
p585
g11
(tRp586
S'n_contents'
p587
I10000
sS'name'
p588
S'STATIONARY'
p589
sS'n_warmup'
p590
I360000
sS'rate'
p591
I1000
sS'n_measured'
p592
I3600000
sS'alpha'
p593
F0.80000000000000004
ssS'cache_policy'
p594
g11
(tRp595
g588
S'LRU'
p596
ssS'desc'
p597
S'impact of timeout'
p598
sS'strategy'
p599
g11
(tRp600
S'p'
F0.10000000000000001
sg588
S'LIRA_DFIB'
p601
sS'rsn_timeout'
p602
F30
ssS'content_placement'
p603
g11
(tRp604
g588
S'LOWEST_DEGREE'
p605
ssS'joint_cache_rsn_placement'
p606
g11
(tRp607
S'network_cache'
p608
F0.94999999999999996
sS'network_rsn'
p609
F60.799999999999997
sg588
S'CACHE_ALL_RSN_ALL'
p610
sS'rsn_cache_ratio'
p611
I64
ssS'warmup_strategy'
p612
g11
(tRp613
S'p'
F0.10000000000000001
sg588
S'NDN'
p614
ssS'topology'
p615
g11
(tRp616
S'ext_delay'
p617
I5
sS'source_ratio'
p618
F0.10000000000000001
sg588
S'ROCKET_FUEL'
p619
sS'asn'
p620
I3257
ssg11
(tRp621
S'SAT_RATE'
p622
g11
(tRp623
S'MEAN_CACHE_HIT'
p624
F0.51623138888888886
sS'MEAN_SERVER_HIT'
p625
F0.48180416666666664
sS'MEAN'
p626
F0.99803555555555556
ssS'CACHE_HIT_RATIO'
p627
g11
(tRp628
S'MEAN_OFF_PATH'
p629
F0.26102099870168688
sS'MEAN_ON_PATH'
p630
F0.25521039018720199
sg626
F0.51623138888888886
ssS'OVERHEAD'
p631
g11
(tRp632
g626
F6.2285847222222221
ssS'LATENCY'
p633
g11
(tRp634
g626
F71.157396019359666
sstp635
a(g11
(tRp636
S'workload'
p637
g11
(tRp638
S'n_contents'
p639
I10000
sS'name'
p640
S'STATIONARY'
p641
sS'n_warmup'
p642
I360000
sS'rate'
p643
I1000
sS'n_measured'
p644
I3600000
sS'alpha'
p645
F0.80000000000000004
ssS'cache_policy'
p646
g11
(tRp647
g640
S'LRU'
p648
ssS'desc'
p649
S'impact of timeout'
p650
sS'strategy'
p651
g11
(tRp652
S'p'
F0.10000000000000001
sg640
S'LIRA_DFIB'
p653
sS'rsn_timeout'
p654
F7200
ssS'content_placement'
p655
g11
(tRp656
g640
S'LOWEST_DEGREE'
p657
ssS'joint_cache_rsn_placement'
p658
g11
(tRp659
S'network_cache'
p660
F0.94999999999999996
sS'network_rsn'
p661
F60.799999999999997
sg640
S'CACHE_ALL_RSN_ALL'
p662
sS'rsn_cache_ratio'
p663
I64
ssS'warmup_strategy'
p664
g11
(tRp665
S'p'
F0.10000000000000001
sg640
S'NDN'
p666
ssS'topology'
p667
g11
(tRp668
S'ext_delay'
p669
I5
sS'source_ratio'
p670
F0.10000000000000001
sg640
S'ROCKET_FUEL'
p671
sS'asn'
p672
I3257
ssg11
(tRp673
S'SAT_RATE'
p674
g11
(tRp675
S'MEAN_CACHE_HIT'
p676
F0.51058555555555551
sS'MEAN_SERVER_HIT'
p677
F0.4837461111111111
sS'MEAN'
p678
F0.99433166666666661
ssS'CACHE_HIT_RATIO'
p679
g11
(tRp680
S'MEAN_OFF_PATH'
p681
F0.2633241723886498
sS'MEAN_ON_PATH'
p682
F0.24726138316690571
sg678
F0.51058555555555551
ssS'OVERHEAD'
p683
g11
(tRp684
g678
F6.1023686111111113
ssS'LATENCY'
p685
g11
(tRp686
g678
F71.239393788090354
sstp687
a(g11
(tRp688
S'workload'
p689
g11
(tRp690
S'n_contents'
p691
I10000
sS'name'
p692
S'STATIONARY'
p693
sS'n_warmup'
p694
I360000
sS'rate'
p695
I1000
sS'n_measured'
p696
I3600000
sS'alpha'
p697
F0.80000000000000004
ssS'cache_policy'
p698
g11
(tRp699
g692
S'LRU'
p700
ssS'desc'
p701
S'impact of timeout'
p702
sS'strategy'
p703
g11
(tRp704
S'p'
F0.10000000000000001
sg692
S'LIRA_DFIB'
p705
sS'rsn_timeout'
p706
F600
ssS'content_placement'
p707
g11
(tRp708
g692
S'LOWEST_DEGREE'
p709
ssS'joint_cache_rsn_placement'
p710
g11
(tRp711
S'network_cache'
p712
F0.94999999999999996
sS'network_rsn'
p713
F60.799999999999997
sg692
S'CACHE_ALL_RSN_ALL'
p714
sS'rsn_cache_ratio'
p715
I64
ssS'warmup_strategy'
p716
g11
(tRp717
S'p'
F0.10000000000000001
sg692
S'NDN'
p718
ssS'topology'
p719
g11
(tRp720
S'ext_delay'
p721
I5
sS'source_ratio'
p722
F0.10000000000000001
sg692
S'ROCKET_FUEL'
p723
sS'asn'
p724
I3257
ssg11
(tRp725
S'SAT_RATE'
p726
g11
(tRp727
S'MEAN_CACHE_HIT'
p728
F0.51321638888888887
sS'MEAN_SERVER_HIT'
p729
F0.48156972222222222
sS'MEAN'
p730
F0.99478611111111115
ssS'CACHE_HIT_RATIO'
p731
g11
(tRp732
S'MEAN_OFF_PATH'
p733
F0.26534941306515009
sS'MEAN_ON_PATH'
p734
F0.24786697582373879
sg730
F0.51321638888888887
ssS'OVERHEAD'
p735
g11
(tRp736
g730
F6.1121566666666665
ssS'LATENCY'
p737
g11
(tRp738
g730
F70.98670387992675
sstp739
a(g11
(tRp740
S'workload'
p741
g11
(tRp742
S'n_contents'
p743
I10000
sS'name'
p744
S'STATIONARY'
p745
sS'n_warmup'
p746
I360000
sS'rate'
p747
I1000
sS'n_measured'
p748
I3600000
sS'alpha'
p749
F0.80000000000000004
ssS'cache_policy'
p750
g11
(tRp751
g744
S'LRU'
p752
ssS'desc'
p753
S'impact of timeout'
p754
sS'strategy'
p755
g11
(tRp756
S'p'
F0.10000000000000001
sg744
S'LIRA_DFIB'
p757
sS'rsn_timeout'
p758
F60
ssS'content_placement'
p759
g11
(tRp760
g744
S'LOWEST_DEGREE'
p761
ssS'joint_cache_rsn_placement'
p762
g11
(tRp763
S'network_cache'
p764
F0.94999999999999996
sS'network_rsn'
p765
F60.799999999999997
sg744
S'CACHE_ALL_RSN_ALL'
p766
sS'rsn_cache_ratio'
p767
I64
ssS'warmup_strategy'
p768
g11
(tRp769
S'p'
F0.10000000000000001
sg744
S'NDN'
p770
ssS'topology'
p771
g11
(tRp772
S'ext_delay'
p773
I5
sS'source_ratio'
p774
F0.10000000000000001
sg744
S'ROCKET_FUEL'
p775
sS'asn'
p776
I3257
ssg11
(tRp777
S'SAT_RATE'
p778
g11
(tRp779
S'MEAN_CACHE_HIT'
p780
F0.51675138888888894
sS'MEAN_SERVER_HIT'
p781
F0.4805247222222222
sS'MEAN'
p782
F0.99727611111111114
ssS'CACHE_HIT_RATIO'
p783
g11
(tRp784
S'MEAN_OFF_PATH'
p785
F0.26501946179783814
sS'MEAN_ON_PATH'
p786
F0.2517319270910508
sg782
F0.51675138888888894
ssS'OVERHEAD'
p787
g11
(tRp788
g782
F6.1985938888888885
ssS'LATENCY'
p789
g11
(tRp790
g782
F70.938053902477932
sstp791
a(g11
(tRp792
S'workload'
p793
g11
(tRp794
S'n_contents'
p795
I10000
sS'name'
p796
S'STATIONARY'
p797
sS'n_warmup'
p798
I360000
sS'rate'
p799
I1000
sS'n_measured'
p800
I3600000
sS'alpha'
p801
F0.80000000000000004
ssS'cache_policy'
p802
g11
(tRp803
g796
S'LRU'
p804
ssS'desc'
p805
S'impact of timeout'
p806
sS'strategy'
p807
g11
(tRp808
S'p'
F0.10000000000000001
sg796
S'LIRA_DFIB'
p809
sS'rsn_timeout'
p810
F240
ssS'content_placement'
p811
g11
(tRp812
g796
S'LOWEST_DEGREE'
p813
ssS'joint_cache_rsn_placement'
p814
g11
(tRp815
S'network_cache'
p816
F0.94999999999999996
sS'network_rsn'
p817
F60.799999999999997
sg796
S'CACHE_ALL_RSN_ALL'
p818
sS'rsn_cache_ratio'
p819
I64
ssS'warmup_strategy'
p820
g11
(tRp821
S'p'
F0.10000000000000001
sg796
S'NDN'
p822
ssS'topology'
p823
g11
(tRp824
S'ext_delay'
p825
I5
sS'source_ratio'
p826
F0.10000000000000001
sg796
S'ROCKET_FUEL'
p827
sS'asn'
p828
I3257
ssg11
(tRp829
S'SAT_RATE'
p830
g11
(tRp831
S'MEAN_CACHE_HIT'
p832
F0.5144738888888889
sS'MEAN_SERVER_HIT'
p833
F0.48104416666666666
sS'MEAN'
p834
F0.9955180555555555
ssS'CACHE_HIT_RATIO'
p835
g11
(tRp836
S'MEAN_OFF_PATH'
p837
F0.26460926766658355
sS'MEAN_ON_PATH'
p838
F0.24986462122230535
sg834
F0.5144738888888889
ssS'OVERHEAD'
p839
g11
(tRp840
g834
F6.1307436111111109
ssS'LATENCY'
p841
g11
(tRp842
g834
F70.905527958036373
sstp843
a(g11
(tRp844
S'workload'
p845
g11
(tRp846
S'n_contents'
p847
I10000
sS'name'
p848
S'STATIONARY'
p849
sS'n_warmup'
p850
I360000
sS'rate'
p851
I1000
sS'n_measured'
p852
I3600000
sS'alpha'
p853
F0.80000000000000004
ssS'cache_policy'
p854
g11
(tRp855
g848
S'LRU'
p856
ssS'desc'
p857
S'impact of timeout'
p858
sS'strategy'
p859
g11
(tRp860
S'p'
F0.10000000000000001
sg848
S'LIRA_DFIB_OPH'
p861
sS'rsn_timeout'
p862
F360
ssS'content_placement'
p863
g11
(tRp864
g848
S'LOWEST_DEGREE'
p865
ssS'joint_cache_rsn_placement'
p866
g11
(tRp867
S'network_cache'
p868
F0.94999999999999996
sS'network_rsn'
p869
F60.799999999999997
sg848
S'CACHE_ALL_RSN_ALL'
p870
sS'rsn_cache_ratio'
p871
I64
ssS'warmup_strategy'
p872
g11
(tRp873
S'p'
F0.10000000000000001
sg848
S'NDN'
p874
ssS'topology'
p875
g11
(tRp876
S'ext_delay'
p877
I5
sS'source_ratio'
p878
F0.10000000000000001
sg848
S'ROCKET_FUEL'
p879
sS'asn'
p880
I3257
ssg11
(tRp881
S'SAT_RATE'
p882
g11
(tRp883
S'MEAN_CACHE_HIT'
p884
F0.62322583333333337
sS'MEAN_SERVER_HIT'
p885
F0.3759952777777778
sS'MEAN'
p886
F0.99922111111111112
ssS'CACHE_HIT_RATIO'
p887
g11
(tRp888
S'MEAN_OFF_PATH'
p889
F0.33915390644430771
sS'MEAN_ON_PATH'
p890
F0.28407192688902566
sg886
F0.62322583333333337
ssS'OVERHEAD'
p891
g11
(tRp892
g886
F7.3518850000000002
ssS'LATENCY'
p893
g11
(tRp894
g886
F58.614580804781511
sstp895
a(g11
(tRp896
S'workload'
p897
g11
(tRp898
S'n_contents'
p899
I10000
sS'name'
p900
S'STATIONARY'
p901
sS'n_warmup'
p902
I360000
sS'rate'
p903
I1000
sS'n_measured'
p904
I3600000
sS'alpha'
p905
F0.80000000000000004
ssS'cache_policy'
p906
g11
(tRp907
g900
S'LRU'
p908
ssS'desc'
p909
S'impact of timeout'
p910
sS'strategy'
p911
g11
(tRp912
S'p'
F0.10000000000000001
sg900
S'LIRA_DFIB'
p913
sS'rsn_timeout'
p914
F3600
ssS'content_placement'
p915
g11
(tRp916
g900
S'LOWEST_DEGREE'
p917
ssS'joint_cache_rsn_placement'
p918
g11
(tRp919
S'network_cache'
p920
F0.94999999999999996
sS'network_rsn'
p921
F60.799999999999997
sg900
S'CACHE_ALL_RSN_ALL'
p922
sS'rsn_cache_ratio'
p923
I64
ssS'warmup_strategy'
p924
g11
(tRp925
S'p'
F0.10000000000000001
sg900
S'NDN'
p926
ssS'topology'
p927
g11
(tRp928
S'ext_delay'
p929
I5
sS'source_ratio'
p930
F0.10000000000000001
sg900
S'ROCKET_FUEL'
p931
sS'asn'
p932
I3257
ssg11
(tRp933
S'SAT_RATE'
p934
g11
(tRp935
S'MEAN_CACHE_HIT'
p936
F0.51117305555555559
sS'MEAN_SERVER_HIT'
p937
F0.48328972222222222
sS'MEAN'
p938
F0.99446277777777781
ssS'CACHE_HIT_RATIO'
p939
g11
(tRp940
S'MEAN_OFF_PATH'
p941
F0.26323109497548119
sS'MEAN_ON_PATH'
p942
F0.24794196058007439
sg938
F0.51117305555555559
ssS'OVERHEAD'
p943
g11
(tRp944
g938
F6.1028538888888892
ssS'LATENCY'
p945
g11
(tRp946
g938
F71.100997410242826
sstp947
a(g11
(tRp948
S'workload'
p949
g11
(tRp950
S'n_contents'
p951
I10000
sS'name'
p952
S'STATIONARY'
p953
sS'n_warmup'
p954
I360000
sS'rate'
p955
I1000
sS'n_measured'
p956
I3600000
sS'alpha'
p957
F0.80000000000000004
ssS'cache_policy'
p958
g11
(tRp959
g952
S'LRU'
p960
ssS'desc'
p961
S'impact of timeout'
p962
sS'strategy'
p963
g11
(tRp964
S'p'
F0.10000000000000001
sg952
S'LIRA_DFIB_OPH'
p965
sS'rsn_timeout'
p966
F60
ssS'content_placement'
p967
g11
(tRp968
g952
S'LOWEST_DEGREE'
p969
ssS'joint_cache_rsn_placement'
p970
g11
(tRp971
S'network_cache'
p972
F0.94999999999999996
sS'network_rsn'
p973
F60.799999999999997
sg952
S'CACHE_ALL_RSN_ALL'
p974
sS'rsn_cache_ratio'
p975
I64
ssS'warmup_strategy'
p976
g11
(tRp977
S'p'
F0.10000000000000001
sg952
S'NDN'
p978
ssS'topology'
p979
g11
(tRp980
S'ext_delay'
p981
I5
sS'source_ratio'
p982
F0.10000000000000001
sg952
S'ROCKET_FUEL'
p983
sS'asn'
p984
I3257
ssg11
(tRp985
S'SAT_RATE'
p986
g11
(tRp987
S'MEAN_CACHE_HIT'
p988
F0.61690777777777783
sS'MEAN_SERVER_HIT'
p989
F0.38239055555555557
sS'MEAN'
p990
F0.99929833333333329
ssS'CACHE_HIT_RATIO'
p991
g11
(tRp992
S'MEAN_OFF_PATH'
p993
F0.33645589993042158
sS'MEAN_ON_PATH'
p994
F0.28045187784735626
sg990
F0.61690777777777783
ssS'OVERHEAD'
p995
g11
(tRp996
g990
F7.3025055555555554
ssS'LATENCY'
p997
g11
(tRp998
g990
F59.400485451706096
sstp999
a(g11
(tRp1000
S'workload'
p1001
g11
(tRp1002
S'n_contents'
p1003
I10000
sS'name'
p1004
S'STATIONARY'
p1005
sS'n_warmup'
p1006
I360000
sS'rate'
p1007
I1000
sS'n_measured'
p1008
I3600000
sS'alpha'
p1009
F0.80000000000000004
ssS'cache_policy'
p1010
g11
(tRp1011
g1004
S'LRU'
p1012
ssS'desc'
p1013
S'impact of timeout'
p1014
sS'strategy'
p1015
g11
(tRp1016
S'p'
F0.10000000000000001
sg1004
S'LIRA_DFIB'
p1017
sS'rsn_timeout'
p1018
F360
ssS'content_placement'
p1019
g11
(tRp1020
g1004
S'LOWEST_DEGREE'
p1021
ssS'joint_cache_rsn_placement'
p1022
g11
(tRp1023
S'network_cache'
p1024
F0.94999999999999996
sS'network_rsn'
p1025
F60.799999999999997
sg1004
S'CACHE_ALL_RSN_ALL'
p1026
sS'rsn_cache_ratio'
p1027
I64
ssS'warmup_strategy'
p1028
g11
(tRp1029
S'p'
F0.10000000000000001
sg1004
S'NDN'
p1030
ssS'topology'
p1031
g11
(tRp1032
S'ext_delay'
p1033
I5
sS'source_ratio'
p1034
F0.10000000000000001
sg1004
S'ROCKET_FUEL'
p1035
sS'asn'
p1036
I3257
ssg11
(tRp1037
S'SAT_RATE'
p1038
g11
(tRp1039
S'MEAN_CACHE_HIT'
p1040
F0.51221611111111109
sS'MEAN_SERVER_HIT'
p1041
F0.4827838888888889
sS'MEAN'
p1042
F0.995
ssS'CACHE_HIT_RATIO'
p1043
g11
(tRp1044
S'MEAN_OFF_PATH'
p1045
F0.26432284921014104
sS'MEAN_ON_PATH'
p1046
F0.24789326190097005
sg1042
F0.51221611111111109
ssS'OVERHEAD'
p1047
g11
(tRp1048
g1042
F6.1221316666666663
ssS'LATENCY'
p1049
g11
(tRp1050
g1042
F71.151837544511579
sstp1051
a(g11
(tRp1052
S'workload'
p1053
g11
(tRp1054
S'n_contents'
p1055
I10000
sS'name'
p1056
S'STATIONARY'
p1057
sS'n_warmup'
p1058
I360000
sS'rate'
p1059
I1000
sS'n_measured'
p1060
I3600000
sS'alpha'
p1061
F0.80000000000000004
ssS'cache_policy'
p1062
g11
(tRp1063
g1056
S'LRU'
p1064
ssS'desc'
p1065
S'impact of timeout'
p1066
sS'strategy'
p1067
g11
(tRp1068
S'p'
F0.10000000000000001
sg1056
S'LIRA_DFIB_OPH'
p1069
sS'rsn_timeout'
p1070
F3600
ssS'content_placement'
p1071
g11
(tRp1072
g1056
S'LOWEST_DEGREE'
p1073
ssS'joint_cache_rsn_placement'
p1074
g11
(tRp1075
S'network_cache'
p1076
F0.94999999999999996
sS'network_rsn'
p1077
F60.799999999999997
sg1056
S'CACHE_ALL_RSN_ALL'
p1078
sS'rsn_cache_ratio'
p1079
I64
ssS'warmup_strategy'
p1080
g11
(tRp1081
S'p'
F0.10000000000000001
sg1056
S'NDN'
p1082
ssS'topology'
p1083
g11
(tRp1084
S'ext_delay'
p1085
I5
sS'source_ratio'
p1086
F0.10000000000000001
sg1056
S'ROCKET_FUEL'
p1087
sS'asn'
p1088
I3257
ssg11
(tRp1089
S'SAT_RATE'
p1090
g11
(tRp1091
S'MEAN_CACHE_HIT'
p1092
F0.62239194444444446
sS'MEAN_SERVER_HIT'
p1093
F0.37684444444444443
sS'MEAN'
p1094
F0.99923638888888888
ssS'CACHE_HIT_RATIO'
p1095
g11
(tRp1096
S'MEAN_OFF_PATH'
p1097
F0.33983859068178895
sS'MEAN_ON_PATH'
p1098
F0.2825533537626555
sg1094
F0.62239194444444446
ssS'OVERHEAD'
p1099
g11
(tRp1100
g1094
F7.3643077777777775
ssS'LATENCY'
p1101
g11
(tRp1102
g1094
F58.659470169461031
sstp1103
a(g11
(tRp1104
S'workload'
p1105
g11
(tRp1106
S'n_contents'
p1107
I10000
sS'name'
p1108
S'STATIONARY'
p1109
sS'n_warmup'
p1110
I360000
sS'rate'
p1111
I1000
sS'n_measured'
p1112
I3600000
sS'alpha'
p1113
F0.80000000000000004
ssS'cache_policy'
p1114
g11
(tRp1115
g1108
S'LRU'
p1116
ssS'desc'
p1117
S'impact of timeout'
p1118
sS'strategy'
p1119
g11
(tRp1120
S'p'
F0.10000000000000001
sg1108
S'LIRA_DFIB_OPH'
p1121
sS'rsn_timeout'
p1122
F7200
ssS'content_placement'
p1123
g11
(tRp1124
g1108
S'LOWEST_DEGREE'
p1125
ssS'joint_cache_rsn_placement'
p1126
g11
(tRp1127
S'network_cache'
p1128
F0.94999999999999996
sS'network_rsn'
p1129
F60.799999999999997
sg1108
S'CACHE_ALL_RSN_ALL'
p1130
sS'rsn_cache_ratio'
p1131
I64
ssS'warmup_strategy'
p1132
g11
(tRp1133
S'p'
F0.10000000000000001
sg1108
S'NDN'
p1134
ssS'topology'
p1135
g11
(tRp1136
S'ext_delay'
p1137
I5
sS'source_ratio'
p1138
F0.10000000000000001
sg1108
S'ROCKET_FUEL'
p1139
sS'asn'
p1140
I3257
ssg11
(tRp1141
S'SAT_RATE'
p1142
g11
(tRp1143
S'MEAN_CACHE_HIT'
p1144
F0.62290527777777782
sS'MEAN_SERVER_HIT'
p1145
F0.37630083333333331
sS'MEAN'
p1146
F0.99920611111111113
ssS'CACHE_HIT_RATIO'
p1147
g11
(tRp1148
S'MEAN_OFF_PATH'
p1149
F0.33841237215891945
sS'MEAN_ON_PATH'
p1150
F0.28449290561885837
sg1146
F0.62290527777777782
ssS'OVERHEAD'
p1151
g11
(tRp1152
g1146
F7.3508844444444446
ssS'LATENCY'
p1153
g11
(tRp1154
g1146
F58.579335339215426
sstp1155
a(g11
(tRp1156
S'workload'
p1157
g11
(tRp1158
S'n_contents'
p1159
I10000
sS'name'
p1160
S'STATIONARY'
p1161
sS'n_warmup'
p1162
I360000
sS'rate'
p1163
I1000
sS'n_measured'
p1164
I3600000
sS'alpha'
p1165
F0.80000000000000004
ssS'cache_policy'
p1166
g11
(tRp1167
g1160
S'LRU'
p1168
ssS'desc'
p1169
S'impact of timeout'
p1170
sS'strategy'
p1171
g11
(tRp1172
S'p'
F0.10000000000000001
sg1160
S'LIRA_BC_HYBRID'
p1173
sS'rsn_timeout'
p1174
F5
ssS'content_placement'
p1175
g11
(tRp1176
g1160
S'LOWEST_DEGREE'
p1177
ssS'joint_cache_rsn_placement'
p1178
g11
(tRp1179
S'network_cache'
p1180
F0.94999999999999996
sS'network_rsn'
p1181
F60.799999999999997
sg1160
S'CACHE_ALL_RSN_ALL'
p1182
sS'rsn_cache_ratio'
p1183
I64
ssS'warmup_strategy'
p1184
g11
(tRp1185
S'p'
F0.10000000000000001
sg1160
S'NDN'
p1186
ssS'topology'
p1187
g11
(tRp1188
S'ext_delay'
p1189
I5
sS'source_ratio'
p1190
F0.10000000000000001
sg1160
S'ROCKET_FUEL'
p1191
sS'asn'
p1192
I3257
ssg11
(tRp1193
S'SAT_RATE'
p1194
g11
(tRp1195
S'MEAN_CACHE_HIT'
p1196
F0.43224777777777779
sS'MEAN_SERVER_HIT'
p1197
F0.56672111111111112
sS'MEAN'
p1198
F0.99896888888888891
ssS'CACHE_HIT_RATIO'
p1199
g11
(tRp1200
S'MEAN_OFF_PATH'
p1201
F0.21551949589440711
sS'MEAN_ON_PATH'
p1202
F0.21672828188337068
sg1198
F0.43224777777777779
ssS'OVERHEAD'
p1203
g11
(tRp1204
g1198
F5.4467375000000002
ssS'LATENCY'
p1205
g11
(tRp1206
g1198
F85.536894492137222
sstp1207
a(g11
(tRp1208
S'workload'
p1209
g11
(tRp1210
S'n_contents'
p1211
I10000
sS'name'
p1212
S'STATIONARY'
p1213
sS'n_warmup'
p1214
I360000
sS'rate'
p1215
I1000
sS'n_measured'
p1216
I3600000
sS'alpha'
p1217
F0.80000000000000004
ssS'cache_policy'
p1218
g11
(tRp1219
g1212
S'LRU'
p1220
ssS'desc'
p1221
S'impact of timeout'
p1222
sS'strategy'
p1223
g11
(tRp1224
S'p'
F0.10000000000000001
sg1212
S'LIRA_BC_HYBRID'
p1225
sS'rsn_timeout'
p1226
F240
ssS'content_placement'
p1227
g11
(tRp1228
g1212
S'LOWEST_DEGREE'
p1229
ssS'joint_cache_rsn_placement'
p1230
g11
(tRp1231
S'network_cache'
p1232
F0.94999999999999996
sS'network_rsn'
p1233
F60.799999999999997
sg1212
S'CACHE_ALL_RSN_ALL'
p1234
sS'rsn_cache_ratio'
p1235
I64
ssS'warmup_strategy'
p1236
g11
(tRp1237
S'p'
F0.10000000000000001
sg1212
S'NDN'
p1238
ssS'topology'
p1239
g11
(tRp1240
S'ext_delay'
p1241
I5
sS'source_ratio'
p1242
F0.10000000000000001
sg1212
S'ROCKET_FUEL'
p1243
sS'asn'
p1244
I3257
ssg11
(tRp1245
S'SAT_RATE'
p1246
g11
(tRp1247
S'MEAN_CACHE_HIT'
p1248
F0.50025500000000001
sS'MEAN_SERVER_HIT'
p1249
F0.49472583333333331
sS'MEAN'
p1250
F0.99498083333333331
ssS'CACHE_HIT_RATIO'
p1251
g11
(tRp1252
S'MEAN_OFF_PATH'
p1253
F0.29100078341881791
sS'MEAN_ON_PATH'
p1254
F0.2092542165811821
sg1250
F0.50025500000000001
ssS'OVERHEAD'
p1255
g11
(tRp1256
g1250
F5.3928172222222219
ssS'LATENCY'
p1257
g11
(tRp1258
g1250
F76.873732688618318
sstp1259
a(g11
(tRp1260
S'workload'
p1261
g11
(tRp1262
S'n_contents'
p1263
I10000
sS'name'
p1264
S'STATIONARY'
p1265
sS'n_warmup'
p1266
I360000
sS'rate'
p1267
I1000
sS'n_measured'
p1268
I3600000
sS'alpha'
p1269
F0.80000000000000004
ssS'cache_policy'
p1270
g11
(tRp1271
g1264
S'LRU'
p1272
ssS'desc'
p1273
S'impact of timeout'
p1274
sS'strategy'
p1275
g11
(tRp1276
S'p'
F0.10000000000000001
sg1264
S'LIRA_BC_HYBRID'
p1277
sS'rsn_timeout'
p1278
F360
ssS'content_placement'
p1279
g11
(tRp1280
g1264
S'LOWEST_DEGREE'
p1281
ssS'joint_cache_rsn_placement'
p1282
g11
(tRp1283
S'network_cache'
p1284
F0.94999999999999996
sS'network_rsn'
p1285
F60.799999999999997
sg1264
S'CACHE_ALL_RSN_ALL'
p1286
sS'rsn_cache_ratio'
p1287
I64
ssS'warmup_strategy'
p1288
g11
(tRp1289
S'p'
F0.10000000000000001
sg1264
S'NDN'
p1290
ssS'topology'
p1291
g11
(tRp1292
S'ext_delay'
p1293
I5
sS'source_ratio'
p1294
F0.10000000000000001
sg1264
S'ROCKET_FUEL'
p1295
sS'asn'
p1296
I3257
ssg11
(tRp1297
S'SAT_RATE'
p1298
g11
(tRp1299
S'MEAN_CACHE_HIT'
p1300
F0.49958333333333332
sS'MEAN_SERVER_HIT'
p1301
F0.49502388888888887
sS'MEAN'
p1302
F0.9946072222222222
ssS'CACHE_HIT_RATIO'
p1303
g11
(tRp1304
S'MEAN_OFF_PATH'
p1305
F0.29060983576470895
sS'MEAN_ON_PATH'
p1306
F0.20897349756862438
sg1302
F0.49958333333333332
ssS'OVERHEAD'
p1307
g11
(tRp1308
g1302
F5.3898772222222222
ssS'LATENCY'
p1309
g11
(tRp1310
g1302
F76.880097077602599
sstp1311
a(g11
(tRp1312
S'workload'
p1313
g11
(tRp1314
S'n_contents'
p1315
I10000
sS'name'
p1316
S'STATIONARY'
p1317
sS'n_warmup'
p1318
I360000
sS'rate'
p1319
I1000
sS'n_measured'
p1320
I3600000
sS'alpha'
p1321
F0.80000000000000004
ssS'cache_policy'
p1322
g11
(tRp1323
g1316
S'LRU'
p1324
ssS'desc'
p1325
S'impact of timeout'
p1326
sS'strategy'
p1327
g11
(tRp1328
S'p'
F0.10000000000000001
sg1316
S'LIRA_BC_HYBRID'
p1329
sS'rsn_timeout'
p1330
F600
ssS'content_placement'
p1331
g11
(tRp1332
g1316
S'LOWEST_DEGREE'
p1333
ssS'joint_cache_rsn_placement'
p1334
g11
(tRp1335
S'network_cache'
p1336
F0.94999999999999996
sS'network_rsn'
p1337
F60.799999999999997
sg1316
S'CACHE_ALL_RSN_ALL'
p1338
sS'rsn_cache_ratio'
p1339
I64
ssS'warmup_strategy'
p1340
g11
(tRp1341
S'p'
F0.10000000000000001
sg1316
S'NDN'
p1342
ssS'topology'
p1343
g11
(tRp1344
S'ext_delay'
p1345
I5
sS'source_ratio'
p1346
F0.10000000000000001
sg1316
S'ROCKET_FUEL'
p1347
sS'asn'
p1348
I3257
ssg11
(tRp1349
S'SAT_RATE'
p1350
g11
(tRp1351
S'MEAN_CACHE_HIT'
p1352
F0.4975675
sS'MEAN_SERVER_HIT'
p1353
F0.49662777777777778
sS'MEAN'
p1354
F0.99419527777777783
ssS'CACHE_HIT_RATIO'
p1355
g11
(tRp1356
S'MEAN_OFF_PATH'
p1357
F0.28847030702766302
sS'MEAN_ON_PATH'
p1358
F0.20909719297233698
sg1354
F0.4975675
ssS'OVERHEAD'
p1359
g11
(tRp1360
g1354
F5.3825136111111114
ssS'LATENCY'
p1361
g11
(tRp1362
g1354
F77.079012241555745
sstp1363
a(g11
(tRp1364
S'workload'
p1365
g11
(tRp1366
S'n_contents'
p1367
I10000
sS'name'
p1368
S'STATIONARY'
p1369
sS'n_warmup'
p1370
I360000
sS'rate'
p1371
I1000
sS'n_measured'
p1372
I3600000
sS'alpha'
p1373
F0.80000000000000004
ssS'cache_policy'
p1374
g11
(tRp1375
g1368
S'LRU'
p1376
ssS'desc'
p1377
S'impact of timeout'
p1378
sS'strategy'
p1379
g11
(tRp1380
S'p'
F0.10000000000000001
sg1368
S'LIRA_BC_HYBRID'
p1381
sS'rsn_timeout'
p1382
F10
ssS'content_placement'
p1383
g11
(tRp1384
g1368
S'LOWEST_DEGREE'
p1385
ssS'joint_cache_rsn_placement'
p1386
g11
(tRp1387
S'network_cache'
p1388
F0.94999999999999996
sS'network_rsn'
p1389
F60.799999999999997
sg1368
S'CACHE_ALL_RSN_ALL'
p1390
sS'rsn_cache_ratio'
p1391
I64
ssS'warmup_strategy'
p1392
g11
(tRp1393
S'p'
F0.10000000000000001
sg1368
S'NDN'
p1394
ssS'topology'
p1395
g11
(tRp1396
S'ext_delay'
p1397
I5
sS'source_ratio'
p1398
F0.10000000000000001
sg1368
S'ROCKET_FUEL'
p1399
sS'asn'
p1400
I3257
ssg11
(tRp1401
S'SAT_RATE'
p1402
g11
(tRp1403
S'MEAN_CACHE_HIT'
p1404
F0.48318583333333331
sS'MEAN_SERVER_HIT'
p1405
F0.5154508333333333
sS'MEAN'
p1406
F0.99863666666666662
ssS'CACHE_HIT_RATIO'
p1407
g11
(tRp1408
S'MEAN_OFF_PATH'
p1409
F0.27067539328399898
sS'MEAN_ON_PATH'
p1410
F0.21251044004933434
sg1406
F0.48318583333333331
ssS'OVERHEAD'
p1411
g11
(tRp1412
g1406
F5.4177838888888887
ssS'LATENCY'
p1413
g11
(tRp1414
g1406
F80.73443041767446
sstp1415
a(g11
(tRp1416
S'workload'
p1417
g11
(tRp1418
S'n_contents'
p1419
I10000
sS'name'
p1420
S'STATIONARY'
p1421
sS'n_warmup'
p1422
I360000
sS'rate'
p1423
I1000
sS'n_measured'
p1424
I3600000
sS'alpha'
p1425
F0.80000000000000004
ssS'cache_policy'
p1426
g11
(tRp1427
g1420
S'LRU'
p1428
ssS'desc'
p1429
S'impact of timeout'
p1430
sS'strategy'
p1431
g11
(tRp1432
S'p'
F0.10000000000000001
sg1420
S'LIRA_BC_HYBRID'
p1433
sS'rsn_timeout'
p1434
F60
ssS'content_placement'
p1435
g11
(tRp1436
g1420
S'LOWEST_DEGREE'
p1437
ssS'joint_cache_rsn_placement'
p1438
g11
(tRp1439
S'network_cache'
p1440
F0.94999999999999996
sS'network_rsn'
p1441
F60.799999999999997
sg1420
S'CACHE_ALL_RSN_ALL'
p1442
sS'rsn_cache_ratio'
p1443
I64
ssS'warmup_strategy'
p1444
g11
(tRp1445
S'p'
F0.10000000000000001
sg1420
S'NDN'
p1446
ssS'topology'
p1447
g11
(tRp1448
S'ext_delay'
p1449
I5
sS'source_ratio'
p1450
F0.10000000000000001
sg1420
S'ROCKET_FUEL'
p1451
sS'asn'
p1452
I3257
ssg11
(tRp1453
S'SAT_RATE'
p1454
g11
(tRp1455
S'MEAN_CACHE_HIT'
p1456
F0.50807500000000005
sS'MEAN_SERVER_HIT'
p1457
F0.48891722222222223
sS'MEAN'
p1458
F0.99699222222222217
ssS'CACHE_HIT_RATIO'
p1459
g11
(tRp1460
S'MEAN_OFF_PATH'
p1461
F0.29869311091781259
sS'MEAN_ON_PATH'
p1462
F0.20938188908218747
sg1458
F0.50807500000000005
ssS'OVERHEAD'
p1463
g11
(tRp1464
g1458
F5.4225563888888892
ssS'LATENCY'
p1465
g11
(tRp1466
g1458
F76.423457997034376
sstp1467
a(g11
(tRp1468
S'workload'
p1469
g11
(tRp1470
S'n_contents'
p1471
I10000
sS'name'
p1472
S'STATIONARY'
p1473
sS'n_warmup'
p1474
I360000
sS'rate'
p1475
I1000
sS'n_measured'
p1476
I3600000
sS'alpha'
p1477
F0.80000000000000004
ssS'cache_policy'
p1478
g11
(tRp1479
g1472
S'LRU'
p1480
ssS'desc'
p1481
S'impact of timeout'
p1482
sS'strategy'
p1483
g11
(tRp1484
S'p'
F0.10000000000000001
sg1472
S'LIRA_BC_HYBRID'
p1485
sS'rsn_timeout'
p1486
F30
ssS'content_placement'
p1487
g11
(tRp1488
g1472
S'LOWEST_DEGREE'
p1489
ssS'joint_cache_rsn_placement'
p1490
g11
(tRp1491
S'network_cache'
p1492
F0.94999999999999996
sS'network_rsn'
p1493
F60.799999999999997
sg1472
S'CACHE_ALL_RSN_ALL'
p1494
sS'rsn_cache_ratio'
p1495
I64
ssS'warmup_strategy'
p1496
g11
(tRp1497
S'p'
F0.10000000000000001
sg1472
S'NDN'
p1498
ssS'topology'
p1499
g11
(tRp1500
S'ext_delay'
p1501
I5
sS'source_ratio'
p1502
F0.10000000000000001
sg1472
S'ROCKET_FUEL'
p1503
sS'asn'
p1504
I3257
ssg11
(tRp1505
S'SAT_RATE'
p1506
g11
(tRp1507
S'MEAN_CACHE_HIT'
p1508
F0.50864166666666666
sS'MEAN_SERVER_HIT'
p1509
F0.48926666666666668
sS'MEAN'
p1510
F0.99790833333333329
ssS'CACHE_HIT_RATIO'
p1511
g11
(tRp1512
S'MEAN_OFF_PATH'
p1513
F0.29874095617658231
sS'MEAN_ON_PATH'
p1514
F0.20990071049008435
sg1510
F0.50864166666666666
ssS'OVERHEAD'
p1515
g11
(tRp1516
g1510
F5.429649722222222
ssS'LATENCY'
p1517
g11
(tRp1518
g1510
F76.837749624427545
sstp1519
a(g11
(tRp1520
S'workload'
p1521
g11
(tRp1522
S'n_contents'
p1523
I10000
sS'name'
p1524
S'STATIONARY'
p1525
sS'n_warmup'
p1526
I360000
sS'rate'
p1527
I1000
sS'n_measured'
p1528
I3600000
sS'alpha'
p1529
F0.80000000000000004
ssS'cache_policy'
p1530
g11
(tRp1531
g1524
S'LRU'
p1532
ssS'desc'
p1533
S'impact of timeout'
p1534
sS'strategy'
p1535
g11
(tRp1536
S'p'
F0.10000000000000001
sg1524
S'LIRA_BC_HYBRID'
p1537
sS'rsn_timeout'
p1538
F3600
ssS'content_placement'
p1539
g11
(tRp1540
g1524
S'LOWEST_DEGREE'
p1541
ssS'joint_cache_rsn_placement'
p1542
g11
(tRp1543
S'network_cache'
p1544
F0.94999999999999996
sS'network_rsn'
p1545
F60.799999999999997
sg1524
S'CACHE_ALL_RSN_ALL'
p1546
sS'rsn_cache_ratio'
p1547
I64
ssS'warmup_strategy'
p1548
g11
(tRp1549
S'p'
F0.10000000000000001
sg1524
S'NDN'
p1550
ssS'topology'
p1551
g11
(tRp1552
S'ext_delay'
p1553
I5
sS'source_ratio'
p1554
F0.10000000000000001
sg1524
S'ROCKET_FUEL'
p1555
sS'asn'
p1556
I3257
ssg11
(tRp1557
S'SAT_RATE'
p1558
g11
(tRp1559
S'MEAN_CACHE_HIT'
p1560
F0.49816500000000002
sS'MEAN_SERVER_HIT'
p1561
F0.49583222222222223
sS'MEAN'
p1562
F0.9939972222222222
ssS'CACHE_HIT_RATIO'
p1563
g11
(tRp1564
S'MEAN_OFF_PATH'
p1565
F0.28970436103771025
sS'MEAN_ON_PATH'
p1566
F0.20846063896228978
sg1562
F0.49816500000000002
ssS'OVERHEAD'
p1567
g11
(tRp1568
g1562
F5.3839836111111108
ssS'LATENCY'
p1569
g11
(tRp1570
g1562
F77.000399186349355
sstp1571
a(g11
(tRp1572
S'workload'
p1573
g11
(tRp1574
S'n_contents'
p1575
I10000
sS'name'
p1576
S'STATIONARY'
p1577
sS'n_warmup'
p1578
I360000
sS'rate'
p1579
I1000
sS'n_measured'
p1580
I3600000
sS'alpha'
p1581
F0.80000000000000004
ssS'cache_policy'
p1582
g11
(tRp1583
g1576
S'LRU'
p1584
ssS'desc'
p1585
S'impact of timeout'
p1586
sS'strategy'
p1587
g11
(tRp1588
S'p'
F0.10000000000000001
sg1576
S'LIRA_BC_HYBRID'
p1589
sS'rsn_timeout'
p1590
F1200
ssS'content_placement'
p1591
g11
(tRp1592
g1576
S'LOWEST_DEGREE'
p1593
ssS'joint_cache_rsn_placement'
p1594
g11
(tRp1595
S'network_cache'
p1596
F0.94999999999999996
sS'network_rsn'
p1597
F60.799999999999997
sg1576
S'CACHE_ALL_RSN_ALL'
p1598
sS'rsn_cache_ratio'
p1599
I64
ssS'warmup_strategy'
p1600
g11
(tRp1601
S'p'
F0.10000000000000001
sg1576
S'NDN'
p1602
ssS'topology'
p1603
g11
(tRp1604
S'ext_delay'
p1605
I5
sS'source_ratio'
p1606
F0.10000000000000001
sg1576
S'ROCKET_FUEL'
p1607
sS'asn'
p1608
I3257
ssg11
(tRp1609
S'SAT_RATE'
p1610
g11
(tRp1611
S'MEAN_CACHE_HIT'
p1612
F0.49775055555555553
sS'MEAN_SERVER_HIT'
p1613
F0.49620611111111113
sS'MEAN'
p1614
F0.99395666666666671
ssS'CACHE_HIT_RATIO'
p1615
g11
(tRp1616
S'MEAN_OFF_PATH'
p1617
F0.28808277776016078
sS'MEAN_ON_PATH'
p1618
F0.20966777779539475
sg1614
F0.49775055555555553
ssS'OVERHEAD'
p1619
g11
(tRp1620
g1614
F5.3784769444444445
ssS'LATENCY'
p1621
g11
(tRp1622
g1614
F77.004490812843983
sstp1623
a(g11
(tRp1624
S'workload'
p1625
g11
(tRp1626
S'n_contents'
p1627
I10000
sS'name'
p1628
S'STATIONARY'
p1629
sS'n_warmup'
p1630
I360000
sS'rate'
p1631
I1000
sS'n_measured'
p1632
I3600000
sS'alpha'
p1633
F0.80000000000000004
ssS'cache_policy'
p1634
g11
(tRp1635
g1628
S'LRU'
p1636
ssS'desc'
p1637
S'impact of timeout'
p1638
sS'strategy'
p1639
g11
(tRp1640
S'p'
F0.10000000000000001
sg1628
S'LIRA_BC_HYBRID'
p1641
sS'rsn_timeout'
p1642
F120
ssS'content_placement'
p1643
g11
(tRp1644
g1628
S'LOWEST_DEGREE'
p1645
ssS'joint_cache_rsn_placement'
p1646
g11
(tRp1647
S'network_cache'
p1648
F0.94999999999999996
sS'network_rsn'
p1649
F60.799999999999997
sg1628
S'CACHE_ALL_RSN_ALL'
p1650
sS'rsn_cache_ratio'
p1651
I64
ssS'warmup_strategy'
p1652
g11
(tRp1653
S'p'
F0.10000000000000001
sg1628
S'NDN'
p1654
ssS'topology'
p1655
g11
(tRp1656
S'ext_delay'
p1657
I5
sS'source_ratio'
p1658
F0.10000000000000001
sg1628
S'ROCKET_FUEL'
p1659
sS'asn'
p1660
I3257
ssg11
(tRp1661
S'SAT_RATE'
p1662
g11
(tRp1663
S'MEAN_CACHE_HIT'
p1664
F0.50396027777777774
sS'MEAN_SERVER_HIT'
p1665
F0.49211138888888889
sS'MEAN'
p1666
F0.99607166666666669
ssS'CACHE_HIT_RATIO'
p1667
g11
(tRp1668
S'MEAN_OFF_PATH'
p1669
F0.29460469510338666
sS'MEAN_ON_PATH'
p1670
F0.20935558267439108
sg1666
F0.50396027777777774
ssS'OVERHEAD'
p1671
g11
(tRp1672
g1666
F5.4045413888888891
ssS'LATENCY'
p1673
g11
(tRp1674
g1666
F76.630600676474742
sstp1675
a(g11
(tRp1676
S'workload'
p1677
g11
(tRp1678
S'n_contents'
p1679
I10000
sS'name'
p1680
S'STATIONARY'
p1681
sS'n_warmup'
p1682
I360000
sS'rate'
p1683
I1000
sS'n_measured'
p1684
I3600000
sS'alpha'
p1685
F0.80000000000000004
ssS'cache_policy'
p1686
g11
(tRp1687
g1680
S'LRU'
p1688
ssS'desc'
p1689
S'impact of timeout'
p1690
sS'strategy'
p1691
g11
(tRp1692
S'p'
F0.10000000000000001
sg1680
S'LIRA_BC_HYBRID'
p1693
sS'rsn_timeout'
p1694
F7200
ssS'content_placement'
p1695
g11
(tRp1696
g1680
S'LOWEST_DEGREE'
p1697
ssS'joint_cache_rsn_placement'
p1698
g11
(tRp1699
S'network_cache'
p1700
F0.94999999999999996
sS'network_rsn'
p1701
F60.799999999999997
sg1680
S'CACHE_ALL_RSN_ALL'
p1702
sS'rsn_cache_ratio'
p1703
I64
ssS'warmup_strategy'
p1704
g11
(tRp1705
S'p'
F0.10000000000000001
sg1680
S'NDN'
p1706
ssS'topology'
p1707
g11
(tRp1708
S'ext_delay'
p1709
I5
sS'source_ratio'
p1710
F0.10000000000000001
sg1680
S'ROCKET_FUEL'
p1711
sS'asn'
p1712
I3257
ssg11
(tRp1713
S'SAT_RATE'
p1714
g11
(tRp1715
S'MEAN_CACHE_HIT'
p1716
F0.49813444444444444
sS'MEAN_SERVER_HIT'
p1717
F0.4958588888888889
sS'MEAN'
p1718
F0.99399333333333328
ssS'CACHE_HIT_RATIO'
p1719
g11
(tRp1720
S'MEAN_OFF_PATH'
p1721
F0.28958678887966349
sS'MEAN_ON_PATH'
p1722
F0.20854765556478094
sg1718
F0.49813444444444444
ssS'OVERHEAD'
p1723
g11
(tRp1724
g1718
F5.382875277777778
ssS'LATENCY'
p1725
g11
(tRp1726
g1718
F76.987944258643353
sstp1727
atRp1728
sb.