ccopy_reg
_reconstructor
p1
(cicarus.results.readwrite
ResultSet
p2
c__builtin__
object
p3
NtRp4
(dp5
S'attr'
p6
(dp7
sS'_results'
p8
ccollections
deque
p9
((lp10
(cicarus.util
Tree
p11
(tRp12
S'workload'
p13
g11
(tRp14
S'n_contents'
p15
I10000
sS'name'
p16
S'STATIONARY'
p17
sS'n_warmup'
p18
I360000
sS'rate'
p19
I1000
sS'n_measured'
p20
I3600000
sS'alpha'
p21
F0.80000000000000004
ssS'cache_policy'
p22
g11
(tRp23
g16
S'LRU'
p24
ssS'desc'
p25
S'RSN size sensitivity -> RSN/cache ratio: 2.0'
p26
sS'strategy'
p27
g11
(tRp28
S'p'
F0.10000000000000001
sg16
S'LIRA_DFIB'
p29
sS'rsn_timeout'
p30
I2400
ssS'content_placement'
p31
g11
(tRp32
g16
S'LOWEST_DEGREE'
p33
ssS'joint_cache_rsn_placement'
p34
g11
(tRp35
S'network_cache'
p36
F0.94999999999999996
sS'network_rsn'
p37
F1.8999999999999999
sg16
S'CACHE_ALL_RSN_ALL'
p38
sS'rsn_cache_ratio'
p39
F2
ssS'warmup_strategy'
p40
g11
(tRp41
S'p'
F0.10000000000000001
sg16
S'NDN'
p42
ssS'topology'
p43
g11
(tRp44
S'ext_delay'
p45
I5
sS'source_ratio'
p46
F0.10000000000000001
sg16
S'ROCKET_FUEL'
p47
sS'asn'
p48
I3967
ssg11
(tRp49
S'SAT_RATE'
p50
g11
(tRp51
S'MEAN'
p52
F1
ssS'CACHE_HIT_RATIO'
p53
g11
(tRp54
S'MEAN_OFF_PATH'
p55
F0.0095471832499207619
sS'MEAN_ON_PATH'
p56
F0.33399253897230147
sg52
F0.34353972222222223
ssS'OVERHEAD'
p57
g11
(tRp58
g52
F4.8201952777777777
ssS'LATENCY'
p59
g11
(tRp60
g52
F35.478453055555555
sstp61
a(g11
(tRp62
S'workload'
p63
g11
(tRp64
S'n_contents'
p65
I10000
sS'name'
p66
S'STATIONARY'
p67
sS'n_warmup'
p68
I360000
sS'rate'
p69
I1000
sS'n_measured'
p70
I3600000
sS'alpha'
p71
F0.80000000000000004
ssS'cache_policy'
p72
g11
(tRp73
g66
S'LRU'
p74
ssS'desc'
p75
S'RSN size sensitivity -> RSN/cache ratio: 4.0'
p76
sS'strategy'
p77
g11
(tRp78
S'p'
F0.10000000000000001
sg66
S'LIRA_DFIB'
p79
sS'rsn_timeout'
p80
I2400
ssS'content_placement'
p81
g11
(tRp82
g66
S'LOWEST_DEGREE'
p83
ssS'joint_cache_rsn_placement'
p84
g11
(tRp85
S'network_cache'
p86
F0.94999999999999996
sS'network_rsn'
p87
F3.7999999999999998
sg66
S'CACHE_ALL_RSN_ALL'
p88
sS'rsn_cache_ratio'
p89
F4
ssS'warmup_strategy'
p90
g11
(tRp91
S'p'
F0.10000000000000001
sg66
S'NDN'
p92
ssS'topology'
p93
g11
(tRp94
S'ext_delay'
p95
I5
sS'source_ratio'
p96
F0.10000000000000001
sg66
S'ROCKET_FUEL'
p97
sS'asn'
p98
I3967
ssg11
(tRp99
S'SAT_RATE'
p100
g11
(tRp101
S'MEAN'
p102
F0.99999944444444444
ssS'CACHE_HIT_RATIO'
p103
g11
(tRp104
S'MEAN_OFF_PATH'
p105
F0.021133873851549224
sS'MEAN_ON_PATH'
p106
F0.33016195948178406
sg102
F0.35129583333333331
ssS'OVERHEAD'
p107
g11
(tRp108
g102
F4.8423644444444447
ssS'LATENCY'
p109
g11
(tRp110
g102
F35.279175833333333
sstp111
a(g11
(tRp112
S'workload'
p113
g11
(tRp114
S'n_contents'
p115
I10000
sS'name'
p116
S'STATIONARY'
p117
sS'n_warmup'
p118
I360000
sS'rate'
p119
I1000
sS'n_measured'
p120
I3600000
sS'alpha'
p121
F0.80000000000000004
ssS'cache_policy'
p122
g11
(tRp123
g116
S'LRU'
p124
ssS'desc'
p125
S'RSN size sensitivity -> RSN/cache ratio: 8.0'
p126
sS'strategy'
p127
g11
(tRp128
S'p'
F0.10000000000000001
sg116
S'LIRA_DFIB'
p129
sS'rsn_timeout'
p130
I2400
ssS'content_placement'
p131
g11
(tRp132
g116
S'LOWEST_DEGREE'
p133
ssS'joint_cache_rsn_placement'
p134
g11
(tRp135
S'network_cache'
p136
F0.94999999999999996
sS'network_rsn'
p137
F7.5999999999999996
sg116
S'CACHE_ALL_RSN_ALL'
p138
sS'rsn_cache_ratio'
p139
F8
ssS'warmup_strategy'
p140
g11
(tRp141
S'p'
F0.10000000000000001
sg116
S'NDN'
p142
ssS'topology'
p143
g11
(tRp144
S'ext_delay'
p145
I5
sS'source_ratio'
p146
F0.10000000000000001
sg116
S'ROCKET_FUEL'
p147
sS'asn'
p148
I3967
ssg11
(tRp149
S'SAT_RATE'
p150
g11
(tRp151
S'MEAN'
p152
F0.99988083333333333
ssS'CACHE_HIT_RATIO'
p153
g11
(tRp154
S'MEAN_OFF_PATH'
p155
F0.054141006268882838
sS'MEAN_ON_PATH'
p156
F0.32488482706445049
sg152
F0.37902583333333334
ssS'OVERHEAD'
p157
g11
(tRp158
g152
F4.8989194444444442
ssS'LATENCY'
p159
g11
(tRp160
g152
F34.453689166666663
sstp161
a(g11
(tRp162
S'workload'
p163
g11
(tRp164
S'n_contents'
p165
I10000
sS'name'
p166
S'STATIONARY'
p167
sS'n_warmup'
p168
I360000
sS'rate'
p169
I1000
sS'n_measured'
p170
I3600000
sS'alpha'
p171
F0.80000000000000004
ssS'cache_policy'
p172
g11
(tRp173
g166
S'LRU'
p174
ssS'desc'
p175
S'RSN size sensitivity -> RSN/cache ratio: 16.0'
p176
sS'strategy'
p177
g11
(tRp178
S'p'
F0.10000000000000001
sg166
S'LIRA_DFIB'
p179
sS'rsn_timeout'
p180
I2400
ssS'content_placement'
p181
g11
(tRp182
g166
S'LOWEST_DEGREE'
p183
ssS'joint_cache_rsn_placement'
p184
g11
(tRp185
S'network_cache'
p186
F0.94999999999999996
sS'network_rsn'
p187
F15.199999999999999
sg166
S'CACHE_ALL_RSN_ALL'
p188
sS'rsn_cache_ratio'
p189
F16
ssS'warmup_strategy'
p190
g11
(tRp191
S'p'
F0.10000000000000001
sg166
S'NDN'
p192
ssS'topology'
p193
g11
(tRp194
S'ext_delay'
p195
I5
sS'source_ratio'
p196
F0.10000000000000001
sg166
S'ROCKET_FUEL'
p197
sS'asn'
p198
I3967
ssg11
(tRp199
S'SAT_RATE'
p200
g11
(tRp201
S'MEAN'
p202
F0.99875499999999995
ssS'CACHE_HIT_RATIO'
p203
g11
(tRp204
S'MEAN_OFF_PATH'
p205
F0.14591862230196406
sS'MEAN_ON_PATH'
p206
F0.31093026658692485
sg202
F0.45684888888888892
ssS'OVERHEAD'
p207
g11
(tRp208
g202
F5.0527224999999998
ssS'LATENCY'
p209
g11
(tRp210
g202
F31.660911388888888
sstp211
a(g11
(tRp212
S'workload'
p213
g11
(tRp214
S'n_contents'
p215
I10000
sS'name'
p216
S'STATIONARY'
p217
sS'n_warmup'
p218
I360000
sS'rate'
p219
I1000
sS'n_measured'
p220
I3600000
sS'alpha'
p221
F0.80000000000000004
ssS'cache_policy'
p222
g11
(tRp223
g216
S'LRU'
p224
ssS'desc'
p225
S'RSN size sensitivity -> RSN/cache ratio: 32.0'
p226
sS'strategy'
p227
g11
(tRp228
S'p'
F0.10000000000000001
sg216
S'LIRA_DFIB'
p229
sS'rsn_timeout'
p230
I2400
ssS'content_placement'
p231
g11
(tRp232
g216
S'LOWEST_DEGREE'
p233
ssS'joint_cache_rsn_placement'
p234
g11
(tRp235
S'network_cache'
p236
F0.94999999999999996
sS'network_rsn'
p237
F30.399999999999999
sg216
S'CACHE_ALL_RSN_ALL'
p238
sS'rsn_cache_ratio'
p239
F32
ssS'warmup_strategy'
p240
g11
(tRp241
S'p'
F0.10000000000000001
sg216
S'NDN'
p242
ssS'topology'
p243
g11
(tRp244
S'ext_delay'
p245
I5
sS'source_ratio'
p246
F0.10000000000000001
sg216
S'ROCKET_FUEL'
p247
sS'asn'
p248
I3967
ssg11
(tRp249
S'SAT_RATE'
p250
g11
(tRp251
S'MEAN'
p252
F0.99501833333333334
ssS'CACHE_HIT_RATIO'
p253
g11
(tRp254
S'MEAN_OFF_PATH'
p255
F0.22015255957631374
sS'MEAN_ON_PATH'
p256
F0.30880355153479733
sg252
F0.52895611111111107
ssS'OVERHEAD'
p257
g11
(tRp258
g252
F5.1537658333333329
ssS'LATENCY'
p259
g11
(tRp260
g252
F28.945041944444444
sstp261
a(g11
(tRp262
S'workload'
p263
g11
(tRp264
S'n_contents'
p265
I10000
sS'name'
p266
S'STATIONARY'
p267
sS'n_warmup'
p268
I360000
sS'rate'
p269
I1000
sS'n_measured'
p270
I3600000
sS'alpha'
p271
F0.80000000000000004
ssS'cache_policy'
p272
g11
(tRp273
g266
S'LRU'
p274
ssS'desc'
p275
S'RSN size sensitivity -> RSN/cache ratio: 64.0'
p276
sS'strategy'
p277
g11
(tRp278
S'p'
F0.10000000000000001
sg266
S'LIRA_DFIB'
p279
sS'rsn_timeout'
p280
I2400
ssS'content_placement'
p281
g11
(tRp282
g266
S'LOWEST_DEGREE'
p283
ssS'joint_cache_rsn_placement'
p284
g11
(tRp285
S'network_cache'
p286
F0.94999999999999996
sS'network_rsn'
p287
F60.799999999999997
sg266
S'CACHE_ALL_RSN_ALL'
p288
sS'rsn_cache_ratio'
p289
F64
ssS'warmup_strategy'
p290
g11
(tRp291
S'p'
F0.10000000000000001
sg266
S'NDN'
p292
ssS'topology'
p293
g11
(tRp294
S'ext_delay'
p295
I5
sS'source_ratio'
p296
F0.10000000000000001
sg266
S'ROCKET_FUEL'
p297
sS'asn'
p298
I3967
ssg11
(tRp299
S'SAT_RATE'
p300
g11
(tRp301
S'MEAN'
p302
F0.98651972222222217
ssS'CACHE_HIT_RATIO'
p303
g11
(tRp304
S'MEAN_OFF_PATH'
p305
F0.25527710027765205
sS'MEAN_ON_PATH'
p306
F0.31423651083345905
sg302
F0.5695136111111111
ssS'OVERHEAD'
p307
g11
(tRp308
g302
F5.1609594444444449
ssS'LATENCY'
p309
g11
(tRp310
g302
F27.045589166666666
sstp311
a(g11
(tRp312
S'workload'
p313
g11
(tRp314
S'n_contents'
p315
I10000
sS'name'
p316
S'STATIONARY'
p317
sS'n_warmup'
p318
I360000
sS'rate'
p319
I1000
sS'n_measured'
p320
I3600000
sS'alpha'
p321
F0.80000000000000004
ssS'cache_policy'
p322
g11
(tRp323
g316
S'LRU'
p324
ssS'desc'
p325
S'RSN size sensitivity -> RSN/cache ratio: 128.0'
p326
sS'strategy'
p327
g11
(tRp328
S'p'
F0.10000000000000001
sg316
S'LIRA_DFIB'
p329
sS'rsn_timeout'
p330
I2400
ssS'content_placement'
p331
g11
(tRp332
g316
S'LOWEST_DEGREE'
p333
ssS'joint_cache_rsn_placement'
p334
g11
(tRp335
S'network_cache'
p336
F0.94999999999999996
sS'network_rsn'
p337
F121.59999999999999
sg316
S'CACHE_ALL_RSN_ALL'
p338
sS'rsn_cache_ratio'
p339
F128
ssS'warmup_strategy'
p340
g11
(tRp341
S'p'
F0.10000000000000001
sg316
S'NDN'
p342
ssS'topology'
p343
g11
(tRp344
S'ext_delay'
p345
I5
sS'source_ratio'
p346
F0.10000000000000001
sg316
S'ROCKET_FUEL'
p347
sS'asn'
p348
I3967
ssg11
(tRp349
S'SAT_RATE'
p350
g11
(tRp351
S'MEAN'
p352
F0.98403333333333332
ssS'CACHE_HIT_RATIO'
p353
g11
(tRp354
S'MEAN_OFF_PATH'
p355
F0.26356514613909626
sS'MEAN_ON_PATH'
p356
F0.31658929830534815
sg352
F0.58015444444444442
ssS'OVERHEAD'
p357
g11
(tRp358
g352
F5.1715175000000002
ssS'LATENCY'
p359
g11
(tRp360
g352
F26.614324444444446
sstp361
atRp362
sb.