ccopy_reg
_reconstructor
p1
(cicarus.results.readwrite
ResultSet
p2
c__builtin__
object
p3
NtRp4
(dp5
S'attr'
p6
(dp7
sS'_results'
p8
ccollections
deque
p9
((lp10
(cicarus.util
Tree
p11
(tRp12
S'workload'
p13
g11
(tRp14
S'n_contents'
p15
I10000
sS'name'
p16
S'STATIONARY'
p17
sS'n_warmup'
p18
I360000
sS'rate'
p19
I1000
sS'n_measured'
p20
I3600000
sS'alpha'
p21
F0.80000000000000004
ssS'cache_policy'
p22
g11
(tRp23
g16
S'LRU'
p24
ssS'desc'
p25
S'RSN size sensitivity -> RSN/cache ratio: 2.0'
p26
sS'strategy'
p27
g11
(tRp28
S'p'
F0.10000000000000001
sg16
S'LIRA_DFIB'
p29
sS'rsn_timeout'
p30
I2400
ssS'content_placement'
p31
g11
(tRp32
g16
S'LOWEST_DEGREE'
p33
ssS'joint_cache_rsn_placement'
p34
g11
(tRp35
S'network_cache'
p36
F0.94999999999999996
sS'network_rsn'
p37
F1.8999999999999999
sg16
S'CACHE_ALL_RSN_ALL'
p38
sS'rsn_cache_ratio'
p39
F2
ssS'warmup_strategy'
p40
g11
(tRp41
S'p'
F0.10000000000000001
sg16
S'NDN'
p42
ssS'topology'
p43
g11
(tRp44
S'ext_delay'
p45
I5
sS'source_ratio'
p46
F0.10000000000000001
sg16
S'ROCKET_FUEL'
p47
sS'asn'
p48
I3967
ssg11
(tRp49
S'SAT_RATE'
p50
g11
(tRp51
S'MEAN_CACHE_HIT'
p52
F0.34273222222222222
sS'MEAN_SERVER_HIT'
p53
F0.65726777777777778
sS'MEAN'
p54
F1
ssS'CACHE_HIT_RATIO'
p55
g11
(tRp56
S'MEAN_OFF_PATH'
p57
F0.009646544390489337
sS'MEAN_ON_PATH'
p58
F0.33308567783173287
sg54
F0.34273222222222222
ssS'OVERHEAD'
p59
g11
(tRp60
g54
F4.8243813888888889
ssS'LATENCY'
p61
g11
(tRp62
g54
F65.114061088172249
sstp63
a(g11
(tRp64
S'workload'
p65
g11
(tRp66
S'n_contents'
p67
I10000
sS'name'
p68
S'STATIONARY'
p69
sS'n_warmup'
p70
I360000
sS'rate'
p71
I1000
sS'n_measured'
p72
I3600000
sS'alpha'
p73
F0.80000000000000004
ssS'cache_policy'
p74
g11
(tRp75
g68
S'LRU'
p76
ssS'desc'
p77
S'RSN size sensitivity -> RSN/cache ratio: 4.0'
p78
sS'strategy'
p79
g11
(tRp80
S'p'
F0.10000000000000001
sg68
S'LIRA_DFIB'
p81
sS'rsn_timeout'
p82
I2400
ssS'content_placement'
p83
g11
(tRp84
g68
S'LOWEST_DEGREE'
p85
ssS'joint_cache_rsn_placement'
p86
g11
(tRp87
S'network_cache'
p88
F0.94999999999999996
sS'network_rsn'
p89
F3.7999999999999998
sg68
S'CACHE_ALL_RSN_ALL'
p90
sS'rsn_cache_ratio'
p91
F4
ssS'warmup_strategy'
p92
g11
(tRp93
S'p'
F0.10000000000000001
sg68
S'NDN'
p94
ssS'topology'
p95
g11
(tRp96
S'ext_delay'
p97
I5
sS'source_ratio'
p98
F0.10000000000000001
sg68
S'ROCKET_FUEL'
p99
sS'asn'
p100
I3967
ssg11
(tRp101
S'SAT_RATE'
p102
g11
(tRp103
S'MEAN_CACHE_HIT'
p104
F0.35214083333333335
sS'MEAN_SERVER_HIT'
p105
F0.64785861111111109
sS'MEAN'
p106
F0.99999944444444444
ssS'CACHE_HIT_RATIO'
p107
g11
(tRp108
S'MEAN_OFF_PATH'
p109
F0.021009411277504265
sS'MEAN_ON_PATH'
p110
F0.33113142205582907
sg106
F0.35214083333333335
ssS'OVERHEAD'
p111
g11
(tRp112
g106
F4.8388922222222224
ssS'LATENCY'
p113
g11
(tRp114
g106
F64.427038304606185
sstp115
a(g11
(tRp116
S'workload'
p117
g11
(tRp118
S'n_contents'
p119
I10000
sS'name'
p120
S'STATIONARY'
p121
sS'n_warmup'
p122
I360000
sS'rate'
p123
I1000
sS'n_measured'
p124
I3600000
sS'alpha'
p125
F0.80000000000000004
ssS'cache_policy'
p126
g11
(tRp127
g120
S'LRU'
p128
ssS'desc'
p129
S'RSN size sensitivity -> RSN/cache ratio: 8.0'
p130
sS'strategy'
p131
g11
(tRp132
S'p'
F0.10000000000000001
sg120
S'LIRA_DFIB'
p133
sS'rsn_timeout'
p134
I2400
ssS'content_placement'
p135
g11
(tRp136
g120
S'LOWEST_DEGREE'
p137
ssS'joint_cache_rsn_placement'
p138
g11
(tRp139
S'network_cache'
p140
F0.94999999999999996
sS'network_rsn'
p141
F7.5999999999999996
sg120
S'CACHE_ALL_RSN_ALL'
p142
sS'rsn_cache_ratio'
p143
F8
ssS'warmup_strategy'
p144
g11
(tRp145
S'p'
F0.10000000000000001
sg120
S'NDN'
p146
ssS'topology'
p147
g11
(tRp148
S'ext_delay'
p149
I5
sS'source_ratio'
p150
F0.10000000000000001
sg120
S'ROCKET_FUEL'
p151
sS'asn'
p152
I3967
ssg11
(tRp153
S'SAT_RATE'
p154
g11
(tRp155
S'MEAN_CACHE_HIT'
p156
F0.37884472222222221
sS'MEAN_SERVER_HIT'
p157
F0.6210377777777778
sS'MEAN'
p158
F0.99988250000000001
ssS'CACHE_HIT_RATIO'
p159
g11
(tRp160
S'MEAN_OFF_PATH'
p161
F0.053838143243117864
sS'MEAN_ON_PATH'
p162
F0.32500657897910434
sg158
F0.37884472222222221
ssS'OVERHEAD'
p163
g11
(tRp164
g158
F4.9000866666666667
ssS'LATENCY'
p165
g11
(tRp166
g158
F62.442049040095064
sstp167
a(g11
(tRp168
S'workload'
p169
g11
(tRp170
S'n_contents'
p171
I10000
sS'name'
p172
S'STATIONARY'
p173
sS'n_warmup'
p174
I360000
sS'rate'
p175
I1000
sS'n_measured'
p176
I3600000
sS'alpha'
p177
F0.80000000000000004
ssS'cache_policy'
p178
g11
(tRp179
g172
S'LRU'
p180
ssS'desc'
p181
S'RSN size sensitivity -> RSN/cache ratio: 16.0'
p182
sS'strategy'
p183
g11
(tRp184
S'p'
F0.10000000000000001
sg172
S'LIRA_DFIB'
p185
sS'rsn_timeout'
p186
I2400
ssS'content_placement'
p187
g11
(tRp188
g172
S'LOWEST_DEGREE'
p189
ssS'joint_cache_rsn_placement'
p190
g11
(tRp191
S'network_cache'
p192
F0.94999999999999996
sS'network_rsn'
p193
F15.199999999999999
sg172
S'CACHE_ALL_RSN_ALL'
p194
sS'rsn_cache_ratio'
p195
F16
ssS'warmup_strategy'
p196
g11
(tRp197
S'p'
F0.10000000000000001
sg172
S'NDN'
p198
ssS'topology'
p199
g11
(tRp200
S'ext_delay'
p201
I5
sS'source_ratio'
p202
F0.10000000000000001
sg172
S'ROCKET_FUEL'
p203
sS'asn'
p204
I3967
ssg11
(tRp205
S'SAT_RATE'
p206
g11
(tRp207
S'MEAN_CACHE_HIT'
p208
F0.4574152777777778
sS'MEAN_SERVER_HIT'
p209
F0.5413486111111111
sS'MEAN'
p210
F0.9987638888888889
ssS'CACHE_HIT_RATIO'
p211
g11
(tRp212
S'MEAN_OFF_PATH'
p213
F0.14642520330347431
sS'MEAN_ON_PATH'
p214
F0.31099007447430349
sg210
F0.4574152777777778
ssS'OVERHEAD'
p215
g11
(tRp216
g210
F5.0506386111111112
ssS'LATENCY'
p217
g11
(tRp218
g210
F56.199516825273356
sstp219
a(g11
(tRp220
S'workload'
p221
g11
(tRp222
S'n_contents'
p223
I10000
sS'name'
p224
S'STATIONARY'
p225
sS'n_warmup'
p226
I360000
sS'rate'
p227
I1000
sS'n_measured'
p228
I3600000
sS'alpha'
p229
F0.80000000000000004
ssS'cache_policy'
p230
g11
(tRp231
g224
S'LRU'
p232
ssS'desc'
p233
S'RSN size sensitivity -> RSN/cache ratio: 32.0'
p234
sS'strategy'
p235
g11
(tRp236
S'p'
F0.10000000000000001
sg224
S'LIRA_DFIB'
p237
sS'rsn_timeout'
p238
I2400
ssS'content_placement'
p239
g11
(tRp240
g224
S'LOWEST_DEGREE'
p241
ssS'joint_cache_rsn_placement'
p242
g11
(tRp243
S'network_cache'
p244
F0.94999999999999996
sS'network_rsn'
p245
F30.399999999999999
sg224
S'CACHE_ALL_RSN_ALL'
p246
sS'rsn_cache_ratio'
p247
F32
ssS'warmup_strategy'
p248
g11
(tRp249
S'p'
F0.10000000000000001
sg224
S'NDN'
p250
ssS'topology'
p251
g11
(tRp252
S'ext_delay'
p253
I5
sS'source_ratio'
p254
F0.10000000000000001
sg224
S'ROCKET_FUEL'
p255
sS'asn'
p256
I3967
ssg11
(tRp257
S'SAT_RATE'
p258
g11
(tRp259
S'MEAN_CACHE_HIT'
p260
F0.52857944444444449
sS'MEAN_SERVER_HIT'
p261
F0.4664152777777778
sS'MEAN'
p262
F0.99499472222222218
ssS'CACHE_HIT_RATIO'
p263
g11
(tRp264
S'MEAN_OFF_PATH'
p265
F0.22070709160979957
sS'MEAN_ON_PATH'
p266
F0.30787235283464492
sg262
F0.52857944444444449
ssS'OVERHEAD'
p267
g11
(tRp268
g262
F5.1566205555555555
ssS'LATENCY'
p269
g11
(tRp270
g262
F50.188320640497153
sstp271
a(g11
(tRp272
S'workload'
p273
g11
(tRp274
S'n_contents'
p275
I10000
sS'name'
p276
S'STATIONARY'
p277
sS'n_warmup'
p278
I360000
sS'rate'
p279
I1000
sS'n_measured'
p280
I3600000
sS'alpha'
p281
F0.80000000000000004
ssS'cache_policy'
p282
g11
(tRp283
g276
S'LRU'
p284
ssS'desc'
p285
S'RSN size sensitivity -> RSN/cache ratio: 64.0'
p286
sS'strategy'
p287
g11
(tRp288
S'p'
F0.10000000000000001
sg276
S'LIRA_DFIB'
p289
sS'rsn_timeout'
p290
I2400
ssS'content_placement'
p291
g11
(tRp292
g276
S'LOWEST_DEGREE'
p293
ssS'joint_cache_rsn_placement'
p294
g11
(tRp295
S'network_cache'
p296
F0.94999999999999996
sS'network_rsn'
p297
F60.799999999999997
sg276
S'CACHE_ALL_RSN_ALL'
p298
sS'rsn_cache_ratio'
p299
F64
ssS'warmup_strategy'
p300
g11
(tRp301
S'p'
F0.10000000000000001
sg276
S'NDN'
p302
ssS'topology'
p303
g11
(tRp304
S'ext_delay'
p305
I5
sS'source_ratio'
p306
F0.10000000000000001
sg276
S'ROCKET_FUEL'
p307
sS'asn'
p308
I3967
ssg11
(tRp309
S'SAT_RATE'
p310
g11
(tRp311
S'MEAN_CACHE_HIT'
p312
F0.56810777777777777
sS'MEAN_SERVER_HIT'
p313
F0.41837666666666667
sS'MEAN'
p314
F0.9864844444444445
ssS'CACHE_HIT_RATIO'
p315
g11
(tRp316
S'MEAN_OFF_PATH'
p317
F0.25484727339151009
sS'MEAN_ON_PATH'
p318
F0.31326050438626768
sg314
F0.56810777777777777
ssS'OVERHEAD'
p319
g11
(tRp320
g314
F5.1650983333333329
ssS'LATENCY'
p321
g11
(tRp322
g314
F46.244945089416341
sstp323
a(g11
(tRp324
S'workload'
p325
g11
(tRp326
S'n_contents'
p327
I10000
sS'name'
p328
S'STATIONARY'
p329
sS'n_warmup'
p330
I360000
sS'rate'
p331
I1000
sS'n_measured'
p332
I3600000
sS'alpha'
p333
F0.80000000000000004
ssS'cache_policy'
p334
g11
(tRp335
g328
S'LRU'
p336
ssS'desc'
p337
S'RSN size sensitivity -> RSN/cache ratio: 128.0'
p338
sS'strategy'
p339
g11
(tRp340
S'p'
F0.10000000000000001
sg328
S'LIRA_DFIB'
p341
sS'rsn_timeout'
p342
I2400
ssS'content_placement'
p343
g11
(tRp344
g328
S'LOWEST_DEGREE'
p345
ssS'joint_cache_rsn_placement'
p346
g11
(tRp347
S'network_cache'
p348
F0.94999999999999996
sS'network_rsn'
p349
F121.59999999999999
sg328
S'CACHE_ALL_RSN_ALL'
p350
sS'rsn_cache_ratio'
p351
F128
ssS'warmup_strategy'
p352
g11
(tRp353
S'p'
F0.10000000000000001
sg328
S'NDN'
p354
ssS'topology'
p355
g11
(tRp356
S'ext_delay'
p357
I5
sS'source_ratio'
p358
F0.10000000000000001
sg328
S'ROCKET_FUEL'
p359
sS'asn'
p360
I3967
ssg11
(tRp361
S'SAT_RATE'
p362
g11
(tRp363
S'MEAN_CACHE_HIT'
p364
F0.58175583333333336
sS'MEAN_SERVER_HIT'
p365
F0.40231027777777778
sS'MEAN'
p366
F0.98406611111111109
ssS'CACHE_HIT_RATIO'
p367
g11
(tRp368
S'MEAN_OFF_PATH'
p369
F0.26426835598619125
sS'MEAN_ON_PATH'
p370
F0.31748747734714211
sg366
F0.58175583333333336
ssS'OVERHEAD'
p371
g11
(tRp372
g366
F5.1767652777777782
ssS'LATENCY'
p373
g11
(tRp374
g366
F45.034928672569102
sstp375
atRp376
sb.