ccopy_reg
_reconstructor
p1
(cicarus.results.readwrite
ResultSet
p2
c__builtin__
object
p3
NtRp4
(dp5
S'attr'
p6
(dp7
sS'_results'
p8
ccollections
deque
p9
((lp10
(cicarus.util
Tree
p11
(tRp12
S'workload'
p13
g11
(tRp14
S'n_contents'
p15
I30000
sS'name'
p16
S'STATIONARY'
p17
sS'n_warmup'
p18
I20000
sS'rate'
p19
I10
sS'n_measured'
p20
I40000
sS'alpha'
p21
F0.80000000000000004
ssS'cache_policy'
p22
g11
(tRp23
g16
S'LRU'
p24
ssS'strategy'
p25
g11
(tRp26
g16
S'LIRA_BC'
p27
ssS'content_placement'
p28
g11
(tRp29
g16
S'UNIFORM'
p30
ssS'joint_cache_rsn_placement'
p31
g11
(tRp32
S'network_cache'
p33
F0.01
sS'network_rsn'
p34
F0.02
sg16
S'CACHE_ALL_RSN_ALL'
p35
sS'rsn_cache_ratio'
p36
F2
ssS'desc'
p37
S'RSN size sensitivity -> RSN/cache ratio: 2.0'
p38
sS'topology'
p39
g11
(tRp40
S'ext_delay'
p41
I34
sS'source_ratio'
p42
F0.10000000000000001
sg16
S'ROCKET_FUEL'
p43
sS'asn'
p44
I3257
ssg11
(tRp45
S'LATENCY'
p46
g11
(tRp47
S'MEAN'
p48
F111.463775
ssS'CACHE_HIT_RATIO'
p49
g11
(tRp50
S'MEAN_OFF_PATH'
p51
F0.00745
sS'PER_NODE_SERVER_HIT_RATIO'
p52
g11
(tRp53
S'src_13'
p54
F0.070425000000000001
sS'src_14'
p55
F0.057525
sS'src_11'
p56
F0.058624999999999997
sS'src_15'
p57
F0.053699999999999998
sS'src_10'
p58
F0.076874999999999999
sS'src_12'
p59
F0.062850000000000003
sS'src_8'
p60
F0.058299999999999998
sS'src_9'
p61
F0.053425
sS'src_6'
p62
F0.052299999999999999
sS'src_7'
p63
F0.05885
sS'src_4'
p64
F0.055800000000000002
sS'src_5'
p65
F0.062199999999999998
sS'src_2'
p66
F0.053925000000000001
sS'src_3'
p67
F0.056849999999999998
sS'src_0'
p68
F0.073099999999999998
sS'src_1'
p69
F0.047425000000000002
ssg48
F0.047824999999999999
sS'PER_NODE_CACHE_HIT_RATIO'
p70
g11
(tRp71
I0
F5.0000000000000002e-05
sI1
F0.00072499999999999995
sI2
F0.000125
sI4
F0.00037500000000000001
sI5
F0.003725
sI6
F0.000125
sI10
F0.000175
sI11
F0.00027500000000000002
sI12
F0.000175
sI15
F2.5000000000000001e-05
sI17
F0.00052499999999999997
sI18
F0.00037500000000000001
sI19
F0.00014999999999999999
sI21
F7.4999999999999993e-05
sI23
F2.5000000000000001e-05
sI24
F0.001575
sI25
F0.00075000000000000002
sI28
F7.4999999999999993e-05
sI29
F7.4999999999999993e-05
sI30
F0.00029999999999999997
sI31
F0.00020000000000000001
sI33
F0.00067500000000000004
sI34
F7.4999999999999993e-05
sI38
F7.4999999999999993e-05
sI39
F0.0017750000000000001
sI40
F0.005875
sI41
F0.000175
sI42
F0.00029999999999999997
sI43
F0.00080000000000000004
sI44
F0.00014999999999999999
sI45
F5.0000000000000002e-05
sI46
F7.4999999999999993e-05
sI47
F2.5000000000000001e-05
sI49
F0.00037500000000000001
sI50
F0.00027500000000000002
sI51
F0.00020000000000000001
sI52
F0.0011999999999999999
sI53
F5.0000000000000002e-05
sI55
F0.00069999999999999999
sI56
F0.00042499999999999998
sI58
F0.000175
sI61
F0.000175
sI62
F2.5000000000000001e-05
sI63
F5.0000000000000002e-05
sI64
F0.00055000000000000003
sI65
F0.0001
sI66
F0.000125
sI67
F0.000125
sI68
F7.4999999999999993e-05
sI69
F2.5000000000000001e-05
sI70
F0.00042499999999999998
sI72
F0.00050000000000000001
sI73
F0.00025000000000000001
sI74
F0.0025500000000000002
sI75
F0.0001
sI77
F0.00020000000000000001
sI79
F0.00052499999999999997
sI80
F0.00055000000000000003
sI81
F0.00175
sI83
F0.00075000000000000002
sI84
F0.001175
sI85
F0.0012750000000000001
sI86
F0.0023500000000000001
sI87
F2.5000000000000001e-05
sI88
F2.5000000000000001e-05
sI90
F5.0000000000000002e-05
sI91
F0.00059999999999999995
sI93
F0.001175
sI95
F0.00027500000000000002
sI96
F0.0014
sI98
F0.00059999999999999995
sI99
F2.5000000000000001e-05
sI101
F0.00044999999999999999
sI102
F0.000125
sI104
F7.4999999999999993e-05
sI109
F0.00027500000000000002
sI111
F0.000125
sI113
F0.00055000000000000003
sI115
F0.00020000000000000001
sI117
F5.0000000000000002e-05
sI118
F5.0000000000000002e-05
sI126
F0.000825
sI128
F0.000125
sI129
F5.0000000000000002e-05
sI132
F7.4999999999999993e-05
sI133
F0.00055000000000000003
sI134
F0.00014999999999999999
sI135
F2.5000000000000001e-05
sI136
F5.0000000000000002e-05
sI138
F0.000125
sI139
F0.0022000000000000001
sI143
F2.5000000000000001e-05
sI144
F0.000125
sI145
F0.00022499999999999999
sI160
F0.00020000000000000001
ssS'MEAN_ON_PATH'
p72
F0.040375000000000001
sstp73
a(g11
(tRp74
S'workload'
p75
g11
(tRp76
S'n_contents'
p77
I30000
sS'name'
p78
S'STATIONARY'
p79
sS'n_warmup'
p80
I20000
sS'rate'
p81
I10
sS'n_measured'
p82
I40000
sS'alpha'
p83
F0.80000000000000004
ssS'cache_policy'
p84
g11
(tRp85
g78
S'LRU'
p86
ssS'strategy'
p87
g11
(tRp88
g78
S'LIRA_BC'
p89
ssS'content_placement'
p90
g11
(tRp91
g78
S'UNIFORM'
p92
ssS'joint_cache_rsn_placement'
p93
g11
(tRp94
S'network_cache'
p95
F0.01
sS'network_rsn'
p96
F0.040000000000000001
sg78
S'CACHE_ALL_RSN_ALL'
p97
sS'rsn_cache_ratio'
p98
F4
ssS'desc'
p99
S'RSN size sensitivity -> RSN/cache ratio: 4.0'
p100
sS'topology'
p101
g11
(tRp102
S'ext_delay'
p103
I34
sS'source_ratio'
p104
F0.10000000000000001
sg78
S'ROCKET_FUEL'
p105
sS'asn'
p106
I3257
ssg11
(tRp107
S'LATENCY'
p108
g11
(tRp109
S'MEAN'
p110
F110.775525
ssS'CACHE_HIT_RATIO'
p111
g11
(tRp112
S'MEAN_OFF_PATH'
p113
F0.014874999999999999
sS'PER_NODE_SERVER_HIT_RATIO'
p114
g11
(tRp115
S'src_13'
p116
F0.060400000000000002
sS'src_14'
p117
F0.057674999999999997
sS'src_11'
p118
F0.046975000000000003
sS'src_15'
p119
F0.052999999999999999
sS'src_10'
p120
F0.066750000000000004
sS'src_12'
p121
F0.057625000000000003
sS'src_8'
p122
F0.066500000000000004
sS'src_9'
p123
F0.076749999999999999
sS'src_6'
p124
F0.057500000000000002
sS'src_7'
p125
F0.052574999999999997
sS'src_4'
p126
F0.0533
sS'src_5'
p127
F0.057024999999999999
sS'src_2'
p128
F0.068074999999999997
sS'src_3'
p129
F0.061225000000000002
sS'src_0'
p130
F0.061350000000000002
sS'src_1'
p131
F0.0521
ssg110
F0.051174999999999998
sS'PER_NODE_CACHE_HIT_RATIO'
p132
g11
(tRp133
I0
F0.00025000000000000001
sI1
F0.00059999999999999995
sI2
F0.00014999999999999999
sI4
F0.00022499999999999999
sI5
F0.00057499999999999999
sI6
F0.000175
sI10
F0.00014999999999999999
sI11
F0.00029999999999999997
sI12
F0.00075000000000000002
sI15
F2.5000000000000001e-05
sI17
F0.00044999999999999999
sI18
F0.00175
sI19
F5.0000000000000002e-05
sI21
F0.00037500000000000001
sI23
F0.00014999999999999999
sI24
F0.00050000000000000001
sI25
F0.0013749999999999999
sI28
F5.0000000000000002e-05
sI29
F0.000175
sI30
F0.0030500000000000002
sI31
F0.00044999999999999999
sI33
F0.0011249999999999999
sI34
F0.00029999999999999997
sI37
F2.5000000000000001e-05
sI38
F5.0000000000000002e-05
sI39
F0.0016999999999999999
sI40
F0.00032499999999999999
sI41
F0.000175
sI42
F0.0011249999999999999
sI43
F0.0014499999999999999
sI44
F0.00035
sI45
F0.00040000000000000002
sI47
F0.00080000000000000004
sI49
F0.00027500000000000002
sI50
F0.00032499999999999999
sI51
F0.000175
sI52
F0.00040000000000000002
sI53
F0.00029999999999999997
sI55
F0.00029999999999999997
sI56
F0.00035
sI57
F7.4999999999999993e-05
sI58
F0.00075000000000000002
sI61
F2.5000000000000001e-05
sI62
F0.0001
sI63
F0.00077499999999999997
sI64
F0.00020000000000000001
sI65
F0.00027500000000000002
sI66
F2.5000000000000001e-05
sI67
F0.000175
sI68
F2.5000000000000001e-05
sI70
F0.0062249999999999996
sI72
F0.00032499999999999999
sI73
F0.00042499999999999998
sI74
F0.00062500000000000001
sI75
F0.000125
sI77
F0.00029999999999999997
sI79
F0.0027000000000000001
sI80
F0.0028249999999999998
sI81
F0.001225
sI83
F0.00035
sI84
F0.00050000000000000001
sI85
F0.00062500000000000001
sI86
F0.00077499999999999997
sI87
F0.000175
sI88
F0.00032499999999999999
sI90
F2.5000000000000001e-05
sI91
F0.00035
sI93
F0.001
sI94
F0.00014999999999999999
sI95
F0.00084999999999999995
sI96
F0.00040000000000000002
sI98
F0.000825
sI99
F0.00022499999999999999
sI101
F0.000825
sI102
F0.0001
sI104
F0.000125
sI106
F7.4999999999999993e-05
sI109
F0.00027500000000000002
sI111
F0.00020000000000000001
sI113
F0.00057499999999999999
sI115
F0.00014999999999999999
sI116
F0.0001
sI117
F0.00035
sI118
F0.0001
sI126
F0.00077499999999999997
sI129
F0.00014999999999999999
sI132
F5.0000000000000002e-05
sI133
F0.00025000000000000001
sI134
F0.000175
sI135
F2.5000000000000001e-05
sI136
F0.000175
sI138
F0.00020000000000000001
sI139
F0.00089999999999999998
sI143
F0.00014999999999999999
sI145
F5.0000000000000002e-05
sI160
F0.0001
ssS'MEAN_ON_PATH'
p134
F0.036299999999999999
sstp135
a(g11
(tRp136
S'workload'
p137
g11
(tRp138
S'n_contents'
p139
I30000
sS'name'
p140
S'STATIONARY'
p141
sS'n_warmup'
p142
I20000
sS'rate'
p143
I10
sS'n_measured'
p144
I40000
sS'alpha'
p145
F0.80000000000000004
ssS'cache_policy'
p146
g11
(tRp147
g140
S'LRU'
p148
ssS'strategy'
p149
g11
(tRp150
g140
S'LIRA_BC'
p151
ssS'content_placement'
p152
g11
(tRp153
g140
S'UNIFORM'
p154
ssS'joint_cache_rsn_placement'
p155
g11
(tRp156
S'network_cache'
p157
F0.01
sS'network_rsn'
p158
F0.080000000000000002
sg140
S'CACHE_ALL_RSN_ALL'
p159
sS'rsn_cache_ratio'
p160
F8
ssS'desc'
p161
S'RSN size sensitivity -> RSN/cache ratio: 8.0'
p162
sS'topology'
p163
g11
(tRp164
S'ext_delay'
p165
I34
sS'source_ratio'
p166
F0.10000000000000001
sg140
S'ROCKET_FUEL'
p167
sS'asn'
p168
I3257
ssg11
(tRp169
S'LATENCY'
p170
g11
(tRp171
S'MEAN'
p172
F109.6263
ssS'CACHE_HIT_RATIO'
p173
g11
(tRp174
S'MEAN_OFF_PATH'
p175
F0.031224999999999999
sS'PER_NODE_SERVER_HIT_RATIO'
p176
g11
(tRp177
S'src_13'
p178
F0.056724999999999998
sS'src_14'
p179
F0.063399999999999998
sS'src_11'
p180
F0.056899999999999999
sS'src_15'
p181
F0.056649999999999999
sS'src_10'
p182
F0.060874999999999999
sS'src_12'
p183
F0.060124999999999998
sS'src_8'
p184
F0.062074999999999998
sS'src_9'
p185
F0.060675
sS'src_6'
p186
F0.058375000000000003
sS'src_7'
p187
F0.054925000000000002
sS'src_4'
p188
F0.060624999999999998
sS'src_5'
p189
F0.058125000000000003
sS'src_2'
p190
F0.055750000000000001
sS'src_3'
p191
F0.054699999999999999
sS'src_0'
p192
F0.06275
sS'src_1'
p193
F0.053800000000000001
ssg172
F0.063524999999999998
sS'PER_NODE_CACHE_HIT_RATIO'
p194
g11
(tRp195
I0
F0.00089999999999999998
sI1
F0.0067749999999999998
sI2
F0.00037500000000000001
sI4
F0.00055000000000000003
sI5
F0.001075
sI6
F0.0011000000000000001
sI10
F0.00050000000000000001
sI11
F0.0017750000000000001
sI12
F0.000475
sI15
F0.00020000000000000001
sI17
F0.00025000000000000001
sI18
F0.00042499999999999998
sI19
F0.00014999999999999999
sI21
F0.00035
sI23
F2.5000000000000001e-05
sI24
F0.0018749999999999999
sI25
F0.000825
sI28
F0.00020000000000000001
sI29
F0.000175
sI30
F0.0016999999999999999
sI31
F0.00027500000000000002
sI33
F0.00044999999999999999
sI34
F0.00075000000000000002
sI36
F0.00072499999999999995
sI37
F0.00097499999999999996
sI38
F2.5000000000000001e-05
sI39
F0.0011999999999999999
sI40
F0.0010499999999999999
sI41
F0.00029999999999999997
sI42
F0.00022499999999999999
sI43
F0.00057499999999999999
sI44
F0.00014999999999999999
sI45
F0.00020000000000000001
sI46
F7.4999999999999993e-05
sI47
F0.00067500000000000004
sI49
F0.0023
sI50
F0.00040000000000000002
sI51
F0.00029999999999999997
sI52
F0.0014
sI53
F0.00029999999999999997
sI55
F0.00025000000000000001
sI56
F0.00040000000000000002
sI57
F7.4999999999999993e-05
sI58
F0.000825
sI60
F0.00020000000000000001
sI61
F0.00035
sI62
F0.001225
sI63
F0.00035
sI64
F0.00115
sI65
F0.00020000000000000001
sI66
F0.00022499999999999999
sI67
F0.00022499999999999999
sI68
F0.000125
sI69
F0.0014
sI70
F0.00040000000000000002
sI72
F0.00095
sI73
F0.00025000000000000001
sI74
F0.00125
sI75
F0.00037500000000000001
sI77
F0.00087500000000000002
sI79
F0.00059999999999999995
sI80
F0.00080000000000000004
sI81
F0.00040000000000000002
sI83
F0.00032499999999999999
sI84
F0.00042499999999999998
sI85
F0.00064999999999999997
sI86
F0.00050000000000000001
sI87
F0.000125
sI88
F0.00022499999999999999
sI90
F0.00014999999999999999
sI91
F0.00077499999999999997
sI93
F0.00044999999999999999
sI94
F0.00014999999999999999
sI95
F0.00035
sI96
F0.00014999999999999999
sI98
F0.00067500000000000004
sI99
F2.5000000000000001e-05
sI101
F0.0016000000000000001
sI102
F0.00014999999999999999
sI104
F0.0001
sI106
F2.5000000000000001e-05
sI109
F0.000475
sI111
F0.000175
sI113
F0.00095
sI115
F0.00042499999999999998
sI116
F5.0000000000000002e-05
sI117
F0.00027500000000000002
sI118
F0.00025000000000000001
sI126
F0.0020249999999999999
sI128
F0.00022499999999999999
sI129
F0.0001
sI132
F0.0001
sI133
F0.0011000000000000001
sI134
F0.00040000000000000002
sI135
F0.000125
sI136
F0.00055000000000000003
sI138
F0.0011000000000000001
sI139
F0.0020999999999999999
sI143
F0.00044999999999999999
sI144
F7.4999999999999993e-05
sI145
F0.000475
sI160
F0.00029999999999999997
ssS'MEAN_ON_PATH'
p196
F0.032299999999999995
sstp197
a(g11
(tRp198
S'workload'
p199
g11
(tRp200
S'n_contents'
p201
I30000
sS'name'
p202
S'STATIONARY'
p203
sS'n_warmup'
p204
I20000
sS'rate'
p205
I10
sS'n_measured'
p206
I40000
sS'alpha'
p207
F0.80000000000000004
ssS'cache_policy'
p208
g11
(tRp209
g202
S'LRU'
p210
ssS'strategy'
p211
g11
(tRp212
g202
S'LIRA_BC'
p213
ssS'content_placement'
p214
g11
(tRp215
g202
S'UNIFORM'
p216
ssS'joint_cache_rsn_placement'
p217
g11
(tRp218
S'network_cache'
p219
F0.01
sS'network_rsn'
p220
F0.16
sg202
S'CACHE_ALL_RSN_ALL'
p221
sS'rsn_cache_ratio'
p222
F16
ssS'desc'
p223
S'RSN size sensitivity -> RSN/cache ratio: 16.0'
p224
sS'topology'
p225
g11
(tRp226
S'ext_delay'
p227
I34
sS'source_ratio'
p228
F0.10000000000000001
sg202
S'ROCKET_FUEL'
p229
sS'asn'
p230
I3257
ssg11
(tRp231
S'LATENCY'
p232
g11
(tRp233
S'MEAN'
p234
F110.13339999999999
ssS'CACHE_HIT_RATIO'
p235
g11
(tRp236
S'MEAN_OFF_PATH'
p237
F0.048649999999999999
sS'PER_NODE_SERVER_HIT_RATIO'
p238
g11
(tRp239
S'src_13'
p240
F0.053025000000000003
sS'src_14'
p241
F0.050275
sS'src_11'
p242
F0.052850000000000001
sS'src_15'
p243
F0.067775000000000002
sS'src_10'
p244
F0.055074999999999999
sS'src_12'
p245
F0.062
sS'src_8'
p246
F0.059775000000000002
sS'src_9'
p247
F0.056750000000000002
sS'src_6'
p248
F0.05765
sS'src_7'
p249
F0.050049999999999997
sS'src_4'
p250
F0.051775000000000002
sS'src_5'
p251
F0.064574999999999994
sS'src_2'
p252
F0.054649999999999997
sS'src_3'
p253
F0.053775000000000003
sS'src_0'
p254
F0.06225
sS'src_1'
p255
F0.068699999999999997
ssg234
F0.079049999999999995
sS'PER_NODE_CACHE_HIT_RATIO'
p256
g11
(tRp257
I0
F0.00050000000000000001
sI1
F0.00062500000000000001
sI2
F0.0015
sI4
F0.0022000000000000001
sI5
F0.0022499999999999998
sI6
F0.00042499999999999998
sI10
F0.00084999999999999995
sI11
F0.001475
sI12
F0.0013500000000000001
sI15
F0.00025000000000000001
sI17
F0.00025000000000000001
sI18
F0.00029999999999999997
sI19
F0.00032499999999999999
sI21
F0.00040000000000000002
sI23
F7.4999999999999993e-05
sI24
F0.0022499999999999998
sI25
F0.00072499999999999995
sI28
F0.000175
sI29
F0.00044999999999999999
sI30
F0.00055000000000000003
sI31
F0.00037500000000000001
sI33
F0.00052499999999999997
sI34
F0.000475
sI36
F2.5000000000000001e-05
sI37
F5.0000000000000002e-05
sI38
F0.00037500000000000001
sI39
F0.0016249999999999999
sI40
F0.00069999999999999999
sI41
F0.000825
sI42
F0.00022499999999999999
sI43
F0.00069999999999999999
sI44
F0.000125
sI45
F0.00055000000000000003
sI46
F0.002225
sI47
F0.00035
sI49
F0.00020000000000000001
sI50
F0.0011249999999999999
sI51
F0.00055000000000000003
sI52
F0.00445
sI53
F0.00087500000000000002
sI55
F0.00062500000000000001
sI56
F0.00035
sI57
F5.0000000000000002e-05
sI58
F0.00014999999999999999
sI61
F0.00050000000000000001
sI62
F0.002225
sI63
F0.00035
sI64
F0.0034250000000000001
sI65
F0.00029999999999999997
sI66
F0.000125
sI67
F0.0018749999999999999
sI68
F0.00020000000000000001
sI69
F0.00097499999999999996
sI70
F0.00052499999999999997
sI72
F0.0030000000000000001
sI73
F0.000825
sI74
F0.0020999999999999999
sI75
F0.00042499999999999998
sI77
F0.0016249999999999999
sI79
F0.00020000000000000001
sI80
F0.00059999999999999995
sI81
F0.00029999999999999997
sI83
F0.0001
sI84
F0.00087500000000000002
sI85
F0.00087500000000000002
sI86
F0.00044999999999999999
sI87
F2.5000000000000001e-05
sI88
F0.00027500000000000002
sI90
F5.0000000000000002e-05
sI91
F0.000125
sI93
F0.000825
sI95
F0.00064999999999999997
sI96
F0.0011249999999999999
sI98
F0.000825
sI101
F0.002225
sI102
F0.0001
sI104
F0.00014999999999999999
sI106
F7.4999999999999993e-05
sI109
F0.0011249999999999999
sI111
F0.00020000000000000001
sI113
F0.0014
sI115
F0.001175
sI116
F0.00037500000000000001
sI117
F0.00035
sI118
F0.00042499999999999998
sI126
F0.00075000000000000002
sI128
F0.00025000000000000001
sI129
F0.0001
sI132
F0.00025000000000000001
sI133
F0.001725
sI134
F0.0011000000000000001
sI135
F0.00022499999999999999
sI136
F0.00032499999999999999
sI138
F0.001175
sI139
F0.002575
sI143
F0.00067500000000000004
sI144
F0.00057499999999999999
sI145
F0.000475
sI160
F0.0010250000000000001
ssS'MEAN_ON_PATH'
p258
F0.030399999999999996
sstp259
a(g11
(tRp260
S'workload'
p261
g11
(tRp262
S'n_contents'
p263
I30000
sS'name'
p264
S'STATIONARY'
p265
sS'n_warmup'
p266
I20000
sS'rate'
p267
I10
sS'n_measured'
p268
I40000
sS'alpha'
p269
F0.80000000000000004
ssS'cache_policy'
p270
g11
(tRp271
g264
S'LRU'
p272
ssS'strategy'
p273
g11
(tRp274
g264
S'LIRA_DFIB'
p275
ssS'content_placement'
p276
g11
(tRp277
g264
S'UNIFORM'
p278
ssS'joint_cache_rsn_placement'
p279
g11
(tRp280
S'network_cache'
p281
F0.01
sS'network_rsn'
p282
F0.02
sg264
S'CACHE_ALL_RSN_ALL'
p283
sS'rsn_cache_ratio'
p284
F2
ssS'desc'
p285
S'RSN size sensitivity -> RSN/cache ratio: 2.0'
p286
sS'topology'
p287
g11
(tRp288
S'ext_delay'
p289
I34
sS'source_ratio'
p290
F0.10000000000000001
sg264
S'ROCKET_FUEL'
p291
sS'asn'
p292
I3257
ssg11
(tRp293
S'LATENCY'
p294
g11
(tRp295
S'MEAN'
p296
F110.3352
ssS'CACHE_HIT_RATIO'
p297
g11
(tRp298
S'MEAN_OFF_PATH'
p299
F0.0060171776690302603
sS'PER_NODE_SERVER_HIT_RATIO'
p300
g11
(tRp301
S'src_13'
p302
F0.043418555877359433
sS'src_14'
p303
F0.063317687006891041
sS'src_11'
p304
F0.053230799960051929
sS'src_15'
p305
F0.087011884550084892
sS'src_10'
p306
F0.067462299011285323
sS'src_12'
p307
F0.056851093578348146
sS'src_8'
p308
F0.05819934085688605
sS'src_9'
p309
F0.06181963447518226
sS'src_6'
p310
F0.068411065614700894
sS'src_7'
p311
F0.052107260561270345
sS'src_4'
p312
F0.059173075002496751
sS'src_5'
p313
F0.055452911215419953
sS'src_2'
p314
F0.055477878757615097
sS'src_3'
p315
F0.063842005392989121
sS'src_0'
p316
F0.062244082692499751
sS'src_1'
p317
F0.048262259063217815
ssg296
F0.043718166383701192
sS'PER_NODE_CACHE_HIT_RATIO'
p318
g11
(tRp319
I0
F2.4967542195146311e-05
sI1
F0.00057425347048836511
sI2
F0.00024967542195146312
sI4
F0.00014980525317087785
sI5
F0.00072405872365924296
sI6
F7.4902626585438925e-05
sI10
F9.9870168780585243e-05
sI11
F0.00039948067512234097
sI12
F0.00019974033756117049
sI15
F0.00014980525317087785
sI17
F0.00062418855487865769
sI18
F0.00054928592829321882
sI19
F0.00012483771097573156
sI21
F4.9935084390292621e-05
sI23
F2.4967542195146311e-05
sI24
F0.0008988315190252671
sI25
F0.0017227604114650953
sI28
F4.9935084390292621e-05
sI29
F2.4967542195146311e-05
sI30
F0.00064915609707380409
sI31
F0.00044941575951263355
sI33
F0.0009237990612204135
sI34
F2.4967542195146311e-05
sI36
F4.9935084390292621e-05
sI37
F7.4902626585438925e-05
sI38
F9.9870168780585243e-05
sI39
F0.0002996105063417557
sI40
F0.0012234095675621691
sI41
F0.00014980525317087785
sI42
F0.00067412363926895038
sI43
F0.0035953260761010684
sI44
F0.0009237990612204135
sI45
F0.00014980525317087785
sI46
F4.9935084390292621e-05
sI47
F0.00012483771097573156
sI49
F0.00042444821731748726
sI50
F0.00052431838609807253
sI51
F9.9870168780585243e-05
sI52
F0.00064915609707380409
sI53
F4.9935084390292621e-05
sI55
F0.00017477279536602417
sI56
F0.00077399380804953565
sI57
F4.9935084390292621e-05
sI58
F0.00024967542195146312
sI61
F9.9870168780585243e-05
sI62
F9.9870168780585243e-05
sI63
F0.00017477279536602417
sI64
F4.9935084390292621e-05
sI65
F9.9870168780585243e-05
sI66
F9.9870168780585243e-05
sI67
F4.9935084390292621e-05
sI68
F0.00014980525317087785
sI69
F2.4967542195146311e-05
sI70
F0.0015479876160990713
sI72
F7.4902626585438925e-05
sI73
F0.0002996105063417557
sI74
F0.00052431838609807253
sI75
F9.9870168780585243e-05
sI77
F7.4902626585438925e-05
sI79
F0.00057425347048836511
sI80
F0.0009237990612204135
sI81
F0.0013732148207330471
sI83
F0.00057425347048836511
sI84
F0.002821332268051533
sI85
F0.00037451313292719463
sI86
F0.00024967542195146312
sI87
F9.9870168780585243e-05
sI88
F0.00014980525317087785
sI91
F0.00079896135024468194
sI93
F0.0012483771097573154
sI95
F0.00019974033756117049
sI96
F0.0063667232597623092
sI98
F0.0010985718565864376
sI99
F2.4967542195146311e-05
sI101
F0.00032457804853690205
sI102
F2.4967542195146311e-05
sI104
F4.9935084390292621e-05
sI106
F2.4967542195146311e-05
sI109
F0.00017477279536602417
sI111
F7.4902626585438925e-05
sI113
F0.00039948067512234097
sI115
F0.00019974033756117049
sI116
F9.9870168780585243e-05
sI117
F4.9935084390292621e-05
sI118
F2.4967542195146311e-05
sI126
F0.00074902626585438925
sI128
F9.9870168780585243e-05
sI129
F7.4902626585438925e-05
sI132
F7.4902626585438925e-05
sI133
F0.00014980525317087785
sI134
F0.00064915609707380409
sI135
F9.9870168780585243e-05
sI136
F0.00017477279536602417
sI138
F0.00022470787975631678
sI139
F0.00032457804853690205
sI143
F7.4902626585438925e-05
sI144
F2.4967542195146311e-05
sI160
F2.4967542195146311e-05
ssS'MEAN_ON_PATH'
p320
F0.037700988714670931
sstp321
a(g11
(tRp322
S'workload'
p323
g11
(tRp324
S'n_contents'
p325
I30000
sS'name'
p326
S'STATIONARY'
p327
sS'n_warmup'
p328
I20000
sS'rate'
p329
I10
sS'n_measured'
p330
I40000
sS'alpha'
p331
F0.80000000000000004
ssS'cache_policy'
p332
g11
(tRp333
g326
S'LRU'
p334
ssS'strategy'
p335
g11
(tRp336
g326
S'LIRA_DFIB'
p337
ssS'content_placement'
p338
g11
(tRp339
g326
S'UNIFORM'
p340
ssS'joint_cache_rsn_placement'
p341
g11
(tRp342
S'network_cache'
p343
F0.01
sS'network_rsn'
p344
F0.040000000000000001
sg326
S'CACHE_ALL_RSN_ALL'
p345
sS'rsn_cache_ratio'
p346
F4
ssS'desc'
p347
S'RSN size sensitivity -> RSN/cache ratio: 4.0'
p348
sS'topology'
p349
g11
(tRp350
S'ext_delay'
p351
I34
sS'source_ratio'
p352
F0.10000000000000001
sg326
S'ROCKET_FUEL'
p353
sS'asn'
p354
I3257
ssg11
(tRp355
S'LATENCY'
p356
g11
(tRp357
S'MEAN'
p358
F110.021225
ssS'CACHE_HIT_RATIO'
p359
g11
(tRp360
S'MEAN_OFF_PATH'
p361
F0.014718700968794362
sS'PER_NODE_SERVER_HIT_RATIO'
p362
g11
(tRp363
S'src_13'
p364
F0.047069957412895672
sS'src_14'
p365
F0.063482180658979398
sS'src_11'
p366
F0.061838467860433843
sS'src_15'
p367
F0.067242796304136682
sS'src_10'
p368
F0.068587652230219412
sS'src_12'
p369
F0.06465270340945882
sS'src_8'
p370
F0.054267427091375491
sS'src_9'
p371
F0.053495380170846513
sS'src_6'
p372
F0.05668318681045003
sS'src_7'
p373
F0.052549000074714219
sS'src_4'
p374
F0.065300226633128289
sS'src_5'
p375
F0.055736806714317737
sS'src_2'
p376
F0.05902423231140886
sS'src_3'
p377
F0.061689039424202424
sS'src_0'
p378
F0.061489801509227206
sS'src_1'
p379
F0.054242522352003587
ssg358
F0.052648619032201825
sS'PER_NODE_CACHE_HIT_RATIO'
p380
g11
(tRp381
I0
F0.00044828530869424452
sI1
F0.0025900928946778574
sI2
F0.000473190048066147
sI4
F4.9809478743804945e-05
sI5
F0.00059771374492565939
sI6
F0.00024904739371902474
sI10
F0.0002988568724628297
sI11
F0.001319951186710831
sI12
F0.00012452369685951237
sI15
F9.961895748760989e-05
sI17
F0.0003486663512066346
sI18
F0.00042338056932234204
sI19
F7.4714218115707424e-05
sI21
F0.00024904739371902474
sI24
F0.0018429507135207829
sI25
F0.0022663312828431251
sI28
F4.9809478743804945e-05
sI30
F0.00057280900555375686
sI31
F0.00037357109057853708
sI33
F0.00077204692052897669
sI34
F0.0001743331756033173
sI36
F4.9809478743804945e-05
sI37
F0.00014942843623141485
sI38
F0.00019923791497521978
sI39
F0.00059771374492565939
sI40
F0.00024904739371902474
sI41
F0.00022414265434712226
sI42
F0.00032376161183473218
sI43
F0.0005229995268099519
sI44
F4.9809478743804945e-05
sI45
F0.00012452369685951237
sI47
F0.00027395213309092722
sI49
F0.0019425696710083928
sI50
F0.00097128483550419642
sI52
F0.00094638009613229399
sI53
F9.961895748760989e-05
sI55
F0.00022414265434712226
sI56
F0.00037357109057853708
sI57
F9.961895748760989e-05
sI58
F0.00042338056932234204
sI61
F4.9809478743804945e-05
sI62
F0.00012452369685951237
sI63
F7.4714218115707424e-05
sI64
F0.00022414265434712226
sI65
F0.00024904739371902474
sI66
F0.00012452369685951237
sI67
F2.4904739371902472e-05
sI68
F7.4714218115707424e-05
sI69
F2.4904739371902472e-05
sI70
F0.0002988568724628297
sI72
F0.0001743331756033173
sI73
F0.00019923791497521978
sI74
F0.00067242796304136678
sI75
F0.00024904739371902474
sI77
F0.00019923791497521978
sI79
F0.00057280900555375686
sI80
F0.00039847582995043956
sI81
F0.0006973327024132692
sI83
F0.0074465170721988395
sI84
F0.0035862824695539561
sI85
F0.0034617587726944437
sI86
F0.0002988568724628297
sI87
F2.4904739371902472e-05
sI88
F0.00027395213309092722
sI91
F0.0015191891016860509
sI93
F0.00082185639927278165
sI95
F0.00027395213309092722
sI96
F0.0006973327024132692
sI98
F0.00074714218115707416
sI101
F0.00049809478743804948
sI102
F2.4904739371902472e-05
sI106
F2.4904739371902472e-05
sI109
F0.0003486663512066346
sI111
F0.00012452369685951237
sI113
F0.0011954274898513188
sI115
F9.961895748760989e-05
sI116
F2.4904739371902472e-05
sI117
F0.00019923791497521978
sI118
F9.961895748760989e-05
sI126
F0.0010210943142480015
sI128
F4.9809478743804945e-05
sI129
F4.9809478743804945e-05
sI132
F0.00024904739371902474
sI133
F0.00042338056932234204
sI134
F0.0014444748835703435
sI135
F0.00012452369685951237
sI136
F2.4904739371902472e-05
sI138
F0.00042338056932234204
sI139
F0.00097128483550419642
sI143
F0.00019923791497521978
sI144
F4.9809478743804945e-05
sI145
F2.4904739371902472e-05
sI160
F0.00012452369685951237
ssS'MEAN_ON_PATH'
p382
F0.037929918063407467
sstp383
a(g11
(tRp384
S'workload'
p385
g11
(tRp386
S'n_contents'
p387
I30000
sS'name'
p388
S'STATIONARY'
p389
sS'n_warmup'
p390
I20000
sS'rate'
p391
I10
sS'n_measured'
p392
I40000
sS'alpha'
p393
F0.80000000000000004
ssS'cache_policy'
p394
g11
(tRp395
g388
S'LRU'
p396
ssS'strategy'
p397
g11
(tRp398
g388
S'LIRA_DFIB'
p399
ssS'content_placement'
p400
g11
(tRp401
g388
S'UNIFORM'
p402
ssS'joint_cache_rsn_placement'
p403
g11
(tRp404
S'network_cache'
p405
F0.01
sS'network_rsn'
p406
F0.080000000000000002
sg388
S'CACHE_ALL_RSN_ALL'
p407
sS'rsn_cache_ratio'
p408
F8
ssS'desc'
p409
S'RSN size sensitivity -> RSN/cache ratio: 8.0'
p410
sS'topology'
p411
g11
(tRp412
S'ext_delay'
p413
I34
sS'source_ratio'
p414
F0.10000000000000001
sg388
S'ROCKET_FUEL'
p415
sS'asn'
p416
I3257
ssg11
(tRp417
S'LATENCY'
p418
g11
(tRp419
S'MEAN'
p420
F110.46195
ssS'CACHE_HIT_RATIO'
p421
g11
(tRp422
S'MEAN_OFF_PATH'
p423
F0.033241677305312779
sS'PER_NODE_SERVER_HIT_RATIO'
p424
g11
(tRp425
S'src_13'
p426
F0.050967298438574095
sS'src_14'
p427
F0.055533732691741139
sS'src_11'
p428
F0.055681037022488458
sS'src_15'
p429
F0.054011587940685453
sS'src_10'
p430
F0.05570558774427968
sS'src_12'
p431
F0.05256309535500344
sS'src_8'
p432
F0.057743297652950998
sS'src_9'
p433
F0.052464892467838552
sS'src_6'
p434
F0.069773151330649125
sS'src_7'
p435
F0.069552194834528139
sS'src_4'
p436
F0.06091034076401846
sS'src_5'
p437
F0.055509181969949917
sS'src_2'
p438
F0.055730138466070903
sS'src_3'
p439
F0.058676225081017379
sS'src_0'
p440
F0.055190022586664049
sS'src_1'
p441
F0.075051556515761564
ssg420
F0.064936659137778657
sS'PER_NODE_CACHE_HIT_RATIO'
p442
g11
(tRp443
I0
F0.00036826082686830991
sI1
F0.0020868113522537562
sI2
F0.00019640577432976529
sI4
F0.0019149562997152116
sI5
F0.0030933909456938033
sI6
F0.00068742021015417857
sI10
F0.00039281154865953059
sI11
F0.001964057743297653
sI12
F0.00056466660119807517
sI15
F0.00014730433074732396
sI17
F0.00024550721791220662
sI18
F0.00044191299224197189
sI19
F0.00024550721791220662
sI21
F0.00014730433074732396
sI23
F7.3652165373661981e-05
sI24
F0.0023323185701659629
sI25
F0.00063831876657173721
sI28
F9.8202887164882646e-05
sI29
F0.00019640577432976529
sI30
F0.00090837670627516446
sI31
F0.0002700579397034273
sI33
F0.00073652165373661981
sI34
F0.00056466660119807517
sI36
F0.00022095649612098594
sI37
F0.00022095649612098594
sI38
F7.3652165373661981e-05
sI39
F0.0025041736227045075
sI40
F0.00044191299224197189
sI41
F0.0024305214573308457
sI42
F0.00046646371403319257
sI43
F0.0010311303152312678
sI44
F0.00036826082686830991
sI45
F0.00024550721791220662
sI47
F0.00041736227045075126
sI49
F0.00085927526269272321
sI50
F0.00058921732298929585
sI51
F0.00041736227045075126
sI52
F0.00056466660119807517
sI53
F0.00039281154865953059
sI55
F0.00012275360895610331
sI56
F0.00066286948836295789
sI57
F7.3652165373661981e-05
sI58
F0.00058921732298929585
sI61
F0.00029460866149464793
sI62
F0.00039281154865953059
sI63
F0.00036826082686830991
sI64
F0.001448492585682019
sI65
F0.00024550721791220662
sI66
F0.00019640577432976529
sI67
F0.00022095649612098594
sI68
F0.00017185505253854464
sI69
F0.00014730433074732396
sI70
F0.00039281154865953059
sI72
F0.0018658548561327703
sI73
F0.0011293332023961503
sI74
F0.0026023765098693902
sI75
F0.0003191593832858686
sI77
F0.0012520868113522537
sI79
F0.00036826082686830991
sI80
F0.00049101443582441325
sI81
F0.00017185505253854464
sI83
F0.00034371010507708928
sI84
F0.00063831876657173721
sI85
F0.00034371010507708928
sI86
F9.8202887164882646e-05
sI87
F2.4550721791220662e-05
sI88
F0.00036826082686830991
sI90
F0.00024550721791220662
sI91
F0.00095747814985760581
sI93
F0.00078562309731906117
sI95
F0.00039281154865953059
sI96
F0.00024550721791220662
sI98
F0.00081017381911028185
sI101
F0.00061376804478051653
sI102
F9.8202887164882646e-05
sI104
F0.00014730433074732396
sI106
F9.8202887164882646e-05
sI109
F0.00083472454090150253
sI111
F0.00049101443582441325
sI113
F0.0011293332023961503
sI115
F0.00095747814985760581
sI116
F4.9101443582441323e-05
sI117
F0.00036826082686830991
sI118
F0.0002700579397034273
sI126
F0.0016448983600117844
sI128
F7.3652165373661981e-05
sI129
F0.00014730433074732396
sI132
F2.4550721791220662e-05
sI133
F0.0020622606304625357
sI134
F0.00044191299224197189
sI135
F2.4550721791220662e-05
sI136
F0.00076107237552784049
sI138
F0.00071197093194539924
sI139
F0.0033388981636060101
sI143
F0.00041736227045075126
sI144
F0.00063831876657173721
sI145
F0.00058921732298929585
sI160
F0.00066286948836295789
ssS'MEAN_ON_PATH'
p444
F0.031694981832465878
sstp445
a(g11
(tRp446
S'workload'
p447
g11
(tRp448
S'n_contents'
p449
I30000
sS'name'
p450
S'STATIONARY'
p451
sS'n_warmup'
p452
I20000
sS'rate'
p453
I10
sS'n_measured'
p454
I40000
sS'alpha'
p455
F0.80000000000000004
ssS'cache_policy'
p456
g11
(tRp457
g450
S'LRU'
p458
ssS'strategy'
p459
g11
(tRp460
g450
S'LIRA_DFIB'
p461
ssS'content_placement'
p462
g11
(tRp463
g450
S'UNIFORM'
p464
ssS'joint_cache_rsn_placement'
p465
g11
(tRp466
S'network_cache'
p467
F0.01
sS'network_rsn'
p468
F0.16
sg450
S'CACHE_ALL_RSN_ALL'
p469
sS'rsn_cache_ratio'
p470
F16
ssS'desc'
p471
S'RSN size sensitivity -> RSN/cache ratio: 16.0'
p472
sS'topology'
p473
g11
(tRp474
S'ext_delay'
p475
I34
sS'source_ratio'
p476
F0.10000000000000001
sg450
S'ROCKET_FUEL'
p477
sS'asn'
p478
I3257
ssg11
(tRp479
S'LATENCY'
p480
g11
(tRp481
S'MEAN'
p482
F109.74039999999999
ssS'CACHE_HIT_RATIO'
p483
g11
(tRp484
S'MEAN_OFF_PATH'
p485
F0.040683244926760426
sS'PER_NODE_SERVER_HIT_RATIO'
p486
g11
(tRp487
S'src_13'
p488
F0.050537739062728113
sS'src_14'
p489
F0.057010073482894545
sS'src_11'
p490
F0.054236215874251786
sS'src_15'
p491
F0.069151783541778186
sS'src_10'
p492
F0.055696140931432186
sS'src_12'
p493
F0.052922283322789428
sS'src_8'
p494
F0.0640420458416468
sS'src_9'
p495
F0.052630298311353352
sS'src_6'
p496
F0.06516132171881843
sS'src_7'
p497
F0.049394131101270132
sS'src_4'
p498
F0.064334030853082869
sS'src_5'
p499
F0.073093581196165269
sS'src_2'
p500
F0.051413694097036354
sS'src_3'
p501
F0.048810161078397973
sS'src_0'
p502
F0.060951871137281621
sS'src_1'
p503
F0.054284880042824467
ssg482
F0.076329748406248482
sS'PER_NODE_CACHE_HIT_RATIO'
p504
g11
(tRp505
I0
F0.00043797751715411943
sI1
F0.0019952309114798774
sI2
F0.00070563044430385906
sI4
F0.00026765292714973964
sI5
F0.00041364543286777946
sI6
F0.00051097377001313937
sI10
F0.0010462796243126185
sI11
F0.0009732833714535987
sI12
F0.0019708988271935372
sI15
F0.00026765292714973964
sI17
F0.00068129836001751905
sI18
F0.00043797751715411943
sI19
F0.00043797751715411943
sI21
F0.0014355929728940581
sI23
F0.00043797751715411943
sI24
F0.00060830210715849921
sI25
F0.001508589225753078
sI28
F0.0001459925057180398
sI29
F0.0009732833714535987
sI30
F0.0010219475400262787
sI31
F0.0005839700228721592
sI33
F0.00068129836001751905
sI34
F0.0012652683828896782
sI36
F0.0002919850114360796
sI37
F0.00031631709572241956
sI38
F0.00021898875857705971
sI39
F0.0010949437928852986
sI40
F0.00021898875857705971
sI41
F0.00021898875857705971
sI42
F7.29962528590199e-05
sI43
F0.00031631709572241956
sI44
F9.7328337145359875e-05
sI45
F0.00051097377001313937
sI46
F0.0005839700228721592
sI47
F0.00082729086573555893
sI49
F0.00087595503430823885
sI50
F0.000778626697162879
sI51
F0.00024332084286339967
sI52
F0.0068373156844615309
sI53
F0.0010706117085989585
sI55
F0.0025062046814930167
sI56
F0.001484257141466738
sI58
F0.0002919850114360796
sI61
F4.8664168572679938e-05
sI62
F0.0014599250571803982
sI63
F0.00053530585429947927
sI64
F0.00024332084286339967
sI65
F0.00041364543286777946
sI66
F0.0002919850114360796
sI67
F0.00031631709572241956
sI68
F0.00024332084286339967
sI69
F0.000778626697162879
sI70
F0.00072996252859019908
sI72
F0.0013625967200350381
sI73
F0.0020438950800525575
sI74
F0.00055963793858581929
sI75
F0.00065696627573117914
sI77
F0.0011436079614579786
sI79
F0.00026765292714973964
sI80
F0.00055963793858581929
sI81
F0.0003893133485814395
sI83
F0.0001459925057180398
sI84
F0.00099761545573993872
sI85
F0.0002919850114360796
sI86
F0.00012166042143169984
sI87
F2.4332084286339969e-05
sI88
F0.0010462796243126185
sI90
F9.7328337145359875e-05
sI91
F0.00046230960144045939
sI93
F0.0016059175628984378
sI95
F0.0012896004671760183
sI96
F0.00099761545573993872
sI98
F0.0017762421529028177
sI99
F2.4332084286339969e-05
sI101
F0.0024818725972066769
sI102
F0.0002919850114360796
sI104
F0.0001459925057180398
sI106
F2.4332084286339969e-05
sI109
F0.0012652683828896782
sI111
F0.00087595503430823885
sI113
F0.0016302496471847778
sI115
F0.00053530585429947927
sI116
F0.00055963793858581929
sI117
F0.0012896004671760183
sI118
F0.0003893133485814395
sI126
F0.0015815854786120978
sI128
F0.00060830210715849921
sI129
F0.00041364543286777946
sI132
F0.00017032459000437976
sI133
F0.00087595503430823885
sI134
F0.0010949437928852986
sI135
F0.00012166042143169984
sI136
F0.00080295878144921891
sI138
F0.00036498126429509954
sI139
F0.00080295878144921891
sI143
F0.00041364543286777946
sI144
F0.00019465667429071975
sI145
F0.00060830210715849921
sI160
F0.00019465667429071975
ssS'MEAN_ON_PATH'
p506
F0.035646503479488056
sstp507
a(g11
(tRp508
S'workload'
p509
g11
(tRp510
S'n_contents'
p511
I30000
sS'name'
p512
S'STATIONARY'
p513
sS'n_warmup'
p514
I20000
sS'rate'
p515
I10
sS'n_measured'
p516
I40000
sS'alpha'
p517
F0.80000000000000004
ssS'cache_policy'
p518
g11
(tRp519
g512
S'LRU'
p520
ssS'strategy'
p521
g11
(tRp522
g512
S'LIRA_BC'
p523
ssS'content_placement'
p524
g11
(tRp525
g512
S'UNIFORM'
p526
ssS'joint_cache_rsn_placement'
p527
g11
(tRp528
S'network_cache'
p529
F0.01
sS'network_rsn'
p530
F0.32000000000000001
sg512
S'CACHE_ALL_RSN_ALL'
p531
sS'rsn_cache_ratio'
p532
F32
ssS'desc'
p533
S'RSN size sensitivity -> RSN/cache ratio: 32.0'
p534
sS'topology'
p535
g11
(tRp536
S'ext_delay'
p537
I34
sS'source_ratio'
p538
F0.10000000000000001
sg512
S'ROCKET_FUEL'
p539
sS'asn'
p540
I3257
ssg11
(tRp541
S'LATENCY'
p542
g11
(tRp543
S'MEAN'
p544
F108.6041
ssS'CACHE_HIT_RATIO'
p545
g11
(tRp546
S'MEAN_OFF_PATH'
p547
F0.059400000000000001
sS'PER_NODE_SERVER_HIT_RATIO'
p548
g11
(tRp549
S'src_13'
p550
F0.063325000000000006
sS'src_14'
p551
F0.050924999999999998
sS'src_11'
p552
F0.060400000000000002
sS'src_15'
p553
F0.053675
sS'src_10'
p554
F0.051924999999999999
sS'src_12'
p555
F0.054600000000000003
sS'src_8'
p556
F0.063424999999999995
sS'src_9'
p557
F0.056300000000000003
sS'src_6'
p558
F0.054074999999999998
sS'src_7'
p559
F0.053850000000000002
sS'src_4'
p560
F0.058924999999999998
sS'src_5'
p561
F0.057724999999999999
sS'src_2'
p562
F0.055350000000000003
sS'src_3'
p563
F0.068224999999999994
sS'src_0'
p564
F0.051025000000000001
sS'src_1'
p565
F0.059275000000000001
ssg544
F0.086974999999999997
sS'PER_NODE_CACHE_HIT_RATIO'
p566
g11
(tRp567
I0
F0.0015250000000000001
sI1
F0.000825
sI2
F0.0019750000000000002
sI4
F0.0016999999999999999
sI5
F0.000825
sI6
F0.000475
sI10
F0.0012750000000000001
sI11
F0.0015
sI12
F0.001825
sI15
F0.00032499999999999999
sI17
F0.00020000000000000001
sI18
F0.00062500000000000001
sI19
F0.00044999999999999999
sI21
F0.00084999999999999995
sI23
F0.00029999999999999997
sI24
F0.0016249999999999999
sI25
F0.0017750000000000001
sI28
F0.00032499999999999999
sI29
F0.00080000000000000004
sI30
F0.00175
sI31
F0.00042499999999999998
sI33
F0.0010250000000000001
sI34
F0.00075000000000000002
sI36
F0.000175
sI37
F0.00040000000000000002
sI38
F0.000175
sI39
F0.0014499999999999999
sI40
F0.00027500000000000002
sI41
F0.00022499999999999999
sI42
F0.00069999999999999999
sI43
F0.0018500000000000001
sI44
F0.00042499999999999998
sI45
F0.00080000000000000004
sI46
F0.00037500000000000001
sI47
F0.00095
sI49
F0.00029999999999999997
sI50
F0.0019499999999999999
sI51
F0.00097499999999999996
sI52
F0.00115
sI53
F0.0010250000000000001
sI55
F7.4999999999999993e-05
sI56
F5.0000000000000002e-05
sI57
F5.0000000000000002e-05
sI58
F0.00035
sI60
F5.0000000000000002e-05
sI61
F0.00025000000000000001
sI62
F0.001175
sI63
F0.00042499999999999998
sI64
F0.0014250000000000001
sI65
F0.00072499999999999995
sI66
F0.00029999999999999997
sI67
F0.0011249999999999999
sI68
F0.00055000000000000003
sI69
F0.001225
sI70
F0.00084999999999999995
sI72
F0.00069999999999999999
sI73
F0.0016249999999999999
sI74
F0.00095
sI75
F0.00055000000000000003
sI77
F0.00115
sI79
F0.00069999999999999999
sI80
F0.0014250000000000001
sI81
F2.5000000000000001e-05
sI83
F0.000825
sI84
F0.0023749999999999999
sI85
F0.00027500000000000002
sI86
F0.0029499999999999999
sI87
F0.000175
sI88
F0.00052499999999999997
sI90
F0.00050000000000000001
sI91
F0.00037500000000000001
sI93
F0.00052499999999999997
sI94
F5.0000000000000002e-05
sI95
F0.00125
sI96
F0.00042499999999999998
sI98
F0.00059999999999999995
sI99
F2.5000000000000001e-05
sI101
F0.0015250000000000001
sI102
F0.00020000000000000001
sI104
F0.00032499999999999999
sI106
F0.0001
sI109
F0.0014250000000000001
sI111
F0.00095
sI113
F0.0023999999999999998
sI115
F0.00097499999999999996
sI116
F0.00057499999999999999
sI117
F0.001175
sI118
F0.00062500000000000001
sI126
F0.00057499999999999999
sI128
F0.0010499999999999999
sI129
F0.000825
sI132
F0.00042499999999999998
sI133
F0.001325
sI134
F0.0035500000000000002
sI135
F0.00029999999999999997
sI136
F0.00072499999999999995
sI138
F0.00075000000000000002
sI139
F0.0012750000000000001
sI143
F0.00069999999999999999
sI144
F0.00055000000000000003
sI145
F0.00072499999999999995
sI160
F0.00095
ssS'MEAN_ON_PATH'
p568
F0.027574999999999995
sstp569
a(g11
(tRp570
S'workload'
p571
g11
(tRp572
S'n_contents'
p573
I30000
sS'name'
p574
S'STATIONARY'
p575
sS'n_warmup'
p576
I20000
sS'rate'
p577
I10
sS'n_measured'
p578
I40000
sS'alpha'
p579
F0.80000000000000004
ssS'cache_policy'
p580
g11
(tRp581
g574
S'LRU'
p582
ssS'strategy'
p583
g11
(tRp584
g574
S'LIRA_BC'
p585
ssS'content_placement'
p586
g11
(tRp587
g574
S'UNIFORM'
p588
ssS'joint_cache_rsn_placement'
p589
g11
(tRp590
S'network_cache'
p591
F0.01
sS'network_rsn'
p592
F0.64000000000000001
sg574
S'CACHE_ALL_RSN_ALL'
p593
sS'rsn_cache_ratio'
p594
F64
ssS'desc'
p595
S'RSN size sensitivity -> RSN/cache ratio: 64.0'
p596
sS'topology'
p597
g11
(tRp598
S'ext_delay'
p599
I34
sS'source_ratio'
p600
F0.10000000000000001
sg574
S'ROCKET_FUEL'
p601
sS'asn'
p602
I3257
ssg11
(tRp603
S'LATENCY'
p604
g11
(tRp605
S'MEAN'
p606
F108.74464999999999
ssS'CACHE_HIT_RATIO'
p607
g11
(tRp608
S'MEAN_OFF_PATH'
p609
F0.064549999999999996
sS'PER_NODE_SERVER_HIT_RATIO'
p610
g11
(tRp611
S'src_13'
p612
F0.069099999999999995
sS'src_14'
p613
F0.054074999999999998
sS'src_11'
p614
F0.057099999999999998
sS'src_15'
p615
F0.070550000000000002
sS'src_10'
p616
F0.061850000000000002
sS'src_12'
p617
F0.051775000000000002
sS'src_8'
p618
F0.050000000000000003
sS'src_9'
p619
F0.04965
sS'src_6'
p620
F0.051225
sS'src_7'
p621
F0.050500000000000003
sS'src_4'
p622
F0.051299999999999998
sS'src_5'
p623
F0.060624999999999998
sS'src_2'
p624
F0.057825000000000001
sS'src_3'
p625
F0.055625000000000001
sS'src_0'
p626
F0.053199999999999997
sS'src_1'
p627
F0.061124999999999999
ssg606
F0.094475000000000003
sS'PER_NODE_CACHE_HIT_RATIO'
p628
g11
(tRp629
I0
F0.000475
sI1
F0.00032499999999999999
sI2
F0.0015250000000000001
sI4
F0.0016999999999999999
sI5
F0.0011249999999999999
sI6
F0.00069999999999999999
sI10
F0.001475
sI11
F0.0017750000000000001
sI12
F0.0014499999999999999
sI15
F0.00037500000000000001
sI17
F0.0010250000000000001
sI18
F0.0001
sI19
F0.00072499999999999995
sI21
F0.0011999999999999999
sI23
F0.00032499999999999999
sI24
F0.0014
sI25
F0.0014250000000000001
sI28
F0.00052499999999999997
sI29
F0.00175
sI30
F0.00044999999999999999
sI31
F0.00035
sI33
F0.00075000000000000002
sI34
F0.0010499999999999999
sI36
F0.0001
sI37
F0.00029999999999999997
sI38
F0.00042499999999999998
sI39
F0.0010499999999999999
sI40
F0.00062500000000000001
sI41
F0.000475
sI42
F0.00050000000000000001
sI43
F0.00064999999999999997
sI44
F7.4999999999999993e-05
sI45
F0.00075000000000000002
sI46
F0.00125
sI47
F0.00062500000000000001
sI49
F0.0001
sI50
F0.002225
sI51
F0.00089999999999999998
sI52
F0.00265
sI53
F0.0013500000000000001
sI55
F0.00037500000000000001
sI56
F0.0001
sI57
F5.0000000000000002e-05
sI58
F0.00032499999999999999
sI61
F0.001
sI62
F0.001475
sI63
F0.00050000000000000001
sI64
F0.0017750000000000001
sI65
F0.00080000000000000004
sI66
F0.00042499999999999998
sI67
F0.00077499999999999997
sI68
F0.00042499999999999998
sI69
F0.0023500000000000001
sI70
F0.000125
sI72
F0.00097499999999999996
sI73
F0.0025249999999999999
sI74
F0.000825
sI75
F0.00069999999999999999
sI77
F0.00097499999999999996
sI79
F0.000125
sI80
F0.00027500000000000002
sI81
F0.00087500000000000002
sI83
F0.00035
sI84
F0.0013749999999999999
sI85
F0.00025000000000000001
sI86
F0.00175
sI87
F0.000125
sI88
F0.0019250000000000001
sI90
F0.00014999999999999999
sI91
F0.00014999999999999999
sI93
F0.0025500000000000002
sI94
F2.5000000000000001e-05
sI95
F0.0014499999999999999
sI96
F0.00084999999999999995
sI98
F0.0030249999999999999
sI101
F0.0020249999999999999
sI102
F0.000125
sI104
F0.00025000000000000001
sI106
F0.00035
sI109
F0.00092500000000000004
sI111
F0.001325
sI113
F0.0014
sI115
F0.00097499999999999996
sI116
F0.00067500000000000004
sI117
F0.00115
sI118
F0.00067500000000000004
sI126
F0.0030249999999999999
sI128
F0.001175
sI129
F0.00052499999999999997
sI132
F0.00092500000000000004
sI133
F0.0012750000000000001
sI134
F0.002225
sI135
F0.00052499999999999997
sI136
F0.00040000000000000002
sI138
F0.00077499999999999997
sI139
F0.0013500000000000001
sI143
F0.00095
sI144
F0.00059999999999999995
sI145
F0.00035
sI160
F0.0027000000000000001
ssS'MEAN_ON_PATH'
p630
F0.029925000000000007
sstp631
a(g11
(tRp632
S'workload'
p633
g11
(tRp634
S'n_contents'
p635
I30000
sS'name'
p636
S'STATIONARY'
p637
sS'n_warmup'
p638
I20000
sS'rate'
p639
I10
sS'n_measured'
p640
I40000
sS'alpha'
p641
F0.80000000000000004
ssS'cache_policy'
p642
g11
(tRp643
g636
S'LRU'
p644
ssS'strategy'
p645
g11
(tRp646
g636
S'LIRA_DFIB'
p647
ssS'content_placement'
p648
g11
(tRp649
g636
S'UNIFORM'
p650
ssS'joint_cache_rsn_placement'
p651
g11
(tRp652
S'network_cache'
p653
F0.01
sS'network_rsn'
p654
F0.32000000000000001
sg636
S'CACHE_ALL_RSN_ALL'
p655
sS'rsn_cache_ratio'
p656
F32
ssS'desc'
p657
S'RSN size sensitivity -> RSN/cache ratio: 32.0'
p658
sS'topology'
p659
g11
(tRp660
S'ext_delay'
p661
I34
sS'source_ratio'
p662
F0.10000000000000001
sg636
S'ROCKET_FUEL'
p663
sS'asn'
p664
I3257
ssg11
(tRp665
S'LATENCY'
p666
g11
(tRp667
S'MEAN'
p668
F108.246225
ssS'CACHE_HIT_RATIO'
p669
g11
(tRp670
S'MEAN_OFF_PATH'
p671
F0.053538343078514884
sS'PER_NODE_SERVER_HIT_RATIO'
p672
g11
(tRp673
S'src_13'
p674
F0.058519213648066601
sS'src_14'
p675
F0.056088933804951994
sS'src_11'
p676
F0.061021680021174717
sS'src_15'
p677
F0.055174571091700958
sS'src_10'
p678
F0.077913328039654464
sS'src_12'
p679
F0.052311172068625331
sS'src_8'
p680
F0.048725907745614666
sS'src_9'
p681
F0.072691835703457733
sS'src_6'
p682
F0.054404581438436919
sS'src_7'
p683
F0.044635337712649485
sS'src_4'
p684
F0.059746384657956161
sS'src_5'
p685
F0.058398902764744097
sS'src_2'
p686
F0.057845472701460572
sS'src_3'
p687
F0.053586467431843886
sS'src_0'
p688
F0.053514280901850383
sS'src_1'
p689
F0.052648042541928342
ssg668
F0.082773887725883677
sS'PER_NODE_CACHE_HIT_RATIO'
p690
g11
(tRp691
I0
F0.0012993575398830579
sI1
F0.00045718135662552032
sI2
F0.001034673596573546
sI4
F0.00033687047330301502
sI5
F0.00026468394330951176
sI6
F0.00067374094660603004
sI10
F0.0018527876031665825
sI11
F0.00084217618325753744
sI12
F0.0026468394330951177
sI15
F0.00048124353329002142
sI17
F0.001034673596573546
sI18
F0.00043311917996101927
sI19
F0.00033687047330301502
sI21
F0.0011790466565605525
sI23
F0.00043311917996101927
sI24
F0.0010827979499025483
sI25
F0.0015640414831925697
sI28
F0.00067374094660603004
sI29
F0.00050530570995452253
sI30
F0.0022618446064631005
sI31
F0.00048124353329002142
sI33
F0.00084217618325753744
sI34
F0.0012271710098895547
sI36
F0.00014437305998700643
sI37
F0.00033687047330301502
sI38
F0.00024062176664501071
sI39
F0.0011549844798960515
sI40
F0.00014437305998700643
sI41
F0.00014437305998700643
sI42
F7.2186529993503216e-05
sI43
F0.00096248706658004285
sI44
F7.2186529993503216e-05
sI45
F0.00072186529993503213
sI46
F0.00052936788661902352
sI47
F0.00064967876994152893
sI49
F0.00024062176664501071
sI50
F0.0012752953632185567
sI51
F0.00060155441661252672
sI52
F0.0010106114199090451
sI53
F0.0011068601265670493
sI55
F0.00031280829663851391
sI56
F0.00019249741331600856
sI57
F4.812435332900214e-05
sI58
F0.00019249741331600856
sI61
F9.6248706658004279e-05
sI62
F0.0013956062465410621
sI63
F0.00055343006328352463
sI64
F0.00048124353329002142
sI65
F0.00057749223994802573
sI66
F0.00050530570995452253
sI67
F0.00055343006328352463
sI68
F0.00060155441661252672
sI69
F0.00060155441661252672
sI70
F0.00012031088332250536
sI72
F0.00067374094660603004
sI73
F0.0015399793065280685
sI74
F0.00038499482663201712
sI75
F0.00084217618325753744
sI77
F0.00091436271325104064
sI79
F0.0030077720830626337
sI80
F0.0022137202531340985
sI81
F0.0020212228398180901
sI83
F0.00040905700329651822
sI84
F0.00098654924324454384
sI85
F0.00064967876994152893
sI86
F0.0011068601265670493
sI87
F0.0022859067831276017
sI88
F0.00040905700329651822
sI90
F4.812435332900214e-05
sI91
F0.00076998965326403423
sI93
F0.0015640414831925697
sI95
F0.0032965182030366465
sI96
F0.00033687047330301502
sI98
F0.0013715440698765611
sI99
F0.00069780312327053103
sI101
F0.0014196684232055633
sI102
F0.00021655958998050963
sI104
F0.00031280829663851391
sI106
F0.00021655958998050963
sI109
F0.0013234197165475589
sI111
F0.0013715440698765611
sI113
F0.0012752953632185567
sI115
F0.00062561659327702783
sI116
F0.00064967876994152893
sI117
F0.0010106114199090451
sI118
F0.00067374094660603004
sI126
F0.001034673596573546
sI128
F0.00048124353329002142
sI129
F0.00079405182992853534
sI132
F0.00064967876994152893
sI133
F0.00084217618325753744
sI134
F0.0015640414831925697
sI135
F0.00060155441661252672
sI136
F0.00076998965326403423
sI138
F0.00033687047330301502
sI139
F0.00067374094660603004
sI143
F0.0016362280131860729
sI144
F0.00016843523665150751
sI145
F0.00045718135662552032
sI160
F0.00055343006328352463
ssS'MEAN_ON_PATH'
p692
F0.029235544647368793
sstp693
a(g11
(tRp694
S'workload'
p695
g11
(tRp696
S'n_contents'
p697
I30000
sS'name'
p698
S'STATIONARY'
p699
sS'n_warmup'
p700
I20000
sS'rate'
p701
I10
sS'n_measured'
p702
I40000
sS'alpha'
p703
F0.80000000000000004
ssS'cache_policy'
p704
g11
(tRp705
g698
S'LRU'
p706
ssS'strategy'
p707
g11
(tRp708
g698
S'LIRA_DFIB'
p709
ssS'content_placement'
p710
g11
(tRp711
g698
S'UNIFORM'
p712
ssS'joint_cache_rsn_placement'
p713
g11
(tRp714
S'network_cache'
p715
F0.01
sS'network_rsn'
p716
F0.64000000000000001
sg698
S'CACHE_ALL_RSN_ALL'
p717
sS'rsn_cache_ratio'
p718
F64
ssS'desc'
p719
S'RSN size sensitivity -> RSN/cache ratio: 64.0'
p720
sS'topology'
p721
g11
(tRp722
S'ext_delay'
p723
I34
sS'source_ratio'
p724
F0.10000000000000001
sg698
S'ROCKET_FUEL'
p725
sS'asn'
p726
I3257
ssg11
(tRp727
S'LATENCY'
p728
g11
(tRp729
S'MEAN'
p730
F110.9278
ssS'CACHE_HIT_RATIO'
p731
g11
(tRp732
S'MEAN_OFF_PATH'
p733
F0.049022208290130452
sS'PER_NODE_SERVER_HIT_RATIO'
p734
g11
(tRp735
S'src_13'
p736
F0.054978177521641629
sS'src_14'
p737
F0.063345470328663403
sS'src_11'
p738
F0.062646186491765329
sS'src_15'
p739
F0.05251862747462082
sS'src_10'
p740
F0.054327120156253766
sS'src_12'
p741
F0.04743073473029346
sS'src_8'
p742
F0.05049311567119192
sS'src_9'
p743
F0.066070265968990377
sS'src_6'
p744
F0.053145571604253573
sS'src_7'
p745
F0.051240625979600204
sS'src_4'
p746
F0.04945624653372236
sS'src_5'
p747
F0.077138241180584016
sS'src_2'
p748
F0.058329917291601363
sS'src_3'
p749
F0.053748402498131224
sS'src_0'
p750
F0.059897277615683246
sS'src_1'
p751
F0.060885920281642594
ssg730
F0.084348098671360713
sS'PER_NODE_CACHE_HIT_RATIO'
p752
g11
(tRp753
I0
F0.0007475103084082853
sI1
F0.00045815147934701359
sI2
F0.0013021147307757228
sI4
F0.0027971353475922936
sI5
F0.0027730221118371875
sI6
F0.00021701912179595379
sI10
F0.00086807648718381517
sI11
F0.00067517060114296733
sI12
F0.00094041619444913314
sI15
F0.00043403824359190758
sI17
F0.00028935882906127176
sI18
F0.00024113235755105977
sI19
F0.00043403824359190758
sI21
F0.00091630295869402718
sI23
F0.00036169853632658967
sI24
F0.0014709073810614645
sI25
F0.00079573677991849731
sI28
F0.00036169853632658967
sI29
F0.00084396325142870922
sI30
F0.00067517060114296733
sI31
F0.00016879265028574183
sI33
F0.00069928383689807339
sI34
F0.0012056617877552989
sI36
F0.00028935882906127176
sI37
F0.00098864266595934504
sI38
F0.00033758530057148366
sI39
F0.0014950206168165706
sI40
F0.0048226471510211958
sI41
F0.00096452943020423909
sI42
F0.00033758530057148366
sI43
F0.00065105736538786138
sI44
F7.233970726531794e-05
sI45
F0.0005304911866123315
sI46
F0.00055460442236743746
sI47
F0.00040992500783680163
sI49
F0.00012056617877552989
sI50
F0.0010850956089797691
sI51
F0.00060283089387764947
sI52
F0.0032311735911842009
sI53
F0.00094041619444913314
sI55
F0.00084396325142870922
sI56
F0.00038581177208169562
sI57
F2.4113235755105977e-05
sI58
F0.00021701912179595379
sI61
F0.00057871765812254352
sI62
F0.0018084926816329483
sI63
F0.00024113235755105977
sI64
F0.0025318897542861278
sI65
F0.00033758530057148366
sI66
F0.00021701912179595379
sI67
F0.0014226809095512526
sI68
F0.00045815147934701359
sI69
F0.00062694412963275542
sI70
F0.00019290588604084781
sI72
F0.0014950206168165706
sI73
F0.00069928383689807339
sI74
F0.0022184176894697498
sI75
F0.00057871765812254352
sI77
F0.00065105736538786138
sI79
F0.0030141544693882472
sI80
F0.00096452943020423909
sI81
F0.00021701912179595379
sI83
F0.00040992500783680163
sI84
F0.00060283089387764947
sI85
F0.00024113235755105977
sI86
F0.00019290588604084781
sI87
F0.00036169853632658967
sI88
F0.00050637795085722555
sI90
F0.00012056617877552989
sI91
F0.00072339707265317934
sI93
F0.00028935882906127176
sI95
F0.00045815147934701359
sI96
F0.00012056617877552989
sI98
F0.00024113235755105977
sI99
F0.00014467941453063588
sI101
F0.0010368691374695569
sI102
F0.00026524559330616575
sI104
F0.00021701912179595379
sI106
F9.6452943020423906e-05
sI109
F0.0010850956089797691
sI111
F0.0012538882592655108
sI113
F0.00098864266595934504
sI115
F0.00086807648718381517
sI116
F0.00062694412963275542
sI117
F0.0014709073810614645
sI118
F0.00038581177208169562
sI126
F0.00060283089387764947
sI128
F0.00065105736538786138
sI129
F0.00065105736538786138
sI132
F0.00048226471510211954
sI133
F0.0017602662101227364
sI134
F0.0011092088447348749
sI135
F0.00019290588604084781
sI136
F0.00045815147934701359
sI138
F0.00098864266595934504
sI139
F0.0023389838682452797
sI143
F0.0013744544380410407
sI144
F0.00033758530057148366
sI145
F0.0013985676737961468
sI160
F0.0024595500470208096
ssS'MEAN_ON_PATH'
p754
F0.035325890381230261
sstp755
atRp756
sb.