ccopy_reg
_reconstructor
p1
(cicarus.results.readwrite
ResultSet
p2
c__builtin__
object
p3
NtRp4
(dp5
S'attr'
p6
(dp7
sS'_results'
p8
ccollections
deque
p9
((lp10
(cicarus.util
Tree
p11
(tRp12
S'workload'
p13
g11
(tRp14
S'n_contents'
p15
I10000
sS'name'
p16
S'STATIONARY'
p17
sS'n_warmup'
p18
I720000
sS'rate'
p19
I100
sS'n_measured'
p20
I360000
sS'alpha'
p21
F0.69999999999999996
ssS'cache_policy'
p22
g11
(tRp23
g16
S'LRU'
p24
ssS'desc'
p25
S'strategy network_cache: 0.9'
p26
sS'strategy'
p27
g11
(tRp28
S'extra_quota'
p29
I2
sS'fan_out'
p30
I1
sg16
S'TFIB_SC'
p31
ssS'content_placement'
p32
g11
(tRp33
g16
S'UNIFORM'
p34
ssS'joint_cache_rsn_placement'
p35
g11
(tRp36
S'network_cache'
p37
F0.90000000000000002
sS'network_rsn'
p38
F115.2
sg16
S'CACHE_ALL_RSN_ALL'
p39
sS'rsn_cache_ratio'
p40
I128
ssS'warmup_strategy'
p41
g11
(tRp42
g29
I10000
sg30
I10
sg16
g31
ssS'topology'
p43
g11
(tRp44
S'ext_delay'
p45
I0
sS'source_ratio'
p46
F0.10000000000000001
sg16
S'ROCKET_FUEL'
p47
sS'asn'
p48
I3257
ssg11
(tRp49
S'SAT_RATE'
p50
g11
(tRp51
S'MEAN_CACHE_HIT'
p52
F0.84978611111111113
sS'MEAN_SERVER_HIT'
p53
F0.58259722222222221
sS'MEAN_SERVER_CACHE_HITS'
p54
F0.43251666666666666
sS'MEAN'
p55
F0.99986666666666668
ssS'CACHE_HIT_RATIO'
p56
g11
(tRp57
S'MEAN_OFF_PATH'
p58
F0.36158849469997556
sS'MEAN_ON_PATH'
p59
F0.48819761641113557
sg55
F0.84978611111111113
ssS'OVERHEAD'
p60
g11
(tRp61
S'DATA_HOPS'
p62
F2.2537833333333332
sS'INTEREST_HOPS'
p63
F8.015883333333333
sS'SUCCESS_RATE'
p64
F0.82524367552647471
sS'QUOTA_USED_FAILURE'
p65
F1
sS'FAILURE_RATE'
p66
F0.17475632447352532
sS'QUOTA_USED_SUCCESS'
p67
F1
sS'NUM_SUCCESS_FIRST_TIME'
p68
F0.82488106875203648
sg55
F1.5570659421256168
ssS'LATENCY'
p69
g11
(tRp70
g55
F38.480449999999998
sstp71
a(g11
(tRp72
S'workload'
p73
g11
(tRp74
S'n_contents'
p75
I10000
sS'name'
p76
S'STATIONARY'
p77
sS'n_warmup'
p78
I720000
sS'rate'
p79
I100
sS'n_measured'
p80
I360000
sS'alpha'
p81
F0.69999999999999996
ssS'cache_policy'
p82
g11
(tRp83
g76
S'LRU'
p84
ssS'desc'
p85
S'strategy network_cache: 0.1'
p86
sS'strategy'
p87
g11
(tRp88
S'extra_quota'
p89
I2
sS'fan_out'
p90
I1
sg76
S'TFIB_SC'
p91
ssS'content_placement'
p92
g11
(tRp93
g76
S'UNIFORM'
p94
ssS'joint_cache_rsn_placement'
p95
g11
(tRp96
S'network_cache'
p97
F0.10000000000000001
sS'network_rsn'
p98
F12.800000000000001
sg76
S'CACHE_ALL_RSN_ALL'
p99
sS'rsn_cache_ratio'
p100
I128
ssS'warmup_strategy'
p101
g11
(tRp102
g89
I10000
sg90
I10
sg76
g91
ssS'topology'
p103
g11
(tRp104
S'ext_delay'
p105
I0
sS'source_ratio'
p106
F0.10000000000000001
sg76
S'ROCKET_FUEL'
p107
sS'asn'
p108
I3257
ssg11
(tRp109
S'SAT_RATE'
p110
g11
(tRp111
S'MEAN_CACHE_HIT'
p112
F0.30441388888888887
sS'MEAN_SERVER_HIT'
p113
F0.88026666666666664
sS'MEAN_SERVER_CACHE_HITS'
p114
F0.18478611111111112
sS'MEAN'
p115
F0.99989444444444442
ssS'CACHE_HIT_RATIO'
p116
g11
(tRp117
S'MEAN_OFF_PATH'
p118
F0.17825245905483195
sS'MEAN_ON_PATH'
p119
F0.12616142983405693
sg115
F0.30441388888888887
ssS'OVERHEAD'
p120
g11
(tRp121
S'DATA_HOPS'
p122
F5.4259333333333331
sS'INTEREST_HOPS'
p123
F8.2165611111111119
sS'SUCCESS_RATE'
p124
F0.43897496096302285
sS'QUOTA_USED_FAILURE'
p125
F1
sS'FAILURE_RATE'
p126
F0.5610250390369772
sS'QUOTA_USED_SUCCESS'
p127
F1
sS'NUM_SUCCESS_FIRST_TIME'
p128
F0.43505316367439428
sg115
F1.2199343264011202
ssS'LATENCY'
p129
g11
(tRp130
g115
F62.760236111111112
sstp131
a(g11
(tRp132
S'workload'
p133
g11
(tRp134
S'n_contents'
p135
I10000
sS'name'
p136
S'STATIONARY'
p137
sS'n_warmup'
p138
I720000
sS'rate'
p139
I100
sS'n_measured'
p140
I360000
sS'alpha'
p141
F0.69999999999999996
ssS'cache_policy'
p142
g11
(tRp143
g136
S'LRU'
p144
ssS'desc'
p145
S'strategy network_cache: 0.8'
p146
sS'strategy'
p147
g11
(tRp148
S'extra_quota'
p149
I2
sS'fan_out'
p150
I1
sg136
S'TFIB_SC'
p151
ssS'content_placement'
p152
g11
(tRp153
g136
S'UNIFORM'
p154
ssS'joint_cache_rsn_placement'
p155
g11
(tRp156
S'network_cache'
p157
F0.80000000000000004
sS'network_rsn'
p158
F102.40000000000001
sg136
S'CACHE_ALL_RSN_ALL'
p159
sS'rsn_cache_ratio'
p160
I128
ssS'warmup_strategy'
p161
g11
(tRp162
g149
I10000
sg150
I10
sg136
g151
ssS'topology'
p163
g11
(tRp164
S'ext_delay'
p165
I0
sS'source_ratio'
p166
F0.10000000000000001
sg136
S'ROCKET_FUEL'
p167
sS'asn'
p168
I3257
ssg11
(tRp169
S'SAT_RATE'
p170
g11
(tRp171
S'MEAN_CACHE_HIT'
p172
F0.81464166666666671
sS'MEAN_SERVER_HIT'
p173
F0.60404722222222218
sS'MEAN_SERVER_CACHE_HITS'
p174
F0.41885
sS'MEAN'
p175
F0.99983888888888894
ssS'CACHE_HIT_RATIO'
p176
g11
(tRp177
S'MEAN_OFF_PATH'
p178
F0.34726899641296344
sS'MEAN_ON_PATH'
p179
F0.46737267025370327
sg175
F0.81464166666666671
ssS'OVERHEAD'
p180
g11
(tRp181
S'DATA_HOPS'
p182
F2.4783555555555554
sS'INTEREST_HOPS'
p183
F8.1288166666666672
sS'SUCCESS_RATE'
p184
F0.7802890522587087
sS'QUOTA_USED_FAILURE'
p185
F1
sS'FAILURE_RATE'
p186
F0.21971094774129124
sS'QUOTA_USED_SUCCESS'
p187
F1
sS'NUM_SUCCESS_FIRST_TIME'
p188
F0.77987727079409441
sg175
F1.5265626128654062
ssS'LATENCY'
p189
g11
(tRp190
g175
F40.046580555555558
sstp191
a(g11
(tRp192
S'workload'
p193
g11
(tRp194
S'n_contents'
p195
I10000
sS'name'
p196
S'STATIONARY'
p197
sS'n_warmup'
p198
I720000
sS'rate'
p199
I100
sS'n_measured'
p200
I360000
sS'alpha'
p201
F0.69999999999999996
ssS'cache_policy'
p202
g11
(tRp203
g196
S'LRU'
p204
ssS'desc'
p205
S'strategy network_cache: 0.1'
p206
sS'strategy'
p207
g11
(tRp208
S'extra_quota'
p209
I2
sS'fan_out'
p210
I1
sg196
S'TFIB_DC'
p211
ssS'content_placement'
p212
g11
(tRp213
g196
S'UNIFORM'
p214
ssS'joint_cache_rsn_placement'
p215
g11
(tRp216
S'network_cache'
p217
F0.10000000000000001
sS'network_rsn'
p218
F12.800000000000001
sg196
S'CACHE_ALL_RSN_ALL'
p219
sS'rsn_cache_ratio'
p220
I128
ssS'warmup_strategy'
p221
g11
(tRp222
g209
I10000
sg210
I10
sg196
g211
ssS'topology'
p223
g11
(tRp224
S'ext_delay'
p225
I0
sS'source_ratio'
p226
F0.10000000000000001
sg196
S'ROCKET_FUEL'
p227
sS'asn'
p228
I3257
ssg11
(tRp229
S'SAT_RATE'
p230
g11
(tRp231
S'MEAN_CACHE_HIT'
p232
F0.30401944444444445
sS'MEAN_SERVER_HIT'
p233
F0.7445222222222222
sS'MEAN_SERVER_CACHE_HITS'
p234
F0.10358333333333333
sS'MEAN'
p235
F0.94495833333333334
ssS'CACHE_HIT_RATIO'
p236
g11
(tRp237
S'MEAN_OFF_PATH'
p238
F0.19445261275581163
sS'MEAN_ON_PATH'
p239
F0.10956683168863282
sg235
F0.30401944444444445
ssS'OVERHEAD'
p240
g11
(tRp241
S'DATA_HOPS'
p242
F4.8188527777777779
sS'INTEREST_HOPS'
p243
F7.9676333333333336
sS'SUCCESS_RATE'
p244
F0.43852642966475242
sS'QUOTA_USED_FAILURE'
p245
F2.0481767558432891
sS'FAILURE_RATE'
p246
F0.56147357033524758
sS'QUOTA_USED_SUCCESS'
p247
F3.9616838734578259
sS'NUM_SUCCESS_FIRST_TIME'
p248
F0.43860154463787421
sg235
F1.1255552126049062
ssS'LATENCY'
p249
g11
(tRp250
g235
F58.856000000000002
sstp251
a(g11
(tRp252
S'workload'
p253
g11
(tRp254
S'n_contents'
p255
I10000
sS'name'
p256
S'STATIONARY'
p257
sS'n_warmup'
p258
I720000
sS'rate'
p259
I100
sS'n_measured'
p260
I360000
sS'alpha'
p261
F0.69999999999999996
ssS'cache_policy'
p262
g11
(tRp263
g256
S'LRU'
p264
ssS'desc'
p265
S'strategy network_cache: 0.2'
p266
sS'strategy'
p267
g11
(tRp268
S'extra_quota'
p269
I2
sS'fan_out'
p270
I1
sg256
S'TFIB_SC'
p271
ssS'content_placement'
p272
g11
(tRp273
g256
S'UNIFORM'
p274
ssS'joint_cache_rsn_placement'
p275
g11
(tRp276
S'network_cache'
p277
F0.20000000000000001
sS'network_rsn'
p278
F25.600000000000001
sg256
S'CACHE_ALL_RSN_ALL'
p279
sS'rsn_cache_ratio'
p280
I128
ssS'warmup_strategy'
p281
g11
(tRp282
g269
I10000
sg270
I10
sg256
g271
ssS'topology'
p283
g11
(tRp284
S'ext_delay'
p285
I0
sS'source_ratio'
p286
F0.10000000000000001
sg256
S'ROCKET_FUEL'
p287
sS'asn'
p288
I3257
ssg11
(tRp289
S'SAT_RATE'
p290
g11
(tRp291
S'MEAN_CACHE_HIT'
p292
F0.44059444444444446
sS'MEAN_SERVER_HIT'
p293
F0.80672222222222223
sS'MEAN_SERVER_CACHE_HITS'
p294
F0.24752222222222223
sS'MEAN'
p295
F0.99979444444444443
ssS'CACHE_HIT_RATIO'
p296
g11
(tRp297
S'MEAN_OFF_PATH'
p298
F0.23374844666550862
sS'MEAN_ON_PATH'
p299
F0.20684599777893584
sg295
F0.44059444444444446
ssS'OVERHEAD'
p300
g11
(tRp301
S'DATA_HOPS'
p302
F4.6273138888888887
sS'INTEREST_HOPS'
p303
F8.3616666666666664
sS'SUCCESS_RATE'
p304
F0.48734194122885127
sS'QUOTA_USED_FAILURE'
p305
F1
sS'FAILURE_RATE'
p306
F0.51265805877114867
sS'QUOTA_USED_SUCCESS'
p307
F1
sS'NUM_SUCCESS_FIRST_TIME'
p308
F0.4866286142041733
sg295
F1.3037263215216461
ssS'LATENCY'
p309
g11
(tRp310
g295
F56.962886111111111
sstp311
a(g11
(tRp312
S'workload'
p313
g11
(tRp314
S'n_contents'
p315
I10000
sS'name'
p316
S'STATIONARY'
p317
sS'n_warmup'
p318
I720000
sS'rate'
p319
I100
sS'n_measured'
p320
I360000
sS'alpha'
p321
F0.69999999999999996
ssS'cache_policy'
p322
g11
(tRp323
g316
S'LRU'
p324
ssS'desc'
p325
S'strategy network_cache: 0.3'
p326
sS'strategy'
p327
g11
(tRp328
S'extra_quota'
p329
I2
sS'fan_out'
p330
I1
sg316
S'TFIB_SC'
p331
ssS'content_placement'
p332
g11
(tRp333
g316
S'UNIFORM'
p334
ssS'joint_cache_rsn_placement'
p335
g11
(tRp336
S'network_cache'
p337
F0.29999999999999999
sS'network_rsn'
p338
F38.399999999999999
sg316
S'CACHE_ALL_RSN_ALL'
p339
sS'rsn_cache_ratio'
p340
I128
ssS'warmup_strategy'
p341
g11
(tRp342
g329
I10000
sg330
I10
sg316
g331
ssS'topology'
p343
g11
(tRp344
S'ext_delay'
p345
I0
sS'source_ratio'
p346
F0.10000000000000001
sg316
S'ROCKET_FUEL'
p347
sS'asn'
p348
I3257
ssg11
(tRp349
S'SAT_RATE'
p350
g11
(tRp351
S'MEAN_CACHE_HIT'
p352
F0.54734722222222221
sS'MEAN_SERVER_HIT'
p353
F0.75193888888888893
sS'MEAN_SERVER_CACHE_HITS'
p354
F0.29945277777777779
sS'MEAN'
p355
F0.99983333333333335
ssS'CACHE_HIT_RATIO'
p356
g11
(tRp357
S'MEAN_OFF_PATH'
p358
F0.27841998704416743
sS'MEAN_ON_PATH'
p359
F0.26892723517805478
sg355
F0.54734722222222221
ssS'OVERHEAD'
p360
g11
(tRp361
S'DATA_HOPS'
p362
F4.0281000000000002
sS'INTEREST_HOPS'
p363
F8.4493083333333328
sS'SUCCESS_RATE'
p364
F0.55571381614988491
sS'QUOTA_USED_FAILURE'
p365
F1
sS'FAILURE_RATE'
p366
F0.44428618385011504
sS'QUOTA_USED_SUCCESS'
p367
F1
sS'NUM_SUCCESS_FIRST_TIME'
p368
F0.55491736471752939
sg355
F1.3799188753681169
ssS'LATENCY'
p369
g11
(tRp370
g355
F52.18192777777778
sstp371
a(g11
(tRp372
S'workload'
p373
g11
(tRp374
S'n_contents'
p375
I10000
sS'name'
p376
S'STATIONARY'
p377
sS'n_warmup'
p378
I720000
sS'rate'
p379
I100
sS'n_measured'
p380
I360000
sS'alpha'
p381
F0.69999999999999996
ssS'cache_policy'
p382
g11
(tRp383
g376
S'LRU'
p384
ssS'desc'
p385
S'strategy network_cache: 0.6'
p386
sS'strategy'
p387
g11
(tRp388
S'extra_quota'
p389
I2
sS'fan_out'
p390
I1
sg376
S'TFIB_SC'
p391
ssS'content_placement'
p392
g11
(tRp393
g376
S'UNIFORM'
p394
ssS'joint_cache_rsn_placement'
p395
g11
(tRp396
S'network_cache'
p397
F0.59999999999999998
sS'network_rsn'
p398
F76.799999999999997
sg376
S'CACHE_ALL_RSN_ALL'
p399
sS'rsn_cache_ratio'
p400
I128
ssS'warmup_strategy'
p401
g11
(tRp402
g389
I10000
sg390
I10
sg376
g391
ssS'topology'
p403
g11
(tRp404
S'ext_delay'
p405
I0
sS'source_ratio'
p406
F0.10000000000000001
sg376
S'ROCKET_FUEL'
p407
sS'asn'
p408
I3257
ssg11
(tRp409
S'SAT_RATE'
p410
g11
(tRp411
S'MEAN_CACHE_HIT'
p412
F0.72522500000000001
sS'MEAN_SERVER_HIT'
p413
F0.65410277777777781
sS'MEAN_SERVER_CACHE_HITS'
p414
F0.3795027777777778
sS'MEAN'
p415
F0.99982499999999996
ssS'CACHE_HIT_RATIO'
p416
g11
(tRp417
S'MEAN_OFF_PATH'
p418
F0.31895569097668347
sS'MEAN_ON_PATH'
p419
F0.40626930902331654
sg415
F0.72522500000000001
ssS'OVERHEAD'
p420
g11
(tRp421
S'DATA_HOPS'
p422
F3.0031111111111111
sS'INTEREST_HOPS'
p423
F8.3424250000000004
sS'SUCCESS_RATE'
p424
F0.68064461761944128
sS'QUOTA_USED_FAILURE'
p425
F1
sS'FAILURE_RATE'
p426
F0.31935538238055872
sS'QUOTA_USED_SUCCESS'
p427
F1
sS'NUM_SUCCESS_FIRST_TIME'
p428
F0.67907623159264296
sg415
F1.470521230104157
ssS'LATENCY'
p429
g11
(tRp430
g415
F44.020713888888892
sstp431
a(g11
(tRp432
S'workload'
p433
g11
(tRp434
S'n_contents'
p435
I10000
sS'name'
p436
S'STATIONARY'
p437
sS'n_warmup'
p438
I720000
sS'rate'
p439
I100
sS'n_measured'
p440
I360000
sS'alpha'
p441
F0.69999999999999996
ssS'cache_policy'
p442
g11
(tRp443
g436
S'LRU'
p444
ssS'desc'
p445
S'strategy network_cache: 0.4'
p446
sS'strategy'
p447
g11
(tRp448
S'extra_quota'
p449
I2
sS'fan_out'
p450
I1
sg436
S'TFIB_SC'
p451
ssS'content_placement'
p452
g11
(tRp453
g436
S'UNIFORM'
p454
ssS'joint_cache_rsn_placement'
p455
g11
(tRp456
S'network_cache'
p457
F0.40000000000000002
sS'network_rsn'
p458
F51.200000000000003
sg436
S'CACHE_ALL_RSN_ALL'
p459
sS'rsn_cache_ratio'
p460
I128
ssS'warmup_strategy'
p461
g11
(tRp462
g449
I10000
sg450
I10
sg436
g451
ssS'topology'
p463
g11
(tRp464
S'ext_delay'
p465
I0
sS'source_ratio'
p466
F0.10000000000000001
sg436
S'ROCKET_FUEL'
p467
sS'asn'
p468
I3257
ssg11
(tRp469
S'SAT_RATE'
p470
g11
(tRp471
S'MEAN_CACHE_HIT'
p472
F0.61864722222222224
sS'MEAN_SERVER_HIT'
p473
F0.7078861111111111
sS'MEAN_SERVER_CACHE_HITS'
p474
F0.32674166666666665
sS'MEAN'
p475
F0.99979166666666663
ssS'CACHE_HIT_RATIO'
p476
g11
(tRp477
S'MEAN_OFF_PATH'
p478
F0.28984068750628206
sS'MEAN_ON_PATH'
p479
F0.32880653471594018
sg475
F0.61864722222222224
ssS'OVERHEAD'
p480
g11
(tRp481
S'DATA_HOPS'
p482
F3.5965722222222221
sS'INTEREST_HOPS'
p483
F8.4301999999999992
sS'SUCCESS_RATE'
p484
F0.59010174581117125
sS'QUOTA_USED_FAILURE'
p485
F1
sS'FAILURE_RATE'
p486
F0.40989825418882875
sS'QUOTA_USED_SUCCESS'
p487
F1
sS'NUM_SUCCESS_FIRST_TIME'
p488
F0.58949326480567033
sg475
F1.4099743002014309
ssS'LATENCY'
p489
g11
(tRp490
g475
F48.851380555555558
sstp491
a(g11
(tRp492
S'workload'
p493
g11
(tRp494
S'n_contents'
p495
I10000
sS'name'
p496
S'STATIONARY'
p497
sS'n_warmup'
p498
I720000
sS'rate'
p499
I100
sS'n_measured'
p500
I360000
sS'alpha'
p501
F0.69999999999999996
ssS'cache_policy'
p502
g11
(tRp503
g496
S'LRU'
p504
ssS'desc'
p505
S'strategy network_cache: 0.7'
p506
sS'strategy'
p507
g11
(tRp508
S'extra_quota'
p509
I2
sS'fan_out'
p510
I1
sg496
S'TFIB_SC'
p511
ssS'content_placement'
p512
g11
(tRp513
g496
S'UNIFORM'
p514
ssS'joint_cache_rsn_placement'
p515
g11
(tRp516
S'network_cache'
p517
F0.69999999999999996
sS'network_rsn'
p518
F89.599999999999994
sg496
S'CACHE_ALL_RSN_ALL'
p519
sS'rsn_cache_ratio'
p520
I128
ssS'warmup_strategy'
p521
g11
(tRp522
g509
I10000
sg510
I10
sg496
g511
ssS'topology'
p523
g11
(tRp524
S'ext_delay'
p525
I0
sS'source_ratio'
p526
F0.10000000000000001
sg496
S'ROCKET_FUEL'
p527
sS'asn'
p528
I3257
ssg11
(tRp529
S'SAT_RATE'
p530
g11
(tRp531
S'MEAN_CACHE_HIT'
p532
F0.76829444444444439
sS'MEAN_SERVER_HIT'
p533
F0.63182499999999997
sS'MEAN_SERVER_CACHE_HITS'
p534
F0.40031666666666665
sS'MEAN'
p535
F0.99980277777777782
ssS'CACHE_HIT_RATIO'
p536
g11
(tRp537
S'MEAN_OFF_PATH'
p538
F0.34295486694587562
sS'MEAN_ON_PATH'
p539
F0.42533957749856877
sg535
F0.76829444444444439
ssS'OVERHEAD'
p540
g11
(tRp541
S'DATA_HOPS'
p542
F2.7577611111111113
sS'INTEREST_HOPS'
p543
F8.2992027777777775
sS'SUCCESS_RATE'
p544
F0.73186606352018224
sS'QUOTA_USED_FAILURE'
p545
F1
sS'FAILURE_RATE'
p546
F0.26813393647981781
sS'QUOTA_USED_SUCCESS'
p547
F1
sS'NUM_SUCCESS_FIRST_TIME'
p548
F0.73056490208781788
sg535
F1.5132540028727888
ssS'LATENCY'
p549
g11
(tRp550
g535
F42.259374999999999
sstp551
a(g11
(tRp552
S'workload'
p553
g11
(tRp554
S'n_contents'
p555
I10000
sS'name'
p556
S'STATIONARY'
p557
sS'n_warmup'
p558
I720000
sS'rate'
p559
I100
sS'n_measured'
p560
I360000
sS'alpha'
p561
F0.69999999999999996
ssS'cache_policy'
p562
g11
(tRp563
g556
S'LRU'
p564
ssS'desc'
p565
S'strategy network_cache: 0.5'
p566
sS'strategy'
p567
g11
(tRp568
S'extra_quota'
p569
I2
sS'fan_out'
p570
I1
sg556
S'TFIB_SC'
p571
ssS'content_placement'
p572
g11
(tRp573
g556
S'UNIFORM'
p574
ssS'joint_cache_rsn_placement'
p575
g11
(tRp576
S'network_cache'
p577
F0.5
sS'network_rsn'
p578
F64
sg556
S'CACHE_ALL_RSN_ALL'
p579
sS'rsn_cache_ratio'
p580
I128
ssS'warmup_strategy'
p581
g11
(tRp582
g569
I10000
sg570
I10
sg556
g571
ssS'topology'
p583
g11
(tRp584
S'ext_delay'
p585
I0
sS'source_ratio'
p586
F0.10000000000000001
sg556
S'ROCKET_FUEL'
p587
sS'asn'
p588
I3257
ssg11
(tRp589
S'SAT_RATE'
p590
g11
(tRp591
S'MEAN_CACHE_HIT'
p592
F0.67523611111111115
sS'MEAN_SERVER_HIT'
p593
F0.67509444444444444
sS'MEAN_SERVER_CACHE_HITS'
p594
F0.35052222222222224
sS'MEAN'
p595
F0.9998083333333333
ssS'CACHE_HIT_RATIO'
p596
g11
(tRp597
S'MEAN_OFF_PATH'
p598
F0.31927573289667754
sS'MEAN_ON_PATH'
p599
F0.3559603782144336
sg595
F0.67523611111111115
ssS'OVERHEAD'
p600
g11
(tRp601
S'DATA_HOPS'
p602
F3.2594055555555554
sS'INTEREST_HOPS'
p603
F8.3767750000000003
sS'SUCCESS_RATE'
p604
F0.64356906663339153
sS'QUOTA_USED_FAILURE'
p605
F1
sS'FAILURE_RATE'
p606
F0.35643093336660842
sS'QUOTA_USED_SUCCESS'
p607
F1
sS'NUM_SUCCESS_FIRST_TIME'
p608
F0.64207118145436315
sg595
F1.4577877426506747
ssS'LATENCY'
p609
g11
(tRp610
g595
F46.075727777777779
sstp611
a(g11
(tRp612
S'workload'
p613
g11
(tRp614
S'n_contents'
p615
I10000
sS'name'
p616
S'STATIONARY'
p617
sS'n_warmup'
p618
I720000
sS'rate'
p619
I100
sS'n_measured'
p620
I360000
sS'alpha'
p621
F0.69999999999999996
ssS'cache_policy'
p622
g11
(tRp623
g616
S'LRU'
p624
ssS'desc'
p625
S'strategy network_cache: 0.2'
p626
sS'strategy'
p627
g11
(tRp628
S'extra_quota'
p629
I2
sS'fan_out'
p630
I1
sg616
S'TFIB_DC'
p631
ssS'content_placement'
p632
g11
(tRp633
g616
S'UNIFORM'
p634
ssS'joint_cache_rsn_placement'
p635
g11
(tRp636
S'network_cache'
p637
F0.20000000000000001
sS'network_rsn'
p638
F25.600000000000001
sg616
S'CACHE_ALL_RSN_ALL'
p639
sS'rsn_cache_ratio'
p640
I128
ssS'warmup_strategy'
p641
g11
(tRp642
g629
I10000
sg630
I10
sg616
g631
ssS'topology'
p643
g11
(tRp644
S'ext_delay'
p645
I0
sS'source_ratio'
p646
F0.10000000000000001
sg616
S'ROCKET_FUEL'
p647
sS'asn'
p648
I3257
ssg11
(tRp649
S'SAT_RATE'
p650
g11
(tRp651
S'MEAN_CACHE_HIT'
p652
F0.44521388888888891
sS'MEAN_SERVER_HIT'
p653
F0.59700833333333336
sS'MEAN_SERVER_CACHE_HITS'
p654
F0.11714166666666667
sS'MEAN'
p655
F0.92508055555555557
ssS'CACHE_HIT_RATIO'
p656
g11
(tRp657
S'MEAN_OFF_PATH'
p658
F0.27230277185501067
sS'MEAN_ON_PATH'
p659
F0.17291111703387824
sg655
F0.44521388888888891
ssS'OVERHEAD'
p660
g11
(tRp661
S'DATA_HOPS'
p662
F3.7182777777777778
sS'INTEREST_HOPS'
p663
F8.0012916666666669
sS'SUCCESS_RATE'
p664
F0.50180654679402548
sS'QUOTA_USED_FAILURE'
p665
F2.4302547332005275
sS'FAILURE_RATE'
p666
F0.49819345320597452
sS'QUOTA_USED_SUCCESS'
p667
F5.2705420550880557
sS'NUM_SUCCESS_FIRST_TIME'
p668
F0.50358669483614205
sg655
F1.1589831516174267
ssS'LATENCY'
p669
g11
(tRp670
g655
F49.876244444444445
sstp671
a(g11
(tRp672
S'workload'
p673
g11
(tRp674
S'n_contents'
p675
I10000
sS'name'
p676
S'STATIONARY'
p677
sS'n_warmup'
p678
I720000
sS'rate'
p679
I100
sS'n_measured'
p680
I360000
sS'alpha'
p681
F0.69999999999999996
ssS'cache_policy'
p682
g11
(tRp683
g676
S'LRU'
p684
ssS'desc'
p685
S'strategy network_cache: 0.3'
p686
sS'strategy'
p687
g11
(tRp688
S'extra_quota'
p689
I2
sS'fan_out'
p690
I1
sg676
S'TFIB_DC'
p691
ssS'content_placement'
p692
g11
(tRp693
g676
S'UNIFORM'
p694
ssS'joint_cache_rsn_placement'
p695
g11
(tRp696
S'network_cache'
p697
F0.29999999999999999
sS'network_rsn'
p698
F38.399999999999999
sg676
S'CACHE_ALL_RSN_ALL'
p699
sS'rsn_cache_ratio'
p700
I128
ssS'warmup_strategy'
p701
g11
(tRp702
g689
I10000
sg690
I10
sg676
g691
ssS'topology'
p703
g11
(tRp704
S'ext_delay'
p705
I0
sS'source_ratio'
p706
F0.10000000000000001
sg676
S'ROCKET_FUEL'
p707
sS'asn'
p708
I3257
ssg11
(tRp709
S'SAT_RATE'
p710
g11
(tRp711
S'MEAN_CACHE_HIT'
p712
F0.55306666666666671
sS'MEAN_SERVER_HIT'
p713
F0.47336944444444445
sS'MEAN_SERVER_CACHE_HITS'
p714
F0.11411666666666667
sS'MEAN'
p715
F0.91231944444444446
ssS'CACHE_HIT_RATIO'
p716
g11
(tRp717
S'MEAN_OFF_PATH'
p718
F0.35253587791630697
sS'MEAN_ON_PATH'
p719
F0.20053078875035973
sg715
F0.55306666666666671
ssS'OVERHEAD'
p720
g11
(tRp721
S'DATA_HOPS'
p722
F2.8680305555555554
sS'INTEREST_HOPS'
p723
F7.9316972222222226
sS'SUCCESS_RATE'
p724
F0.57909243582566627
sS'QUOTA_USED_FAILURE'
p725
F3.1088388178023774
sS'FAILURE_RATE'
p726
F0.42090756417433367
sS'QUOTA_USED_SUCCESS'
p727
F8.010633160143156
sS'NUM_SUCCESS_FIRST_TIME'
p728
F0.58152511680937158
sg715
F1.1705086242331055
ssS'LATENCY'
p729
g11
(tRp730
g715
F42.151913888888892
sstp731
a(g11
(tRp732
S'workload'
p733
g11
(tRp734
S'n_contents'
p735
I10000
sS'name'
p736
S'STATIONARY'
p737
sS'n_warmup'
p738
I720000
sS'rate'
p739
I100
sS'n_measured'
p740
I360000
sS'alpha'
p741
F0.69999999999999996
ssS'cache_policy'
p742
g11
(tRp743
g736
S'LRU'
p744
ssS'desc'
p745
S'strategy network_cache: 0.4'
p746
sS'strategy'
p747
g11
(tRp748
S'extra_quota'
p749
I2
sS'fan_out'
p750
I1
sg736
S'TFIB_DC'
p751
ssS'content_placement'
p752
g11
(tRp753
g736
S'UNIFORM'
p754
ssS'joint_cache_rsn_placement'
p755
g11
(tRp756
S'network_cache'
p757
F0.40000000000000002
sS'network_rsn'
p758
F51.200000000000003
sg736
S'CACHE_ALL_RSN_ALL'
p759
sS'rsn_cache_ratio'
p760
I128
ssS'warmup_strategy'
p761
g11
(tRp762
g749
I10000
sg750
I10
sg736
g751
ssS'topology'
p763
g11
(tRp764
S'ext_delay'
p765
I0
sS'source_ratio'
p766
F0.10000000000000001
sg736
S'ROCKET_FUEL'
p767
sS'asn'
p768
I3257
ssg11
(tRp769
S'SAT_RATE'
p770
g11
(tRp771
S'MEAN_CACHE_HIT'
p772
F0.63379722222222223
sS'MEAN_SERVER_HIT'
p773
F0.38031944444444443
sS'MEAN_SERVER_CACHE_HITS'
p774
F0.10320555555555555
sS'MEAN'
p775
F0.91091111111111112
ssS'CACHE_HIT_RATIO'
p776
g11
(tRp777
S'MEAN_OFF_PATH'
p778
F0.39335820445817654
sS'MEAN_ON_PATH'
p779
F0.24043901776404569
sg775
F0.63379722222222223
ssS'OVERHEAD'
p780
g11
(tRp781
S'DATA_HOPS'
p782
F2.2585527777777776
sS'INTEREST_HOPS'
p783
F7.7674583333333329
sS'SUCCESS_RATE'
p784
F0.63400378928849344
sS'QUOTA_USED_FAILURE'
p785
F3.701203974250411
sS'FAILURE_RATE'
p786
F0.36599621071150656
sS'QUOTA_USED_SUCCESS'
p787
F10.077925561685237
sS'NUM_SUCCESS_FIRST_TIME'
p788
F0.63743927491381669
sg775
F1.1554304603449537
ssS'LATENCY'
p789
g11
(tRp790
g775
F35.521147222222226
sstp791
a(g11
(tRp792
S'workload'
p793
g11
(tRp794
S'n_contents'
p795
I10000
sS'name'
p796
S'STATIONARY'
p797
sS'n_warmup'
p798
I720000
sS'rate'
p799
I100
sS'n_measured'
p800
I360000
sS'alpha'
p801
F0.69999999999999996
ssS'cache_policy'
p802
g11
(tRp803
g796
S'LRU'
p804
ssS'desc'
p805
S'strategy network_cache: 0.5'
p806
sS'strategy'
p807
g11
(tRp808
S'extra_quota'
p809
I2
sS'fan_out'
p810
I1
sg796
S'TFIB_DC'
p811
ssS'content_placement'
p812
g11
(tRp813
g796
S'UNIFORM'
p814
ssS'joint_cache_rsn_placement'
p815
g11
(tRp816
S'network_cache'
p817
F0.5
sS'network_rsn'
p818
F64
sg796
S'CACHE_ALL_RSN_ALL'
p819
sS'rsn_cache_ratio'
p820
I128
ssS'warmup_strategy'
p821
g11
(tRp822
g809
I10000
sg810
I10
sg796
g811
ssS'topology'
p823
g11
(tRp824
S'ext_delay'
p825
I0
sS'source_ratio'
p826
F0.10000000000000001
sg796
S'ROCKET_FUEL'
p827
sS'asn'
p828
I3257
ssg11
(tRp829
S'SAT_RATE'
p830
g11
(tRp831
S'MEAN_CACHE_HIT'
p832
F0.69464722222222219
sS'MEAN_SERVER_HIT'
p833
F0.30562222222222224
sS'MEAN_SERVER_CACHE_HITS'
p834
F0.088152777777777774
sS'MEAN'
p835
F0.91211666666666669
ssS'CACHE_HIT_RATIO'
p836
g11
(tRp837
S'MEAN_OFF_PATH'
p838
F0.43776260285423096
sS'MEAN_ON_PATH'
p839
F0.25688461936799123
sg835
F0.69464722222222219
ssS'OVERHEAD'
p840
g11
(tRp841
S'DATA_HOPS'
p842
F1.7918611111111111
sS'INTEREST_HOPS'
p843
F7.6050944444444442
sS'SUCCESS_RATE'
p844
F0.69164490861618799
sS'QUOTA_USED_FAILURE'
p845
F4.6002742894397546
sS'FAILURE_RATE'
p846
F0.30835509138381201
sS'QUOTA_USED_SUCCESS'
p847
F10.678260311821679
sS'NUM_SUCCESS_FIRST_TIME'
p848
F0.69511143786130325
sg835
F1.1511289369659097
ssS'LATENCY'
p849
g11
(tRp850
g835
F29.992855555555554
sstp851
a(g11
(tRp852
S'workload'
p853
g11
(tRp854
S'n_contents'
p855
I10000
sS'name'
p856
S'STATIONARY'
p857
sS'n_warmup'
p858
I720000
sS'rate'
p859
I100
sS'n_measured'
p860
I360000
sS'alpha'
p861
F0.69999999999999996
ssS'cache_policy'
p862
g11
(tRp863
g856
S'LRU'
p864
ssS'desc'
p865
S'strategy network_cache: 0.6'
p866
sS'strategy'
p867
g11
(tRp868
S'extra_quota'
p869
I2
sS'fan_out'
p870
I1
sg856
S'TFIB_DC'
p871
ssS'content_placement'
p872
g11
(tRp873
g856
S'UNIFORM'
p874
ssS'joint_cache_rsn_placement'
p875
g11
(tRp876
S'network_cache'
p877
F0.59999999999999998
sS'network_rsn'
p878
F76.799999999999997
sg856
S'CACHE_ALL_RSN_ALL'
p879
sS'rsn_cache_ratio'
p880
I128
ssS'warmup_strategy'
p881
g11
(tRp882
g869
I10000
sg870
I10
sg856
g871
ssS'topology'
p883
g11
(tRp884
S'ext_delay'
p885
I0
sS'source_ratio'
p886
F0.10000000000000001
sg856
S'ROCKET_FUEL'
p887
sS'asn'
p888
I3257
ssg11
(tRp889
S'SAT_RATE'
p890
g11
(tRp891
S'MEAN_CACHE_HIT'
p892
F0.74821666666666664
sS'MEAN_SERVER_HIT'
p893
F0.24448333333333333
sS'MEAN_SERVER_CACHE_HITS'
p894
F0.074661111111111109
sS'MEAN'
p895
F0.91803888888888885
ssS'CACHE_HIT_RATIO'
p896
g11
(tRp897
S'MEAN_OFF_PATH'
p898
F0.47737931343250173
sS'MEAN_ON_PATH'
p899
F0.27083735323416491
sg895
F0.74821666666666664
ssS'OVERHEAD'
p900
g11
(tRp901
S'DATA_HOPS'
p902
F1.4203027777777777
sS'INTEREST_HOPS'
p903
F7.4661555555555559
sS'SUCCESS_RATE'
p904
F0.74899892159403447
sS'QUOTA_USED_FAILURE'
p905
F5.6766337792800279
sS'FAILURE_RATE'
p906
F0.25100107840596553
sS'QUOTA_USED_SUCCESS'
p907
F15.483985422756014
sS'NUM_SUCCESS_FIRST_TIME'
p908
F0.75263997503077806
sg895
F1.1377029537601289
ssS'LATENCY'
p909
g11
(tRp910
g895
F25.248027777777779
sstp911
a(g11
(tRp912
S'workload'
p913
g11
(tRp914
S'n_contents'
p915
I10000
sS'name'
p916
S'STATIONARY'
p917
sS'n_warmup'
p918
I720000
sS'rate'
p919
I100
sS'n_measured'
p920
I360000
sS'alpha'
p921
F0.69999999999999996
ssS'cache_policy'
p922
g11
(tRp923
g916
S'LRU'
p924
ssS'desc'
p925
S'strategy network_cache: 0.7'
p926
sS'strategy'
p927
g11
(tRp928
S'extra_quota'
p929
I2
sS'fan_out'
p930
I1
sg916
S'TFIB_DC'
p931
ssS'content_placement'
p932
g11
(tRp933
g916
S'UNIFORM'
p934
ssS'joint_cache_rsn_placement'
p935
g11
(tRp936
S'network_cache'
p937
F0.69999999999999996
sS'network_rsn'
p938
F89.599999999999994
sg916
S'CACHE_ALL_RSN_ALL'
p939
sS'rsn_cache_ratio'
p940
I128
ssS'warmup_strategy'
p941
g11
(tRp942
g929
I10000
sg930
I10
sg916
g931
ssS'topology'
p943
g11
(tRp944
S'ext_delay'
p945
I0
sS'source_ratio'
p946
F0.10000000000000001
sg916
S'ROCKET_FUEL'
p947
sS'asn'
p948
I3257
ssg11
(tRp949
S'SAT_RATE'
p950
g11
(tRp951
S'MEAN_CACHE_HIT'
p952
F0.79448888888888891
sS'MEAN_SERVER_HIT'
p953
F0.19452222222222224
sS'MEAN_SERVER_CACHE_HITS'
p954
F0.061594444444444445
sS'MEAN'
p955
F0.92741666666666667
ssS'CACHE_HIT_RATIO'
p956
g11
(tRp957
S'MEAN_OFF_PATH'
p958
F0.50171608003505186
sS'MEAN_ON_PATH'
p959
F0.29277280885383705
sg955
F0.79448888888888891
ssS'OVERHEAD'
p960
g11
(tRp961
S'DATA_HOPS'
p962
F1.1144416666666668
sS'INTEREST_HOPS'
p963
F7.291438888888889
sS'SUCCESS_RATE'
p964
F0.79506616216678427
sS'QUOTA_USED_FAILURE'
p965
F6.6924163861307813
sS'FAILURE_RATE'
p966
F0.20493383783321575
sS'QUOTA_USED_SUCCESS'
p967
F14.772804211131904
sS'NUM_SUCCESS_FIRST_TIME'
p968
F0.79866858343470082
sg955
F1.1307754515230479
ssS'LATENCY'
p969
g11
(tRp970
g955
F20.74241111111111
sstp971
a(g11
(tRp972
S'workload'
p973
g11
(tRp974
S'n_contents'
p975
I10000
sS'name'
p976
S'STATIONARY'
p977
sS'n_warmup'
p978
I720000
sS'rate'
p979
I100
sS'n_measured'
p980
I360000
sS'alpha'
p981
F0.69999999999999996
ssS'cache_policy'
p982
g11
(tRp983
g976
S'LRU'
p984
ssS'desc'
p985
S'strategy network_cache: 0.9'
p986
sS'strategy'
p987
g11
(tRp988
S'extra_quota'
p989
I2
sS'fan_out'
p990
I1
sg976
S'TFIB_DC'
p991
ssS'content_placement'
p992
g11
(tRp993
g976
S'UNIFORM'
p994
ssS'joint_cache_rsn_placement'
p995
g11
(tRp996
S'network_cache'
p997
F0.90000000000000002
sS'network_rsn'
p998
F115.2
sg976
S'CACHE_ALL_RSN_ALL'
p999
sS'rsn_cache_ratio'
p1000
I128
ssS'warmup_strategy'
p1001
g11
(tRp1002
g989
I10000
sg990
I10
sg976
g991
ssS'topology'
p1003
g11
(tRp1004
S'ext_delay'
p1005
I0
sS'source_ratio'
p1006
F0.10000000000000001
sg976
S'ROCKET_FUEL'
p1007
sS'asn'
p1008
I3257
ssg11
(tRp1009
S'SAT_RATE'
p1010
g11
(tRp1011
S'MEAN_CACHE_HIT'
p1012
F0.88323055555555552
sS'MEAN_SERVER_HIT'
p1013
F0.10905277777777778
sS'MEAN_SERVER_CACHE_HITS'
p1014
F0.038694444444444441
sS'MEAN'
p1015
F0.95358888888888893
ssS'CACHE_HIT_RATIO'
p1016
g11
(tRp1017
S'MEAN_OFF_PATH'
p1018
F0.54246938878344564
sS'MEAN_ON_PATH'
p1019
F0.34076116677210988
sg1015
F0.88323055555555552
ssS'OVERHEAD'
p1020
g11
(tRp1021
S'DATA_HOPS'
p1022
F0.60813055555555551
sS'INTEREST_HOPS'
p1023
F7.0139222222222219
sS'SUCCESS_RATE'
p1024
F0.88738318371209635
sS'QUOTA_USED_FAILURE'
p1025
F9.3295625590962761
sS'FAILURE_RATE'
p1026
F0.11261681628790368
sS'QUOTA_USED_SUCCESS'
p1027
F18.933052951865367
sS'NUM_SUCCESS_FIRST_TIME'
p1028
F0.89036076789773366
sg1015
F1.0945142910408632
ssS'LATENCY'
p1029
g11
(tRp1030
g1015
F12.067783333333333
sstp1031
a(g11
(tRp1032
S'workload'
p1033
g11
(tRp1034
S'n_contents'
p1035
I10000
sS'name'
p1036
S'STATIONARY'
p1037
sS'n_warmup'
p1038
I720000
sS'rate'
p1039
I100
sS'n_measured'
p1040
I360000
sS'alpha'
p1041
F0.69999999999999996
ssS'cache_policy'
p1042
g11
(tRp1043
g1036
S'LRU'
p1044
ssS'desc'
p1045
S'strategy network_cache: 0.8'
p1046
sS'strategy'
p1047
g11
(tRp1048
S'extra_quota'
p1049
I2
sS'fan_out'
p1050
I1
sg1036
S'TFIB_DC'
p1051
ssS'content_placement'
p1052
g11
(tRp1053
g1036
S'UNIFORM'
p1054
ssS'joint_cache_rsn_placement'
p1055
g11
(tRp1056
S'network_cache'
p1057
F0.80000000000000004
sS'network_rsn'
p1058
F102.40000000000001
sg1036
S'CACHE_ALL_RSN_ALL'
p1059
sS'rsn_cache_ratio'
p1060
I128
ssS'warmup_strategy'
p1061
g11
(tRp1062
g1049
I10000
sg1050
I10
sg1036
g1051
ssS'topology'
p1063
g11
(tRp1064
S'ext_delay'
p1065
I0
sS'source_ratio'
p1066
F0.10000000000000001
sg1036
S'ROCKET_FUEL'
p1067
sS'asn'
p1068
I3257
ssg11
(tRp1069
S'SAT_RATE'
p1070
g11
(tRp1071
S'MEAN_CACHE_HIT'
p1072
F0.84645833333333331
sS'MEAN_SERVER_HIT'
p1073
F0.14105277777777778
sS'MEAN_SERVER_CACHE_HITS'
p1074
F0.04623611111111111
sS'MEAN'
p1075
F0.94127499999999997
ssS'CACHE_HIT_RATIO'
p1076
g11
(tRp1077
S'MEAN_OFF_PATH'
p1078
F0.53388710112966375
sS'MEAN_ON_PATH'
p1079
F0.31257123220366956
sg1075
F0.84645833333333331
ssS'OVERHEAD'
p1080
g11
(tRp1081
S'DATA_HOPS'
p1082
F0.80522777777777776
sS'INTEREST_HOPS'
p1083
F7.1521138888888887
sS'SUCCESS_RATE'
p1084
F0.8509918545423284
sS'QUOTA_USED_FAILURE'
p1085
F8.2915348216344871
sS'FAILURE_RATE'
p1086
F0.14900814545767155
sS'QUOTA_USED_SUCCESS'
p1087
F18.255426401146941
sS'NUM_SUCCESS_FIRST_TIME'
p1088
F0.85452878734871196
sg1075
F1.1016263401591813
ssS'LATENCY'
p1089
g11
(tRp1090
g1075
F15.657361111111111
sstp1091
atRp1092
sb.