ccopy_reg
_reconstructor
p1
(cicarus.results.readwrite
ResultSet
p2
c__builtin__
object
p3
NtRp4
(dp5
S'attr'
p6
(dp7
sS'_results'
p8
ccollections
deque
p9
((lp10
(cicarus.util
Tree
p11
(tRp12
S'workload'
p13
g11
(tRp14
S'n_contents'
p15
I10000
sS'name'
p16
S'STATIONARY'
p17
sS'n_warmup'
p18
I720000
sS'rate'
p19
I100
sS'n_measured'
p20
I360000
sS'alpha'
p21
F0.90000000000000002
ssS'cache_policy'
p22
g11
(tRp23
g16
S'LRU'
p24
ssS'desc'
p25
S'strategy zipf: 0.9'
p26
sS'strategy'
p27
g11
(tRp28
g16
S'NRR_PROB'
p29
ssS'content_placement'
p30
g11
(tRp31
g16
S'UNIFORM'
p32
ssS'joint_cache_rsn_placement'
p33
g11
(tRp34
S'network_cache'
p35
F0.29999999999999999
sS'network_rsn'
p36
F38.399999999999999
sg16
S'CACHE_ALL_RSN_ALL'
p37
sS'rsn_cache_ratio'
p38
I128
ssS'warmup_strategy'
p39
g11
(tRp40
g16
g29
ssS'topology'
p41
g11
(tRp42
S'ext_delay'
p43
I0
sS'source_ratio'
p44
F0.10000000000000001
sg16
S'ROCKET_FUEL'
p45
sS'asn'
p46
I3257
ssg11
(tRp47
S'SAT_RATE'
p48
g11
(tRp49
S'MEAN_CACHE_HIT'
p50
F0.76957222222222221
sS'MEAN_SERVER_HIT'
p51
F0.23042777777777779
sS'MEAN_SERVER_CACHE_HITS'
p52
F0
sS'MEAN'
p53
F1
ssS'CACHE_HIT_RATIO'
p54
g11
(tRp55
S'MEAN_OFF_PATH'
p56
F0.70508333333333328
sS'MEAN_ON_PATH'
p57
F0.064488888888888929
sg53
F0.76957222222222221
ssS'OVERHEAD'
p58
g11
(tRp59
S'DATA_HOPS'
p60
F5.599013888888889
sS'INTEREST_HOPS'
p61
F0
sS'SUCCESS_RATE'
p62
F0
sS'QUOTA_USED_FAILURE'
p63
F0
sS'FAILURE_RATE'
p64
F0
sS'QUOTA_USED_SUCCESS'
p65
F0
sS'NUM_SUCCESS_FIRST_TIME'
p66
F0
sg53
F1
ssS'LATENCY'
p67
g11
(tRp68
g53
F43.986827777777776
sstp69
a(g11
(tRp70
S'workload'
p71
g11
(tRp72
S'n_contents'
p73
I10000
sS'name'
p74
S'STATIONARY'
p75
sS'n_warmup'
p76
I720000
sS'rate'
p77
I100
sS'n_measured'
p78
I360000
sS'alpha'
p79
F0.69999999999999996
ssS'cache_policy'
p80
g11
(tRp81
g74
S'LRU'
p82
ssS'desc'
p83
S'strategy zipf: 0.7'
p84
sS'strategy'
p85
g11
(tRp86
g74
S'NRR_PROB'
p87
ssS'content_placement'
p88
g11
(tRp89
g74
S'UNIFORM'
p90
ssS'joint_cache_rsn_placement'
p91
g11
(tRp92
S'network_cache'
p93
F0.29999999999999999
sS'network_rsn'
p94
F38.399999999999999
sg74
S'CACHE_ALL_RSN_ALL'
p95
sS'rsn_cache_ratio'
p96
I128
ssS'warmup_strategy'
p97
g11
(tRp98
g74
g87
ssS'topology'
p99
g11
(tRp100
S'ext_delay'
p101
I0
sS'source_ratio'
p102
F0.10000000000000001
sg74
S'ROCKET_FUEL'
p103
sS'asn'
p104
I3257
ssg11
(tRp105
S'SAT_RATE'
p106
g11
(tRp107
S'MEAN_CACHE_HIT'
p108
F0.60558611111111116
sS'MEAN_SERVER_HIT'
p109
F0.3944138888888889
sS'MEAN_SERVER_CACHE_HITS'
p110
F0
sS'MEAN'
p111
F1
ssS'CACHE_HIT_RATIO'
p112
g11
(tRp113
S'MEAN_OFF_PATH'
p114
F0.56945000000000001
sS'MEAN_ON_PATH'
p115
F0.036136111111111147
sg111
F0.60558611111111116
ssS'OVERHEAD'
p116
g11
(tRp117
S'DATA_HOPS'
p118
F6.0128694444444442
sS'INTEREST_HOPS'
p119
F0
sS'SUCCESS_RATE'
p120
F0
sS'QUOTA_USED_FAILURE'
p121
F0
sS'FAILURE_RATE'
p122
F0
sS'QUOTA_USED_SUCCESS'
p123
F0
sS'NUM_SUCCESS_FIRST_TIME'
p124
F0
sg111
F1
ssS'LATENCY'
p125
g11
(tRp126
g111
F56.826322222222224
sstp127
a(g11
(tRp128
S'workload'
p129
g11
(tRp130
S'n_contents'
p131
I10000
sS'name'
p132
S'STATIONARY'
p133
sS'n_warmup'
p134
I720000
sS'rate'
p135
I100
sS'n_measured'
p136
I360000
sS'alpha'
p137
F1
ssS'cache_policy'
p138
g11
(tRp139
g132
S'LRU'
p140
ssS'desc'
p141
S'strategy zipf: 1.0'
p142
sS'strategy'
p143
g11
(tRp144
g132
S'NRR_PROB'
p145
ssS'content_placement'
p146
g11
(tRp147
g132
S'UNIFORM'
p148
ssS'joint_cache_rsn_placement'
p149
g11
(tRp150
S'network_cache'
p151
F0.29999999999999999
sS'network_rsn'
p152
F38.399999999999999
sg132
S'CACHE_ALL_RSN_ALL'
p153
sS'rsn_cache_ratio'
p154
I128
ssS'warmup_strategy'
p155
g11
(tRp156
g132
g145
ssS'topology'
p157
g11
(tRp158
S'ext_delay'
p159
I0
sS'source_ratio'
p160
F0.10000000000000001
sg132
S'ROCKET_FUEL'
p161
sS'asn'
p162
I3257
ssg11
(tRp163
S'SAT_RATE'
p164
g11
(tRp165
S'MEAN_CACHE_HIT'
p166
F0.84211388888888894
sS'MEAN_SERVER_HIT'
p167
F0.15788611111111112
sS'MEAN_SERVER_CACHE_HITS'
p168
F0
sS'MEAN'
p169
F1
ssS'CACHE_HIT_RATIO'
p170
g11
(tRp171
S'MEAN_OFF_PATH'
p172
F0.75582222222222217
sS'MEAN_ON_PATH'
p173
F0.086291666666666766
sg169
F0.84211388888888894
ssS'OVERHEAD'
p174
g11
(tRp175
S'DATA_HOPS'
p176
F5.5733861111111107
sS'INTEREST_HOPS'
p177
F0
sS'SUCCESS_RATE'
p178
F0
sS'QUOTA_USED_FAILURE'
p179
F0
sS'FAILURE_RATE'
p180
F0
sS'QUOTA_USED_SUCCESS'
p181
F0
sS'NUM_SUCCESS_FIRST_TIME'
p182
F0
sg169
F1
ssS'LATENCY'
p183
g11
(tRp184
g169
F39.255394444444441
sstp185
a(g11
(tRp186
S'workload'
p187
g11
(tRp188
S'n_contents'
p189
I10000
sS'name'
p190
S'STATIONARY'
p191
sS'n_warmup'
p192
I720000
sS'rate'
p193
I100
sS'n_measured'
p194
I360000
sS'alpha'
p195
F0.29999999999999999
ssS'cache_policy'
p196
g11
(tRp197
g190
S'LRU'
p198
ssS'desc'
p199
S'strategy zipf: 0.3'
p200
sS'strategy'
p201
g11
(tRp202
g190
S'NRR_PROB'
p203
ssS'content_placement'
p204
g11
(tRp205
g190
S'UNIFORM'
p206
ssS'joint_cache_rsn_placement'
p207
g11
(tRp208
S'network_cache'
p209
F0.29999999999999999
sS'network_rsn'
p210
F38.399999999999999
sg190
S'CACHE_ALL_RSN_ALL'
p211
sS'rsn_cache_ratio'
p212
I128
ssS'warmup_strategy'
p213
g11
(tRp214
g190
g203
ssS'topology'
p215
g11
(tRp216
S'ext_delay'
p217
I0
sS'source_ratio'
p218
F0.10000000000000001
sg190
S'ROCKET_FUEL'
p219
sS'asn'
p220
I3257
ssg11
(tRp221
S'SAT_RATE'
p222
g11
(tRp223
S'MEAN_CACHE_HIT'
p224
F0.35401388888888891
sS'MEAN_SERVER_HIT'
p225
F0.64598611111111115
sS'MEAN_SERVER_CACHE_HITS'
p226
F0
sS'MEAN'
p227
F1
ssS'CACHE_HIT_RATIO'
p228
g11
(tRp229
S'MEAN_OFF_PATH'
p230
F0.33677499999999999
sS'MEAN_ON_PATH'
p231
F0.017238888888888915
sg227
F0.35401388888888891
ssS'OVERHEAD'
p232
g11
(tRp233
S'DATA_HOPS'
p234
F6.4692583333333333
sS'INTEREST_HOPS'
p235
F0
sS'SUCCESS_RATE'
p236
F0
sS'QUOTA_USED_FAILURE'
p237
F0
sS'FAILURE_RATE'
p238
F0
sS'QUOTA_USED_SUCCESS'
p239
F0
sS'NUM_SUCCESS_FIRST_TIME'
p240
F0
sg227
F1
ssS'LATENCY'
p241
g11
(tRp242
g227
F73.816416666666669
sstp243
a(g11
(tRp244
S'workload'
p245
g11
(tRp246
S'n_contents'
p247
I10000
sS'name'
p248
S'STATIONARY'
p249
sS'n_warmup'
p250
I720000
sS'rate'
p251
I100
sS'n_measured'
p252
I360000
sS'alpha'
p253
F0.59999999999999998
ssS'cache_policy'
p254
g11
(tRp255
g248
S'LRU'
p256
ssS'desc'
p257
S'strategy zipf: 0.6'
p258
sS'strategy'
p259
g11
(tRp260
g248
S'NRR_PROB'
p261
ssS'content_placement'
p262
g11
(tRp263
g248
S'UNIFORM'
p264
ssS'joint_cache_rsn_placement'
p265
g11
(tRp266
S'network_cache'
p267
F0.29999999999999999
sS'network_rsn'
p268
F38.399999999999999
sg248
S'CACHE_ALL_RSN_ALL'
p269
sS'rsn_cache_ratio'
p270
I128
ssS'warmup_strategy'
p271
g11
(tRp272
g248
g261
ssS'topology'
p273
g11
(tRp274
S'ext_delay'
p275
I0
sS'source_ratio'
p276
F0.10000000000000001
sg248
S'ROCKET_FUEL'
p277
sS'asn'
p278
I3257
ssg11
(tRp279
S'SAT_RATE'
p280
g11
(tRp281
S'MEAN_CACHE_HIT'
p282
F0.5264861111111111
sS'MEAN_SERVER_HIT'
p283
F0.4735138888888889
sS'MEAN_SERVER_CACHE_HITS'
p284
F0
sS'MEAN'
p285
F1
ssS'CACHE_HIT_RATIO'
p286
g11
(tRp287
S'MEAN_OFF_PATH'
p288
F0.50270000000000004
sS'MEAN_ON_PATH'
p289
F0.023786111111111063
sg285
F0.5264861111111111
ssS'OVERHEAD'
p290
g11
(tRp291
S'DATA_HOPS'
p292
F6.2104861111111109
sS'INTEREST_HOPS'
p293
F0
sS'SUCCESS_RATE'
p294
F0
sS'QUOTA_USED_FAILURE'
p295
F0
sS'FAILURE_RATE'
p296
F0
sS'QUOTA_USED_SUCCESS'
p297
F0
sS'NUM_SUCCESS_FIRST_TIME'
p298
F0
sg285
F1
ssS'LATENCY'
p299
g11
(tRp300
g285
F62.64492222222222
sstp301
a(g11
(tRp302
S'workload'
p303
g11
(tRp304
S'n_contents'
p305
I10000
sS'name'
p306
S'STATIONARY'
p307
sS'n_warmup'
p308
I720000
sS'rate'
p309
I100
sS'n_measured'
p310
I360000
sS'alpha'
p311
F0.20000000000000001
ssS'cache_policy'
p312
g11
(tRp313
g306
S'LRU'
p314
ssS'desc'
p315
S'strategy zipf: 0.2'
p316
sS'strategy'
p317
g11
(tRp318
g306
S'NRR_PROB'
p319
ssS'content_placement'
p320
g11
(tRp321
g306
S'UNIFORM'
p322
ssS'joint_cache_rsn_placement'
p323
g11
(tRp324
S'network_cache'
p325
F0.29999999999999999
sS'network_rsn'
p326
F38.399999999999999
sg306
S'CACHE_ALL_RSN_ALL'
p327
sS'rsn_cache_ratio'
p328
I128
ssS'warmup_strategy'
p329
g11
(tRp330
g306
g319
ssS'topology'
p331
g11
(tRp332
S'ext_delay'
p333
I0
sS'source_ratio'
p334
F0.10000000000000001
sg306
S'ROCKET_FUEL'
p335
sS'asn'
p336
I3257
ssg11
(tRp337
S'SAT_RATE'
p338
g11
(tRp339
S'MEAN_CACHE_HIT'
p340
F0.32558055555555554
sS'MEAN_SERVER_HIT'
p341
F0.67441944444444446
sS'MEAN_SERVER_CACHE_HITS'
p342
F0
sS'MEAN'
p343
F1
ssS'CACHE_HIT_RATIO'
p344
g11
(tRp345
S'MEAN_OFF_PATH'
p346
F0.30851666666666666
sS'MEAN_ON_PATH'
p347
F0.017063888888888878
sg343
F0.32558055555555554
ssS'OVERHEAD'
p348
g11
(tRp349
S'DATA_HOPS'
p350
F6.5163555555555552
sS'INTEREST_HOPS'
p351
F0
sS'SUCCESS_RATE'
p352
F0
sS'QUOTA_USED_FAILURE'
p353
F0
sS'FAILURE_RATE'
p354
F0
sS'QUOTA_USED_SUCCESS'
p355
F0
sS'NUM_SUCCESS_FIRST_TIME'
p356
F0
sg343
F1
ssS'LATENCY'
p357
g11
(tRp358
g343
F75.839799999999997
sstp359
a(g11
(tRp360
S'workload'
p361
g11
(tRp362
S'n_contents'
p363
I10000
sS'name'
p364
S'STATIONARY'
p365
sS'n_warmup'
p366
I720000
sS'rate'
p367
I100
sS'n_measured'
p368
I360000
sS'alpha'
p369
F0.80000000000000004
ssS'cache_policy'
p370
g11
(tRp371
g364
S'LRU'
p372
ssS'desc'
p373
S'strategy zipf: 0.8'
p374
sS'strategy'
p375
g11
(tRp376
g364
S'NRR_PROB'
p377
ssS'content_placement'
p378
g11
(tRp379
g364
S'UNIFORM'
p380
ssS'joint_cache_rsn_placement'
p381
g11
(tRp382
S'network_cache'
p383
F0.29999999999999999
sS'network_rsn'
p384
F38.399999999999999
sg364
S'CACHE_ALL_RSN_ALL'
p385
sS'rsn_cache_ratio'
p386
I128
ssS'warmup_strategy'
p387
g11
(tRp388
g364
g377
ssS'topology'
p389
g11
(tRp390
S'ext_delay'
p391
I0
sS'source_ratio'
p392
F0.10000000000000001
sg364
S'ROCKET_FUEL'
p393
sS'asn'
p394
I3257
ssg11
(tRp395
S'SAT_RATE'
p396
g11
(tRp397
S'MEAN_CACHE_HIT'
p398
F0.68872500000000003
sS'MEAN_SERVER_HIT'
p399
F0.31127500000000002
sS'MEAN_SERVER_CACHE_HITS'
p400
F0
sS'MEAN'
p401
F1
ssS'CACHE_HIT_RATIO'
p402
g11
(tRp403
S'MEAN_OFF_PATH'
p404
F0.6421027777777778
sS'MEAN_ON_PATH'
p405
F0.046622222222222232
sg401
F0.68872500000000003
ssS'OVERHEAD'
p406
g11
(tRp407
S'DATA_HOPS'
p408
F5.8569416666666667
sS'INTEREST_HOPS'
p409
F0
sS'SUCCESS_RATE'
p410
F0
sS'QUOTA_USED_FAILURE'
p411
F0
sS'FAILURE_RATE'
p412
F0
sS'QUOTA_USED_SUCCESS'
p413
F0
sS'NUM_SUCCESS_FIRST_TIME'
p414
F0
sg401
F1
ssS'LATENCY'
p415
g11
(tRp416
g401
F51.548961111111112
sstp417
a(g11
(tRp418
S'workload'
p419
g11
(tRp420
S'n_contents'
p421
I10000
sS'name'
p422
S'STATIONARY'
p423
sS'n_warmup'
p424
I720000
sS'rate'
p425
I100
sS'n_measured'
p426
I360000
sS'alpha'
p427
F0.5
ssS'cache_policy'
p428
g11
(tRp429
g422
S'LRU'
p430
ssS'desc'
p431
S'strategy zipf: 0.5'
p432
sS'strategy'
p433
g11
(tRp434
g422
S'NRR_PROB'
p435
ssS'content_placement'
p436
g11
(tRp437
g422
S'UNIFORM'
p438
ssS'joint_cache_rsn_placement'
p439
g11
(tRp440
S'network_cache'
p441
F0.29999999999999999
sS'network_rsn'
p442
F38.399999999999999
sg422
S'CACHE_ALL_RSN_ALL'
p443
sS'rsn_cache_ratio'
p444
I128
ssS'warmup_strategy'
p445
g11
(tRp446
g422
g435
ssS'topology'
p447
g11
(tRp448
S'ext_delay'
p449
I0
sS'source_ratio'
p450
F0.10000000000000001
sg422
S'ROCKET_FUEL'
p451
sS'asn'
p452
I3257
ssg11
(tRp453
S'SAT_RATE'
p454
g11
(tRp455
S'MEAN_CACHE_HIT'
p456
F0.45642777777777777
sS'MEAN_SERVER_HIT'
p457
F0.54357222222222223
sS'MEAN_SERVER_CACHE_HITS'
p458
F0
sS'MEAN'
p459
F1
ssS'CACHE_HIT_RATIO'
p460
g11
(tRp461
S'MEAN_OFF_PATH'
p462
F0.43567499999999998
sS'MEAN_ON_PATH'
p463
F0.020752777777777787
sg459
F0.45642777777777777
ssS'OVERHEAD'
p464
g11
(tRp465
S'DATA_HOPS'
p466
F6.3166055555555554
sS'INTEREST_HOPS'
p467
F0
sS'SUCCESS_RATE'
p468
F0
sS'QUOTA_USED_FAILURE'
p469
F0
sS'FAILURE_RATE'
p470
F0
sS'QUOTA_USED_SUCCESS'
p471
F0
sS'NUM_SUCCESS_FIRST_TIME'
p472
F0
sg459
F1
ssS'LATENCY'
p473
g11
(tRp474
g459
F67.022199999999998
sstp475
a(g11
(tRp476
S'workload'
p477
g11
(tRp478
S'n_contents'
p479
I10000
sS'name'
p480
S'STATIONARY'
p481
sS'n_warmup'
p482
I720000
sS'rate'
p483
I100
sS'n_measured'
p484
I360000
sS'alpha'
p485
F0.40000000000000002
ssS'cache_policy'
p486
g11
(tRp487
g480
S'LRU'
p488
ssS'desc'
p489
S'strategy zipf: 0.4'
p490
sS'strategy'
p491
g11
(tRp492
g480
S'NRR_PROB'
p493
ssS'content_placement'
p494
g11
(tRp495
g480
S'UNIFORM'
p496
ssS'joint_cache_rsn_placement'
p497
g11
(tRp498
S'network_cache'
p499
F0.29999999999999999
sS'network_rsn'
p500
F38.399999999999999
sg480
S'CACHE_ALL_RSN_ALL'
p501
sS'rsn_cache_ratio'
p502
I128
ssS'warmup_strategy'
p503
g11
(tRp504
g480
g493
ssS'topology'
p505
g11
(tRp506
S'ext_delay'
p507
I0
sS'source_ratio'
p508
F0.10000000000000001
sg480
S'ROCKET_FUEL'
p509
sS'asn'
p510
I3257
ssg11
(tRp511
S'SAT_RATE'
p512
g11
(tRp513
S'MEAN_CACHE_HIT'
p514
F0.3989861111111111
sS'MEAN_SERVER_HIT'
p515
F0.60101388888888885
sS'MEAN_SERVER_CACHE_HITS'
p516
F0
sS'MEAN'
p517
F1
ssS'CACHE_HIT_RATIO'
p518
g11
(tRp519
S'MEAN_OFF_PATH'
p520
F0.37995000000000001
sS'MEAN_ON_PATH'
p521
F0.019036111111111087
sg517
F0.3989861111111111
ssS'OVERHEAD'
p522
g11
(tRp523
S'DATA_HOPS'
p524
F6.4189666666666669
sS'INTEREST_HOPS'
p525
F0
sS'SUCCESS_RATE'
p526
F0
sS'QUOTA_USED_FAILURE'
p527
F0
sS'FAILURE_RATE'
p528
F0
sS'QUOTA_USED_SUCCESS'
p529
F0
sS'NUM_SUCCESS_FIRST_TIME'
p530
F0
sg517
F1
ssS'LATENCY'
p531
g11
(tRp532
g517
F71.018783333333332
sstp533
a(g11
(tRp534
S'workload'
p535
g11
(tRp536
S'n_contents'
p537
I10000
sS'name'
p538
S'STATIONARY'
p539
sS'n_warmup'
p540
I720000
sS'rate'
p541
I100
sS'n_measured'
p542
I360000
sS'alpha'
p543
F0.10000000000000001
ssS'cache_policy'
p544
g11
(tRp545
g538
S'LRU'
p546
ssS'desc'
p547
S'strategy zipf: 0.1'
p548
sS'strategy'
p549
g11
(tRp550
g538
S'NRR_PROB'
p551
ssS'content_placement'
p552
g11
(tRp553
g538
S'UNIFORM'
p554
ssS'joint_cache_rsn_placement'
p555
g11
(tRp556
S'network_cache'
p557
F0.29999999999999999
sS'network_rsn'
p558
F38.399999999999999
sg538
S'CACHE_ALL_RSN_ALL'
p559
sS'rsn_cache_ratio'
p560
I128
ssS'warmup_strategy'
p561
g11
(tRp562
g538
g551
ssS'topology'
p563
g11
(tRp564
S'ext_delay'
p565
I0
sS'source_ratio'
p566
F0.10000000000000001
sg538
S'ROCKET_FUEL'
p567
sS'asn'
p568
I3257
ssg11
(tRp569
S'SAT_RATE'
p570
g11
(tRp571
S'MEAN_CACHE_HIT'
p572
F0.30977500000000002
sS'MEAN_SERVER_HIT'
p573
F0.69022499999999998
sS'MEAN_SERVER_CACHE_HITS'
p574
F0
sS'MEAN'
p575
F1
ssS'CACHE_HIT_RATIO'
p576
g11
(tRp577
S'MEAN_OFF_PATH'
p578
F0.29382222222222221
sS'MEAN_ON_PATH'
p579
F0.015952777777777816
sg575
F0.30977500000000002
ssS'OVERHEAD'
p580
g11
(tRp581
S'DATA_HOPS'
p582
F6.5540833333333337
sS'INTEREST_HOPS'
p583
F0
sS'SUCCESS_RATE'
p584
F0
sS'QUOTA_USED_FAILURE'
p585
F0
sS'FAILURE_RATE'
p586
F0
sS'QUOTA_USED_SUCCESS'
p587
F0
sS'NUM_SUCCESS_FIRST_TIME'
p588
F0
sg575
F1
ssS'LATENCY'
p589
g11
(tRp590
g575
F76.891555555555556
sstp591
a(g11
(tRp592
S'workload'
p593
g11
(tRp594
S'n_contents'
p595
I10000
sS'name'
p596
S'STATIONARY'
p597
sS'n_warmup'
p598
I720000
sS'rate'
p599
I100
sS'n_measured'
p600
I360000
sS'alpha'
p601
F1
ssS'cache_policy'
p602
g11
(tRp603
g596
S'LRU'
p604
ssS'desc'
p605
S'strategy zipf: 1.0'
p606
sS'strategy'
p607
g11
(tRp608
S'extra_quota'
p609
I2
sS'fan_out'
p610
I1
sg596
S'TFIB_SC'
p611
ssS'content_placement'
p612
g11
(tRp613
g596
S'UNIFORM'
p614
ssS'joint_cache_rsn_placement'
p615
g11
(tRp616
S'network_cache'
p617
F0.29999999999999999
sS'network_rsn'
p618
F38.399999999999999
sg596
S'CACHE_ALL_RSN_ALL'
p619
sS'rsn_cache_ratio'
p620
I128
ssS'warmup_strategy'
p621
g11
(tRp622
g609
I10000
sg610
I10
sg596
g611
ssS'topology'
p623
g11
(tRp624
S'ext_delay'
p625
I0
sS'source_ratio'
p626
F0.10000000000000001
sg596
S'ROCKET_FUEL'
p627
sS'asn'
p628
I3257
ssg11
(tRp629
S'SAT_RATE'
p630
g11
(tRp631
S'MEAN_CACHE_HIT'
p632
F0.80286666666666662
sS'MEAN_SERVER_HIT'
p633
F0.38882499999999998
sS'MEAN_SERVER_CACHE_HITS'
p634
F0.19178055555555557
sS'MEAN'
p635
F0.99991111111111108
ssS'CACHE_HIT_RATIO'
p636
g11
(tRp637
S'MEAN_OFF_PATH'
p638
F0.24516735080149835
sS'MEAN_ON_PATH'
p639
F0.5576993158651683
sg635
F0.80286666666666662
ssS'OVERHEAD'
p640
g11
(tRp641
S'DATA_HOPS'
p642
F1.9107472222222222
sS'INTEREST_HOPS'
p643
F7.017813888888889
sS'SUCCESS_RATE'
p644
F0.72000848973651499
sS'QUOTA_USED_FAILURE'
p645
F1
sS'FAILURE_RATE'
p646
F0.27999151026348501
sS'QUOTA_USED_SUCCESS'
p647
F1
sS'NUM_SUCCESS_FIRST_TIME'
p648
F0.71767461259584842
sg635
F1.3293737221086319
ssS'LATENCY'
p649
g11
(tRp650
g635
F26.673016666666665
sstp651
a(g11
(tRp652
S'workload'
p653
g11
(tRp654
S'n_contents'
p655
I10000
sS'name'
p656
S'STATIONARY'
p657
sS'n_warmup'
p658
I720000
sS'rate'
p659
I100
sS'n_measured'
p660
I360000
sS'alpha'
p661
F1
ssS'cache_policy'
p662
g11
(tRp663
g656
S'LRU'
p664
ssS'desc'
p665
S'strategy zipf: 1.0'
p666
sS'strategy'
p667
g11
(tRp668
S'extra_quota'
p669
I2
sS'fan_out'
p670
I1
sg656
S'TFIB_DC'
p671
ssS'content_placement'
p672
g11
(tRp673
g656
S'UNIFORM'
p674
ssS'joint_cache_rsn_placement'
p675
g11
(tRp676
S'network_cache'
p677
F0.29999999999999999
sS'network_rsn'
p678
F38.399999999999999
sg656
S'CACHE_ALL_RSN_ALL'
p679
sS'rsn_cache_ratio'
p680
I128
ssS'warmup_strategy'
p681
g11
(tRp682
g669
I10000
sg670
I10
sg656
g671
ssS'topology'
p683
g11
(tRp684
S'ext_delay'
p685
I0
sS'source_ratio'
p686
F0.10000000000000001
sg656
S'ROCKET_FUEL'
p687
sS'asn'
p688
I3257
ssg11
(tRp689
S'SAT_RATE'
p690
g11
(tRp691
S'MEAN_CACHE_HIT'
p692
F0.80936388888888888
sS'MEAN_SERVER_HIT'
p693
F0.19006666666666666
sS'MEAN_SERVER_CACHE_HITS'
p694
F0.041763888888888892
sS'MEAN'
p695
F0.95766666666666667
ssS'CACHE_HIT_RATIO'
p696
g11
(tRp697
S'MEAN_OFF_PATH'
p698
F0.30052113008796677
sS'MEAN_ON_PATH'
p699
F0.50884275880092211
sg695
F0.80936388888888888
ssS'OVERHEAD'
p700
g11
(tRp701
S'DATA_HOPS'
p702
F1.1684138888888889
sS'INTEREST_HOPS'
p703
F6.4906833333333331
sS'SUCCESS_RATE'
p704
F0.74858218302899837
sS'QUOTA_USED_FAILURE'
p705
F5.9081680879563532
sS'FAILURE_RATE'
p706
F0.25141781697100163
sS'QUOTA_USED_SUCCESS'
p707
F68.349242571959152
sS'NUM_SUCCESS_FIRST_TIME'
p708
F0.75272741466461091
sg695
F1.0960871330780833
ssS'LATENCY'
p709
g11
(tRp710
g695
F17.557855555555555
sstp711
a(g11
(tRp712
S'workload'
p713
g11
(tRp714
S'n_contents'
p715
I10000
sS'name'
p716
S'STATIONARY'
p717
sS'n_warmup'
p718
I720000
sS'rate'
p719
I100
sS'n_measured'
p720
I360000
sS'alpha'
p721
F0.90000000000000002
ssS'cache_policy'
p722
g11
(tRp723
g716
S'LRU'
p724
ssS'desc'
p725
S'strategy zipf: 0.9'
p726
sS'strategy'
p727
g11
(tRp728
S'extra_quota'
p729
I2
sS'fan_out'
p730
I1
sg716
S'TFIB_SC'
p731
ssS'content_placement'
p732
g11
(tRp733
g716
S'UNIFORM'
p734
ssS'joint_cache_rsn_placement'
p735
g11
(tRp736
S'network_cache'
p737
F0.29999999999999999
sS'network_rsn'
p738
F38.399999999999999
sg716
S'CACHE_ALL_RSN_ALL'
p739
sS'rsn_cache_ratio'
p740
I128
ssS'warmup_strategy'
p741
g11
(tRp742
g729
I10000
sg730
I10
sg716
g731
ssS'topology'
p743
g11
(tRp744
S'ext_delay'
p745
I0
sS'source_ratio'
p746
F0.10000000000000001
sg716
S'ROCKET_FUEL'
p747
sS'asn'
p748
I3257
ssg11
(tRp749
S'SAT_RATE'
p750
g11
(tRp751
S'MEAN_CACHE_HIT'
p752
F0.71952499999999997
sS'MEAN_SERVER_HIT'
p753
F0.51417777777777773
sS'MEAN_SERVER_CACHE_HITS'
p754
F0.23386944444444444
sS'MEAN'
p755
F0.99983333333333335
ssS'CACHE_HIT_RATIO'
p756
g11
(tRp757
S'MEAN_OFF_PATH'
p758
F0.24201984540666871
sS'MEAN_ON_PATH'
p759
F0.47750515459333126
sg755
F0.71952499999999997
ssS'OVERHEAD'
p760
g11
(tRp761
S'DATA_HOPS'
p762
F2.623963888888889
sS'INTEREST_HOPS'
p763
F7.3918111111111111
sS'SUCCESS_RATE'
p764
F0.64400034418964847
sS'QUOTA_USED_FAILURE'
p765
F1
sS'FAILURE_RATE'
p766
F0.35599965581035148
sS'QUOTA_USED_SUCCESS'
p767
F1
sS'NUM_SUCCESS_FIRST_TIME'
p768
F0.64151988352507927
sg755
F1.3322025893204423
ssS'LATENCY'
p769
g11
(tRp770
g755
F35.536905555555556
sstp771
a(g11
(tRp772
S'workload'
p773
g11
(tRp774
S'n_contents'
p775
I10000
sS'name'
p776
S'STATIONARY'
p777
sS'n_warmup'
p778
I720000
sS'rate'
p779
I100
sS'n_measured'
p780
I360000
sS'alpha'
p781
F0.90000000000000002
ssS'cache_policy'
p782
g11
(tRp783
g776
S'LRU'
p784
ssS'desc'
p785
S'strategy zipf: 0.9'
p786
sS'strategy'
p787
g11
(tRp788
S'extra_quota'
p789
I2
sS'fan_out'
p790
I1
sg776
S'TFIB_DC'
p791
ssS'content_placement'
p792
g11
(tRp793
g776
S'UNIFORM'
p794
ssS'joint_cache_rsn_placement'
p795
g11
(tRp796
S'network_cache'
p797
F0.29999999999999999
sS'network_rsn'
p798
F38.399999999999999
sg776
S'CACHE_ALL_RSN_ALL'
p799
sS'rsn_cache_ratio'
p800
I128
ssS'warmup_strategy'
p801
g11
(tRp802
g789
I10000
sg790
I10
sg776
g791
ssS'topology'
p803
g11
(tRp804
S'ext_delay'
p805
I0
sS'source_ratio'
p806
F0.10000000000000001
sg776
S'ROCKET_FUEL'
p807
sS'asn'
p808
I3257
ssg11
(tRp809
S'SAT_RATE'
p810
g11
(tRp811
S'MEAN_CACHE_HIT'
p812
F0.73068055555555556
sS'MEAN_SERVER_HIT'
p813
F0.27066666666666667
sS'MEAN_SERVER_CACHE_HITS'
p814
F0.059569444444444446
sS'MEAN'
p815
F0.94177777777777782
ssS'CACHE_HIT_RATIO'
p816
g11
(tRp817
S'MEAN_OFF_PATH'
p818
F0.32339487079906237
sS'MEAN_ON_PATH'
p819
F0.40728568475649318
sg815
F0.73068055555555556
ssS'OVERHEAD'
p820
g11
(tRp821
S'DATA_HOPS'
p822
F1.6592555555555555
sS'INTEREST_HOPS'
p823
F6.9649222222222225
sS'SUCCESS_RATE'
p824
F0.68344434030800971
sS'QUOTA_USED_FAILURE'
p825
F4.7599414221290317
sS'FAILURE_RATE'
p826
F0.31655565969199029
sS'QUOTA_USED_SUCCESS'
p827
F19.084933450761305
sS'NUM_SUCCESS_FIRST_TIME'
p828
F0.68669909242495053
sg815
F1.111974988201982
ssS'LATENCY'
p829
g11
(tRp830
g815
F24.939677777777778
sstp831
a(g11
(tRp832
S'workload'
p833
g11
(tRp834
S'n_contents'
p835
I10000
sS'name'
p836
S'STATIONARY'
p837
sS'n_warmup'
p838
I720000
sS'rate'
p839
I100
sS'n_measured'
p840
I360000
sS'alpha'
p841
F0.80000000000000004
ssS'cache_policy'
p842
g11
(tRp843
g836
S'LRU'
p844
ssS'desc'
p845
S'strategy zipf: 0.8'
p846
sS'strategy'
p847
g11
(tRp848
S'extra_quota'
p849
I2
sS'fan_out'
p850
I1
sg836
S'TFIB_SC'
p851
ssS'content_placement'
p852
g11
(tRp853
g836
S'UNIFORM'
p854
ssS'joint_cache_rsn_placement'
p855
g11
(tRp856
S'network_cache'
p857
F0.29999999999999999
sS'network_rsn'
p858
F38.399999999999999
sg836
S'CACHE_ALL_RSN_ALL'
p859
sS'rsn_cache_ratio'
p860
I128
ssS'warmup_strategy'
p861
g11
(tRp862
g849
I10000
sg850
I10
sg836
g851
ssS'topology'
p863
g11
(tRp864
S'ext_delay'
p865
I0
sS'source_ratio'
p866
F0.10000000000000001
sg836
S'ROCKET_FUEL'
p867
sS'asn'
p868
I3257
ssg11
(tRp869
S'SAT_RATE'
p870
g11
(tRp871
S'MEAN_CACHE_HIT'
p872
F0.63549722222222227
sS'MEAN_SERVER_HIT'
p873
F0.6342444444444445
sS'MEAN_SERVER_CACHE_HITS'
p874
F0.26993055555555556
sS'MEAN'
p875
F0.99981111111111109
ssS'CACHE_HIT_RATIO'
p876
g11
(tRp877
S'MEAN_OFF_PATH'
p878
F0.26167396255143766
sS'MEAN_ON_PATH'
p879
F0.37382325967078461
sg875
F0.63549722222222227
ssS'OVERHEAD'
p880
g11
(tRp881
S'DATA_HOPS'
p882
F3.3229638888888888
sS'INTEREST_HOPS'
p883
F7.9797638888888889
sS'SUCCESS_RATE'
p884
F0.59563296825034795
sS'QUOTA_USED_FAILURE'
p885
F1
sS'FAILURE_RATE'
p886
F0.40436703174965205
sS'QUOTA_USED_SUCCESS'
p887
F1
sS'NUM_SUCCESS_FIRST_TIME'
p888
F0.59424543767854165
sg875
F1.3550142804752008
ssS'LATENCY'
p889
g11
(tRp890
g875
F43.786947222222224
sstp891
a(g11
(tRp892
S'workload'
p893
g11
(tRp894
S'n_contents'
p895
I10000
sS'name'
p896
S'STATIONARY'
p897
sS'n_warmup'
p898
I720000
sS'rate'
p899
I100
sS'n_measured'
p900
I360000
sS'alpha'
p901
F0.80000000000000004
ssS'cache_policy'
p902
g11
(tRp903
g896
S'LRU'
p904
ssS'desc'
p905
S'strategy zipf: 0.8'
p906
sS'strategy'
p907
g11
(tRp908
S'extra_quota'
p909
I2
sS'fan_out'
p910
I1
sg896
S'TFIB_DC'
p911
ssS'content_placement'
p912
g11
(tRp913
g896
S'UNIFORM'
p914
ssS'joint_cache_rsn_placement'
p915
g11
(tRp916
S'network_cache'
p917
F0.29999999999999999
sS'network_rsn'
p918
F38.399999999999999
sg896
S'CACHE_ALL_RSN_ALL'
p919
sS'rsn_cache_ratio'
p920
I128
ssS'warmup_strategy'
p921
g11
(tRp922
g909
I10000
sg910
I10
sg896
g911
ssS'topology'
p923
g11
(tRp924
S'ext_delay'
p925
I0
sS'source_ratio'
p926
F0.10000000000000001
sg896
S'ROCKET_FUEL'
p927
sS'asn'
p928
I3257
ssg11
(tRp929
S'SAT_RATE'
p930
g11
(tRp931
S'MEAN_CACHE_HIT'
p932
F0.64156666666666662
sS'MEAN_SERVER_HIT'
p933
F0.36950833333333333
sS'MEAN_SERVER_CACHE_HITS'
p934
F0.085672222222222219
sS'MEAN'
p935
F0.9254027777777778
ssS'CACHE_HIT_RATIO'
p936
g11
(tRp937
S'MEAN_OFF_PATH'
p938
F0.35051801300595903
sS'MEAN_ON_PATH'
p939
F0.29104865366070759
sg935
F0.64156666666666662
ssS'OVERHEAD'
p940
g11
(tRp941
S'DATA_HOPS'
p942
F2.2599805555555554
sS'INTEREST_HOPS'
p943
F7.4103888888888889
sS'SUCCESS_RATE'
p944
F0.63210658099872441
sS'QUOTA_USED_FAILURE'
p945
F3.7287140040720899
sS'FAILURE_RATE'
p946
F0.36789341900127559
sS'QUOTA_USED_SUCCESS'
p947
F10.825550410642597
sS'NUM_SUCCESS_FIRST_TIME'
p948
F0.63565689446613494
sg935
F1.153794894115175
ssS'LATENCY'
p949
g11
(tRp950
g935
F33.564327777777777
sstp951
a(g11
(tRp952
S'workload'
p953
g11
(tRp954
S'n_contents'
p955
I10000
sS'name'
p956
S'STATIONARY'
p957
sS'n_warmup'
p958
I720000
sS'rate'
p959
I100
sS'n_measured'
p960
I360000
sS'alpha'
p961
F0.69999999999999996
ssS'cache_policy'
p962
g11
(tRp963
g956
S'LRU'
p964
ssS'desc'
p965
S'strategy zipf: 0.7'
p966
sS'strategy'
p967
g11
(tRp968
S'extra_quota'
p969
I2
sS'fan_out'
p970
I1
sg956
S'TFIB_SC'
p971
ssS'content_placement'
p972
g11
(tRp973
g956
S'UNIFORM'
p974
ssS'joint_cache_rsn_placement'
p975
g11
(tRp976
S'network_cache'
p977
F0.29999999999999999
sS'network_rsn'
p978
F38.399999999999999
sg956
S'CACHE_ALL_RSN_ALL'
p979
sS'rsn_cache_ratio'
p980
I128
ssS'warmup_strategy'
p981
g11
(tRp982
g969
I10000
sg970
I10
sg956
g971
ssS'topology'
p983
g11
(tRp984
S'ext_delay'
p985
I0
sS'source_ratio'
p986
F0.10000000000000001
sg956
S'ROCKET_FUEL'
p987
sS'asn'
p988
I3257
ssg11
(tRp989
S'SAT_RATE'
p990
g11
(tRp991
S'MEAN_CACHE_HIT'
p992
F0.54712777777777777
sS'MEAN_SERVER_HIT'
p993
F0.74922500000000003
sS'MEAN_SERVER_CACHE_HITS'
p994
F0.29655277777777778
sS'MEAN'
p995
F0.99980000000000002
ssS'CACHE_HIT_RATIO'
p996
g11
(tRp997
S'MEAN_OFF_PATH'
p998
F0.26114290734475143
sS'MEAN_ON_PATH'
p999
F0.28598487043302634
sg995
F0.54712777777777777
ssS'OVERHEAD'
p1000
g11
(tRp1001
S'DATA_HOPS'
p1002
F4.0246111111111107
sS'INTEREST_HOPS'
p1003
F8.4321194444444441
sS'SUCCESS_RATE'
p1004
F0.53952433180838155
sS'QUOTA_USED_FAILURE'
p1005
F1
sS'FAILURE_RATE'
p1006
F0.46047566819161845
sS'QUOTA_USED_SUCCESS'
p1007
F1
sS'NUM_SUCCESS_FIRST_TIME'
p1008
F0.53700170567444483
sg995
F1.3588995576893157
ssS'LATENCY'
p1009
g11
(tRp1010
g995
F52.233308333333333
sstp1011
a(g11
(tRp1012
S'workload'
p1013
g11
(tRp1014
S'n_contents'
p1015
I10000
sS'name'
p1016
S'STATIONARY'
p1017
sS'n_warmup'
p1018
I720000
sS'rate'
p1019
I100
sS'n_measured'
p1020
I360000
sS'alpha'
p1021
F0.59999999999999998
ssS'cache_policy'
p1022
g11
(tRp1023
g1016
S'LRU'
p1024
ssS'desc'
p1025
S'strategy zipf: 0.6'
p1026
sS'strategy'
p1027
g11
(tRp1028
S'extra_quota'
p1029
I2
sS'fan_out'
p1030
I1
sg1016
S'TFIB_SC'
p1031
ssS'content_placement'
p1032
g11
(tRp1033
g1016
S'UNIFORM'
p1034
ssS'joint_cache_rsn_placement'
p1035
g11
(tRp1036
S'network_cache'
p1037
F0.29999999999999999
sS'network_rsn'
p1038
F38.399999999999999
sg1016
S'CACHE_ALL_RSN_ALL'
p1039
sS'rsn_cache_ratio'
p1040
I128
ssS'warmup_strategy'
p1041
g11
(tRp1042
g1029
I10000
sg1030
I10
sg1016
g1031
ssS'topology'
p1043
g11
(tRp1044
S'ext_delay'
p1045
I0
sS'source_ratio'
p1046
F0.10000000000000001
sg1016
S'ROCKET_FUEL'
p1047
sS'asn'
p1048
I3257
ssg11
(tRp1049
S'SAT_RATE'
p1050
g11
(tRp1051
S'MEAN_CACHE_HIT'
p1052
F0.46584722222222225
sS'MEAN_SERVER_HIT'
p1053
F0.83408333333333329
sS'MEAN_SERVER_CACHE_HITS'
p1054
F0.30020277777777776
sS'MEAN'
p1055
F0.99972777777777777
ssS'CACHE_HIT_RATIO'
p1056
g11
(tRp1057
S'MEAN_OFF_PATH'
p1058
F0.25480420962658262
sS'MEAN_ON_PATH'
p1059
F0.21104301259563962
sg1055
F0.46584722222222225
ssS'OVERHEAD'
p1060
g11
(tRp1061
S'DATA_HOPS'
p1062
F4.6098527777777774
sS'INTEREST_HOPS'
p1063
F8.6973277777777778
sS'SUCCESS_RATE'
p1064
F0.4858865678654633
sS'QUOTA_USED_FAILURE'
p1065
F1
sS'FAILURE_RATE'
p1066
F0.51411343213453675
sS'QUOTA_USED_SUCCESS'
p1067
F1
sS'NUM_SUCCESS_FIRST_TIME'
p1068
F0.48529454114607545
sg1055
F1.3444270940422671
ssS'LATENCY'
p1069
g11
(tRp1070
g1055
F58.329005555555554
sstp1071
a(g11
(tRp1072
S'workload'
p1073
g11
(tRp1074
S'n_contents'
p1075
I10000
sS'name'
p1076
S'STATIONARY'
p1077
sS'n_warmup'
p1078
I720000
sS'rate'
p1079
I100
sS'n_measured'
p1080
I360000
sS'alpha'
p1081
F0.69999999999999996
ssS'cache_policy'
p1082
g11
(tRp1083
g1076
S'LRU'
p1084
ssS'desc'
p1085
S'strategy zipf: 0.7'
p1086
sS'strategy'
p1087
g11
(tRp1088
S'extra_quota'
p1089
I2
sS'fan_out'
p1090
I1
sg1076
S'TFIB_DC'
p1091
ssS'content_placement'
p1092
g11
(tRp1093
g1076
S'UNIFORM'
p1094
ssS'joint_cache_rsn_placement'
p1095
g11
(tRp1096
S'network_cache'
p1097
F0.29999999999999999
sS'network_rsn'
p1098
F38.399999999999999
sg1076
S'CACHE_ALL_RSN_ALL'
p1099
sS'rsn_cache_ratio'
p1100
I128
ssS'warmup_strategy'
p1101
g11
(tRp1102
g1089
I10000
sg1090
I10
sg1076
g1091
ssS'topology'
p1103
g11
(tRp1104
S'ext_delay'
p1105
I0
sS'source_ratio'
p1106
F0.10000000000000001
sg1076
S'ROCKET_FUEL'
p1107
sS'asn'
p1108
I3257
ssg11
(tRp1109
S'SAT_RATE'
p1110
g11
(tRp1111
S'MEAN_CACHE_HIT'
p1112
F0.55285277777777775
sS'MEAN_SERVER_HIT'
p1113
F0.47100277777777777
sS'MEAN_SERVER_CACHE_HITS'
p1114
F0.11161388888888889
sS'MEAN'
p1115
F0.91224166666666662
ssS'CACHE_HIT_RATIO'
p1116
g11
(tRp1117
S'MEAN_OFF_PATH'
p1118
F0.32807362149608776
sS'MEAN_ON_PATH'
p1119
F0.22477915628168998
sg1115
F0.55285277777777775
ssS'OVERHEAD'
p1120
g11
(tRp1121
S'DATA_HOPS'
p1122
F2.8538333333333332
sS'INTEREST_HOPS'
p1123
F7.8624444444444448
sS'SUCCESS_RATE'
p1124
F0.56610888732381814
sS'QUOTA_USED_FAILURE'
p1125
F3.0987292790210907
sS'FAILURE_RATE'
p1126
F0.43389111267618191
sS'QUOTA_USED_SUCCESS'
p1127
F6.3441664412938383
sS'NUM_SUCCESS_FIRST_TIME'
p1128
F0.56899456331521103
sg1115
F1.160486834933482
ssS'LATENCY'
p1129
g11
(tRp1130
g1115
F41.873455555555559
sstp1131
a(g11
(tRp1132
S'workload'
p1133
g11
(tRp1134
S'n_contents'
p1135
I10000
sS'name'
p1136
S'STATIONARY'
p1137
sS'n_warmup'
p1138
I720000
sS'rate'
p1139
I100
sS'n_measured'
p1140
I360000
sS'alpha'
p1141
F0.5
ssS'cache_policy'
p1142
g11
(tRp1143
g1136
S'LRU'
p1144
ssS'desc'
p1145
S'strategy zipf: 0.5'
p1146
sS'strategy'
p1147
g11
(tRp1148
S'extra_quota'
p1149
I2
sS'fan_out'
p1150
I1
sg1136
S'TFIB_SC'
p1151
ssS'content_placement'
p1152
g11
(tRp1153
g1136
S'UNIFORM'
p1154
ssS'joint_cache_rsn_placement'
p1155
g11
(tRp1156
S'network_cache'
p1157
F0.29999999999999999
sS'network_rsn'
p1158
F38.399999999999999
sg1136
S'CACHE_ALL_RSN_ALL'
p1159
sS'rsn_cache_ratio'
p1160
I128
ssS'warmup_strategy'
p1161
g11
(tRp1162
g1149
I10000
sg1150
I10
sg1136
g1151
ssS'topology'
p1163
g11
(tRp1164
S'ext_delay'
p1165
I0
sS'source_ratio'
p1166
F0.10000000000000001
sg1136
S'ROCKET_FUEL'
p1167
sS'asn'
p1168
I3257
ssg11
(tRp1169
S'SAT_RATE'
p1170
g11
(tRp1171
S'MEAN_CACHE_HIT'
p1172
F0.40099166666666669
sS'MEAN_SERVER_HIT'
p1173
F0.90744722222222218
sS'MEAN_SERVER_CACHE_HITS'
p1174
F0.3086888888888889
sS'MEAN'
p1175
F0.99975000000000003
ssS'CACHE_HIT_RATIO'
p1176
g11
(tRp1177
S'MEAN_OFF_PATH'
p1178
F0.24314174227981605
sS'MEAN_ON_PATH'
p1179
F0.15784992438685064
sg1175
F0.40099166666666669
ssS'OVERHEAD'
p1180
g11
(tRp1181
S'DATA_HOPS'
p1182
F5.0876000000000001
sS'INTEREST_HOPS'
p1183
F8.933583333333333
sS'SUCCESS_RATE'
p1184
F0.44000059721325363
sS'QUOTA_USED_FAILURE'
p1185
F1
sS'FAILURE_RATE'
p1186
F0.55999940278674631
sS'QUOTA_USED_SUCCESS'
p1187
F1
sS'NUM_SUCCESS_FIRST_TIME'
p1188
F0.43924761304022475
sg1175
F1.327120669056153
ssS'LATENCY'
p1189
g11
(tRp1190
g1175
F64.003380555555552
sstp1191
a(g11
(tRp1192
S'workload'
p1193
g11
(tRp1194
S'n_contents'
p1195
I10000
sS'name'
p1196
S'STATIONARY'
p1197
sS'n_warmup'
p1198
I720000
sS'rate'
p1199
I100
sS'n_measured'
p1200
I360000
sS'alpha'
p1201
F0.20000000000000001
ssS'cache_policy'
p1202
g11
(tRp1203
g1196
S'LRU'
p1204
ssS'desc'
p1205
S'strategy zipf: 0.2'
p1206
sS'strategy'
p1207
g11
(tRp1208
S'extra_quota'
p1209
I2
sS'fan_out'
p1210
I1
sg1196
S'TFIB_SC'
p1211
ssS'content_placement'
p1212
g11
(tRp1213
g1196
S'UNIFORM'
p1214
ssS'joint_cache_rsn_placement'
p1215
g11
(tRp1216
S'network_cache'
p1217
F0.29999999999999999
sS'network_rsn'
p1218
F38.399999999999999
sg1196
S'CACHE_ALL_RSN_ALL'
p1219
sS'rsn_cache_ratio'
p1220
I128
ssS'warmup_strategy'
p1221
g11
(tRp1222
g1209
I10000
sg1210
I10
sg1196
g1211
ssS'topology'
p1223
g11
(tRp1224
S'ext_delay'
p1225
I0
sS'source_ratio'
p1226
F0.10000000000000001
sg1196
S'ROCKET_FUEL'
p1227
sS'asn'
p1228
I3257
ssg11
(tRp1229
S'SAT_RATE'
p1230
g11
(tRp1231
S'MEAN_CACHE_HIT'
p1232
F0.28611944444444443
sS'MEAN_SERVER_HIT'
p1233
F0.97794166666666671
sS'MEAN_SERVER_CACHE_HITS'
p1234
F0.26435833333333331
sS'MEAN'
p1235
F0.99970277777777783
ssS'CACHE_HIT_RATIO'
p1236
g11
(tRp1237
S'MEAN_OFF_PATH'
p1238
F0.21025706387261517
sS'MEAN_ON_PATH'
p1239
F0.075862380571829258
sg1235
F0.28611944444444443
ssS'OVERHEAD'
p1240
g11
(tRp1241
S'DATA_HOPS'
p1242
F5.8030083333333335
sS'INTEREST_HOPS'
p1243
F9.1713861111111115
sS'SUCCESS_RATE'
p1244
F0.34433834629297333
sS'QUOTA_USED_FAILURE'
p1245
F1
sS'FAILURE_RATE'
p1246
F0.65566165370702667
sS'QUOTA_USED_SUCCESS'
p1247
F1
sS'NUM_SUCCESS_FIRST_TIME'
p1248
F0.34368239664612765
sg1235
F1.2685325916314016
ssS'LATENCY'
p1249
g11
(tRp1250
g1235
F69.259861111111107
sstp1251
a(g11
(tRp1252
S'workload'
p1253
g11
(tRp1254
S'n_contents'
p1255
I10000
sS'name'
p1256
S'STATIONARY'
p1257
sS'n_warmup'
p1258
I720000
sS'rate'
p1259
I100
sS'n_measured'
p1260
I360000
sS'alpha'
p1261
F0.40000000000000002
ssS'cache_policy'
p1262
g11
(tRp1263
g1256
S'LRU'
p1264
ssS'desc'
p1265
S'strategy zipf: 0.4'
p1266
sS'strategy'
p1267
g11
(tRp1268
S'extra_quota'
p1269
I2
sS'fan_out'
p1270
I1
sg1256
S'TFIB_SC'
p1271
ssS'content_placement'
p1272
g11
(tRp1273
g1256
S'UNIFORM'
p1274
ssS'joint_cache_rsn_placement'
p1275
g11
(tRp1276
S'network_cache'
p1277
F0.29999999999999999
sS'network_rsn'
p1278
F38.399999999999999
sg1256
S'CACHE_ALL_RSN_ALL'
p1279
sS'rsn_cache_ratio'
p1280
I128
ssS'warmup_strategy'
p1281
g11
(tRp1282
g1269
I10000
sg1270
I10
sg1256
g1271
ssS'topology'
p1283
g11
(tRp1284
S'ext_delay'
p1285
I0
sS'source_ratio'
p1286
F0.10000000000000001
sg1256
S'ROCKET_FUEL'
p1287
sS'asn'
p1288
I3257
ssg11
(tRp1289
S'SAT_RATE'
p1290
g11
(tRp1291
S'MEAN_CACHE_HIT'
p1292
F0.34770555555555555
sS'MEAN_SERVER_HIT'
p1293
F0.94591111111111115
sS'MEAN_SERVER_CACHE_HITS'
p1294
F0.29389444444444446
sS'MEAN'
p1295
F0.99972222222222218
ssS'CACHE_HIT_RATIO'
p1296
g11
(tRp1297
S'MEAN_OFF_PATH'
p1298
F0.23355063967945167
sS'MEAN_ON_PATH'
p1299
F0.11415491587610388
sg1295
F0.34770555555555555
ssS'OVERHEAD'
p1300
g11
(tRp1301
S'DATA_HOPS'
p1302
F5.4470361111111112
sS'INTEREST_HOPS'
p1303
F9.0936749999999993
sS'SUCCESS_RATE'
p1304
F0.40383945040740149
sS'QUOTA_USED_FAILURE'
p1305
F1
sS'FAILURE_RATE'
p1306
F0.59616054959259845
sS'QUOTA_USED_SUCCESS'
p1307
F1
sS'NUM_SUCCESS_FIRST_TIME'
p1308
F0.40314766745567993
sg1295
F1.3087218671853293
ssS'LATENCY'
p1309
g11
(tRp1310
g1295
F66.708497222222221
sstp1311
a(g11
(tRp1312
S'workload'
p1313
g11
(tRp1314
S'n_contents'
p1315
I10000
sS'name'
p1316
S'STATIONARY'
p1317
sS'n_warmup'
p1318
I720000
sS'rate'
p1319
I100
sS'n_measured'
p1320
I360000
sS'alpha'
p1321
F0.29999999999999999
ssS'cache_policy'
p1322
g11
(tRp1323
g1316
S'LRU'
p1324
ssS'desc'
p1325
S'strategy zipf: 0.3'
p1326
sS'strategy'
p1327
g11
(tRp1328
S'extra_quota'
p1329
I2
sS'fan_out'
p1330
I1
sg1316
S'TFIB_SC'
p1331
ssS'content_placement'
p1332
g11
(tRp1333
g1316
S'UNIFORM'
p1334
ssS'joint_cache_rsn_placement'
p1335
g11
(tRp1336
S'network_cache'
p1337
F0.29999999999999999
sS'network_rsn'
p1338
F38.399999999999999
sg1316
S'CACHE_ALL_RSN_ALL'
p1339
sS'rsn_cache_ratio'
p1340
I128
ssS'warmup_strategy'
p1341
g11
(tRp1342
g1329
I10000
sg1330
I10
sg1316
g1331
ssS'topology'
p1343
g11
(tRp1344
S'ext_delay'
p1345
I0
sS'source_ratio'
p1346
F0.10000000000000001
sg1316
S'ROCKET_FUEL'
p1347
sS'asn'
p1348
I3257
ssg11
(tRp1349
S'SAT_RATE'
p1350
g11
(tRp1351
S'MEAN_CACHE_HIT'
p1352
F0.31368888888888891
sS'MEAN_SERVER_HIT'
p1353
F0.96893333333333331
sS'MEAN_SERVER_CACHE_HITS'
p1354
F0.28286944444444445
sS'MEAN'
p1355
F0.99975277777777782
ssS'CACHE_HIT_RATIO'
p1356
g11
(tRp1357
S'MEAN_OFF_PATH'
p1358
F0.22281177448976056
sS'MEAN_ON_PATH'
p1359
F0.09087711439912835
sg1355
F0.31368888888888891
ssS'OVERHEAD'
p1360
g11
(tRp1361
S'DATA_HOPS'
p1362
F5.6451611111111113
sS'INTEREST_HOPS'
p1363
F9.1513111111111112
sS'SUCCESS_RATE'
p1364
F0.37214894520337793
sS'QUOTA_USED_FAILURE'
p1365
F1
sS'FAILURE_RATE'
p1366
F0.62785105479662207
sS'QUOTA_USED_SUCCESS'
p1367
F1
sS'NUM_SUCCESS_FIRST_TIME'
p1368
F0.37180157242800504
sg1355
F1.289599373178369
ssS'LATENCY'
p1369
g11
(tRp1370
g1355
F68.589275000000001
sstp1371
a(g11
(tRp1372
S'workload'
p1373
g11
(tRp1374
S'n_contents'
p1375
I10000
sS'name'
p1376
S'STATIONARY'
p1377
sS'n_warmup'
p1378
I720000
sS'rate'
p1379
I100
sS'n_measured'
p1380
I360000
sS'alpha'
p1381
F0.10000000000000001
ssS'cache_policy'
p1382
g11
(tRp1383
g1376
S'LRU'
p1384
ssS'desc'
p1385
S'strategy zipf: 0.1'
p1386
sS'strategy'
p1387
g11
(tRp1388
S'extra_quota'
p1389
I2
sS'fan_out'
p1390
I1
sg1376
S'TFIB_SC'
p1391
ssS'content_placement'
p1392
g11
(tRp1393
g1376
S'UNIFORM'
p1394
ssS'joint_cache_rsn_placement'
p1395
g11
(tRp1396
S'network_cache'
p1397
F0.29999999999999999
sS'network_rsn'
p1398
F38.399999999999999
sg1376
S'CACHE_ALL_RSN_ALL'
p1399
sS'rsn_cache_ratio'
p1400
I128
ssS'warmup_strategy'
p1401
g11
(tRp1402
g1389
I10000
sg1390
I10
sg1376
g1391
ssS'topology'
p1403
g11
(tRp1404
S'ext_delay'
p1405
I0
sS'source_ratio'
p1406
F0.10000000000000001
sg1376
S'ROCKET_FUEL'
p1407
sS'asn'
p1408
I3257
ssg11
(tRp1409
S'SAT_RATE'
p1410
g11
(tRp1411
S'MEAN_CACHE_HIT'
p1412
F0.27318055555555554
sS'MEAN_SERVER_HIT'
p1413
F0.97987777777777774
sS'MEAN_SERVER_CACHE_HITS'
p1414
F0.25329166666666669
sS'MEAN'
p1415
F0.99976666666666669
ssS'CACHE_HIT_RATIO'
p1416
g11
(tRp1417
S'MEAN_OFF_PATH'
p1418
F0.20317844562525908
sS'MEAN_ON_PATH'
p1419
F0.070002109930296458
sg1415
F0.27318055555555554
ssS'OVERHEAD'
p1420
g11
(tRp1421
S'DATA_HOPS'
p1422
F5.8507388888888885
sS'INTEREST_HOPS'
p1423
F9.1653888888888897
sS'SUCCESS_RATE'
p1424
F0.32932027219023408
sS'QUOTA_USED_FAILURE'
p1425
F1
sS'FAILURE_RATE'
p1426
F0.67067972780976592
sS'QUOTA_USED_SUCCESS'
p1427
F1
sS'NUM_SUCCESS_FIRST_TIME'
p1428
F0.328299070999515
sg1415
F1.2567932517587437
ssS'LATENCY'
p1429
g11
(tRp1430
g1415
F69.61378055555555
sstp1431
a(g11
(tRp1432
S'workload'
p1433
g11
(tRp1434
S'n_contents'
p1435
I10000
sS'name'
p1436
S'STATIONARY'
p1437
sS'n_warmup'
p1438
I720000
sS'rate'
p1439
I100
sS'n_measured'
p1440
I360000
sS'alpha'
p1441
F0.59999999999999998
ssS'cache_policy'
p1442
g11
(tRp1443
g1436
S'LRU'
p1444
ssS'desc'
p1445
S'strategy zipf: 0.6'
p1446
sS'strategy'
p1447
g11
(tRp1448
S'extra_quota'
p1449
I2
sS'fan_out'
p1450
I1
sg1436
S'TFIB_DC'
p1451
ssS'content_placement'
p1452
g11
(tRp1453
g1436
S'UNIFORM'
p1454
ssS'joint_cache_rsn_placement'
p1455
g11
(tRp1456
S'network_cache'
p1457
F0.29999999999999999
sS'network_rsn'
p1458
F38.399999999999999
sg1436
S'CACHE_ALL_RSN_ALL'
p1459
sS'rsn_cache_ratio'
p1460
I128
ssS'warmup_strategy'
p1461
g11
(tRp1462
g1449
I10000
sg1450
I10
sg1436
g1451
ssS'topology'
p1463
g11
(tRp1464
S'ext_delay'
p1465
I0
sS'source_ratio'
p1466
F0.10000000000000001
sg1436
S'ROCKET_FUEL'
p1467
sS'asn'
p1468
I3257
ssg11
(tRp1469
S'SAT_RATE'
p1470
g11
(tRp1471
S'MEAN_CACHE_HIT'
p1472
F0.47984444444444446
sS'MEAN_SERVER_HIT'
p1473
F0.56823055555555557
sS'MEAN_SERVER_CACHE_HITS'
p1474
F0.14203611111111111
sS'MEAN'
p1475
F0.90603888888888884
ssS'CACHE_HIT_RATIO'
p1476
g11
(tRp1477
S'MEAN_OFF_PATH'
p1478
F0.3191618496343826
sS'MEAN_ON_PATH'
p1479
F0.16068259481006186
sg1475
F0.47984444444444446
ssS'OVERHEAD'
p1480
g11
(tRp1481
S'DATA_HOPS'
p1482
F3.4171583333333335
sS'INTEREST_HOPS'
p1483
F8.2225999999999999
sS'SUCCESS_RATE'
p1484
F0.51644852179867418
sS'QUOTA_USED_FAILURE'
p1485
F2.6039835913001017
sS'FAILURE_RATE'
p1486
F0.48355147820132577
sS'QUOTA_USED_SUCCESS'
p1487
F4.6066303510291204
sS'NUM_SUCCESS_FIRST_TIME'
p1488
F0.51764111379371402
sg1475
F1.1847664130188182
ssS'LATENCY'
p1489
g11
(tRp1490
g1475
F49.496819444444448
sstp1491
a(g11
(tRp1492
S'workload'
p1493
g11
(tRp1494
S'n_contents'
p1495
I10000
sS'name'
p1496
S'STATIONARY'
p1497
sS'n_warmup'
p1498
I720000
sS'rate'
p1499
I100
sS'n_measured'
p1500
I360000
sS'alpha'
p1501
F0.5
ssS'cache_policy'
p1502
g11
(tRp1503
g1496
S'LRU'
p1504
ssS'desc'
p1505
S'strategy zipf: 0.5'
p1506
sS'strategy'
p1507
g11
(tRp1508
S'extra_quota'
p1509
I2
sS'fan_out'
p1510
I1
sg1496
S'TFIB_DC'
p1511
ssS'content_placement'
p1512
g11
(tRp1513
g1496
S'UNIFORM'
p1514
ssS'joint_cache_rsn_placement'
p1515
g11
(tRp1516
S'network_cache'
p1517
F0.29999999999999999
sS'network_rsn'
p1518
F38.399999999999999
sg1496
S'CACHE_ALL_RSN_ALL'
p1519
sS'rsn_cache_ratio'
p1520
I128
ssS'warmup_strategy'
p1521
g11
(tRp1522
g1509
I10000
sg1510
I10
sg1496
g1511
ssS'topology'
p1523
g11
(tRp1524
S'ext_delay'
p1525
I0
sS'source_ratio'
p1526
F0.10000000000000001
sg1496
S'ROCKET_FUEL'
p1527
sS'asn'
p1528
I3257
ssg11
(tRp1529
S'SAT_RATE'
p1530
g11
(tRp1531
S'MEAN_CACHE_HIT'
p1532
F0.41085555555555553
sS'MEAN_SERVER_HIT'
p1533
F0.66516666666666668
sS'MEAN_SERVER_CACHE_HITS'
p1534
F0.17145277777777779
sS'MEAN'
p1535
F0.90456944444444443
ssS'CACHE_HIT_RATIO'
p1536
g11
(tRp1537
S'MEAN_OFF_PATH'
p1538
F0.30177505627723511
sS'MEAN_ON_PATH'
p1539
F0.10908049927832042
sg1535
F0.41085555555555553
ssS'OVERHEAD'
p1540
g11
(tRp1541
S'DATA_HOPS'
p1542
F3.9748083333333333
sS'INTEREST_HOPS'
p1543
F8.4969888888888896
sS'SUCCESS_RATE'
p1544
F0.46728600332929193
sS'QUOTA_USED_FAILURE'
p1545
F2.2171702962082693
sS'FAILURE_RATE'
p1546
F0.53271399667070807
sS'QUOTA_USED_SUCCESS'
p1547
F3.3358519455713416
sS'NUM_SUCCESS_FIRST_TIME'
p1548
F0.46824694058262567
sg1535
F1.2060710282669778
ssS'LATENCY'
p1549
g11
(tRp1550
g1535
F56.38366666666667
sstp1551
a(g11
(tRp1552
S'workload'
p1553
g11
(tRp1554
S'n_contents'
p1555
I10000
sS'name'
p1556
S'STATIONARY'
p1557
sS'n_warmup'
p1558
I720000
sS'rate'
p1559
I100
sS'n_measured'
p1560
I360000
sS'alpha'
p1561
F0.40000000000000002
ssS'cache_policy'
p1562
g11
(tRp1563
g1556
S'LRU'
p1564
ssS'desc'
p1565
S'strategy zipf: 0.4'
p1566
sS'strategy'
p1567
g11
(tRp1568
S'extra_quota'
p1569
I2
sS'fan_out'
p1570
I1
sg1556
S'TFIB_DC'
p1571
ssS'content_placement'
p1572
g11
(tRp1573
g1556
S'UNIFORM'
p1574
ssS'joint_cache_rsn_placement'
p1575
g11
(tRp1576
S'network_cache'
p1577
F0.29999999999999999
sS'network_rsn'
p1578
F38.399999999999999
sg1556
S'CACHE_ALL_RSN_ALL'
p1579
sS'rsn_cache_ratio'
p1580
I128
ssS'warmup_strategy'
p1581
g11
(tRp1582
g1569
I10000
sg1570
I10
sg1556
g1571
ssS'topology'
p1583
g11
(tRp1584
S'ext_delay'
p1585
I0
sS'source_ratio'
p1586
F0.10000000000000001
sg1556
S'ROCKET_FUEL'
p1587
sS'asn'
p1588
I3257
ssg11
(tRp1589
S'SAT_RATE'
p1590
g11
(tRp1591
S'MEAN_CACHE_HIT'
p1592
F0.35560555555555556
sS'MEAN_SERVER_HIT'
p1593
F0.73692777777777774
sS'MEAN_SERVER_CACHE_HITS'
p1594
F0.1862638888888889
sS'MEAN'
p1595
F0.90626944444444446
ssS'CACHE_HIT_RATIO'
p1596
g11
(tRp1597
S'MEAN_OFF_PATH'
p1598
F0.28342893173867056
sS'MEAN_ON_PATH'
p1599
F0.072176623816884999
sg1595
F0.35560555555555556
ssS'OVERHEAD'
p1600
g11
(tRp1601
S'DATA_HOPS'
p1602
F4.4182055555555557
sS'INTEREST_HOPS'
p1603
F8.7104722222222222
sS'SUCCESS_RATE'
p1604
F0.42574491743174409
sS'QUOTA_USED_FAILURE'
p1605
F2.0105664804738836
sS'FAILURE_RATE'
p1606
F0.57425508256825597
sS'QUOTA_USED_SUCCESS'
p1607
F2.8205257175841081
sS'NUM_SUCCESS_FIRST_TIME'
p1608
F0.42701044309398783
sg1595
F1.2191002798407391
ssS'LATENCY'
p1609
g11
(tRp1610
g1595
F61.553063888888886
sstp1611
a(g11
(tRp1612
S'workload'
p1613
g11
(tRp1614
S'n_contents'
p1615
I10000
sS'name'
p1616
S'STATIONARY'
p1617
sS'n_warmup'
p1618
I720000
sS'rate'
p1619
I100
sS'n_measured'
p1620
I360000
sS'alpha'
p1621
F0.29999999999999999
ssS'cache_policy'
p1622
g11
(tRp1623
g1616
S'LRU'
p1624
ssS'desc'
p1625
S'strategy zipf: 0.3'
p1626
sS'strategy'
p1627
g11
(tRp1628
S'extra_quota'
p1629
I2
sS'fan_out'
p1630
I1
sg1616
S'TFIB_DC'
p1631
ssS'content_placement'
p1632
g11
(tRp1633
g1616
S'UNIFORM'
p1634
ssS'joint_cache_rsn_placement'
p1635
g11
(tRp1636
S'network_cache'
p1637
F0.29999999999999999
sS'network_rsn'
p1638
F38.399999999999999
sg1616
S'CACHE_ALL_RSN_ALL'
p1639
sS'rsn_cache_ratio'
p1640
I128
ssS'warmup_strategy'
p1641
g11
(tRp1642
g1629
I10000
sg1630
I10
sg1616
g1631
ssS'topology'
p1643
g11
(tRp1644
S'ext_delay'
p1645
I0
sS'source_ratio'
p1646
F0.10000000000000001
sg1616
S'ROCKET_FUEL'
p1647
sS'asn'
p1648
I3257
ssg11
(tRp1649
S'SAT_RATE'
p1650
g11
(tRp1651
S'MEAN_CACHE_HIT'
p1652
F0.31722499999999998
sS'MEAN_SERVER_HIT'
p1653
F0.79265555555555556
sS'MEAN_SERVER_CACHE_HITS'
p1654
F0.19766944444444445
sS'MEAN'
p1655
F0.91221111111111108
ssS'CACHE_HIT_RATIO'
p1656
g11
(tRp1657
S'MEAN_OFF_PATH'
p1658
F0.2597251455987506
sS'MEAN_ON_PATH'
p1659
F0.057499854401249384
sg1655
F0.31722499999999998
ssS'OVERHEAD'
p1660
g11
(tRp1661
S'DATA_HOPS'
p1662
F4.7694916666666662
sS'INTEREST_HOPS'
p1663
F8.8422055555555552
sS'SUCCESS_RATE'
p1664
F0.38781899810964082
sS'QUOTA_USED_FAILURE'
p1665
F1.8355470519922741
sS'FAILURE_RATE'
p1666
F0.61218100189035918
sS'QUOTA_USED_SUCCESS'
p1667
F2.3895028210502982
sS'NUM_SUCCESS_FIRST_TIME'
p1668
F0.38894471196580538
sg1655
F1.2224570335814078
ssS'LATENCY'
p1669
g11
(tRp1670
g1655
F64.881188888888886
sstp1671
a(g11
(tRp1672
S'workload'
p1673
g11
(tRp1674
S'n_contents'
p1675
I10000
sS'name'
p1676
S'STATIONARY'
p1677
sS'n_warmup'
p1678
I720000
sS'rate'
p1679
I100
sS'n_measured'
p1680
I360000
sS'alpha'
p1681
F0.20000000000000001
ssS'cache_policy'
p1682
g11
(tRp1683
g1676
S'LRU'
p1684
ssS'desc'
p1685
S'strategy zipf: 0.2'
p1686
sS'strategy'
p1687
g11
(tRp1688
S'extra_quota'
p1689
I2
sS'fan_out'
p1690
I1
sg1676
S'TFIB_DC'
p1691
ssS'content_placement'
p1692
g11
(tRp1693
g1676
S'UNIFORM'
p1694
ssS'joint_cache_rsn_placement'
p1695
g11
(tRp1696
S'network_cache'
p1697
F0.29999999999999999
sS'network_rsn'
p1698
F38.399999999999999
sg1676
S'CACHE_ALL_RSN_ALL'
p1699
sS'rsn_cache_ratio'
p1700
I128
ssS'warmup_strategy'
p1701
g11
(tRp1702
g1689
I10000
sg1690
I10
sg1676
g1691
ssS'topology'
p1703
g11
(tRp1704
S'ext_delay'
p1705
I0
sS'source_ratio'
p1706
F0.10000000000000001
sg1676
S'ROCKET_FUEL'
p1707
sS'asn'
p1708
I3257
ssg11
(tRp1709
S'SAT_RATE'
p1710
g11
(tRp1711
S'MEAN_CACHE_HIT'
p1712
F0.28996944444444445
sS'MEAN_SERVER_HIT'
p1713
F0.82788055555555551
sS'MEAN_SERVER_CACHE_HITS'
p1714
F0.19854722222222224
sS'MEAN'
p1715
F0.9193027777777778
ssS'CACHE_HIT_RATIO'
p1716
g11
(tRp1717
S'MEAN_OFF_PATH'
p1718
F0.2410132546107856
sS'MEAN_ON_PATH'
p1719
F0.048956189833658847
sg1715
F0.28996944444444445
ssS'OVERHEAD'
p1720
g11
(tRp1721
S'DATA_HOPS'
p1722
F5.0260333333333334
sS'INTEREST_HOPS'
p1723
F8.9337638888888886
sS'SUCCESS_RATE'
p1724
F0.35832354007182943
sS'QUOTA_USED_FAILURE'
p1725
F1.7175308191760839
sS'FAILURE_RATE'
p1726
F0.64167645992817057
sS'QUOTA_USED_SUCCESS'
p1727
F2.1443151711241786
sS'NUM_SUCCESS_FIRST_TIME'
p1728
F0.35883497674703685
sg1715
F1.219855627302092
ssS'LATENCY'
p1729
g11
(tRp1730
g1715
F66.904894444444437
sstp1731
a(g11
(tRp1732
S'workload'
p1733
g11
(tRp1734
S'n_contents'
p1735
I10000
sS'name'
p1736
S'STATIONARY'
p1737
sS'n_warmup'
p1738
I720000
sS'rate'
p1739
I100
sS'n_measured'
p1740
I360000
sS'alpha'
p1741
F0.10000000000000001
ssS'cache_policy'
p1742
g11
(tRp1743
g1736
S'LRU'
p1744
ssS'desc'
p1745
S'strategy zipf: 0.1'
p1746
sS'strategy'
p1747
g11
(tRp1748
S'extra_quota'
p1749
I2
sS'fan_out'
p1750
I1
sg1736
S'TFIB_DC'
p1751
ssS'content_placement'
p1752
g11
(tRp1753
g1736
S'UNIFORM'
p1754
ssS'joint_cache_rsn_placement'
p1755
g11
(tRp1756
S'network_cache'
p1757
F0.29999999999999999
sS'network_rsn'
p1758
F38.399999999999999
sg1736
S'CACHE_ALL_RSN_ALL'
p1759
sS'rsn_cache_ratio'
p1760
I128
ssS'warmup_strategy'
p1761
g11
(tRp1762
g1749
I10000
sg1750
I10
sg1736
g1751
ssS'topology'
p1763
g11
(tRp1764
S'ext_delay'
p1765
I0
sS'source_ratio'
p1766
F0.10000000000000001
sg1736
S'ROCKET_FUEL'
p1767
sS'asn'
p1768
I3257
ssg11
(tRp1769
S'SAT_RATE'
p1770
g11
(tRp1771
S'MEAN_CACHE_HIT'
p1772
F0.27761388888888888
sS'MEAN_SERVER_HIT'
p1773
F0.84296666666666664
sS'MEAN_SERVER_CACHE_HITS'
p1774
F0.19629166666666667
sS'MEAN'
p1775
F0.92428888888888894
ssS'CACHE_HIT_RATIO'
p1776
g11
(tRp1777
S'MEAN_OFF_PATH'
p1778
F0.23179205223482868
sS'MEAN_ON_PATH'
p1779
F0.0458218366540602
sg1775
F0.27761388888888888
ssS'OVERHEAD'
p1780
g11
(tRp1781
S'DATA_HOPS'
p1782
F5.1310472222222225
sS'INTEREST_HOPS'
p1783
F8.9407083333333333
sS'SUCCESS_RATE'
p1784
F0.34468487686564436
sS'QUOTA_USED_FAILURE'
p1785
F1.6619608199018914
sS'FAILURE_RATE'
p1786
F0.65531512313435558
sS'QUOTA_USED_SUCCESS'
p1787
F2.065053061734806
sS'NUM_SUCCESS_FIRST_TIME'
p1788
F0.34462686966731298
sg1775
F1.2159648258120357
ssS'LATENCY'
p1789
g11
(tRp1790
g1775
F67.438094444444445
sstp1791
atRp1792
sb.