ccopy_reg
_reconstructor
p1
(cicarus.results.readwrite
ResultSet
p2
c__builtin__
object
p3
NtRp4
(dp5
S'attr'
p6
(dp7
sS'_results'
p8
ccollections
deque
p9
((lp10
(cicarus.util
Tree
p11
(tRp12
S'workload'
p13
g11
(tRp14
S'n_contents'
p15
I10000
sS'name'
p16
S'STATIONARY'
p17
sS'n_warmup'
p18
I720000
sS'rate'
p19
I100
sS'n_measured'
p20
I360000
sS'alpha'
p21
F0.69999999999999996
ssS'cache_policy'
p22
g11
(tRp23
g16
S'LRU'
p24
ssS'desc'
p25
S'quota_increment: 0.5'
p26
sS'strategy'
p27
g11
(tRp28
S'extra_quota'
p29
I2
sS'fan_out'
p30
I1
sg16
S'TFIB_DC'
p31
sS'quota_increment'
p32
F0.5
ssS'content_placement'
p33
g11
(tRp34
g16
S'UNIFORM'
p35
ssS'joint_cache_rsn_placement'
p36
g11
(tRp37
S'network_cache'
p38
F0.29999999999999999
sS'network_rsn'
p39
F38.399999999999999
sg16
S'CACHE_ALL_RSN_ALL'
p40
sS'rsn_cache_ratio'
p41
I128
ssS'warmup_strategy'
p42
g11
(tRp43
g29
I1000000
sg30
I10
sg16
g31
ssS'topology'
p44
g11
(tRp45
S'ext_delay'
p46
I0
sS'source_ratio'
p47
F0.10000000000000001
sg16
S'ROCKET_FUEL'
p48
sS'asn'
p49
I3257
ssg11
(tRp50
S'SAT_RATE'
p51
g11
(tRp52
S'MEAN_CACHE_HIT'
p53
F0.55386388888888893
sS'MEAN_SERVER_HIT'
p54
F0.56461388888888886
sS'MEAN_SERVER_CACHE_HITS'
p55
F0.17326666666666668
sS'MEAN'
p56
F0.94521111111111111
ssS'CACHE_HIT_RATIO'
p57
g11
(tRp58
S'MEAN_OFF_PATH'
p59
F0.31247578554185751
sS'MEAN_ON_PATH'
p60
F0.24138810334703142
sg56
F0.55386388888888893
ssS'OVERHEAD'
p61
g11
(tRp62
S'DATA_HOPS'
p63
F3.2518333333333334
sS'INTEREST_HOPS'
p64
F8.0817722222222219
sS'SUCCESS_RATE'
p65
F0.56234512014213878
sS'QUOTA_USED_FAILURE'
p66
F2.2752486972956865
sS'FAILURE_RATE'
p67
F0.43765487985786122
sS'QUOTA_USED_SUCCESS'
p68
F4.7792931978734581
sS'NUM_SUCCESS_FIRST_TIME'
p69
F0.56449468678342951
sg56
F1.2330049724341416
ssS'LATENCY'
p70
g11
(tRp71
g56
F44.963691666666669
sstp72
a(g11
(tRp73
S'workload'
p74
g11
(tRp75
S'n_contents'
p76
I10000
sS'name'
p77
S'STATIONARY'
p78
sS'n_warmup'
p79
I720000
sS'rate'
p80
I100
sS'n_measured'
p81
I360000
sS'alpha'
p82
F0.69999999999999996
ssS'cache_policy'
p83
g11
(tRp84
g77
S'LRU'
p85
ssS'desc'
p86
S'quota_increment: 1.0'
p87
sS'strategy'
p88
g11
(tRp89
S'extra_quota'
p90
I2
sS'fan_out'
p91
I1
sg77
S'TFIB_DC'
p92
sS'quota_increment'
p93
F1
ssS'content_placement'
p94
g11
(tRp95
g77
S'UNIFORM'
p96
ssS'joint_cache_rsn_placement'
p97
g11
(tRp98
S'network_cache'
p99
F0.29999999999999999
sS'network_rsn'
p100
F38.399999999999999
sg77
S'CACHE_ALL_RSN_ALL'
p101
sS'rsn_cache_ratio'
p102
I128
ssS'warmup_strategy'
p103
g11
(tRp104
g90
I1000000
sg91
I10
sg77
g92
ssS'topology'
p105
g11
(tRp106
S'ext_delay'
p107
I0
sS'source_ratio'
p108
F0.10000000000000001
sg77
S'ROCKET_FUEL'
p109
sS'asn'
p110
I3257
ssg11
(tRp111
S'SAT_RATE'
p112
g11
(tRp113
S'MEAN_CACHE_HIT'
p114
F0.55391388888888893
sS'MEAN_SERVER_HIT'
p115
F0.47310277777777776
sS'MEAN_SERVER_CACHE_HITS'
p116
F0.1141361111111111
sS'MEAN'
p117
F0.91288055555555558
ssS'CACHE_HIT_RATIO'
p118
g11
(tRp119
S'MEAN_OFF_PATH'
p120
F0.35598794783163751
sS'MEAN_ON_PATH'
p121
F0.19792594105725142
sg117
F0.55391388888888893
ssS'OVERHEAD'
p122
g11
(tRp123
S'DATA_HOPS'
p124
F2.8659972222222221
sS'INTEREST_HOPS'
p125
F7.9114777777777778
sS'SUCCESS_RATE'
p126
F0.58264750006356847
sS'QUOTA_USED_FAILURE'
p127
F3.0847398859793671
sS'FAILURE_RATE'
p128
F0.41735249993643153
sS'QUOTA_USED_SUCCESS'
p129
F8.3834386088009989
sS'NUM_SUCCESS_FIRST_TIME'
p130
F0.58554766599757713
sg117
F1.1909675416949399
ssS'LATENCY'
p131
g11
(tRp132
g117
F41.927438888888886
sstp133
a(g11
(tRp134
S'workload'
p135
g11
(tRp136
S'n_contents'
p137
I10000
sS'name'
p138
S'STATIONARY'
p139
sS'n_warmup'
p140
I720000
sS'rate'
p141
I100
sS'n_measured'
p142
I360000
sS'alpha'
p143
F0.69999999999999996
ssS'cache_policy'
p144
g11
(tRp145
g138
S'LRU'
p146
ssS'desc'
p147
S'quota_increment: 1.5'
p148
sS'strategy'
p149
g11
(tRp150
S'extra_quota'
p151
I2
sS'fan_out'
p152
I1
sg138
S'TFIB_DC'
p153
sS'quota_increment'
p154
F1.5
ssS'content_placement'
p155
g11
(tRp156
g138
S'UNIFORM'
p157
ssS'joint_cache_rsn_placement'
p158
g11
(tRp159
S'network_cache'
p160
F0.29999999999999999
sS'network_rsn'
p161
F38.399999999999999
sg138
S'CACHE_ALL_RSN_ALL'
p162
sS'rsn_cache_ratio'
p163
I128
ssS'warmup_strategy'
p164
g11
(tRp165
g151
I1000000
sg152
I10
sg138
g153
ssS'topology'
p166
g11
(tRp167
S'ext_delay'
p168
I0
sS'source_ratio'
p169
F0.10000000000000001
sg138
S'ROCKET_FUEL'
p170
sS'asn'
p171
I3257
ssg11
(tRp172
S'SAT_RATE'
p173
g11
(tRp174
S'MEAN_CACHE_HIT'
p175
F0.55896944444444441
sS'MEAN_SERVER_HIT'
p176
F0.43512222222222224
sS'MEAN_SERVER_CACHE_HITS'
p177
F0.092158333333333328
sS'MEAN'
p178
F0.90193333333333336
ssS'CACHE_HIT_RATIO'
p179
g11
(tRp180
S'MEAN_OFF_PATH'
p181
F0.36191889301511987
sS'MEAN_ON_PATH'
p182
F0.19705055142932454
sg178
F0.55896944444444441
ssS'OVERHEAD'
p183
g11
(tRp184
S'DATA_HOPS'
p185
F2.6832305555555553
sS'INTEREST_HOPS'
p186
F7.7834777777777777
sS'SUCCESS_RATE'
p187
F0.58340908107172229
sS'QUOTA_USED_FAILURE'
p188
F3.9748264424405066
sS'FAILURE_RATE'
p189
F0.41659091892827771
sS'QUOTA_USED_SUCCESS'
p190
F8.9764174055927821
sS'NUM_SUCCESS_FIRST_TIME'
p191
F0.58597471663248979
sg178
F1.1436143346391703
ssS'LATENCY'
p192
g11
(tRp193
g178
F40.764747222222219
sstp194
a(g11
(tRp195
S'workload'
p196
g11
(tRp197
S'n_contents'
p198
I10000
sS'name'
p199
S'STATIONARY'
p200
sS'n_warmup'
p201
I720000
sS'rate'
p202
I100
sS'n_measured'
p203
I360000
sS'alpha'
p204
F0.69999999999999996
ssS'cache_policy'
p205
g11
(tRp206
g199
S'LRU'
p207
ssS'desc'
p208
S'quota_increment: 2.0'
p209
sS'strategy'
p210
g11
(tRp211
S'extra_quota'
p212
I2
sS'fan_out'
p213
I1
sg199
S'TFIB_DC'
p214
sS'quota_increment'
p215
F2
ssS'content_placement'
p216
g11
(tRp217
g199
S'UNIFORM'
p218
ssS'joint_cache_rsn_placement'
p219
g11
(tRp220
S'network_cache'
p221
F0.29999999999999999
sS'network_rsn'
p222
F38.399999999999999
sg199
S'CACHE_ALL_RSN_ALL'
p223
sS'rsn_cache_ratio'
p224
I128
ssS'warmup_strategy'
p225
g11
(tRp226
g212
I1000000
sg213
I10
sg199
g214
ssS'topology'
p227
g11
(tRp228
S'ext_delay'
p229
I0
sS'source_ratio'
p230
F0.10000000000000001
sg199
S'ROCKET_FUEL'
p231
sS'asn'
p232
I3257
ssg11
(tRp233
S'SAT_RATE'
p234
g11
(tRp235
S'MEAN_CACHE_HIT'
p236
F0.55695555555555554
sS'MEAN_SERVER_HIT'
p237
F0.38682777777777777
sS'MEAN_SERVER_CACHE_HITS'
p238
F0.064247222222222219
sS'MEAN'
p239
F0.87953611111111107
ssS'CACHE_HIT_RATIO'
p240
g11
(tRp241
S'MEAN_OFF_PATH'
p242
F0.38179078295983659
sS'MEAN_ON_PATH'
p243
F0.17516477259571894
sg239
F0.55695555555555554
ssS'OVERHEAD'
p244
g11
(tRp245
S'DATA_HOPS'
p246
F2.4669944444444445
sS'INTEREST_HOPS'
p247
F7.6741555555555552
sS'SUCCESS_RATE'
p248
F0.59111424231082543
sS'QUOTA_USED_FAILURE'
p249
F4.8598714424352787
sS'FAILURE_RATE'
p250
F0.40888575768917462
sS'QUOTA_USED_SUCCESS'
p251
F12.187344674453637
sS'NUM_SUCCESS_FIRST_TIME'
p252
F0.59486314210723656
sg239
F1.1158754772875854
ssS'LATENCY'
p253
g11
(tRp254
g239
F39.487383333333334
sstp255
atRp256
sb.