ccopy_reg
_reconstructor
p1
(cicarus.results.readwrite
ResultSet
p2
c__builtin__
object
p3
NtRp4
(dp5
S'attr'
p6
(dp7
sS'_results'
p8
ccollections
deque
p9
((lp10
(cicarus.util
Tree
p11
(tRp12
S'workload'
p13
g11
(tRp14
S'n_contents'
p15
I10000
sS'name'
p16
S'STATIONARY'
p17
sS'n_warmup'
p18
I720000
sS'rate'
p19
I100
sS'n_measured'
p20
I360000
sS'alpha'
p21
F0.69999999999999996
ssS'cache_policy'
p22
g11
(tRp23
g16
S'LRU'
p24
ssS'desc'
p25
S'strategy network_cache: 0.9'
p26
sS'strategy'
p27
g11
(tRp28
g16
S'NRR_PROB'
p29
ssS'content_placement'
p30
g11
(tRp31
g16
S'UNIFORM'
p32
ssS'joint_cache_rsn_placement'
p33
g11
(tRp34
S'network_cache'
p35
F0.90000000000000002
sS'network_rsn'
p36
F115.2
sg16
S'CACHE_ALL_RSN_ALL'
p37
sS'rsn_cache_ratio'
p38
I128
ssS'warmup_strategy'
p39
g11
(tRp40
g16
g29
ssS'topology'
p41
g11
(tRp42
S'ext_delay'
p43
I0
sS'source_ratio'
p44
F0.10000000000000001
sg16
S'ROCKET_FUEL'
p45
sS'asn'
p46
I3257
ssg11
(tRp47
S'SAT_RATE'
p48
g11
(tRp49
S'MEAN_CACHE_HIT'
p50
F0.83085277777777777
sS'MEAN_SERVER_HIT'
p51
F0.16914722222222223
sS'MEAN_SERVER_CACHE_HITS'
p52
F0
sS'MEAN'
p53
F1
ssS'CACHE_HIT_RATIO'
p54
g11
(tRp55
S'MEAN_OFF_PATH'
p56
F0.73122222222222222
sS'MEAN_ON_PATH'
p57
F0.099630555555555556
sg53
F0.83085277777777777
ssS'OVERHEAD'
p58
g11
(tRp59
S'SUCCESS_RATE'
p60
F0
sS'QUOTA_USED_FAILURE'
p61
F0
sS'FAILURE_RATE'
p62
F0
sS'QUOTA_USED_SUCCESS'
p63
F0
sg53
F1
sS'NUM_SUCCESS_FIRST_TIME'
p64
F0
ssS'LATENCY'
p65
g11
(tRp66
g53
F36.316394461348189
sstp67
a(g11
(tRp68
S'workload'
p69
g11
(tRp70
S'n_contents'
p71
I10000
sS'name'
p72
S'STATIONARY'
p73
sS'n_warmup'
p74
I720000
sS'rate'
p75
I100
sS'n_measured'
p76
I360000
sS'alpha'
p77
F0.69999999999999996
ssS'cache_policy'
p78
g11
(tRp79
g72
S'LRU'
p80
ssS'desc'
p81
S'strategy network_cache: 0.7'
p82
sS'strategy'
p83
g11
(tRp84
g72
S'NRR_PROB'
p85
ssS'content_placement'
p86
g11
(tRp87
g72
S'UNIFORM'
p88
ssS'joint_cache_rsn_placement'
p89
g11
(tRp90
S'network_cache'
p91
F0.69999999999999996
sS'network_rsn'
p92
F89.599999999999994
sg72
S'CACHE_ALL_RSN_ALL'
p93
sS'rsn_cache_ratio'
p94
I128
ssS'warmup_strategy'
p95
g11
(tRp96
g72
g85
ssS'topology'
p97
g11
(tRp98
S'ext_delay'
p99
I0
sS'source_ratio'
p100
F0.10000000000000001
sg72
S'ROCKET_FUEL'
p101
sS'asn'
p102
I3257
ssg11
(tRp103
S'SAT_RATE'
p104
g11
(tRp105
S'MEAN_CACHE_HIT'
p106
F0.74848611111111107
sS'MEAN_SERVER_HIT'
p107
F0.25151388888888887
sS'MEAN_SERVER_CACHE_HITS'
p108
F0
sS'MEAN'
p109
F1
ssS'CACHE_HIT_RATIO'
p110
g11
(tRp111
S'MEAN_OFF_PATH'
p112
F0.65891944444444439
sS'MEAN_ON_PATH'
p113
F0.089566666666666683
sg109
F0.74848611111111107
ssS'OVERHEAD'
p114
g11
(tRp115
S'SUCCESS_RATE'
p116
F0
sS'QUOTA_USED_FAILURE'
p117
F0
sS'FAILURE_RATE'
p118
F0
sS'QUOTA_USED_SUCCESS'
p119
F0
sg109
F1
sS'NUM_SUCCESS_FIRST_TIME'
p120
F0
ssS'LATENCY'
p121
g11
(tRp122
g109
F43.370227320409114
sstp123
a(g11
(tRp124
S'workload'
p125
g11
(tRp126
S'n_contents'
p127
I10000
sS'name'
p128
S'STATIONARY'
p129
sS'n_warmup'
p130
I720000
sS'rate'
p131
I100
sS'n_measured'
p132
I360000
sS'alpha'
p133
F0.69999999999999996
ssS'cache_policy'
p134
g11
(tRp135
g128
S'LRU'
p136
ssS'desc'
p137
S'strategy network_cache: 0.6'
p138
sS'strategy'
p139
g11
(tRp140
g128
S'NRR_PROB'
p141
ssS'content_placement'
p142
g11
(tRp143
g128
S'UNIFORM'
p144
ssS'joint_cache_rsn_placement'
p145
g11
(tRp146
S'network_cache'
p147
F0.59999999999999998
sS'network_rsn'
p148
F76.799999999999997
sg128
S'CACHE_ALL_RSN_ALL'
p149
sS'rsn_cache_ratio'
p150
I128
ssS'warmup_strategy'
p151
g11
(tRp152
g128
g141
ssS'topology'
p153
g11
(tRp154
S'ext_delay'
p155
I0
sS'source_ratio'
p156
F0.10000000000000001
sg128
S'ROCKET_FUEL'
p157
sS'asn'
p158
I3257
ssg11
(tRp159
S'SAT_RATE'
p160
g11
(tRp161
S'MEAN_CACHE_HIT'
p162
F0.70534722222222224
sS'MEAN_SERVER_HIT'
p163
F0.29465277777777776
sS'MEAN_SERVER_CACHE_HITS'
p164
F0
sS'MEAN'
p165
F1
ssS'CACHE_HIT_RATIO'
p166
g11
(tRp167
S'MEAN_OFF_PATH'
p168
F0.62339999999999995
sS'MEAN_ON_PATH'
p169
F0.081947222222222282
sg165
F0.70534722222222224
ssS'OVERHEAD'
p170
g11
(tRp171
S'SUCCESS_RATE'
p172
F0
sS'QUOTA_USED_FAILURE'
p173
F0
sS'FAILURE_RATE'
p174
F0
sS'QUOTA_USED_SUCCESS'
p175
F0
sg165
F1
sS'NUM_SUCCESS_FIRST_TIME'
p176
F0
ssS'LATENCY'
p177
g11
(tRp178
g165
F46.783823904950175
sstp179
a(g11
(tRp180
S'workload'
p181
g11
(tRp182
S'n_contents'
p183
I10000
sS'name'
p184
S'STATIONARY'
p185
sS'n_warmup'
p186
I720000
sS'rate'
p187
I100
sS'n_measured'
p188
I360000
sS'alpha'
p189
F0.69999999999999996
ssS'cache_policy'
p190
g11
(tRp191
g184
S'LRU'
p192
ssS'desc'
p193
S'strategy network_cache: 0.3'
p194
sS'strategy'
p195
g11
(tRp196
g184
S'NRR_PROB'
p197
ssS'content_placement'
p198
g11
(tRp199
g184
S'UNIFORM'
p200
ssS'joint_cache_rsn_placement'
p201
g11
(tRp202
S'network_cache'
p203
F0.29999999999999999
sS'network_rsn'
p204
F38.399999999999999
sg184
S'CACHE_ALL_RSN_ALL'
p205
sS'rsn_cache_ratio'
p206
I128
ssS'warmup_strategy'
p207
g11
(tRp208
g184
g197
ssS'topology'
p209
g11
(tRp210
S'ext_delay'
p211
I0
sS'source_ratio'
p212
F0.10000000000000001
sg184
S'ROCKET_FUEL'
p213
sS'asn'
p214
I3257
ssg11
(tRp215
S'SAT_RATE'
p216
g11
(tRp217
S'MEAN_CACHE_HIT'
p218
F0.52423333333333333
sS'MEAN_SERVER_HIT'
p219
F0.47576666666666667
sS'MEAN_SERVER_CACHE_HITS'
p220
F0
sS'MEAN'
p221
F1
ssS'CACHE_HIT_RATIO'
p222
g11
(tRp223
S'MEAN_OFF_PATH'
p224
F0.47173055555555554
sS'MEAN_ON_PATH'
p225
F0.052502777777777787
sg221
F0.52423333333333333
ssS'OVERHEAD'
p226
g11
(tRp227
S'SUCCESS_RATE'
p228
F0
sS'QUOTA_USED_FAILURE'
p229
F0
sS'FAILURE_RATE'
p230
F0
sS'QUOTA_USED_SUCCESS'
p231
F0
sg221
F1
sS'NUM_SUCCESS_FIRST_TIME'
p232
F0
ssS'LATENCY'
p233
g11
(tRp234
g221
F62.60176161006833
sstp235
a(g11
(tRp236
S'workload'
p237
g11
(tRp238
S'n_contents'
p239
I10000
sS'name'
p240
S'STATIONARY'
p241
sS'n_warmup'
p242
I720000
sS'rate'
p243
I100
sS'n_measured'
p244
I360000
sS'alpha'
p245
F0.69999999999999996
ssS'cache_policy'
p246
g11
(tRp247
g240
S'LRU'
p248
ssS'desc'
p249
S'strategy network_cache: 0.5'
p250
sS'strategy'
p251
g11
(tRp252
g240
S'NRR_PROB'
p253
ssS'content_placement'
p254
g11
(tRp255
g240
S'UNIFORM'
p256
ssS'joint_cache_rsn_placement'
p257
g11
(tRp258
S'network_cache'
p259
F0.5
sS'network_rsn'
p260
F64
sg240
S'CACHE_ALL_RSN_ALL'
p261
sS'rsn_cache_ratio'
p262
I128
ssS'warmup_strategy'
p263
g11
(tRp264
g240
g253
ssS'topology'
p265
g11
(tRp266
S'ext_delay'
p267
I0
sS'source_ratio'
p268
F0.10000000000000001
sg240
S'ROCKET_FUEL'
p269
sS'asn'
p270
I3257
ssg11
(tRp271
S'SAT_RATE'
p272
g11
(tRp273
S'MEAN_CACHE_HIT'
p274
F0.6522444444444444
sS'MEAN_SERVER_HIT'
p275
F0.34775555555555554
sS'MEAN_SERVER_CACHE_HITS'
p276
F0
sS'MEAN'
p277
F1
ssS'CACHE_HIT_RATIO'
p278
g11
(tRp279
S'MEAN_OFF_PATH'
p280
F0.5755972222222222
sS'MEAN_ON_PATH'
p281
F0.0766472222222222
sg277
F0.6522444444444444
ssS'OVERHEAD'
p282
g11
(tRp283
S'SUCCESS_RATE'
p284
F0
sS'QUOTA_USED_FAILURE'
p285
F0
sS'FAILURE_RATE'
p286
F0
sS'QUOTA_USED_SUCCESS'
p287
F0
sg277
F1
sS'NUM_SUCCESS_FIRST_TIME'
p288
F0
ssS'LATENCY'
p289
g11
(tRp290
g277
F51.865531591880142
sstp291
a(g11
(tRp292
S'workload'
p293
g11
(tRp294
S'n_contents'
p295
I10000
sS'name'
p296
S'STATIONARY'
p297
sS'n_warmup'
p298
I720000
sS'rate'
p299
I100
sS'n_measured'
p300
I360000
sS'alpha'
p301
F0.69999999999999996
ssS'cache_policy'
p302
g11
(tRp303
g296
S'LRU'
p304
ssS'desc'
p305
S'strategy network_cache: 0.2'
p306
sS'strategy'
p307
g11
(tRp308
g296
S'NRR_PROB'
p309
ssS'content_placement'
p310
g11
(tRp311
g296
S'UNIFORM'
p312
ssS'joint_cache_rsn_placement'
p313
g11
(tRp314
S'network_cache'
p315
F0.20000000000000001
sS'network_rsn'
p316
F25.600000000000001
sg296
S'CACHE_ALL_RSN_ALL'
p317
sS'rsn_cache_ratio'
p318
I128
ssS'warmup_strategy'
p319
g11
(tRp320
g296
g309
ssS'topology'
p321
g11
(tRp322
S'ext_delay'
p323
I0
sS'source_ratio'
p324
F0.10000000000000001
sg296
S'ROCKET_FUEL'
p325
sS'asn'
p326
I3257
ssg11
(tRp327
S'SAT_RATE'
p328
g11
(tRp329
S'MEAN_CACHE_HIT'
p330
F0.42190277777777779
sS'MEAN_SERVER_HIT'
p331
F0.57809722222222226
sS'MEAN_SERVER_CACHE_HITS'
p332
F0
sS'MEAN'
p333
F1
ssS'CACHE_HIT_RATIO'
p334
g11
(tRp335
S'MEAN_OFF_PATH'
p336
F0.3805472222222222
sS'MEAN_ON_PATH'
p337
F0.04135555555555559
sg333
F0.42190277777777779
ssS'OVERHEAD'
p338
g11
(tRp339
S'SUCCESS_RATE'
p340
F0
sS'QUOTA_USED_FAILURE'
p341
F0
sS'FAILURE_RATE'
p342
F0
sS'QUOTA_USED_SUCCESS'
p343
F0
sg333
F1
sS'NUM_SUCCESS_FIRST_TIME'
p344
F0
ssS'LATENCY'
p345
g11
(tRp346
g333
F71.466856825087135
sstp347
a(g11
(tRp348
S'workload'
p349
g11
(tRp350
S'n_contents'
p351
I10000
sS'name'
p352
S'STATIONARY'
p353
sS'n_warmup'
p354
I720000
sS'rate'
p355
I100
sS'n_measured'
p356
I360000
sS'alpha'
p357
F0.69999999999999996
ssS'cache_policy'
p358
g11
(tRp359
g352
S'LRU'
p360
ssS'desc'
p361
S'strategy network_cache: 0.8'
p362
sS'strategy'
p363
g11
(tRp364
g352
S'NRR_PROB'
p365
ssS'content_placement'
p366
g11
(tRp367
g352
S'UNIFORM'
p368
ssS'joint_cache_rsn_placement'
p369
g11
(tRp370
S'network_cache'
p371
F0.80000000000000004
sS'network_rsn'
p372
F102.40000000000001
sg352
S'CACHE_ALL_RSN_ALL'
p373
sS'rsn_cache_ratio'
p374
I128
ssS'warmup_strategy'
p375
g11
(tRp376
g352
g365
ssS'topology'
p377
g11
(tRp378
S'ext_delay'
p379
I0
sS'source_ratio'
p380
F0.10000000000000001
sg352
S'ROCKET_FUEL'
p381
sS'asn'
p382
I3257
ssg11
(tRp383
S'SAT_RATE'
p384
g11
(tRp385
S'MEAN_CACHE_HIT'
p386
F0.79573055555555561
sS'MEAN_SERVER_HIT'
p387
F0.20426944444444445
sS'MEAN_SERVER_CACHE_HITS'
p388
F0
sS'MEAN'
p389
F1
ssS'CACHE_HIT_RATIO'
p390
g11
(tRp391
S'MEAN_OFF_PATH'
p392
F0.68295555555555554
sS'MEAN_ON_PATH'
p393
F0.11277500000000007
sg389
F0.79573055555555561
ssS'OVERHEAD'
p394
g11
(tRp395
S'SUCCESS_RATE'
p396
F0
sS'QUOTA_USED_FAILURE'
p397
F0
sS'FAILURE_RATE'
p398
F0
sS'QUOTA_USED_SUCCESS'
p399
F0
sg389
F1
sS'NUM_SUCCESS_FIRST_TIME'
p400
F0
ssS'LATENCY'
p401
g11
(tRp402
g389
F39.374727398431475
sstp403
a(g11
(tRp404
S'workload'
p405
g11
(tRp406
S'n_contents'
p407
I10000
sS'name'
p408
S'STATIONARY'
p409
sS'n_warmup'
p410
I720000
sS'rate'
p411
I100
sS'n_measured'
p412
I360000
sS'alpha'
p413
F0.69999999999999996
ssS'cache_policy'
p414
g11
(tRp415
g408
S'LRU'
p416
ssS'desc'
p417
S'strategy network_cache: 0.4'
p418
sS'strategy'
p419
g11
(tRp420
g408
S'NRR_PROB'
p421
ssS'content_placement'
p422
g11
(tRp423
g408
S'UNIFORM'
p424
ssS'joint_cache_rsn_placement'
p425
g11
(tRp426
S'network_cache'
p427
F0.40000000000000002
sS'network_rsn'
p428
F51.200000000000003
sg408
S'CACHE_ALL_RSN_ALL'
p429
sS'rsn_cache_ratio'
p430
I128
ssS'warmup_strategy'
p431
g11
(tRp432
g408
g421
ssS'topology'
p433
g11
(tRp434
S'ext_delay'
p435
I0
sS'source_ratio'
p436
F0.10000000000000001
sg408
S'ROCKET_FUEL'
p437
sS'asn'
p438
I3257
ssg11
(tRp439
S'SAT_RATE'
p440
g11
(tRp441
S'MEAN_CACHE_HIT'
p442
F0.59504166666666669
sS'MEAN_SERVER_HIT'
p443
F0.40495833333333331
sS'MEAN_SERVER_CACHE_HITS'
p444
F0
sS'MEAN'
p445
F1
ssS'CACHE_HIT_RATIO'
p446
g11
(tRp447
S'MEAN_OFF_PATH'
p448
F0.52309444444444442
sS'MEAN_ON_PATH'
p449
F0.071947222222222273
sg445
F0.59504166666666669
ssS'OVERHEAD'
p450
g11
(tRp451
S'SUCCESS_RATE'
p452
F0
sS'QUOTA_USED_FAILURE'
p453
F0
sS'FAILURE_RATE'
p454
F0
sS'QUOTA_USED_SUCCESS'
p455
F0
sg445
F1
sS'NUM_SUCCESS_FIRST_TIME'
p456
F0
ssS'LATENCY'
p457
g11
(tRp458
g445
F56.605025225204891
sstp459
a(g11
(tRp460
S'workload'
p461
g11
(tRp462
S'n_contents'
p463
I10000
sS'name'
p464
S'STATIONARY'
p465
sS'n_warmup'
p466
I720000
sS'rate'
p467
I100
sS'n_measured'
p468
I360000
sS'alpha'
p469
F0.69999999999999996
ssS'cache_policy'
p470
g11
(tRp471
g464
S'LRU'
p472
ssS'desc'
p473
S'strategy network_cache: 0.1'
p474
sS'strategy'
p475
g11
(tRp476
g464
S'NRR_PROB'
p477
ssS'content_placement'
p478
g11
(tRp479
g464
S'UNIFORM'
p480
ssS'joint_cache_rsn_placement'
p481
g11
(tRp482
S'network_cache'
p483
F0.10000000000000001
sS'network_rsn'
p484
F12.800000000000001
sg464
S'CACHE_ALL_RSN_ALL'
p485
sS'rsn_cache_ratio'
p486
I128
ssS'warmup_strategy'
p487
g11
(tRp488
g464
g477
ssS'topology'
p489
g11
(tRp490
S'ext_delay'
p491
I0
sS'source_ratio'
p492
F0.10000000000000001
sg464
S'ROCKET_FUEL'
p493
sS'asn'
p494
I3257
ssg11
(tRp495
S'SAT_RATE'
p496
g11
(tRp497
S'MEAN_CACHE_HIT'
p498
F0.2963027777777778
sS'MEAN_SERVER_HIT'
p499
F0.7036972222222222
sS'MEAN_SERVER_CACHE_HITS'
p500
F0
sS'MEAN'
p501
F1
ssS'CACHE_HIT_RATIO'
p502
g11
(tRp503
S'MEAN_OFF_PATH'
p504
F0.2792472222222222
sS'MEAN_ON_PATH'
p505
F0.017055555555555602
sg501
F0.2963027777777778
ssS'OVERHEAD'
p506
g11
(tRp507
S'SUCCESS_RATE'
p508
F0
sS'QUOTA_USED_FAILURE'
p509
F0
sS'FAILURE_RATE'
p510
F0
sS'QUOTA_USED_SUCCESS'
p511
F0
sg501
F1
sS'NUM_SUCCESS_FIRST_TIME'
p512
F0
ssS'LATENCY'
p513
g11
(tRp514
g501
F81.980423047165061
sstp515
atRp516
sb.