ccopy_reg
_reconstructor
p1
(cicarus.results.readwrite
ResultSet
p2
c__builtin__
object
p3
NtRp4
(dp5
S'attr'
p6
(dp7
sS'_results'
p8
ccollections
deque
p9
((lp10
(cicarus.util
Tree
p11
(tRp12
S'workload'
p13
g11
(tRp14
S'n_contents'
p15
I10000
sS'name'
p16
S'STATIONARY'
p17
sS'n_warmup'
p18
I720000
sS'rate'
p19
I100
sS'n_measured'
p20
I360000
sS'alpha'
p21
F0.69999999999999996
ssS'cache_policy'
p22
g11
(tRp23
g16
S'LRU'
p24
ssS'desc'
p25
S'quota_increment: 1.25'
p26
sS'strategy'
p27
g11
(tRp28
S'extra_quota'
p29
I2
sS'p'
F0.5
sS'quota_increment'
p30
F1.25
sg16
S'LIRA_DFIB_OPH'
p31
sS'fan_out'
p32
I2
ssS'content_placement'
p33
g11
(tRp34
g16
S'UNIFORM'
p35
ssS'joint_cache_rsn_placement'
p36
g11
(tRp37
S'network_cache'
p38
F0.94999999999999996
sS'network_rsn'
p39
F60.799999999999997
sg16
S'CACHE_ALL_RSN_ALL'
p40
sS'rsn_cache_ratio'
p41
I64
ssS'warmup_strategy'
p42
g11
(tRp43
g29
I10
sS'p'
F0.10000000000000001
sg16
g31
sg32
I100
ssS'topology'
p44
g11
(tRp45
S'ext_delay'
p46
I5
sS'source_ratio'
p47
F0.10000000000000001
sg16
S'ROCKET_FUEL'
p48
sS'asn'
p49
I3257
ssg11
(tRp50
S'SAT_RATE'
p51
g11
(tRp52
S'MEAN_CACHE_HIT'
p53
F0.66233055555555553
sS'MEAN_SERVER_HIT'
p54
F0.42765277777777777
sS'MEAN_SERVER_CACHE_HITS'
p55
F0.14026111111111111
sS'MEAN'
p56
F0.94972222222222225
ssS'CACHE_HIT_RATIO'
p57
g11
(tRp58
S'MEAN_OFF_PATH'
p59
F0.44092672161144159
sS'MEAN_ON_PATH'
p60
F0.22140383394411395
sg56
F0.66233055555555553
ssS'OVERHEAD'
p61
g11
(tRp62
S'SUCCESS_RATE'
p63
F0.64573322583534887
sS'QUOTA_USED_FAILURE'
p64
F2.4625082820453343
sS'FAILURE_RATE'
p65
F0.35426677416465108
sS'QUOTA_USED_SUCCESS'
p66
F11.766199219150499
sg56
F1.2615062883884176
sS'NUM_SUCCESS_FIRST_TIME'
p67
F0.64632021224593361
ssS'LATENCY'
p68
g11
(tRp69
g56
F28.469013888888888
sstp70
a(g11
(tRp71
S'workload'
p72
g11
(tRp73
S'n_contents'
p74
I10000
sS'name'
p75
S'STATIONARY'
p76
sS'n_warmup'
p77
I720000
sS'rate'
p78
I100
sS'n_measured'
p79
I360000
sS'alpha'
p80
F0.69999999999999996
ssS'cache_policy'
p81
g11
(tRp82
g75
S'LRU'
p83
ssS'desc'
p84
S'quota_increment: 0.25'
p85
sS'strategy'
p86
g11
(tRp87
S'extra_quota'
p88
I2
sS'p'
F0.5
sS'quota_increment'
p89
F0.25
sg75
S'LIRA_DFIB_OPH'
p90
sS'fan_out'
p91
I1
ssS'content_placement'
p92
g11
(tRp93
g75
S'UNIFORM'
p94
ssS'joint_cache_rsn_placement'
p95
g11
(tRp96
S'network_cache'
p97
F0.94999999999999996
sS'network_rsn'
p98
F60.799999999999997
sg75
S'CACHE_ALL_RSN_ALL'
p99
sS'rsn_cache_ratio'
p100
I64
ssS'warmup_strategy'
p101
g11
(tRp102
g88
I10
sS'p'
F0.10000000000000001
sg75
g90
sg91
I100
ssS'topology'
p103
g11
(tRp104
S'ext_delay'
p105
I5
sS'source_ratio'
p106
F0.10000000000000001
sg75
S'ROCKET_FUEL'
p107
sS'asn'
p108
I3257
ssg11
(tRp109
S'SAT_RATE'
p110
g11
(tRp111
S'MEAN_CACHE_HIT'
p112
F0.58397777777777782
sS'MEAN_SERVER_HIT'
p113
F0.59460277777777781
sS'MEAN_SERVER_CACHE_HITS'
p114
F0.18559722222222222
sS'MEAN'
p115
F0.99298333333333333
ssS'CACHE_HIT_RATIO'
p116
g11
(tRp117
S'MEAN_OFF_PATH'
p118
F0.31482786496939585
sS'MEAN_ON_PATH'
p119
F0.26914991280838196
sg115
F0.58397777777777782
ssS'OVERHEAD'
p120
g11
(tRp121
S'SUCCESS_RATE'
p122
F0.55374270548795634
sS'QUOTA_USED_FAILURE'
p123
F1.2823142838439565
sS'FAILURE_RATE'
p124
F0.44625729451204371
sS'QUOTA_USED_SUCCESS'
p125
F3.8978347673904254
sg115
F1.3368888366706391
sS'NUM_SUCCESS_FIRST_TIME'
p126
F0.55940960990552901
ssS'LATENCY'
p127
g11
(tRp128
g115
F34.643450000000001
sstp129
a(g11
(tRp130
S'workload'
p131
g11
(tRp132
S'n_contents'
p133
I10000
sS'name'
p134
S'STATIONARY'
p135
sS'n_warmup'
p136
I720000
sS'rate'
p137
I100
sS'n_measured'
p138
I360000
sS'alpha'
p139
F0.69999999999999996
ssS'cache_policy'
p140
g11
(tRp141
g134
S'LRU'
p142
ssS'desc'
p143
S'quota_increment: 1.75'
p144
sS'strategy'
p145
g11
(tRp146
S'extra_quota'
p147
I2
sS'p'
F0.5
sS'quota_increment'
p148
F1.75
sg134
S'LIRA_DFIB_OPH'
p149
sS'fan_out'
p150
I1
ssS'content_placement'
p151
g11
(tRp152
g134
S'UNIFORM'
p153
ssS'joint_cache_rsn_placement'
p154
g11
(tRp155
S'network_cache'
p156
F0.94999999999999996
sS'network_rsn'
p157
F60.799999999999997
sg134
S'CACHE_ALL_RSN_ALL'
p158
sS'rsn_cache_ratio'
p159
I64
ssS'warmup_strategy'
p160
g11
(tRp161
g147
I10
sS'p'
F0.10000000000000001
sg134
g149
sg150
I100
ssS'topology'
p162
g11
(tRp163
S'ext_delay'
p164
I5
sS'source_ratio'
p165
F0.10000000000000001
sg134
S'ROCKET_FUEL'
p166
sS'asn'
p167
I3257
ssg11
(tRp168
S'SAT_RATE'
p169
g11
(tRp170
S'MEAN_CACHE_HIT'
p171
F0.58354722222222222
sS'MEAN_SERVER_HIT'
p172
F0.47276111111111113
sS'MEAN_SERVER_CACHE_HITS'
p173
F0.10883611111111111
sS'MEAN'
p174
F0.94747222222222227
ssS'CACHE_HIT_RATIO'
p175
g11
(tRp176
S'MEAN_OFF_PATH'
p177
F0.33813780172561148
sS'MEAN_ON_PATH'
p178
F0.24540942049661074
sg174
F0.58354722222222222
ssS'OVERHEAD'
p179
g11
(tRp180
S'SUCCESS_RATE'
p181
F0.56013189694015486
sS'QUOTA_USED_FAILURE'
p182
F2.4679406125075491
sS'FAILURE_RATE'
p183
F0.43986810305984514
sS'QUOTA_USED_SUCCESS'
p184
F10.547600195889528
sg174
F1.2185816060277346
sS'NUM_SUCCESS_FIRST_TIME'
p185
F0.56714950368049633
ssS'LATENCY'
p186
g11
(tRp187
g174
F31.218272222222222
sstp188
a(g11
(tRp189
S'workload'
p190
g11
(tRp191
S'n_contents'
p192
I10000
sS'name'
p193
S'STATIONARY'
p194
sS'n_warmup'
p195
I720000
sS'rate'
p196
I100
sS'n_measured'
p197
I360000
sS'alpha'
p198
F0.69999999999999996
ssS'cache_policy'
p199
g11
(tRp200
g193
S'LRU'
p201
ssS'desc'
p202
S'quota_increment: 1.0'
p203
sS'strategy'
p204
g11
(tRp205
S'extra_quota'
p206
I2
sS'p'
F0.5
sS'quota_increment'
p207
F1
sg193
S'LIRA_DFIB_OPH'
p208
sS'fan_out'
p209
I1
ssS'content_placement'
p210
g11
(tRp211
g193
S'UNIFORM'
p212
ssS'joint_cache_rsn_placement'
p213
g11
(tRp214
S'network_cache'
p215
F0.94999999999999996
sS'network_rsn'
p216
F60.799999999999997
sg193
S'CACHE_ALL_RSN_ALL'
p217
sS'rsn_cache_ratio'
p218
I64
ssS'warmup_strategy'
p219
g11
(tRp220
g206
I10
sS'p'
F0.10000000000000001
sg193
g208
sg209
I100
ssS'topology'
p221
g11
(tRp222
S'ext_delay'
p223
I5
sS'source_ratio'
p224
F0.10000000000000001
sg193
S'ROCKET_FUEL'
p225
sS'asn'
p226
I3257
ssg11
(tRp227
S'SAT_RATE'
p228
g11
(tRp229
S'MEAN_CACHE_HIT'
p230
F0.58496666666666663
sS'MEAN_SERVER_HIT'
p231
F0.50651388888888893
sS'MEAN_SERVER_CACHE_HITS'
p232
F0.12915555555555555
sS'MEAN'
p233
F0.96232499999999999
ssS'CACHE_HIT_RATIO'
p234
g11
(tRp235
S'MEAN_OFF_PATH'
p236
F0.34387032903828391
sS'MEAN_ON_PATH'
p237
F0.24109633762838273
sg233
F0.58496666666666663
ssS'OVERHEAD'
p238
g11
(tRp239
S'SUCCESS_RATE'
p240
F0.56682246129168623
sS'QUOTA_USED_FAILURE'
p241
F1.8540545453839754
sS'FAILURE_RATE'
p242
F0.43317753870831377
sS'QUOTA_USED_SUCCESS'
p243
F8.0598366791086349
sg233
F1.2638026538735758
sS'NUM_SUCCESS_FIRST_TIME'
p244
F0.57291901255954958
ssS'LATENCY'
p245
g11
(tRp246
g233
F31.819741666666665
sstp247
a(g11
(tRp248
S'workload'
p249
g11
(tRp250
S'n_contents'
p251
I10000
sS'name'
p252
S'STATIONARY'
p253
sS'n_warmup'
p254
I720000
sS'rate'
p255
I100
sS'n_measured'
p256
I360000
sS'alpha'
p257
F0.69999999999999996
ssS'cache_policy'
p258
g11
(tRp259
g252
S'LRU'
p260
ssS'desc'
p261
S'quota_increment: 1.0'
p262
sS'strategy'
p263
g11
(tRp264
S'extra_quota'
p265
I2
sS'p'
F0.5
sS'quota_increment'
p266
F1
sg252
S'LIRA_DFIB_OPH'
p267
sS'fan_out'
p268
I2
ssS'content_placement'
p269
g11
(tRp270
g252
S'UNIFORM'
p271
ssS'joint_cache_rsn_placement'
p272
g11
(tRp273
S'network_cache'
p274
F0.94999999999999996
sS'network_rsn'
p275
F60.799999999999997
sg252
S'CACHE_ALL_RSN_ALL'
p276
sS'rsn_cache_ratio'
p277
I64
ssS'warmup_strategy'
p278
g11
(tRp279
g265
I10
sS'p'
F0.10000000000000001
sg252
g267
sg268
I100
ssS'topology'
p280
g11
(tRp281
S'ext_delay'
p282
I5
sS'source_ratio'
p283
F0.10000000000000001
sg252
S'ROCKET_FUEL'
p284
sS'asn'
p285
I3257
ssg11
(tRp286
S'SAT_RATE'
p287
g11
(tRp288
S'MEAN_CACHE_HIT'
p289
F0.66188888888888886
sS'MEAN_SERVER_HIT'
p290
F0.44325833333333331
sS'MEAN_SERVER_CACHE_HITS'
p291
F0.151225
sS'MEAN'
p292
F0.95392222222222223
ssS'CACHE_HIT_RATIO'
p293
g11
(tRp294
S'MEAN_OFF_PATH'
p295
F0.46956287875169977
sS'MEAN_ON_PATH'
p296
F0.19232601013718909
sg292
F0.66188888888888886
ssS'OVERHEAD'
p297
g11
(tRp298
S'SUCCESS_RATE'
p299
F0.66111888396859464
sS'QUOTA_USED_FAILURE'
p300
F2.1977311899023961
sS'FAILURE_RATE'
p301
F0.33888111603140536
sS'QUOTA_USED_SUCCESS'
p302
F18.303568767984178
sg292
F1.2838456431341945
sS'NUM_SUCCESS_FIRST_TIME'
p303
F0.6622984904686301
ssS'LATENCY'
p304
g11
(tRp305
g292
F28.901177777777779
sstp306
a(g11
(tRp307
S'workload'
p308
g11
(tRp309
S'n_contents'
p310
I10000
sS'name'
p311
S'STATIONARY'
p312
sS'n_warmup'
p313
I720000
sS'rate'
p314
I100
sS'n_measured'
p315
I360000
sS'alpha'
p316
F0.69999999999999996
ssS'cache_policy'
p317
g11
(tRp318
g311
S'LRU'
p319
ssS'desc'
p320
S'quota_increment: 0.5'
p321
sS'strategy'
p322
g11
(tRp323
S'extra_quota'
p324
I2
sS'p'
F0.5
sS'quota_increment'
p325
F0.5
sg311
S'LIRA_DFIB_OPH'
p326
sS'fan_out'
p327
I2
ssS'content_placement'
p328
g11
(tRp329
g311
S'UNIFORM'
p330
ssS'joint_cache_rsn_placement'
p331
g11
(tRp332
S'network_cache'
p333
F0.94999999999999996
sS'network_rsn'
p334
F60.799999999999997
sg311
S'CACHE_ALL_RSN_ALL'
p335
sS'rsn_cache_ratio'
p336
I64
ssS'warmup_strategy'
p337
g11
(tRp338
g324
I10
sS'p'
F0.10000000000000001
sg311
g326
sg327
I100
ssS'topology'
p339
g11
(tRp340
S'ext_delay'
p341
I5
sS'source_ratio'
p342
F0.10000000000000001
sg311
S'ROCKET_FUEL'
p343
sS'asn'
p344
I3257
ssg11
(tRp345
S'SAT_RATE'
p346
g11
(tRp347
S'MEAN_CACHE_HIT'
p348
F0.66216388888888889
sS'MEAN_SERVER_HIT'
p349
F0.5261055555555556
sS'MEAN_SERVER_CACHE_HITS'
p350
F0.20823055555555556
sS'MEAN'
p351
F0.9800388888888889
ssS'CACHE_HIT_RATIO'
p352
g11
(tRp353
S'MEAN_OFF_PATH'
p354
F0.42439635604532266
sS'MEAN_ON_PATH'
p355
F0.23776753284356622
sg351
F0.66216388888888889
ssS'OVERHEAD'
p356
g11
(tRp357
S'SUCCESS_RATE'
p358
F0.64481829141100144
sS'QUOTA_USED_FAILURE'
p359
F1.6226778554220085
sS'FAILURE_RATE'
p360
F0.35518170858899861
sS'QUOTA_USED_SUCCESS'
p361
F7.123762434157201
sg351
F1.3711360660291259
sS'NUM_SUCCESS_FIRST_TIME'
p362
F0.64546039194623284
ssS'LATENCY'
p363
g11
(tRp364
g351
F31.109272222222224
sstp365
a(g11
(tRp366
S'workload'
p367
g11
(tRp368
S'n_contents'
p369
I10000
sS'name'
p370
S'STATIONARY'
p371
sS'n_warmup'
p372
I720000
sS'rate'
p373
I100
sS'n_measured'
p374
I360000
sS'alpha'
p375
F0.69999999999999996
ssS'cache_policy'
p376
g11
(tRp377
g370
S'LRU'
p378
ssS'desc'
p379
S'quota_increment: 0.5'
p380
sS'strategy'
p381
g11
(tRp382
S'extra_quota'
p383
I2
sS'p'
F0.5
sS'quota_increment'
p384
F0.5
sg370
S'LIRA_DFIB_OPH'
p385
sS'fan_out'
p386
I1
ssS'content_placement'
p387
g11
(tRp388
g370
S'UNIFORM'
p389
ssS'joint_cache_rsn_placement'
p390
g11
(tRp391
S'network_cache'
p392
F0.94999999999999996
sS'network_rsn'
p393
F60.799999999999997
sg370
S'CACHE_ALL_RSN_ALL'
p394
sS'rsn_cache_ratio'
p395
I64
ssS'warmup_strategy'
p396
g11
(tRp397
g383
I10
sS'p'
F0.10000000000000001
sg370
g385
sg386
I100
ssS'topology'
p398
g11
(tRp399
S'ext_delay'
p400
I5
sS'source_ratio'
p401
F0.10000000000000001
sg370
S'ROCKET_FUEL'
p402
sS'asn'
p403
I3257
ssg11
(tRp404
S'SAT_RATE'
p405
g11
(tRp406
S'MEAN_CACHE_HIT'
p407
F0.58172222222222225
sS'MEAN_SERVER_HIT'
p408
F0.56743333333333335
sS'MEAN_SERVER_CACHE_HITS'
p409
F0.16434722222222223
sS'MEAN'
p410
F0.98480833333333329
ssS'CACHE_HIT_RATIO'
p411
g11
(tRp412
S'MEAN_OFF_PATH'
p413
F0.3148809754022277
sS'MEAN_ON_PATH'
p414
F0.26684124681999455
sg410
F0.58172222222222225
ssS'OVERHEAD'
p415
g11
(tRp416
S'SUCCESS_RATE'
p417
F0.54936161140808704
sS'QUOTA_USED_FAILURE'
p418
F1.4461954482994583
sS'FAILURE_RATE'
p419
F0.45063838859191296
sS'QUOTA_USED_SUCCESS'
p420
F5.6119384988832319
sg410
F1.3083059027278292
sS'NUM_SUCCESS_FIRST_TIME'
p421
F0.55358751650966087
ssS'LATENCY'
p422
g11
(tRp423
g410
F33.637219444444447
sstp424
a(g11
(tRp425
S'workload'
p426
g11
(tRp427
S'n_contents'
p428
I10000
sS'name'
p429
S'STATIONARY'
p430
sS'n_warmup'
p431
I720000
sS'rate'
p432
I100
sS'n_measured'
p433
I360000
sS'alpha'
p434
F0.69999999999999996
ssS'cache_policy'
p435
g11
(tRp436
g429
S'LRU'
p437
ssS'desc'
p438
S'quota_increment: 2.0'
p439
sS'strategy'
p440
g11
(tRp441
S'extra_quota'
p442
I2
sS'p'
F0.5
sS'quota_increment'
p443
F2
sg429
S'LIRA_DFIB_OPH'
p444
sS'fan_out'
p445
I1
ssS'content_placement'
p446
g11
(tRp447
g429
S'UNIFORM'
p448
ssS'joint_cache_rsn_placement'
p449
g11
(tRp450
S'network_cache'
p451
F0.94999999999999996
sS'network_rsn'
p452
F60.799999999999997
sg429
S'CACHE_ALL_RSN_ALL'
p453
sS'rsn_cache_ratio'
p454
I64
ssS'warmup_strategy'
p455
g11
(tRp456
g442
I10
sS'p'
F0.10000000000000001
sg429
g444
sg445
I100
ssS'topology'
p457
g11
(tRp458
S'ext_delay'
p459
I5
sS'source_ratio'
p460
F0.10000000000000001
sg429
S'ROCKET_FUEL'
p461
sS'asn'
p462
I3257
ssg11
(tRp463
S'SAT_RATE'
p464
g11
(tRp465
S'MEAN_CACHE_HIT'
p466
F0.58503888888888889
sS'MEAN_SERVER_HIT'
p467
F0.43213611111111111
sS'MEAN_SERVER_CACHE_HITS'
p468
F0.088244444444444445
sS'MEAN'
p469
F0.92893055555555559
ssS'CACHE_HIT_RATIO'
p470
g11
(tRp471
S'MEAN_OFF_PATH'
p472
F0.35004082658124491
sS'MEAN_ON_PATH'
p473
F0.23499806230764397
sg469
F0.58503888888888889
ssS'OVERHEAD'
p474
g11
(tRp475
S'SUCCESS_RATE'
p476
F0.56811477607937788
sS'QUOTA_USED_FAILURE'
p477
F2.6235358437635337
sS'FAILURE_RATE'
p478
F0.43188522392062217
sS'QUOTA_USED_SUCCESS'
p479
F11.121234940385122
sg469
F1.1967973924614626
sS'NUM_SUCCESS_FIRST_TIME'
p480
F0.57519649541434803
ssS'LATENCY'
p481
g11
(tRp482
g469
F29.96008888888889
sstp483
a(g11
(tRp484
S'workload'
p485
g11
(tRp486
S'n_contents'
p487
I10000
sS'name'
p488
S'STATIONARY'
p489
sS'n_warmup'
p490
I720000
sS'rate'
p491
I100
sS'n_measured'
p492
I360000
sS'alpha'
p493
F0.69999999999999996
ssS'cache_policy'
p494
g11
(tRp495
g488
S'LRU'
p496
ssS'desc'
p497
S'quota_increment: 1.5'
p498
sS'strategy'
p499
g11
(tRp500
S'extra_quota'
p501
I2
sS'p'
F0.5
sS'quota_increment'
p502
F1.5
sg488
S'LIRA_DFIB_OPH'
p503
sS'fan_out'
p504
I2
ssS'content_placement'
p505
g11
(tRp506
g488
S'UNIFORM'
p507
ssS'joint_cache_rsn_placement'
p508
g11
(tRp509
S'network_cache'
p510
F0.94999999999999996
sS'network_rsn'
p511
F60.799999999999997
sg488
S'CACHE_ALL_RSN_ALL'
p512
sS'rsn_cache_ratio'
p513
I64
ssS'warmup_strategy'
p514
g11
(tRp515
g501
I10
sS'p'
F0.10000000000000001
sg488
g503
sg504
I100
ssS'topology'
p516
g11
(tRp517
S'ext_delay'
p518
I5
sS'source_ratio'
p519
F0.10000000000000001
sg488
S'ROCKET_FUEL'
p520
sS'asn'
p521
I3257
ssg11
(tRp522
S'SAT_RATE'
p523
g11
(tRp524
S'MEAN_CACHE_HIT'
p525
F0.66275833333333334
sS'MEAN_SERVER_HIT'
p526
F0.41817222222222222
sS'MEAN_SERVER_CACHE_HITS'
p527
F0.13464444444444446
sS'MEAN'
p528
F0.94628611111111116
ssS'CACHE_HIT_RATIO'
p529
g11
(tRp530
S'MEAN_OFF_PATH'
p531
F0.46614414020841094
sS'MEAN_ON_PATH'
p532
F0.1966141931249224
sg528
F0.66275833333333334
ssS'OVERHEAD'
p533
g11
(tRp534
S'SUCCESS_RATE'
p535
F0.65860556167304629
sS'QUOTA_USED_FAILURE'
p536
F2.8095317270560933
sS'FAILURE_RATE'
p537
F0.34139443832695365
sS'QUOTA_USED_SUCCESS'
p538
F14.801570929941208
sg528
F1.2592650214434793
sS'NUM_SUCCESS_FIRST_TIME'
p539
F0.66045023774032441
ssS'LATENCY'
p540
g11
(tRp541
g528
F28.091166666666666
sstp542
a(g11
(tRp543
S'workload'
p544
g11
(tRp545
S'n_contents'
p546
I10000
sS'name'
p547
S'STATIONARY'
p548
sS'n_warmup'
p549
I720000
sS'rate'
p550
I100
sS'n_measured'
p551
I360000
sS'alpha'
p552
F0.69999999999999996
ssS'cache_policy'
p553
g11
(tRp554
g547
S'LRU'
p555
ssS'desc'
p556
S'quota_increment: 0.75'
p557
sS'strategy'
p558
g11
(tRp559
S'extra_quota'
p560
I2
sS'p'
F0.5
sS'quota_increment'
p561
F0.75
sg547
S'LIRA_DFIB_OPH'
p562
sS'fan_out'
p563
I1
ssS'content_placement'
p564
g11
(tRp565
g547
S'UNIFORM'
p566
ssS'joint_cache_rsn_placement'
p567
g11
(tRp568
S'network_cache'
p569
F0.94999999999999996
sS'network_rsn'
p570
F60.799999999999997
sg547
S'CACHE_ALL_RSN_ALL'
p571
sS'rsn_cache_ratio'
p572
I64
ssS'warmup_strategy'
p573
g11
(tRp574
g560
I10
sS'p'
F0.10000000000000001
sg547
g562
sg563
I100
ssS'topology'
p575
g11
(tRp576
S'ext_delay'
p577
I5
sS'source_ratio'
p578
F0.10000000000000001
sg547
S'ROCKET_FUEL'
p579
sS'asn'
p580
I3257
ssg11
(tRp581
S'SAT_RATE'
p582
g11
(tRp583
S'MEAN_CACHE_HIT'
p584
F0.58372222222222225
sS'MEAN_SERVER_HIT'
p585
F0.54559999999999997
sS'MEAN_SERVER_CACHE_HITS'
p586
F0.15158888888888888
sS'MEAN'
p587
F0.97773333333333334
ssS'CACHE_HIT_RATIO'
p588
g11
(tRp589
S'MEAN_OFF_PATH'
p590
F0.31843583663751118
sS'MEAN_ON_PATH'
p591
F0.26528638558471107
sg587
F0.58372222222222225
ssS'OVERHEAD'
p592
g11
(tRp593
S'SUCCESS_RATE'
p594
F0.5514590235918726
sS'QUOTA_USED_FAILURE'
p595
F1.6247274114180745
sS'FAILURE_RATE'
p596
F0.4485409764081274
sS'QUOTA_USED_SUCCESS'
p597
F4.9225428278853078
sg587
F1.29039388154007
sS'NUM_SUCCESS_FIRST_TIME'
p598
F0.55601460118204249
ssS'LATENCY'
p599
g11
(tRp600
g587
F32.759719444444443
sstp601
a(g11
(tRp602
S'workload'
p603
g11
(tRp604
S'n_contents'
p605
I10000
sS'name'
p606
S'STATIONARY'
p607
sS'n_warmup'
p608
I720000
sS'rate'
p609
I100
sS'n_measured'
p610
I360000
sS'alpha'
p611
F0.69999999999999996
ssS'cache_policy'
p612
g11
(tRp613
g606
S'LRU'
p614
ssS'desc'
p615
S'quota_increment: 1.5'
p616
sS'strategy'
p617
g11
(tRp618
S'extra_quota'
p619
I2
sS'p'
F0.5
sS'quota_increment'
p620
F1.5
sg606
S'LIRA_DFIB_OPH'
p621
sS'fan_out'
p622
I1
ssS'content_placement'
p623
g11
(tRp624
g606
S'UNIFORM'
p625
ssS'joint_cache_rsn_placement'
p626
g11
(tRp627
S'network_cache'
p628
F0.94999999999999996
sS'network_rsn'
p629
F60.799999999999997
sg606
S'CACHE_ALL_RSN_ALL'
p630
sS'rsn_cache_ratio'
p631
I64
ssS'warmup_strategy'
p632
g11
(tRp633
g619
I10
sS'p'
F0.10000000000000001
sg606
g621
sg622
I100
ssS'topology'
p634
g11
(tRp635
S'ext_delay'
p636
I5
sS'source_ratio'
p637
F0.10000000000000001
sg606
S'ROCKET_FUEL'
p638
sS'asn'
p639
I3257
ssg11
(tRp640
S'SAT_RATE'
p641
g11
(tRp642
S'MEAN_CACHE_HIT'
p643
F0.58367222222222226
sS'MEAN_SERVER_HIT'
p644
F0.49055277777777778
sS'MEAN_SERVER_CACHE_HITS'
p645
F0.11934166666666667
sS'MEAN'
p646
F0.95488333333333331
ssS'CACHE_HIT_RATIO'
p647
g11
(tRp648
S'MEAN_OFF_PATH'
p649
F0.31671153105210215
sS'MEAN_ON_PATH'
p650
F0.26696069117012011
sg646
F0.58367222222222226
ssS'OVERHEAD'
p651
g11
(tRp652
S'SUCCESS_RATE'
p653
F0.5450393727228463
sS'QUOTA_USED_FAILURE'
p654
F2.2305242355761554
sS'FAILURE_RATE'
p655
F0.45496062727715375
sS'QUOTA_USED_SUCCESS'
p656
F7.0629252019275288
sg646
F1.2185200053526026
sS'NUM_SUCCESS_FIRST_TIME'
p657
F0.55209400864901625
ssS'LATENCY'
p658
g11
(tRp659
g646
F30.76733611111111
sstp660
a(g11
(tRp661
S'workload'
p662
g11
(tRp663
S'n_contents'
p664
I10000
sS'name'
p665
S'STATIONARY'
p666
sS'n_warmup'
p667
I720000
sS'rate'
p668
I100
sS'n_measured'
p669
I360000
sS'alpha'
p670
F0.69999999999999996
ssS'cache_policy'
p671
g11
(tRp672
g665
S'LRU'
p673
ssS'desc'
p674
S'quota_increment: 1.75'
p675
sS'strategy'
p676
g11
(tRp677
S'extra_quota'
p678
I2
sS'p'
F0.5
sS'quota_increment'
p679
F1.75
sg665
S'LIRA_DFIB_OPH'
p680
sS'fan_out'
p681
I2
ssS'content_placement'
p682
g11
(tRp683
g665
S'UNIFORM'
p684
ssS'joint_cache_rsn_placement'
p685
g11
(tRp686
S'network_cache'
p687
F0.94999999999999996
sS'network_rsn'
p688
F60.799999999999997
sg665
S'CACHE_ALL_RSN_ALL'
p689
sS'rsn_cache_ratio'
p690
I64
ssS'warmup_strategy'
p691
g11
(tRp692
g678
I10
sS'p'
F0.10000000000000001
sg665
g680
sg681
I100
ssS'topology'
p693
g11
(tRp694
S'ext_delay'
p695
I5
sS'source_ratio'
p696
F0.10000000000000001
sg665
S'ROCKET_FUEL'
p697
sS'asn'
p698
I3257
ssg11
(tRp699
S'SAT_RATE'
p700
g11
(tRp701
S'MEAN_CACHE_HIT'
p702
F0.66185000000000005
sS'MEAN_SERVER_HIT'
p703
F0.39735833333333331
sS'MEAN_SERVER_CACHE_HITS'
p704
F0.12077222222222223
sS'MEAN'
p705
F0.93843611111111114
ssS'CACHE_HIT_RATIO'
p706
g11
(tRp707
S'MEAN_OFF_PATH'
p708
F0.45270183444134116
sS'MEAN_ON_PATH'
p709
F0.20914816555865889
sg705
F0.66185000000000005
ssS'OVERHEAD'
p710
g11
(tRp711
S'SUCCESS_RATE'
p712
F0.65049842271293379
sS'QUOTA_USED_FAILURE'
p713
F3.043540452750948
sS'FAILURE_RATE'
p714
F0.34950157728706627
sS'QUOTA_USED_SUCCESS'
p715
F14.441002411807141
sg705
F1.2268372025562624
sS'NUM_SUCCESS_FIRST_TIME'
p716
F0.65185995705629518
ssS'LATENCY'
p717
g11
(tRp718
g705
F28.059166666666666
sstp719
a(g11
(tRp720
S'workload'
p721
g11
(tRp722
S'n_contents'
p723
I10000
sS'name'
p724
S'STATIONARY'
p725
sS'n_warmup'
p726
I720000
sS'rate'
p727
I100
sS'n_measured'
p728
I360000
sS'alpha'
p729
F0.69999999999999996
ssS'cache_policy'
p730
g11
(tRp731
g724
S'LRU'
p732
ssS'desc'
p733
S'quota_increment: 2.0'
p734
sS'strategy'
p735
g11
(tRp736
S'extra_quota'
p737
I2
sS'p'
F0.5
sS'quota_increment'
p738
F2
sg724
S'LIRA_DFIB_OPH'
p739
sS'fan_out'
p740
I2
ssS'content_placement'
p741
g11
(tRp742
g724
S'UNIFORM'
p743
ssS'joint_cache_rsn_placement'
p744
g11
(tRp745
S'network_cache'
p746
F0.94999999999999996
sS'network_rsn'
p747
F60.799999999999997
sg724
S'CACHE_ALL_RSN_ALL'
p748
sS'rsn_cache_ratio'
p749
I64
ssS'warmup_strategy'
p750
g11
(tRp751
g737
I10
sS'p'
F0.10000000000000001
sg724
g739
sg740
I100
ssS'topology'
p752
g11
(tRp753
S'ext_delay'
p754
I5
sS'source_ratio'
p755
F0.10000000000000001
sg724
S'ROCKET_FUEL'
p756
sS'asn'
p757
I3257
ssg11
(tRp758
S'SAT_RATE'
p759
g11
(tRp760
S'MEAN_CACHE_HIT'
p761
F0.66584722222222226
sS'MEAN_SERVER_HIT'
p762
F0.35154999999999997
sS'MEAN_SERVER_CACHE_HITS'
p763
F0.096022222222222217
sS'MEAN'
p764
F0.92137500000000006
ssS'CACHE_HIT_RATIO'
p765
g11
(tRp766
S'MEAN_OFF_PATH'
p767
F0.51700280945659272
sS'MEAN_ON_PATH'
p768
F0.14884441276562954
sg764
F0.66584722222222226
ssS'OVERHEAD'
p769
g11
(tRp770
S'SUCCESS_RATE'
p771
F0.68119246067020134
sS'QUOTA_USED_FAILURE'
p772
F3.4479371233820886
sS'FAILURE_RATE'
p773
F0.31880753932979861
sS'QUOTA_USED_SUCCESS'
p774
F37.934019642109817
sg764
F1.2353668279594205
sS'NUM_SUCCESS_FIRST_TIME'
p775
F0.68357897623928165
ssS'LATENCY'
p776
g11
(tRp777
g764
F26.892788888888887
sstp778
a(g11
(tRp779
S'workload'
p780
g11
(tRp781
S'n_contents'
p782
I10000
sS'name'
p783
S'STATIONARY'
p784
sS'n_warmup'
p785
I720000
sS'rate'
p786
I100
sS'n_measured'
p787
I360000
sS'alpha'
p788
F0.69999999999999996
ssS'cache_policy'
p789
g11
(tRp790
g783
S'LRU'
p791
ssS'desc'
p792
S'quota_increment: 0.75'
p793
sS'strategy'
p794
g11
(tRp795
S'extra_quota'
p796
I2
sS'p'
F0.5
sS'quota_increment'
p797
F0.75
sg783
S'LIRA_DFIB_OPH'
p798
sS'fan_out'
p799
I2
ssS'content_placement'
p800
g11
(tRp801
g783
S'UNIFORM'
p802
ssS'joint_cache_rsn_placement'
p803
g11
(tRp804
S'network_cache'
p805
F0.94999999999999996
sS'network_rsn'
p806
F60.799999999999997
sg783
S'CACHE_ALL_RSN_ALL'
p807
sS'rsn_cache_ratio'
p808
I64
ssS'warmup_strategy'
p809
g11
(tRp810
g796
I10
sS'p'
F0.10000000000000001
sg783
g798
sg799
I100
ssS'topology'
p811
g11
(tRp812
S'ext_delay'
p813
I5
sS'source_ratio'
p814
F0.10000000000000001
sg783
S'ROCKET_FUEL'
p815
sS'asn'
p816
I3257
ssg11
(tRp817
S'SAT_RATE'
p818
g11
(tRp819
S'MEAN_CACHE_HIT'
p820
F0.6620138888888889
sS'MEAN_SERVER_HIT'
p821
F0.49072222222222223
sS'MEAN_SERVER_CACHE_HITS'
p822
F0.18296944444444443
sS'MEAN'
p823
F0.96976666666666667
ssS'CACHE_HIT_RATIO'
p824
g11
(tRp825
S'MEAN_OFF_PATH'
p826
F0.43696760123859901
sS'MEAN_ON_PATH'
p827
F0.22504628765028989
sg823
F0.6620138888888889
ssS'OVERHEAD'
p828
g11
(tRp829
S'SUCCESS_RATE'
p830
F0.647550567653846
sS'QUOTA_USED_FAILURE'
p831
F1.9030891995805306
sS'FAILURE_RATE'
p832
F0.352449432346154
sS'QUOTA_USED_SUCCESS'
p833
F8.6418165188421696
sg823
F1.3349001478018767
sS'NUM_SUCCESS_FIRST_TIME'
p834
F0.6486601370225108
ssS'LATENCY'
p835
g11
(tRp836
g823
F29.815227777777778
sstp837
a(g11
(tRp838
S'workload'
p839
g11
(tRp840
S'n_contents'
p841
I10000
sS'name'
p842
S'STATIONARY'
p843
sS'n_warmup'
p844
I720000
sS'rate'
p845
I100
sS'n_measured'
p846
I360000
sS'alpha'
p847
F0.69999999999999996
ssS'cache_policy'
p848
g11
(tRp849
g842
S'LRU'
p850
ssS'desc'
p851
S'quota_increment: 1.25'
p852
sS'strategy'
p853
g11
(tRp854
S'extra_quota'
p855
I2
sS'p'
F0.5
sS'quota_increment'
p856
F1.25
sg842
S'LIRA_DFIB_OPH'
p857
sS'fan_out'
p858
I1
ssS'content_placement'
p859
g11
(tRp860
g842
S'UNIFORM'
p861
ssS'joint_cache_rsn_placement'
p862
g11
(tRp863
S'network_cache'
p864
F0.94999999999999996
sS'network_rsn'
p865
F60.799999999999997
sg842
S'CACHE_ALL_RSN_ALL'
p866
sS'rsn_cache_ratio'
p867
I64
ssS'warmup_strategy'
p868
g11
(tRp869
g855
I10
sS'p'
F0.10000000000000001
sg842
g857
sg858
I100
ssS'topology'
p870
g11
(tRp871
S'ext_delay'
p872
I5
sS'source_ratio'
p873
F0.10000000000000001
sg842
S'ROCKET_FUEL'
p874
sS'asn'
p875
I3257
ssg11
(tRp876
S'SAT_RATE'
p877
g11
(tRp878
S'MEAN_CACHE_HIT'
p879
F0.58381388888888885
sS'MEAN_SERVER_HIT'
p880
F0.49957499999999999
sS'MEAN_SERVER_CACHE_HITS'
p881
F0.12380277777777778
sS'MEAN'
p882
F0.95958611111111114
ssS'CACHE_HIT_RATIO'
p883
g11
(tRp884
S'MEAN_OFF_PATH'
p885
F0.3270652787036562
sS'MEAN_ON_PATH'
p886
F0.25674861018523265
sg882
F0.58381388888888885
ssS'OVERHEAD'
p887
g11
(tRp888
S'SUCCESS_RATE'
p889
F0.55502006724358299
sS'QUOTA_USED_FAILURE'
p890
F2.0318383950251122
sS'FAILURE_RATE'
p891
F0.44497993275641706
sS'QUOTA_USED_SUCCESS'
p892
F8.2726031300151774
sg882
F1.2341229291563782
sS'NUM_SUCCESS_FIRST_TIME'
p893
F0.56107470745465438
ssS'LATENCY'
p894
g11
(tRp895
g882
F31.773375000000001
sstp896
a(g11
(tRp897
S'workload'
p898
g11
(tRp899
S'n_contents'
p900
I10000
sS'name'
p901
S'STATIONARY'
p902
sS'n_warmup'
p903
I720000
sS'rate'
p904
I100
sS'n_measured'
p905
I360000
sS'alpha'
p906
F0.69999999999999996
ssS'cache_policy'
p907
g11
(tRp908
g901
S'LRU'
p909
ssS'desc'
p910
S'quota_increment: 0.25'
p911
sS'strategy'
p912
g11
(tRp913
S'extra_quota'
p914
I2
sS'p'
F0.5
sS'quota_increment'
p915
F0.25
sg901
S'LIRA_DFIB_OPH'
p916
sS'fan_out'
p917
I2
ssS'content_placement'
p918
g11
(tRp919
g901
S'UNIFORM'
p920
ssS'joint_cache_rsn_placement'
p921
g11
(tRp922
S'network_cache'
p923
F0.94999999999999996
sS'network_rsn'
p924
F60.799999999999997
sg901
S'CACHE_ALL_RSN_ALL'
p925
sS'rsn_cache_ratio'
p926
I64
ssS'warmup_strategy'
p927
g11
(tRp928
g914
I10
sS'p'
F0.10000000000000001
sg901
g916
sg917
I100
ssS'topology'
p929
g11
(tRp930
S'ext_delay'
p931
I5
sS'source_ratio'
p932
F0.10000000000000001
sg901
S'ROCKET_FUEL'
p933
sS'asn'
p934
I3257
ssg11
(tRp935
S'SAT_RATE'
p936
g11
(tRp937
S'MEAN_CACHE_HIT'
p938
F0.66284722222222225
sS'MEAN_SERVER_HIT'
p939
F0.5727916666666667
sS'MEAN_SERVER_CACHE_HITS'
p940
F0.24366111111111111
sS'MEAN'
p941
F0.99197777777777774
ssS'CACHE_HIT_RATIO'
p942
g11
(tRp943
S'MEAN_OFF_PATH'
p944
F0.41355124429557361
sS'MEAN_ON_PATH'
p945
F0.24929597792664865
sg941
F0.66284722222222225
ssS'OVERHEAD'
p946
g11
(tRp947
S'SUCCESS_RATE'
p948
F0.64407784122122158
sS'QUOTA_USED_FAILURE'
p949
F1.3613225075305415
sS'FAILURE_RATE'
p950
F0.35592215877877842
sS'QUOTA_USED_SUCCESS'
p951
F9.1867021468950689
sg941
F1.4358744595533055
sS'NUM_SUCCESS_FIRST_TIME'
p952
F0.64389148789313333
ssS'LATENCY'
p953
g11
(tRp954
g941
F33.159336111111109
sstp955
atRp956
sb.