ccopy_reg
_reconstructor
p1
(cicarus.results.readwrite
ResultSet
p2
c__builtin__
object
p3
NtRp4
(dp5
S'attr'
p6
(dp7
sS'_results'
p8
ccollections
deque
p9
((lp10
(cicarus.util
Tree
p11
(tRp12
S'workload'
p13
g11
(tRp14
S'n_contents'
p15
I10000
sS'name'
p16
S'STATIONARY'
p17
sS'n_warmup'
p18
I720000
sS'rate'
p19
I100
sS'n_measured'
p20
I360000
sS'alpha'
p21
F0.69999999999999996
ssS'cache_policy'
p22
g11
(tRp23
g16
S'LRU'
p24
ssS'desc'
p25
S'strategy network_cache: 0.8'
p26
sS'strategy'
p27
g11
(tRp28
g16
S'NRR_PROB'
p29
ssS'content_placement'
p30
g11
(tRp31
g16
S'UNIFORM'
p32
ssS'joint_cache_rsn_placement'
p33
g11
(tRp34
S'network_cache'
p35
F0.80000000000000004
sS'network_rsn'
p36
F102.40000000000001
sg16
S'CACHE_ALL_RSN_ALL'
p37
sS'rsn_cache_ratio'
p38
I128
ssS'warmup_strategy'
p39
g11
(tRp40
g16
g29
ssS'topology'
p41
g11
(tRp42
S'ext_delay'
p43
I0
sS'source_ratio'
p44
F0.10000000000000001
sg16
S'ROCKET_FUEL'
p45
sS'asn'
p46
I3257
ssg11
(tRp47
S'SAT_RATE'
p48
g11
(tRp49
S'MEAN_CACHE_HIT'
p50
F0.91737777777777774
sS'MEAN_SERVER_HIT'
p51
F0.082622222222222222
sS'MEAN_SERVER_CACHE_HITS'
p52
F0
sS'MEAN'
p53
F1
ssS'CACHE_HIT_RATIO'
p54
g11
(tRp55
S'MEAN_OFF_PATH'
p56
F0.84834444444444446
sS'MEAN_ON_PATH'
p57
F0.06903333333333328
sg53
F0.91737777777777774
ssS'OVERHEAD'
p58
g11
(tRp59
S'INTEREST_HOPS'
p60
F5.4635861111111108
sS'SUCCESS_RATE'
p61
F0
sS'QUOTA_USED_FAILURE'
p62
F0
sS'FAILURE_RATE'
p63
F0
sS'QUOTA_USED_SUCCESS'
p64
F0
sS'NUM_SUCCESS_FIRST_TIME'
p65
F0
sg53
F1
ssS'LATENCY'
p66
g11
(tRp67
g53
F35.321833333333331
sstp68
a(g11
(tRp69
S'workload'
p70
g11
(tRp71
S'n_contents'
p72
I10000
sS'name'
p73
S'STATIONARY'
p74
sS'n_warmup'
p75
I720000
sS'rate'
p76
I100
sS'n_measured'
p77
I360000
sS'alpha'
p78
F0.69999999999999996
ssS'cache_policy'
p79
g11
(tRp80
g73
S'LRU'
p81
ssS'desc'
p82
S'strategy network_cache: 0.9'
p83
sS'strategy'
p84
g11
(tRp85
g73
S'NRR_PROB'
p86
ssS'content_placement'
p87
g11
(tRp88
g73
S'UNIFORM'
p89
ssS'joint_cache_rsn_placement'
p90
g11
(tRp91
S'network_cache'
p92
F0.90000000000000002
sS'network_rsn'
p93
F115.2
sg73
S'CACHE_ALL_RSN_ALL'
p94
sS'rsn_cache_ratio'
p95
I128
ssS'warmup_strategy'
p96
g11
(tRp97
g73
g86
ssS'topology'
p98
g11
(tRp99
S'ext_delay'
p100
I0
sS'source_ratio'
p101
F0.10000000000000001
sg73
S'ROCKET_FUEL'
p102
sS'asn'
p103
I3257
ssg11
(tRp104
S'SAT_RATE'
p105
g11
(tRp106
S'MEAN_CACHE_HIT'
p107
F0.9589361111111111
sS'MEAN_SERVER_HIT'
p108
F0.041063888888888886
sS'MEAN_SERVER_CACHE_HITS'
p109
F0
sS'MEAN'
p110
F1
ssS'CACHE_HIT_RATIO'
p111
g11
(tRp112
S'MEAN_OFF_PATH'
p113
F0.89163333333333339
sS'MEAN_ON_PATH'
p114
F0.067302777777777711
sg110
F0.9589361111111111
ssS'OVERHEAD'
p115
g11
(tRp116
S'INTEREST_HOPS'
p117
F5.3641083333333333
sS'SUCCESS_RATE'
p118
F0
sS'QUOTA_USED_FAILURE'
p119
F0
sS'FAILURE_RATE'
p120
F0
sS'QUOTA_USED_SUCCESS'
p121
F0
sS'NUM_SUCCESS_FIRST_TIME'
p122
F0
sg110
F1
ssS'LATENCY'
p123
g11
(tRp124
g110
F32.557733333333331
sstp125
a(g11
(tRp126
S'workload'
p127
g11
(tRp128
S'n_contents'
p129
I10000
sS'name'
p130
S'STATIONARY'
p131
sS'n_warmup'
p132
I720000
sS'rate'
p133
I100
sS'n_measured'
p134
I360000
sS'alpha'
p135
F0.69999999999999996
ssS'cache_policy'
p136
g11
(tRp137
g130
S'LRU'
p138
ssS'desc'
p139
S'strategy network_cache: 0.6'
p140
sS'strategy'
p141
g11
(tRp142
g130
S'NRR_PROB'
p143
ssS'content_placement'
p144
g11
(tRp145
g130
S'UNIFORM'
p146
ssS'joint_cache_rsn_placement'
p147
g11
(tRp148
S'network_cache'
p149
F0.59999999999999998
sS'network_rsn'
p150
F76.799999999999997
sg130
S'CACHE_ALL_RSN_ALL'
p151
sS'rsn_cache_ratio'
p152
I128
ssS'warmup_strategy'
p153
g11
(tRp154
g130
g143
ssS'topology'
p155
g11
(tRp156
S'ext_delay'
p157
I0
sS'source_ratio'
p158
F0.10000000000000001
sg130
S'ROCKET_FUEL'
p159
sS'asn'
p160
I3257
ssg11
(tRp161
S'SAT_RATE'
p162
g11
(tRp163
S'MEAN_CACHE_HIT'
p164
F0.8080694444444444
sS'MEAN_SERVER_HIT'
p165
F0.19193055555555555
sS'MEAN_SERVER_CACHE_HITS'
p166
F0
sS'MEAN'
p167
F1
ssS'CACHE_HIT_RATIO'
p168
g11
(tRp169
S'MEAN_OFF_PATH'
p170
F0.74002222222222225
sS'MEAN_ON_PATH'
p171
F0.068047222222222148
sg167
F0.8080694444444444
ssS'OVERHEAD'
p172
g11
(tRp173
S'INTEREST_HOPS'
p174
F5.6817888888888888
sS'SUCCESS_RATE'
p175
F0
sS'QUOTA_USED_FAILURE'
p176
F0
sS'FAILURE_RATE'
p177
F0
sS'QUOTA_USED_SUCCESS'
p178
F0
sS'NUM_SUCCESS_FIRST_TIME'
p179
F0
sg167
F1
ssS'LATENCY'
p180
g11
(tRp181
g167
F42.883538888888886
sstp182
a(g11
(tRp183
S'workload'
p184
g11
(tRp185
S'n_contents'
p186
I10000
sS'name'
p187
S'STATIONARY'
p188
sS'n_warmup'
p189
I720000
sS'rate'
p190
I100
sS'n_measured'
p191
I360000
sS'alpha'
p192
F0.69999999999999996
ssS'cache_policy'
p193
g11
(tRp194
g187
S'LRU'
p195
ssS'desc'
p196
S'strategy network_cache: 0.4'
p197
sS'strategy'
p198
g11
(tRp199
g187
S'NRR_PROB'
p200
ssS'content_placement'
p201
g11
(tRp202
g187
S'UNIFORM'
p203
ssS'joint_cache_rsn_placement'
p204
g11
(tRp205
S'network_cache'
p206
F0.40000000000000002
sS'network_rsn'
p207
F51.200000000000003
sg187
S'CACHE_ALL_RSN_ALL'
p208
sS'rsn_cache_ratio'
p209
I128
ssS'warmup_strategy'
p210
g11
(tRp211
g187
g200
ssS'topology'
p212
g11
(tRp213
S'ext_delay'
p214
I0
sS'source_ratio'
p215
F0.10000000000000001
sg187
S'ROCKET_FUEL'
p216
sS'asn'
p217
I3257
ssg11
(tRp218
S'SAT_RATE'
p219
g11
(tRp220
S'MEAN_CACHE_HIT'
p221
F0.68305000000000005
sS'MEAN_SERVER_HIT'
p222
F0.31695000000000001
sS'MEAN_SERVER_CACHE_HITS'
p223
F0
sS'MEAN'
p224
F1
ssS'CACHE_HIT_RATIO'
p225
g11
(tRp226
S'MEAN_OFF_PATH'
p227
F0.62823611111111111
sS'MEAN_ON_PATH'
p228
F0.05481388888888894
sg224
F0.68305000000000005
ssS'OVERHEAD'
p229
g11
(tRp230
S'INTEREST_HOPS'
p231
F5.9194138888888892
sS'SUCCESS_RATE'
p232
F0
sS'QUOTA_USED_FAILURE'
p233
F0
sS'FAILURE_RATE'
p234
F0
sS'QUOTA_USED_SUCCESS'
p235
F0
sS'NUM_SUCCESS_FIRST_TIME'
p236
F0
sg224
F1
ssS'LATENCY'
p237
g11
(tRp238
g224
F51.597072222222224
sstp239
a(g11
(tRp240
S'workload'
p241
g11
(tRp242
S'n_contents'
p243
I10000
sS'name'
p244
S'STATIONARY'
p245
sS'n_warmup'
p246
I720000
sS'rate'
p247
I100
sS'n_measured'
p248
I360000
sS'alpha'
p249
F0.69999999999999996
ssS'cache_policy'
p250
g11
(tRp251
g244
S'LRU'
p252
ssS'desc'
p253
S'strategy network_cache: 0.7'
p254
sS'strategy'
p255
g11
(tRp256
g244
S'NRR_PROB'
p257
ssS'content_placement'
p258
g11
(tRp259
g244
S'UNIFORM'
p260
ssS'joint_cache_rsn_placement'
p261
g11
(tRp262
S'network_cache'
p263
F0.69999999999999996
sS'network_rsn'
p264
F89.599999999999994
sg244
S'CACHE_ALL_RSN_ALL'
p265
sS'rsn_cache_ratio'
p266
I128
ssS'warmup_strategy'
p267
g11
(tRp268
g244
g257
ssS'topology'
p269
g11
(tRp270
S'ext_delay'
p271
I0
sS'source_ratio'
p272
F0.10000000000000001
sg244
S'ROCKET_FUEL'
p273
sS'asn'
p274
I3257
ssg11
(tRp275
S'SAT_RATE'
p276
g11
(tRp277
S'MEAN_CACHE_HIT'
p278
F0.86271666666666669
sS'MEAN_SERVER_HIT'
p279
F0.13728333333333334
sS'MEAN_SERVER_CACHE_HITS'
p280
F0
sS'MEAN'
p281
F1
ssS'CACHE_HIT_RATIO'
p282
g11
(tRp283
S'MEAN_OFF_PATH'
p284
F0.78880833333333333
sS'MEAN_ON_PATH'
p285
F0.073908333333333354
sg281
F0.86271666666666669
ssS'OVERHEAD'
p286
g11
(tRp287
S'INTEREST_HOPS'
p288
F5.5244388888888887
sS'SUCCESS_RATE'
p289
F0
sS'QUOTA_USED_FAILURE'
p290
F0
sS'FAILURE_RATE'
p291
F0
sS'QUOTA_USED_SUCCESS'
p292
F0
sS'NUM_SUCCESS_FIRST_TIME'
p293
F0
sg281
F1
ssS'LATENCY'
p294
g11
(tRp295
g281
F39.0824
sstp296
a(g11
(tRp297
S'workload'
p298
g11
(tRp299
S'n_contents'
p300
I10000
sS'name'
p301
S'STATIONARY'
p302
sS'n_warmup'
p303
I720000
sS'rate'
p304
I100
sS'n_measured'
p305
I360000
sS'alpha'
p306
F0.69999999999999996
ssS'cache_policy'
p307
g11
(tRp308
g301
S'LRU'
p309
ssS'desc'
p310
S'strategy network_cache: 0.5'
p311
sS'strategy'
p312
g11
(tRp313
g301
S'NRR_PROB'
p314
ssS'content_placement'
p315
g11
(tRp316
g301
S'UNIFORM'
p317
ssS'joint_cache_rsn_placement'
p318
g11
(tRp319
S'network_cache'
p320
F0.5
sS'network_rsn'
p321
F64
sg301
S'CACHE_ALL_RSN_ALL'
p322
sS'rsn_cache_ratio'
p323
I128
ssS'warmup_strategy'
p324
g11
(tRp325
g301
g314
ssS'topology'
p326
g11
(tRp327
S'ext_delay'
p328
I0
sS'source_ratio'
p329
F0.10000000000000001
sg301
S'ROCKET_FUEL'
p330
sS'asn'
p331
I3257
ssg11
(tRp332
S'SAT_RATE'
p333
g11
(tRp334
S'MEAN_CACHE_HIT'
p335
F0.74911944444444445
sS'MEAN_SERVER_HIT'
p336
F0.25088055555555555
sS'MEAN_SERVER_CACHE_HITS'
p337
F0
sS'MEAN'
p338
F1
ssS'CACHE_HIT_RATIO'
p339
g11
(tRp340
S'MEAN_OFF_PATH'
p341
F0.70594166666666669
sS'MEAN_ON_PATH'
p342
F0.043177777777777759
sg338
F0.74911944444444445
ssS'OVERHEAD'
p343
g11
(tRp344
S'INTEREST_HOPS'
p345
F5.7447416666666671
sS'SUCCESS_RATE'
p346
F0
sS'QUOTA_USED_FAILURE'
p347
F0
sS'FAILURE_RATE'
p348
F0
sS'QUOTA_USED_SUCCESS'
p349
F0
sS'NUM_SUCCESS_FIRST_TIME'
p350
F0
sg338
F1
ssS'LATENCY'
p351
g11
(tRp352
g338
F46.852327777777781
sstp353
a(g11
(tRp354
S'workload'
p355
g11
(tRp356
S'n_contents'
p357
I10000
sS'name'
p358
S'STATIONARY'
p359
sS'n_warmup'
p360
I720000
sS'rate'
p361
I100
sS'n_measured'
p362
I360000
sS'alpha'
p363
F0.69999999999999996
ssS'cache_policy'
p364
g11
(tRp365
g358
S'LRU'
p366
ssS'desc'
p367
S'strategy network_cache: 0.3'
p368
sS'strategy'
p369
g11
(tRp370
g358
S'NRR_PROB'
p371
ssS'content_placement'
p372
g11
(tRp373
g358
S'UNIFORM'
p374
ssS'joint_cache_rsn_placement'
p375
g11
(tRp376
S'network_cache'
p377
F0.29999999999999999
sS'network_rsn'
p378
F38.399999999999999
sg358
S'CACHE_ALL_RSN_ALL'
p379
sS'rsn_cache_ratio'
p380
I128
ssS'warmup_strategy'
p381
g11
(tRp382
g358
g371
ssS'topology'
p383
g11
(tRp384
S'ext_delay'
p385
I0
sS'source_ratio'
p386
F0.10000000000000001
sg358
S'ROCKET_FUEL'
p387
sS'asn'
p388
I3257
ssg11
(tRp389
S'SAT_RATE'
p390
g11
(tRp391
S'MEAN_CACHE_HIT'
p392
F0.6061833333333333
sS'MEAN_SERVER_HIT'
p393
F0.39381666666666665
sS'MEAN_SERVER_CACHE_HITS'
p394
F0
sS'MEAN'
p395
F1
ssS'CACHE_HIT_RATIO'
p396
g11
(tRp397
S'MEAN_OFF_PATH'
p398
F0.56601111111111113
sS'MEAN_ON_PATH'
p399
F0.040172222222222165
sg395
F0.6061833333333333
ssS'OVERHEAD'
p400
g11
(tRp401
S'INTEREST_HOPS'
p402
F6.0409111111111109
sS'SUCCESS_RATE'
p403
F0
sS'QUOTA_USED_FAILURE'
p404
F0
sS'FAILURE_RATE'
p405
F0
sS'QUOTA_USED_SUCCESS'
p406
F0
sS'NUM_SUCCESS_FIRST_TIME'
p407
F0
sg395
F1
ssS'LATENCY'
p408
g11
(tRp409
g395
F57.69381111111111
sstp410
a(g11
(tRp411
S'workload'
p412
g11
(tRp413
S'n_contents'
p414
I10000
sS'name'
p415
S'STATIONARY'
p416
sS'n_warmup'
p417
I720000
sS'rate'
p418
I100
sS'n_measured'
p419
I360000
sS'alpha'
p420
F0.69999999999999996
ssS'cache_policy'
p421
g11
(tRp422
g415
S'LRU'
p423
ssS'desc'
p424
S'strategy network_cache: 0.2'
p425
sS'strategy'
p426
g11
(tRp427
g415
S'NRR_PROB'
p428
ssS'content_placement'
p429
g11
(tRp430
g415
S'UNIFORM'
p431
ssS'joint_cache_rsn_placement'
p432
g11
(tRp433
S'network_cache'
p434
F0.20000000000000001
sS'network_rsn'
p435
F25.600000000000001
sg415
S'CACHE_ALL_RSN_ALL'
p436
sS'rsn_cache_ratio'
p437
I128
ssS'warmup_strategy'
p438
g11
(tRp439
g415
g428
ssS'topology'
p440
g11
(tRp441
S'ext_delay'
p442
I0
sS'source_ratio'
p443
F0.10000000000000001
sg415
S'ROCKET_FUEL'
p444
sS'asn'
p445
I3257
ssg11
(tRp446
S'SAT_RATE'
p447
g11
(tRp448
S'MEAN_CACHE_HIT'
p449
F0.49012777777777777
sS'MEAN_SERVER_HIT'
p450
F0.50987222222222217
sS'MEAN_SERVER_CACHE_HITS'
p451
F0
sS'MEAN'
p452
F1
ssS'CACHE_HIT_RATIO'
p453
g11
(tRp454
S'MEAN_OFF_PATH'
p455
F0.46360000000000001
sS'MEAN_ON_PATH'
p456
F0.026527777777777761
sg452
F0.49012777777777777
ssS'OVERHEAD'
p457
g11
(tRp458
S'INTEREST_HOPS'
p459
F6.2797861111111111
sS'SUCCESS_RATE'
p460
F0
sS'QUOTA_USED_FAILURE'
p461
F0
sS'FAILURE_RATE'
p462
F0
sS'QUOTA_USED_SUCCESS'
p463
F0
sS'NUM_SUCCESS_FIRST_TIME'
p464
F0
sg452
F1
ssS'LATENCY'
p465
g11
(tRp466
g452
F64.583811111111117
sstp467
a(g11
(tRp468
S'workload'
p469
g11
(tRp470
S'n_contents'
p471
I10000
sS'name'
p472
S'STATIONARY'
p473
sS'n_warmup'
p474
I720000
sS'rate'
p475
I100
sS'n_measured'
p476
I360000
sS'alpha'
p477
F0.69999999999999996
ssS'cache_policy'
p478
g11
(tRp479
g472
S'LRU'
p480
ssS'desc'
p481
S'strategy network_cache: 0.1'
p482
sS'strategy'
p483
g11
(tRp484
g472
S'NRR_PROB'
p485
ssS'content_placement'
p486
g11
(tRp487
g472
S'UNIFORM'
p488
ssS'joint_cache_rsn_placement'
p489
g11
(tRp490
S'network_cache'
p491
F0.10000000000000001
sS'network_rsn'
p492
F12.800000000000001
sg472
S'CACHE_ALL_RSN_ALL'
p493
sS'rsn_cache_ratio'
p494
I128
ssS'warmup_strategy'
p495
g11
(tRp496
g472
g485
ssS'topology'
p497
g11
(tRp498
S'ext_delay'
p499
I0
sS'source_ratio'
p500
F0.10000000000000001
sg472
S'ROCKET_FUEL'
p501
sS'asn'
p502
I3257
ssg11
(tRp503
S'SAT_RATE'
p504
g11
(tRp505
S'MEAN_CACHE_HIT'
p506
F0.35052499999999998
sS'MEAN_SERVER_HIT'
p507
F0.64947500000000002
sS'MEAN_SERVER_CACHE_HITS'
p508
F0
sS'MEAN'
p509
F1
ssS'CACHE_HIT_RATIO'
p510
g11
(tRp511
S'MEAN_OFF_PATH'
p512
F0.33634999999999998
sS'MEAN_ON_PATH'
p513
F0.014174999999999993
sg509
F0.35052499999999998
ssS'OVERHEAD'
p514
g11
(tRp515
S'INTEREST_HOPS'
p516
F6.5188416666666669
sS'SUCCESS_RATE'
p517
F0
sS'QUOTA_USED_FAILURE'
p518
F0
sS'FAILURE_RATE'
p519
F0
sS'QUOTA_USED_SUCCESS'
p520
F0
sS'NUM_SUCCESS_FIRST_TIME'
p521
F0
sg509
F1
ssS'LATENCY'
p522
g11
(tRp523
g509
F74.641627777777771
sstp524
atRp525
sb.