ccopy_reg
_reconstructor
p1
(cicarus.results.readwrite
ResultSet
p2
c__builtin__
object
p3
NtRp4
(dp5
S'attr'
p6
(dp7
sS'_results'
p8
ccollections
deque
p9
((lp10
(cicarus.util
Tree
p11
(tRp12
S'workload'
p13
g11
(tRp14
S'n_contents'
p15
I10000
sS'name'
p16
S'STATIONARY'
p17
sS'n_warmup'
p18
I720000
sS'rate'
p19
I100
sS'n_measured'
p20
I360000
sS'alpha'
p21
F0.69999999999999996
ssS'cache_policy'
p22
g11
(tRp23
g16
S'LRU'
p24
ssS'desc'
p25
S'RSN size sensitivity -> RSN/cache ratio: 128.0'
p26
sS'strategy'
p27
g11
(tRp28
g16
S'TFIB_BC'
p29
ssS'content_placement'
p30
g11
(tRp31
g16
S'UNIFORM'
p32
ssS'joint_cache_rsn_placement'
p33
g11
(tRp34
S'network_cache'
p35
F0.69999999999999996
sS'network_rsn'
p36
F89.599999999999994
sg16
S'CACHE_ALL_RSN_ALL'
p37
sS'rsn_cache_ratio'
p38
F128
ssS'warmup_strategy'
p39
g11
(tRp40
g16
g29
ssS'topology'
p41
g11
(tRp42
S'ext_delay'
p43
I0
sS'source_ratio'
p44
F0.10000000000000001
sg16
S'ROCKET_FUEL'
p45
sS'asn'
p46
I3257
ssg11
(tRp47
S'SAT_RATE'
p48
g11
(tRp49
S'MEAN_CACHE_HIT'
p50
F0.8529916666666667
sS'MEAN_SERVER_HIT'
p51
F0.14700833333333332
sS'MEAN_SERVER_CACHE_HITS'
p52
F0
sS'MEAN'
p53
F1
ssS'CACHE_HIT_RATIO'
p54
g11
(tRp55
S'MEAN_OFF_PATH'
p56
F0.82190833333333335
sS'MEAN_ON_PATH'
p57
F0.031083333333333352
sg53
F0.8529916666666667
ssS'OVERHEAD'
p58
g11
(tRp59
S'SUCCESS_RATE'
p60
F0.84077243950398384
sS'QUOTA_USED_FAILURE'
p61
F0
sS'FAILURE_RATE'
p62
F0.15922756049601619
sS'QUOTA_USED_SUCCESS'
p63
F0
sg53
F1
sS'NUM_SUCCESS_FIRST_TIME'
p64
F0.84239787768142405
ssS'LATENCY'
p65
g11
(tRp66
g53
F42.830132672235806
sstp67
a(g11
(tRp68
S'workload'
p69
g11
(tRp70
S'n_contents'
p71
I10000
sS'name'
p72
S'STATIONARY'
p73
sS'n_warmup'
p74
I720000
sS'rate'
p75
I100
sS'n_measured'
p76
I360000
sS'alpha'
p77
F0.69999999999999996
ssS'cache_policy'
p78
g11
(tRp79
g72
S'LRU'
p80
ssS'desc'
p81
S'RSN size sensitivity -> RSN/cache ratio: 256.0'
p82
sS'strategy'
p83
g11
(tRp84
g72
S'TFIB_BC'
p85
ssS'content_placement'
p86
g11
(tRp87
g72
S'UNIFORM'
p88
ssS'joint_cache_rsn_placement'
p89
g11
(tRp90
S'network_cache'
p91
F0.69999999999999996
sS'network_rsn'
p92
F179.19999999999999
sg72
S'CACHE_ALL_RSN_ALL'
p93
sS'rsn_cache_ratio'
p94
F256
ssS'warmup_strategy'
p95
g11
(tRp96
g72
g85
ssS'topology'
p97
g11
(tRp98
S'ext_delay'
p99
I0
sS'source_ratio'
p100
F0.10000000000000001
sg72
S'ROCKET_FUEL'
p101
sS'asn'
p102
I3257
ssg11
(tRp103
S'SAT_RATE'
p104
g11
(tRp105
S'MEAN_CACHE_HIT'
p106
F0.85344166666666665
sS'MEAN_SERVER_HIT'
p107
F0.14655833333333335
sS'MEAN_SERVER_CACHE_HITS'
p108
F0
sS'MEAN'
p109
F1
ssS'CACHE_HIT_RATIO'
p110
g11
(tRp111
S'MEAN_OFF_PATH'
p112
F0.8236
sS'MEAN_ON_PATH'
p113
F0.029841666666666655
sg109
F0.85344166666666665
ssS'OVERHEAD'
p114
g11
(tRp115
S'SUCCESS_RATE'
p116
F0.84074746214484208
sS'QUOTA_USED_FAILURE'
p117
F0
sS'FAILURE_RATE'
p118
F0.15925253785515794
sS'QUOTA_USED_SUCCESS'
p119
F0
sg109
F1
sS'NUM_SUCCESS_FIRST_TIME'
p120
F0.84238371017544855
ssS'LATENCY'
p121
g11
(tRp122
g109
F43.129873433953478
sstp123
a(g11
(tRp124
S'workload'
p125
g11
(tRp126
S'n_contents'
p127
I10000
sS'name'
p128
S'STATIONARY'
p129
sS'n_warmup'
p130
I720000
sS'rate'
p131
I100
sS'n_measured'
p132
I360000
sS'alpha'
p133
F0.69999999999999996
ssS'cache_policy'
p134
g11
(tRp135
g128
S'LRU'
p136
ssS'desc'
p137
S'RSN size sensitivity -> RSN/cache ratio: 32.0'
p138
sS'strategy'
p139
g11
(tRp140
g128
S'TFIB_BC'
p141
ssS'content_placement'
p142
g11
(tRp143
g128
S'UNIFORM'
p144
ssS'joint_cache_rsn_placement'
p145
g11
(tRp146
S'network_cache'
p147
F0.69999999999999996
sS'network_rsn'
p148
F22.399999999999999
sg128
S'CACHE_ALL_RSN_ALL'
p149
sS'rsn_cache_ratio'
p150
F32
ssS'warmup_strategy'
p151
g11
(tRp152
g128
g141
ssS'topology'
p153
g11
(tRp154
S'ext_delay'
p155
I0
sS'source_ratio'
p156
F0.10000000000000001
sg128
S'ROCKET_FUEL'
p157
sS'asn'
p158
I3257
ssg11
(tRp159
S'SAT_RATE'
p160
g11
(tRp161
S'MEAN_CACHE_HIT'
p162
F0.63284722222222223
sS'MEAN_SERVER_HIT'
p163
F0.36715277777777777
sS'MEAN_SERVER_CACHE_HITS'
p164
F0
sS'MEAN'
p165
F1
ssS'CACHE_HIT_RATIO'
p166
g11
(tRp167
S'MEAN_OFF_PATH'
p168
F0.57791388888888884
sS'MEAN_ON_PATH'
p169
F0.05493333333333339
sg165
F0.63284722222222223
ssS'OVERHEAD'
p170
g11
(tRp171
S'SUCCESS_RATE'
p172
F0.691238375589319
sS'QUOTA_USED_FAILURE'
p173
F0
sS'FAILURE_RATE'
p174
F0.308761624410681
sS'QUOTA_USED_SUCCESS'
p175
F0
sg165
F1
sS'NUM_SUCCESS_FIRST_TIME'
p176
F0.70227726035000082
ssS'LATENCY'
p177
g11
(tRp178
g165
F60.044194849302244
sstp179
a(g11
(tRp180
S'workload'
p181
g11
(tRp182
S'n_contents'
p183
I10000
sS'name'
p184
S'STATIONARY'
p185
sS'n_warmup'
p186
I720000
sS'rate'
p187
I100
sS'n_measured'
p188
I360000
sS'alpha'
p189
F0.69999999999999996
ssS'cache_policy'
p190
g11
(tRp191
g184
S'LRU'
p192
ssS'desc'
p193
S'RSN size sensitivity -> RSN/cache ratio: 4.0'
p194
sS'strategy'
p195
g11
(tRp196
g184
S'TFIB_BC'
p197
ssS'content_placement'
p198
g11
(tRp199
g184
S'UNIFORM'
p200
ssS'joint_cache_rsn_placement'
p201
g11
(tRp202
S'network_cache'
p203
F0.69999999999999996
sS'network_rsn'
p204
F2.7999999999999998
sg184
S'CACHE_ALL_RSN_ALL'
p205
sS'rsn_cache_ratio'
p206
F4
ssS'warmup_strategy'
p207
g11
(tRp208
g184
g197
ssS'topology'
p209
g11
(tRp210
S'ext_delay'
p211
I0
sS'source_ratio'
p212
F0.10000000000000001
sg184
S'ROCKET_FUEL'
p213
sS'asn'
p214
I3257
ssg11
(tRp215
S'SAT_RATE'
p216
g11
(tRp217
S'MEAN_CACHE_HIT'
p218
F0.36106388888888891
sS'MEAN_SERVER_HIT'
p219
F0.63893611111111115
sS'MEAN_SERVER_CACHE_HITS'
p220
F0
sS'MEAN'
p221
F1
ssS'CACHE_HIT_RATIO'
p222
g11
(tRp223
S'MEAN_OFF_PATH'
p224
F0.080983333333333338
sS'MEAN_ON_PATH'
p225
F0.28008055555555555
sg221
F0.36106388888888891
ssS'OVERHEAD'
p226
g11
(tRp227
S'SUCCESS_RATE'
p228
F0.34523386619301361
sS'QUOTA_USED_FAILURE'
p229
F0
sS'FAILURE_RATE'
p230
F0.65476613380698634
sS'QUOTA_USED_SUCCESS'
p231
F0
sg221
F1
sS'NUM_SUCCESS_FIRST_TIME'
p232
F0.35048887802493278
ssS'LATENCY'
p233
g11
(tRp234
g221
F80.697613013414255
sstp235
a(g11
(tRp236
S'workload'
p237
g11
(tRp238
S'n_contents'
p239
I10000
sS'name'
p240
S'STATIONARY'
p241
sS'n_warmup'
p242
I720000
sS'rate'
p243
I100
sS'n_measured'
p244
I360000
sS'alpha'
p245
F0.69999999999999996
ssS'cache_policy'
p246
g11
(tRp247
g240
S'LRU'
p248
ssS'desc'
p249
S'RSN size sensitivity -> RSN/cache ratio: 2.0'
p250
sS'strategy'
p251
g11
(tRp252
g240
S'TFIB_BC'
p253
ssS'content_placement'
p254
g11
(tRp255
g240
S'UNIFORM'
p256
ssS'joint_cache_rsn_placement'
p257
g11
(tRp258
S'network_cache'
p259
F0.69999999999999996
sS'network_rsn'
p260
F1.3999999999999999
sg240
S'CACHE_ALL_RSN_ALL'
p261
sS'rsn_cache_ratio'
p262
F2
ssS'warmup_strategy'
p263
g11
(tRp264
g240
g253
ssS'topology'
p265
g11
(tRp266
S'ext_delay'
p267
I0
sS'source_ratio'
p268
F0.10000000000000001
sg240
S'ROCKET_FUEL'
p269
sS'asn'
p270
I3257
ssg11
(tRp271
S'SAT_RATE'
p272
g11
(tRp273
S'MEAN_CACHE_HIT'
p274
F0.34010555555555555
sS'MEAN_SERVER_HIT'
p275
F0.65989444444444445
sS'MEAN_SERVER_CACHE_HITS'
p276
F0
sS'MEAN'
p277
F1
ssS'CACHE_HIT_RATIO'
p278
g11
(tRp279
S'MEAN_OFF_PATH'
p280
F0.01695
sS'MEAN_ON_PATH'
p281
F0.32315555555555553
sg277
F0.34010555555555555
ssS'OVERHEAD'
p282
g11
(tRp283
S'SUCCESS_RATE'
p284
F0.15972985707554579
sS'QUOTA_USED_FAILURE'
p285
F0
sS'FAILURE_RATE'
p286
F0.84027014292445423
sS'QUOTA_USED_SUCCESS'
p287
F0
sg277
F1
sS'NUM_SUCCESS_FIRST_TIME'
p288
F0.1601783939174122
ssS'LATENCY'
p289
g11
(tRp290
g277
F80.234828204177632
sstp291
a(g11
(tRp292
S'workload'
p293
g11
(tRp294
S'n_contents'
p295
I10000
sS'name'
p296
S'STATIONARY'
p297
sS'n_warmup'
p298
I720000
sS'rate'
p299
I100
sS'n_measured'
p300
I360000
sS'alpha'
p301
F0.69999999999999996
ssS'cache_policy'
p302
g11
(tRp303
g296
S'LRU'
p304
ssS'desc'
p305
S'RSN size sensitivity -> RSN/cache ratio: 16.0'
p306
sS'strategy'
p307
g11
(tRp308
g296
S'TFIB_BC'
p309
ssS'content_placement'
p310
g11
(tRp311
g296
S'UNIFORM'
p312
ssS'joint_cache_rsn_placement'
p313
g11
(tRp314
S'network_cache'
p315
F0.69999999999999996
sS'network_rsn'
p316
F11.199999999999999
sg296
S'CACHE_ALL_RSN_ALL'
p317
sS'rsn_cache_ratio'
p318
F16
ssS'warmup_strategy'
p319
g11
(tRp320
g296
g309
ssS'topology'
p321
g11
(tRp322
S'ext_delay'
p323
I0
sS'source_ratio'
p324
F0.10000000000000001
sg296
S'ROCKET_FUEL'
p325
sS'asn'
p326
I3257
ssg11
(tRp327
S'SAT_RATE'
p328
g11
(tRp329
S'MEAN_CACHE_HIT'
p330
F0.45374722222222225
sS'MEAN_SERVER_HIT'
p331
F0.54625277777777781
sS'MEAN_SERVER_CACHE_HITS'
p332
F0
sS'MEAN'
p333
F1
ssS'CACHE_HIT_RATIO'
p334
g11
(tRp335
S'MEAN_OFF_PATH'
p336
F0.3437277777777778
sS'MEAN_ON_PATH'
p337
F0.11001944444444445
sg333
F0.45374722222222225
ssS'OVERHEAD'
p338
g11
(tRp339
S'SUCCESS_RATE'
p340
F0.57849365851834189
sS'QUOTA_USED_FAILURE'
p341
F0
sS'FAILURE_RATE'
p342
F0.42150634148165811
sS'QUOTA_USED_SUCCESS'
p343
F0
sg333
F1
sS'NUM_SUCCESS_FIRST_TIME'
p344
F0.58572328567967047
ssS'LATENCY'
p345
g11
(tRp346
g333
F74.512366474362281
sstp347
a(g11
(tRp348
S'workload'
p349
g11
(tRp350
S'n_contents'
p351
I10000
sS'name'
p352
S'STATIONARY'
p353
sS'n_warmup'
p354
I720000
sS'rate'
p355
I100
sS'n_measured'
p356
I360000
sS'alpha'
p357
F0.69999999999999996
ssS'cache_policy'
p358
g11
(tRp359
g352
S'LRU'
p360
ssS'desc'
p361
S'RSN size sensitivity -> RSN/cache ratio: 8.0'
p362
sS'strategy'
p363
g11
(tRp364
g352
S'TFIB_BC'
p365
ssS'content_placement'
p366
g11
(tRp367
g352
S'UNIFORM'
p368
ssS'joint_cache_rsn_placement'
p369
g11
(tRp370
S'network_cache'
p371
F0.69999999999999996
sS'network_rsn'
p372
F5.5999999999999996
sg352
S'CACHE_ALL_RSN_ALL'
p373
sS'rsn_cache_ratio'
p374
F8
ssS'warmup_strategy'
p375
g11
(tRp376
g352
g365
ssS'topology'
p377
g11
(tRp378
S'ext_delay'
p379
I0
sS'source_ratio'
p380
F0.10000000000000001
sg352
S'ROCKET_FUEL'
p381
sS'asn'
p382
I3257
ssg11
(tRp383
S'SAT_RATE'
p384
g11
(tRp385
S'MEAN_CACHE_HIT'
p386
F0.38558611111111113
sS'MEAN_SERVER_HIT'
p387
F0.61441388888888893
sS'MEAN_SERVER_CACHE_HITS'
p388
F0
sS'MEAN'
p389
F1
ssS'CACHE_HIT_RATIO'
p390
g11
(tRp391
S'MEAN_OFF_PATH'
p392
F0.17103333333333334
sS'MEAN_ON_PATH'
p393
F0.21455277777777779
sg389
F0.38558611111111113
ssS'OVERHEAD'
p394
g11
(tRp395
S'SUCCESS_RATE'
p396
F0.44088962722156189
sS'QUOTA_USED_FAILURE'
p397
F0
sS'FAILURE_RATE'
p398
F0.55911037277843811
sS'QUOTA_USED_SUCCESS'
p399
F0
sg389
F1
sS'NUM_SUCCESS_FIRST_TIME'
p400
F0.44678207754368582
ssS'LATENCY'
p401
g11
(tRp402
g389
F79.958265926417425
sstp403
a(g11
(tRp404
S'workload'
p405
g11
(tRp406
S'n_contents'
p407
I10000
sS'name'
p408
S'STATIONARY'
p409
sS'n_warmup'
p410
I720000
sS'rate'
p411
I100
sS'n_measured'
p412
I360000
sS'alpha'
p413
F0.69999999999999996
ssS'cache_policy'
p414
g11
(tRp415
g408
S'LRU'
p416
ssS'desc'
p417
S'RSN size sensitivity -> RSN/cache ratio: 64.0'
p418
sS'strategy'
p419
g11
(tRp420
g408
S'TFIB_BC'
p421
ssS'content_placement'
p422
g11
(tRp423
g408
S'UNIFORM'
p424
ssS'joint_cache_rsn_placement'
p425
g11
(tRp426
S'network_cache'
p427
F0.69999999999999996
sS'network_rsn'
p428
F44.799999999999997
sg408
S'CACHE_ALL_RSN_ALL'
p429
sS'rsn_cache_ratio'
p430
F64
ssS'warmup_strategy'
p431
g11
(tRp432
g408
g421
ssS'topology'
p433
g11
(tRp434
S'ext_delay'
p435
I0
sS'source_ratio'
p436
F0.10000000000000001
sg408
S'ROCKET_FUEL'
p437
sS'asn'
p438
I3257
ssg11
(tRp439
S'SAT_RATE'
p440
g11
(tRp441
S'MEAN_CACHE_HIT'
p442
F0.82744166666666663
sS'MEAN_SERVER_HIT'
p443
F0.17255833333333334
sS'MEAN_SERVER_CACHE_HITS'
p444
F0
sS'MEAN'
p445
F1
ssS'CACHE_HIT_RATIO'
p446
g11
(tRp447
S'MEAN_OFF_PATH'
p448
F0.79671944444444442
sS'MEAN_ON_PATH'
p449
F0.030722222222222206
sg445
F0.82744166666666663
ssS'OVERHEAD'
p450
g11
(tRp451
S'SUCCESS_RATE'
p452
F0.8176818890634221
sS'QUOTA_USED_FAILURE'
p453
F0
sS'FAILURE_RATE'
p454
F0.18231811093657793
sS'QUOTA_USED_SUCCESS'
p455
F0
sg445
F1
sS'NUM_SUCCESS_FIRST_TIME'
p456
F0.82428186518859126
ssS'LATENCY'
p457
g11
(tRp458
g445
F44.546027656944617
sstp459
a(g11
(tRp460
S'workload'
p461
g11
(tRp462
S'n_contents'
p463
I10000
sS'name'
p464
S'STATIONARY'
p465
sS'n_warmup'
p466
I720000
sS'rate'
p467
I100
sS'n_measured'
p468
I360000
sS'alpha'
p469
F0.69999999999999996
ssS'cache_policy'
p470
g11
(tRp471
g464
S'LRU'
p472
ssS'desc'
p473
S'strategy network_cache: 0.2'
p474
sS'strategy'
p475
g11
(tRp476
g464
S'NDN_PROB'
p477
ssS'content_placement'
p478
g11
(tRp479
g464
S'UNIFORM'
p480
ssS'joint_cache_rsn_placement'
p481
g11
(tRp482
S'network_cache'
p483
F0.20000000000000001
sS'network_rsn'
p484
F25.600000000000001
sg464
S'CACHE_ALL_RSN_ALL'
p485
sS'rsn_cache_ratio'
p486
I128
ssS'warmup_strategy'
p487
g11
(tRp488
g464
g477
ssS'topology'
p489
g11
(tRp490
S'ext_delay'
p491
I0
sS'source_ratio'
p492
F0.10000000000000001
sg464
S'ROCKET_FUEL'
p493
sS'asn'
p494
I3257
ssg11
(tRp495
S'SAT_RATE'
p496
g11
(tRp497
S'MEAN_CACHE_HIT'
p498
F0.1862611111111111
sS'MEAN_SERVER_HIT'
p499
F0.8137388888888889
sS'MEAN_SERVER_CACHE_HITS'
p500
F0
sS'MEAN'
p501
F1
ssS'CACHE_HIT_RATIO'
p502
g11
(tRp503
S'MEAN_OFF_PATH'
p504
F0
sS'MEAN_ON_PATH'
p505
F0.1862611111111111
sg501
F0.1862611111111111
ssS'OVERHEAD'
p506
g11
(tRp507
S'SUCCESS_RATE'
p508
F0
sS'QUOTA_USED_FAILURE'
p509
F0
sS'FAILURE_RATE'
p510
F0
sS'QUOTA_USED_SUCCESS'
p511
F0
sg501
F1
sS'NUM_SUCCESS_FIRST_TIME'
p512
F0
ssS'LATENCY'
p513
g11
(tRp514
g501
F92.204754778490312
sstp515
a(g11
(tRp516
S'workload'
p517
g11
(tRp518
S'n_contents'
p519
I10000
sS'name'
p520
S'STATIONARY'
p521
sS'n_warmup'
p522
I720000
sS'rate'
p523
I100
sS'n_measured'
p524
I360000
sS'alpha'
p525
F0.69999999999999996
ssS'cache_policy'
p526
g11
(tRp527
g520
S'LRU'
p528
ssS'desc'
p529
S'strategy network_cache: 0.3'
p530
sS'strategy'
p531
g11
(tRp532
g520
S'NDN_PROB'
p533
ssS'content_placement'
p534
g11
(tRp535
g520
S'UNIFORM'
p536
ssS'joint_cache_rsn_placement'
p537
g11
(tRp538
S'network_cache'
p539
F0.29999999999999999
sS'network_rsn'
p540
F38.399999999999999
sg520
S'CACHE_ALL_RSN_ALL'
p541
sS'rsn_cache_ratio'
p542
I128
ssS'warmup_strategy'
p543
g11
(tRp544
g520
g533
ssS'topology'
p545
g11
(tRp546
S'ext_delay'
p547
I0
sS'source_ratio'
p548
F0.10000000000000001
sg520
S'ROCKET_FUEL'
p549
sS'asn'
p550
I3257
ssg11
(tRp551
S'SAT_RATE'
p552
g11
(tRp553
S'MEAN_CACHE_HIT'
p554
F0.23092222222222222
sS'MEAN_SERVER_HIT'
p555
F0.76907777777777775
sS'MEAN_SERVER_CACHE_HITS'
p556
F0
sS'MEAN'
p557
F1
ssS'CACHE_HIT_RATIO'
p558
g11
(tRp559
S'MEAN_OFF_PATH'
p560
F0
sS'MEAN_ON_PATH'
p561
F0.23092222222222222
sg557
F0.23092222222222222
ssS'OVERHEAD'
p562
g11
(tRp563
S'SUCCESS_RATE'
p564
F0
sS'QUOTA_USED_FAILURE'
p565
F0
sS'FAILURE_RATE'
p566
F0
sS'QUOTA_USED_SUCCESS'
p567
F0
sg557
F1
sS'NUM_SUCCESS_FIRST_TIME'
p568
F0
ssS'LATENCY'
p569
g11
(tRp570
g557
F88.38584677169402
sstp571
a(g11
(tRp572
S'workload'
p573
g11
(tRp574
S'n_contents'
p575
I10000
sS'name'
p576
S'STATIONARY'
p577
sS'n_warmup'
p578
I720000
sS'rate'
p579
I100
sS'n_measured'
p580
I360000
sS'alpha'
p581
F0.69999999999999996
ssS'cache_policy'
p582
g11
(tRp583
g576
S'LRU'
p584
ssS'desc'
p585
S'strategy network_cache: 0.1'
p586
sS'strategy'
p587
g11
(tRp588
g576
S'NDN_PROB'
p589
ssS'content_placement'
p590
g11
(tRp591
g576
S'UNIFORM'
p592
ssS'joint_cache_rsn_placement'
p593
g11
(tRp594
S'network_cache'
p595
F0.10000000000000001
sS'network_rsn'
p596
F12.800000000000001
sg576
S'CACHE_ALL_RSN_ALL'
p597
sS'rsn_cache_ratio'
p598
I128
ssS'warmup_strategy'
p599
g11
(tRp600
g576
g589
ssS'topology'
p601
g11
(tRp602
S'ext_delay'
p603
I0
sS'source_ratio'
p604
F0.10000000000000001
sg576
S'ROCKET_FUEL'
p605
sS'asn'
p606
I3257
ssg11
(tRp607
S'SAT_RATE'
p608
g11
(tRp609
S'MEAN_CACHE_HIT'
p610
F0.11489444444444444
sS'MEAN_SERVER_HIT'
p611
F0.88510555555555559
sS'MEAN_SERVER_CACHE_HITS'
p612
F0
sS'MEAN'
p613
F1
ssS'CACHE_HIT_RATIO'
p614
g11
(tRp615
S'MEAN_OFF_PATH'
p616
F0
sS'MEAN_ON_PATH'
p617
F0.11489444444444444
sg613
F0.11489444444444444
ssS'OVERHEAD'
p618
g11
(tRp619
S'SUCCESS_RATE'
p620
F0
sS'QUOTA_USED_FAILURE'
p621
F0
sS'FAILURE_RATE'
p622
F0
sS'QUOTA_USED_SUCCESS'
p623
F0
sg613
F1
sS'NUM_SUCCESS_FIRST_TIME'
p624
F0
ssS'LATENCY'
p625
g11
(tRp626
g613
F99.412488387557374
sstp627
a(g11
(tRp628
S'workload'
p629
g11
(tRp630
S'n_contents'
p631
I10000
sS'name'
p632
S'STATIONARY'
p633
sS'n_warmup'
p634
I720000
sS'rate'
p635
I100
sS'n_measured'
p636
I360000
sS'alpha'
p637
F0.69999999999999996
ssS'cache_policy'
p638
g11
(tRp639
g632
S'LRU'
p640
ssS'desc'
p641
S'strategy network_cache: 0.4'
p642
sS'strategy'
p643
g11
(tRp644
g632
S'NDN_PROB'
p645
ssS'content_placement'
p646
g11
(tRp647
g632
S'UNIFORM'
p648
ssS'joint_cache_rsn_placement'
p649
g11
(tRp650
S'network_cache'
p651
F0.40000000000000002
sS'network_rsn'
p652
F51.200000000000003
sg632
S'CACHE_ALL_RSN_ALL'
p653
sS'rsn_cache_ratio'
p654
I128
ssS'warmup_strategy'
p655
g11
(tRp656
g632
g645
ssS'topology'
p657
g11
(tRp658
S'ext_delay'
p659
I0
sS'source_ratio'
p660
F0.10000000000000001
sg632
S'ROCKET_FUEL'
p661
sS'asn'
p662
I3257
ssg11
(tRp663
S'SAT_RATE'
p664
g11
(tRp665
S'MEAN_CACHE_HIT'
p666
F0.2661722222222222
sS'MEAN_SERVER_HIT'
p667
F0.73382777777777775
sS'MEAN_SERVER_CACHE_HITS'
p668
F0
sS'MEAN'
p669
F1
ssS'CACHE_HIT_RATIO'
p670
g11
(tRp671
S'MEAN_OFF_PATH'
p672
F0
sS'MEAN_ON_PATH'
p673
F0.2661722222222222
sg669
F0.2661722222222222
ssS'OVERHEAD'
p674
g11
(tRp675
S'SUCCESS_RATE'
p676
F0
sS'QUOTA_USED_FAILURE'
p677
F0
sS'FAILURE_RATE'
p678
F0
sS'QUOTA_USED_SUCCESS'
p679
F0
sg669
F1
sS'NUM_SUCCESS_FIRST_TIME'
p680
F0
ssS'LATENCY'
p681
g11
(tRp682
g669
F85.381838999304108
sstp683
a(g11
(tRp684
S'workload'
p685
g11
(tRp686
S'n_contents'
p687
I10000
sS'name'
p688
S'STATIONARY'
p689
sS'n_warmup'
p690
I720000
sS'rate'
p691
I100
sS'n_measured'
p692
I360000
sS'alpha'
p693
F0.69999999999999996
ssS'cache_policy'
p694
g11
(tRp695
g688
S'LRU'
p696
ssS'desc'
p697
S'strategy network_cache: 0.6'
p698
sS'strategy'
p699
g11
(tRp700
g688
S'NDN_PROB'
p701
ssS'content_placement'
p702
g11
(tRp703
g688
S'UNIFORM'
p704
ssS'joint_cache_rsn_placement'
p705
g11
(tRp706
S'network_cache'
p707
F0.59999999999999998
sS'network_rsn'
p708
F76.799999999999997
sg688
S'CACHE_ALL_RSN_ALL'
p709
sS'rsn_cache_ratio'
p710
I128
ssS'warmup_strategy'
p711
g11
(tRp712
g688
g701
ssS'topology'
p713
g11
(tRp714
S'ext_delay'
p715
I0
sS'source_ratio'
p716
F0.10000000000000001
sg688
S'ROCKET_FUEL'
p717
sS'asn'
p718
I3257
ssg11
(tRp719
S'SAT_RATE'
p720
g11
(tRp721
S'MEAN_CACHE_HIT'
p722
F0.31860555555555553
sS'MEAN_SERVER_HIT'
p723
F0.68139444444444441
sS'MEAN_SERVER_CACHE_HITS'
p724
F0
sS'MEAN'
p725
F1
ssS'CACHE_HIT_RATIO'
p726
g11
(tRp727
S'MEAN_OFF_PATH'
p728
F0
sS'MEAN_ON_PATH'
p729
F0.31860555555555553
sg725
F0.31860555555555553
ssS'OVERHEAD'
p730
g11
(tRp731
S'SUCCESS_RATE'
p732
F0
sS'QUOTA_USED_FAILURE'
p733
F0
sS'FAILURE_RATE'
p734
F0
sS'QUOTA_USED_SUCCESS'
p735
F0
sg725
F1
sS'NUM_SUCCESS_FIRST_TIME'
p736
F0
ssS'LATENCY'
p737
g11
(tRp738
g725
F81.390581505246971
sstp739
a(g11
(tRp740
S'workload'
p741
g11
(tRp742
S'n_contents'
p743
I10000
sS'name'
p744
S'STATIONARY'
p745
sS'n_warmup'
p746
I720000
sS'rate'
p747
I100
sS'n_measured'
p748
I360000
sS'alpha'
p749
F0.69999999999999996
ssS'cache_policy'
p750
g11
(tRp751
g744
S'LRU'
p752
ssS'desc'
p753
S'strategy network_cache: 0.7'
p754
sS'strategy'
p755
g11
(tRp756
g744
S'NDN_PROB'
p757
ssS'content_placement'
p758
g11
(tRp759
g744
S'UNIFORM'
p760
ssS'joint_cache_rsn_placement'
p761
g11
(tRp762
S'network_cache'
p763
F0.69999999999999996
sS'network_rsn'
p764
F89.599999999999994
sg744
S'CACHE_ALL_RSN_ALL'
p765
sS'rsn_cache_ratio'
p766
I128
ssS'warmup_strategy'
p767
g11
(tRp768
g744
g757
ssS'topology'
p769
g11
(tRp770
S'ext_delay'
p771
I0
sS'source_ratio'
p772
F0.10000000000000001
sg744
S'ROCKET_FUEL'
p773
sS'asn'
p774
I3257
ssg11
(tRp775
S'SAT_RATE'
p776
g11
(tRp777
S'MEAN_CACHE_HIT'
p778
F0.33716666666666667
sS'MEAN_SERVER_HIT'
p779
F0.66283333333333339
sS'MEAN_SERVER_CACHE_HITS'
p780
F0
sS'MEAN'
p781
F1
ssS'CACHE_HIT_RATIO'
p782
g11
(tRp783
S'MEAN_OFF_PATH'
p784
F0
sS'MEAN_ON_PATH'
p785
F0.33716666666666667
sg781
F0.33716666666666667
ssS'OVERHEAD'
p786
g11
(tRp787
S'SUCCESS_RATE'
p788
F0
sS'QUOTA_USED_FAILURE'
p789
F0
sS'FAILURE_RATE'
p790
F0
sS'QUOTA_USED_SUCCESS'
p791
F0
sg781
F1
sS'NUM_SUCCESS_FIRST_TIME'
p792
F0
ssS'LATENCY'
p793
g11
(tRp794
g781
F79.805032102348605
sstp795
a(g11
(tRp796
S'workload'
p797
g11
(tRp798
S'n_contents'
p799
I10000
sS'name'
p800
S'STATIONARY'
p801
sS'n_warmup'
p802
I720000
sS'rate'
p803
I100
sS'n_measured'
p804
I360000
sS'alpha'
p805
F0.69999999999999996
ssS'cache_policy'
p806
g11
(tRp807
g800
S'LRU'
p808
ssS'desc'
p809
S'strategy network_cache: 0.5'
p810
sS'strategy'
p811
g11
(tRp812
g800
S'NDN_PROB'
p813
ssS'content_placement'
p814
g11
(tRp815
g800
S'UNIFORM'
p816
ssS'joint_cache_rsn_placement'
p817
g11
(tRp818
S'network_cache'
p819
F0.5
sS'network_rsn'
p820
F64
sg800
S'CACHE_ALL_RSN_ALL'
p821
sS'rsn_cache_ratio'
p822
I128
ssS'warmup_strategy'
p823
g11
(tRp824
g800
g813
ssS'topology'
p825
g11
(tRp826
S'ext_delay'
p827
I0
sS'source_ratio'
p828
F0.10000000000000001
sg800
S'ROCKET_FUEL'
p829
sS'asn'
p830
I3257
ssg11
(tRp831
S'SAT_RATE'
p832
g11
(tRp833
S'MEAN_CACHE_HIT'
p834
F0.29627222222222221
sS'MEAN_SERVER_HIT'
p835
F0.70372777777777773
sS'MEAN_SERVER_CACHE_HITS'
p836
F0
sS'MEAN'
p837
F1
ssS'CACHE_HIT_RATIO'
p838
g11
(tRp839
S'MEAN_OFF_PATH'
p840
F0
sS'MEAN_ON_PATH'
p841
F0.29627222222222221
sg837
F0.29627222222222221
ssS'OVERHEAD'
p842
g11
(tRp843
S'SUCCESS_RATE'
p844
F0
sS'QUOTA_USED_FAILURE'
p845
F0
sS'FAILURE_RATE'
p846
F0
sS'QUOTA_USED_SUCCESS'
p847
F0
sg837
F1
sS'NUM_SUCCESS_FIRST_TIME'
p848
F0
ssS'LATENCY'
p849
g11
(tRp850
g837
F83.96710203438947
sstp851
a(g11
(tRp852
S'workload'
p853
g11
(tRp854
S'n_contents'
p855
I10000
sS'name'
p856
S'STATIONARY'
p857
sS'n_warmup'
p858
I720000
sS'rate'
p859
I100
sS'n_measured'
p860
I360000
sS'alpha'
p861
F0.69999999999999996
ssS'cache_policy'
p862
g11
(tRp863
g856
S'LRU'
p864
ssS'desc'
p865
S'strategy network_cache: 0.8'
p866
sS'strategy'
p867
g11
(tRp868
g856
S'NDN_PROB'
p869
ssS'content_placement'
p870
g11
(tRp871
g856
S'UNIFORM'
p872
ssS'joint_cache_rsn_placement'
p873
g11
(tRp874
S'network_cache'
p875
F0.80000000000000004
sS'network_rsn'
p876
F102.40000000000001
sg856
S'CACHE_ALL_RSN_ALL'
p877
sS'rsn_cache_ratio'
p878
I128
ssS'warmup_strategy'
p879
g11
(tRp880
g856
g869
ssS'topology'
p881
g11
(tRp882
S'ext_delay'
p883
I0
sS'source_ratio'
p884
F0.10000000000000001
sg856
S'ROCKET_FUEL'
p885
sS'asn'
p886
I3257
ssg11
(tRp887
S'SAT_RATE'
p888
g11
(tRp889
S'MEAN_CACHE_HIT'
p890
F0.35625277777777775
sS'MEAN_SERVER_HIT'
p891
F0.64374722222222225
sS'MEAN_SERVER_CACHE_HITS'
p892
F0
sS'MEAN'
p893
F1
ssS'CACHE_HIT_RATIO'
p894
g11
(tRp895
S'MEAN_OFF_PATH'
p896
F0
sS'MEAN_ON_PATH'
p897
F0.35625277777777775
sg893
F0.35625277777777775
ssS'OVERHEAD'
p898
g11
(tRp899
S'SUCCESS_RATE'
p900
F0
sS'QUOTA_USED_FAILURE'
p901
F0
sS'FAILURE_RATE'
p902
F0
sS'QUOTA_USED_SUCCESS'
p903
F0
sg893
F1
sS'NUM_SUCCESS_FIRST_TIME'
p904
F0
ssS'LATENCY'
p905
g11
(tRp906
g893
F77.619768525378163
sstp907
a(g11
(tRp908
S'workload'
p909
g11
(tRp910
S'n_contents'
p911
I10000
sS'name'
p912
S'STATIONARY'
p913
sS'n_warmup'
p914
I720000
sS'rate'
p915
I100
sS'n_measured'
p916
I360000
sS'alpha'
p917
F0.69999999999999996
ssS'cache_policy'
p918
g11
(tRp919
g912
S'LRU'
p920
ssS'desc'
p921
S'strategy network_cache: 0.9'
p922
sS'strategy'
p923
g11
(tRp924
g912
S'NDN_PROB'
p925
ssS'content_placement'
p926
g11
(tRp927
g912
S'UNIFORM'
p928
ssS'joint_cache_rsn_placement'
p929
g11
(tRp930
S'network_cache'
p931
F0.90000000000000002
sS'network_rsn'
p932
F115.2
sg912
S'CACHE_ALL_RSN_ALL'
p933
sS'rsn_cache_ratio'
p934
I128
ssS'warmup_strategy'
p935
g11
(tRp936
g912
g925
ssS'topology'
p937
g11
(tRp938
S'ext_delay'
p939
I0
sS'source_ratio'
p940
F0.10000000000000001
sg912
S'ROCKET_FUEL'
p941
sS'asn'
p942
I3257
ssg11
(tRp943
S'SAT_RATE'
p944
g11
(tRp945
S'MEAN_CACHE_HIT'
p946
F0.36678055555555555
sS'MEAN_SERVER_HIT'
p947
F0.63321944444444445
sS'MEAN_SERVER_CACHE_HITS'
p948
F0
sS'MEAN'
p949
F1
ssS'CACHE_HIT_RATIO'
p950
g11
(tRp951
S'MEAN_OFF_PATH'
p952
F0
sS'MEAN_ON_PATH'
p953
F0.36678055555555555
sg949
F0.36678055555555555
ssS'OVERHEAD'
p954
g11
(tRp955
S'SUCCESS_RATE'
p956
F0
sS'QUOTA_USED_FAILURE'
p957
F0
sS'FAILURE_RATE'
p958
F0
sS'QUOTA_USED_SUCCESS'
p959
F0
sg949
F1
sS'NUM_SUCCESS_FIRST_TIME'
p960
F0
ssS'LATENCY'
p961
g11
(tRp962
g949
F76.297584851810811
sstp963
a(g11
(tRp964
S'workload'
p965
g11
(tRp966
S'n_contents'
p967
I10000
sS'name'
p968
S'STATIONARY'
p969
sS'n_warmup'
p970
I720000
sS'rate'
p971
I100
sS'n_measured'
p972
I360000
sS'alpha'
p973
F0.69999999999999996
ssS'cache_policy'
p974
g11
(tRp975
g968
S'LRU'
p976
ssS'desc'
p977
S'strategy network_cache: 0.2'
p978
sS'strategy'
p979
g11
(tRp980
g968
S'TFIB_BC'
p981
ssS'content_placement'
p982
g11
(tRp983
g968
S'UNIFORM'
p984
ssS'joint_cache_rsn_placement'
p985
g11
(tRp986
S'network_cache'
p987
F0.20000000000000001
sS'network_rsn'
p988
F25.600000000000001
sg968
S'CACHE_ALL_RSN_ALL'
p989
sS'rsn_cache_ratio'
p990
I128
ssS'warmup_strategy'
p991
g11
(tRp992
g968
g981
ssS'topology'
p993
g11
(tRp994
S'ext_delay'
p995
I0
sS'source_ratio'
p996
F0.10000000000000001
sg968
S'ROCKET_FUEL'
p997
sS'asn'
p998
I3257
ssg11
(tRp999
S'SAT_RATE'
p1000
g11
(tRp1001
S'MEAN_CACHE_HIT'
p1002
F0.47221666666666667
sS'MEAN_SERVER_HIT'
p1003
F0.52778333333333338
sS'MEAN_SERVER_CACHE_HITS'
p1004
F0
sS'MEAN'
p1005
F1
ssS'CACHE_HIT_RATIO'
p1006
g11
(tRp1007
S'MEAN_OFF_PATH'
p1008
F0.45787777777777777
sS'MEAN_ON_PATH'
p1009
F0.014338888888888901
sg1005
F0.47221666666666667
ssS'OVERHEAD'
p1010
g11
(tRp1011
S'SUCCESS_RATE'
p1012
F0.52678742633617548
sS'QUOTA_USED_FAILURE'
p1013
F0
sS'FAILURE_RATE'
p1014
F0.47321257366382452
sS'QUOTA_USED_SUCCESS'
p1015
F0
sg1005
F1
sS'NUM_SUCCESS_FIRST_TIME'
p1016
F0.53919273272148338
ssS'LATENCY'
p1017
g11
(tRp1018
g1005
F77.005856892231506
sstp1019
a(g11
(tRp1020
S'workload'
p1021
g11
(tRp1022
S'n_contents'
p1023
I10000
sS'name'
p1024
S'STATIONARY'
p1025
sS'n_warmup'
p1026
I720000
sS'rate'
p1027
I100
sS'n_measured'
p1028
I360000
sS'alpha'
p1029
F0.69999999999999996
ssS'cache_policy'
p1030
g11
(tRp1031
g1024
S'LRU'
p1032
ssS'desc'
p1033
S'strategy network_cache: 0.3'
p1034
sS'strategy'
p1035
g11
(tRp1036
g1024
S'TFIB_BC'
p1037
ssS'content_placement'
p1038
g11
(tRp1039
g1024
S'UNIFORM'
p1040
ssS'joint_cache_rsn_placement'
p1041
g11
(tRp1042
S'network_cache'
p1043
F0.29999999999999999
sS'network_rsn'
p1044
F38.399999999999999
sg1024
S'CACHE_ALL_RSN_ALL'
p1045
sS'rsn_cache_ratio'
p1046
I128
ssS'warmup_strategy'
p1047
g11
(tRp1048
g1024
g1037
ssS'topology'
p1049
g11
(tRp1050
S'ext_delay'
p1051
I0
sS'source_ratio'
p1052
F0.10000000000000001
sg1024
S'ROCKET_FUEL'
p1053
sS'asn'
p1054
I3257
ssg11
(tRp1055
S'SAT_RATE'
p1056
g11
(tRp1057
S'MEAN_CACHE_HIT'
p1058
F0.59458333333333335
sS'MEAN_SERVER_HIT'
p1059
F0.40541666666666665
sS'MEAN_SERVER_CACHE_HITS'
p1060
F0
sS'MEAN'
p1061
F1
ssS'CACHE_HIT_RATIO'
p1062
g11
(tRp1063
S'MEAN_OFF_PATH'
p1064
F0.57328888888888885
sS'MEAN_ON_PATH'
p1065
F0.021294444444444505
sg1061
F0.59458333333333335
ssS'OVERHEAD'
p1066
g11
(tRp1067
S'SUCCESS_RATE'
p1068
F0.60199337292466371
sS'QUOTA_USED_FAILURE'
p1069
F0
sS'FAILURE_RATE'
p1070
F0.39800662707533629
sS'QUOTA_USED_SUCCESS'
p1071
F0
sg1061
F1
sS'NUM_SUCCESS_FIRST_TIME'
p1072
F0.61239016928534007
ssS'LATENCY'
p1073
g11
(tRp1074
g1061
F67.516341690602559
sstp1075
a(g11
(tRp1076
S'workload'
p1077
g11
(tRp1078
S'n_contents'
p1079
I10000
sS'name'
p1080
S'STATIONARY'
p1081
sS'n_warmup'
p1082
I720000
sS'rate'
p1083
I100
sS'n_measured'
p1084
I360000
sS'alpha'
p1085
F0.69999999999999996
ssS'cache_policy'
p1086
g11
(tRp1087
g1080
S'LRU'
p1088
ssS'desc'
p1089
S'strategy network_cache: 0.1'
p1090
sS'strategy'
p1091
g11
(tRp1092
g1080
S'TFIB_BC'
p1093
ssS'content_placement'
p1094
g11
(tRp1095
g1080
S'UNIFORM'
p1096
ssS'joint_cache_rsn_placement'
p1097
g11
(tRp1098
S'network_cache'
p1099
F0.10000000000000001
sS'network_rsn'
p1100
F12.800000000000001
sg1080
S'CACHE_ALL_RSN_ALL'
p1101
sS'rsn_cache_ratio'
p1102
I128
ssS'warmup_strategy'
p1103
g11
(tRp1104
g1080
g1093
ssS'topology'
p1105
g11
(tRp1106
S'ext_delay'
p1107
I0
sS'source_ratio'
p1108
F0.10000000000000001
sg1080
S'ROCKET_FUEL'
p1109
sS'asn'
p1110
I3257
ssg11
(tRp1111
S'SAT_RATE'
p1112
g11
(tRp1113
S'MEAN_CACHE_HIT'
p1114
F0.31714722222222225
sS'MEAN_SERVER_HIT'
p1115
F0.68285277777777775
sS'MEAN_SERVER_CACHE_HITS'
p1116
F0
sS'MEAN'
p1117
F1
ssS'CACHE_HIT_RATIO'
p1118
g11
(tRp1119
S'MEAN_OFF_PATH'
p1120
F0.30491944444444447
sS'MEAN_ON_PATH'
p1121
F0.012227777777777782
sg1117
F0.31714722222222225
ssS'OVERHEAD'
p1122
g11
(tRp1123
S'SUCCESS_RATE'
p1124
F0.46648393676695565
sS'QUOTA_USED_FAILURE'
p1125
F0
sS'FAILURE_RATE'
p1126
F0.53351606323304435
sS'QUOTA_USED_SUCCESS'
p1127
F0
sg1117
F1
sS'NUM_SUCCESS_FIRST_TIME'
p1128
F0.47474053960674528
ssS'LATENCY'
p1129
g11
(tRp1130
g1117
F88.170845048517847
sstp1131
a(g11
(tRp1132
S'workload'
p1133
g11
(tRp1134
S'n_contents'
p1135
I10000
sS'name'
p1136
S'STATIONARY'
p1137
sS'n_warmup'
p1138
I720000
sS'rate'
p1139
I100
sS'n_measured'
p1140
I360000
sS'alpha'
p1141
F0.69999999999999996
ssS'cache_policy'
p1142
g11
(tRp1143
g1136
S'LRU'
p1144
ssS'desc'
p1145
S'strategy network_cache: 0.4'
p1146
sS'strategy'
p1147
g11
(tRp1148
g1136
S'TFIB_BC'
p1149
ssS'content_placement'
p1150
g11
(tRp1151
g1136
S'UNIFORM'
p1152
ssS'joint_cache_rsn_placement'
p1153
g11
(tRp1154
S'network_cache'
p1155
F0.40000000000000002
sS'network_rsn'
p1156
F51.200000000000003
sg1136
S'CACHE_ALL_RSN_ALL'
p1157
sS'rsn_cache_ratio'
p1158
I128
ssS'warmup_strategy'
p1159
g11
(tRp1160
g1136
g1149
ssS'topology'
p1161
g11
(tRp1162
S'ext_delay'
p1163
I0
sS'source_ratio'
p1164
F0.10000000000000001
sg1136
S'ROCKET_FUEL'
p1165
sS'asn'
p1166
I3257
ssg11
(tRp1167
S'SAT_RATE'
p1168
g11
(tRp1169
S'MEAN_CACHE_HIT'
p1170
F0.67930277777777781
sS'MEAN_SERVER_HIT'
p1171
F0.32069722222222224
sS'MEAN_SERVER_CACHE_HITS'
p1172
F0
sS'MEAN'
p1173
F1
ssS'CACHE_HIT_RATIO'
p1174
g11
(tRp1175
S'MEAN_OFF_PATH'
p1176
F0.65609166666666663
sS'MEAN_ON_PATH'
p1177
F0.023211111111111182
sg1173
F0.67930277777777781
ssS'OVERHEAD'
p1178
g11
(tRp1179
S'SUCCESS_RATE'
p1180
F0.67216189142733551
sS'QUOTA_USED_FAILURE'
p1181
F0
sS'FAILURE_RATE'
p1182
F0.32783810857266443
sS'QUOTA_USED_SUCCESS'
p1183
F0
sg1173
F1
sS'NUM_SUCCESS_FIRST_TIME'
p1184
F0.67595821818244495
ssS'LATENCY'
p1185
g11
(tRp1186
g1173
F59.535061517140882
sstp1187
a(g11
(tRp1188
S'workload'
p1189
g11
(tRp1190
S'n_contents'
p1191
I10000
sS'name'
p1192
S'STATIONARY'
p1193
sS'n_warmup'
p1194
I720000
sS'rate'
p1195
I100
sS'n_measured'
p1196
I360000
sS'alpha'
p1197
F0.69999999999999996
ssS'cache_policy'
p1198
g11
(tRp1199
g1192
S'LRU'
p1200
ssS'desc'
p1201
S'strategy network_cache: 0.5'
p1202
sS'strategy'
p1203
g11
(tRp1204
g1192
S'TFIB_BC'
p1205
ssS'content_placement'
p1206
g11
(tRp1207
g1192
S'UNIFORM'
p1208
ssS'joint_cache_rsn_placement'
p1209
g11
(tRp1210
S'network_cache'
p1211
F0.5
sS'network_rsn'
p1212
F64
sg1192
S'CACHE_ALL_RSN_ALL'
p1213
sS'rsn_cache_ratio'
p1214
I128
ssS'warmup_strategy'
p1215
g11
(tRp1216
g1192
g1205
ssS'topology'
p1217
g11
(tRp1218
S'ext_delay'
p1219
I0
sS'source_ratio'
p1220
F0.10000000000000001
sg1192
S'ROCKET_FUEL'
p1221
sS'asn'
p1222
I3257
ssg11
(tRp1223
S'SAT_RATE'
p1224
g11
(tRp1225
S'MEAN_CACHE_HIT'
p1226
F0.74550555555555553
sS'MEAN_SERVER_HIT'
p1227
F0.25449444444444447
sS'MEAN_SERVER_CACHE_HITS'
p1228
F0
sS'MEAN'
p1229
F1
ssS'CACHE_HIT_RATIO'
p1230
g11
(tRp1231
S'MEAN_OFF_PATH'
p1232
F0.72053055555555556
sS'MEAN_ON_PATH'
p1233
F0.024974999999999969
sg1229
F0.74550555555555553
ssS'OVERHEAD'
p1234
g11
(tRp1235
S'SUCCESS_RATE'
p1236
F0.73590574323940949
sS'QUOTA_USED_FAILURE'
p1237
F0
sS'FAILURE_RATE'
p1238
F0.26409425676059056
sS'QUOTA_USED_SUCCESS'
p1239
F0
sg1229
F1
sS'NUM_SUCCESS_FIRST_TIME'
p1240
F0.73748643467709551
ssS'LATENCY'
p1241
g11
(tRp1242
g1229
F53.58424912449442
sstp1243
a(g11
(tRp1244
S'workload'
p1245
g11
(tRp1246
S'n_contents'
p1247
I10000
sS'name'
p1248
S'STATIONARY'
p1249
sS'n_warmup'
p1250
I720000
sS'rate'
p1251
I100
sS'n_measured'
p1252
I360000
sS'alpha'
p1253
F0.69999999999999996
ssS'cache_policy'
p1254
g11
(tRp1255
g1248
S'LRU'
p1256
ssS'desc'
p1257
S'strategy network_cache: 0.6'
p1258
sS'strategy'
p1259
g11
(tRp1260
g1248
S'TFIB_BC'
p1261
ssS'content_placement'
p1262
g11
(tRp1263
g1248
S'UNIFORM'
p1264
ssS'joint_cache_rsn_placement'
p1265
g11
(tRp1266
S'network_cache'
p1267
F0.59999999999999998
sS'network_rsn'
p1268
F76.799999999999997
sg1248
S'CACHE_ALL_RSN_ALL'
p1269
sS'rsn_cache_ratio'
p1270
I128
ssS'warmup_strategy'
p1271
g11
(tRp1272
g1248
g1261
ssS'topology'
p1273
g11
(tRp1274
S'ext_delay'
p1275
I0
sS'source_ratio'
p1276
F0.10000000000000001
sg1248
S'ROCKET_FUEL'
p1277
sS'asn'
p1278
I3257
ssg11
(tRp1279
S'SAT_RATE'
p1280
g11
(tRp1281
S'MEAN_CACHE_HIT'
p1282
F0.80284999999999995
sS'MEAN_SERVER_HIT'
p1283
F0.19714999999999999
sS'MEAN_SERVER_CACHE_HITS'
p1284
F0
sS'MEAN'
p1285
F1
ssS'CACHE_HIT_RATIO'
p1286
g11
(tRp1287
S'MEAN_OFF_PATH'
p1288
F0.77569999999999995
sS'MEAN_ON_PATH'
p1289
F0.027150000000000007
sg1285
F0.80284999999999995
ssS'OVERHEAD'
p1290
g11
(tRp1291
S'SUCCESS_RATE'
p1292
F0.79261916791080789
sS'QUOTA_USED_FAILURE'
p1293
F0
sS'FAILURE_RATE'
p1294
F0.20738083208919214
sS'QUOTA_USED_SUCCESS'
p1295
F0
sg1285
F1
sS'NUM_SUCCESS_FIRST_TIME'
p1296
F0.79418795139531906
ssS'LATENCY'
p1297
g11
(tRp1298
g1285
F47.361499679767768
sstp1299
a(g11
(tRp1300
S'workload'
p1301
g11
(tRp1302
S'n_contents'
p1303
I10000
sS'name'
p1304
S'STATIONARY'
p1305
sS'n_warmup'
p1306
I720000
sS'rate'
p1307
I100
sS'n_measured'
p1308
I360000
sS'alpha'
p1309
F0.69999999999999996
ssS'cache_policy'
p1310
g11
(tRp1311
g1304
S'LRU'
p1312
ssS'desc'
p1313
S'strategy network_cache: 0.7'
p1314
sS'strategy'
p1315
g11
(tRp1316
g1304
S'TFIB_BC'
p1317
ssS'content_placement'
p1318
g11
(tRp1319
g1304
S'UNIFORM'
p1320
ssS'joint_cache_rsn_placement'
p1321
g11
(tRp1322
S'network_cache'
p1323
F0.69999999999999996
sS'network_rsn'
p1324
F89.599999999999994
sg1304
S'CACHE_ALL_RSN_ALL'
p1325
sS'rsn_cache_ratio'
p1326
I128
ssS'warmup_strategy'
p1327
g11
(tRp1328
g1304
g1317
ssS'topology'
p1329
g11
(tRp1330
S'ext_delay'
p1331
I0
sS'source_ratio'
p1332
F0.10000000000000001
sg1304
S'ROCKET_FUEL'
p1333
sS'asn'
p1334
I3257
ssg11
(tRp1335
S'SAT_RATE'
p1336
g11
(tRp1337
S'MEAN_CACHE_HIT'
p1338
F0.85416388888888883
sS'MEAN_SERVER_HIT'
p1339
F0.14583611111111111
sS'MEAN_SERVER_CACHE_HITS'
p1340
F0
sS'MEAN'
p1341
F1
ssS'CACHE_HIT_RATIO'
p1342
g11
(tRp1343
S'MEAN_OFF_PATH'
p1344
F0.82581944444444444
sS'MEAN_ON_PATH'
p1345
F0.028344444444444394
sg1341
F0.85416388888888883
ssS'OVERHEAD'
p1346
g11
(tRp1347
S'SUCCESS_RATE'
p1348
F0.84207619317377147
sS'QUOTA_USED_FAILURE'
p1349
F0
sS'FAILURE_RATE'
p1350
F0.15792380682622859
sS'QUOTA_USED_SUCCESS'
p1351
F0
sg1341
F1
sS'NUM_SUCCESS_FIRST_TIME'
p1352
F0.84380981090865659
ssS'LATENCY'
p1353
g11
(tRp1354
g1341
F42.783028294058198
sstp1355
a(g11
(tRp1356
S'workload'
p1357
g11
(tRp1358
S'n_contents'
p1359
I10000
sS'name'
p1360
S'STATIONARY'
p1361
sS'n_warmup'
p1362
I720000
sS'rate'
p1363
I100
sS'n_measured'
p1364
I360000
sS'alpha'
p1365
F0.69999999999999996
ssS'cache_policy'
p1366
g11
(tRp1367
g1360
S'LRU'
p1368
ssS'desc'
p1369
S'strategy network_cache: 0.9'
p1370
sS'strategy'
p1371
g11
(tRp1372
g1360
S'TFIB_BC'
p1373
ssS'content_placement'
p1374
g11
(tRp1375
g1360
S'UNIFORM'
p1376
ssS'joint_cache_rsn_placement'
p1377
g11
(tRp1378
S'network_cache'
p1379
F0.90000000000000002
sS'network_rsn'
p1380
F115.2
sg1360
S'CACHE_ALL_RSN_ALL'
p1381
sS'rsn_cache_ratio'
p1382
I128
ssS'warmup_strategy'
p1383
g11
(tRp1384
g1360
g1373
ssS'topology'
p1385
g11
(tRp1386
S'ext_delay'
p1387
I0
sS'source_ratio'
p1388
F0.10000000000000001
sg1360
S'ROCKET_FUEL'
p1389
sS'asn'
p1390
I3257
ssg11
(tRp1391
S'SAT_RATE'
p1392
g11
(tRp1393
S'MEAN_CACHE_HIT'
p1394
F0.94655833333333328
sS'MEAN_SERVER_HIT'
p1395
F0.053441666666666665
sS'MEAN_SERVER_CACHE_HITS'
p1396
F0
sS'MEAN'
p1397
F1
ssS'CACHE_HIT_RATIO'
p1398
g11
(tRp1399
S'MEAN_OFF_PATH'
p1400
F0.91388888888888886
sS'MEAN_ON_PATH'
p1401
F0.032669444444444418
sg1397
F0.94655833333333328
ssS'OVERHEAD'
p1402
g11
(tRp1403
S'SUCCESS_RATE'
p1404
F0.93174229615721194
sS'QUOTA_USED_FAILURE'
p1405
F0
sS'FAILURE_RATE'
p1406
F0.068257703842788078
sS'QUOTA_USED_SUCCESS'
p1407
F0
sg1397
F1
sS'NUM_SUCCESS_FIRST_TIME'
p1408
F0.93311186009105218
ssS'LATENCY'
p1409
g11
(tRp1410
g1397
F34.137805379272073
sstp1411
a(g11
(tRp1412
S'workload'
p1413
g11
(tRp1414
S'n_contents'
p1415
I10000
sS'name'
p1416
S'STATIONARY'
p1417
sS'n_warmup'
p1418
I720000
sS'rate'
p1419
I100
sS'n_measured'
p1420
I360000
sS'alpha'
p1421
F0.69999999999999996
ssS'cache_policy'
p1422
g11
(tRp1423
g1416
S'LRU'
p1424
ssS'desc'
p1425
S'strategy network_cache: 0.8'
p1426
sS'strategy'
p1427
g11
(tRp1428
g1416
S'TFIB_BC'
p1429
ssS'content_placement'
p1430
g11
(tRp1431
g1416
S'UNIFORM'
p1432
ssS'joint_cache_rsn_placement'
p1433
g11
(tRp1434
S'network_cache'
p1435
F0.80000000000000004
sS'network_rsn'
p1436
F102.40000000000001
sg1416
S'CACHE_ALL_RSN_ALL'
p1437
sS'rsn_cache_ratio'
p1438
I128
ssS'warmup_strategy'
p1439
g11
(tRp1440
g1416
g1429
ssS'topology'
p1441
g11
(tRp1442
S'ext_delay'
p1443
I0
sS'source_ratio'
p1444
F0.10000000000000001
sg1416
S'ROCKET_FUEL'
p1445
sS'asn'
p1446
I3257
ssg11
(tRp1447
S'SAT_RATE'
p1448
g11
(tRp1449
S'MEAN_CACHE_HIT'
p1450
F0.90657222222222222
sS'MEAN_SERVER_HIT'
p1451
F0.093427777777777776
sS'MEAN_SERVER_CACHE_HITS'
p1452
F0
sS'MEAN'
p1453
F1
ssS'CACHE_HIT_RATIO'
p1454
g11
(tRp1455
S'MEAN_OFF_PATH'
p1456
F0.87541666666666662
sS'MEAN_ON_PATH'
p1457
F0.031155555555555603
sg1453
F0.90657222222222222
ssS'OVERHEAD'
p1458
g11
(tRp1459
S'SUCCESS_RATE'
p1460
F0.89318863951342975
sS'QUOTA_USED_FAILURE'
p1461
F0
sS'FAILURE_RATE'
p1462
F0.10681136048657029
sS'QUOTA_USED_SUCCESS'
p1463
F0
sg1453
F1
sS'NUM_SUCCESS_FIRST_TIME'
p1464
F0.89472740978849896
ssS'LATENCY'
p1465
g11
(tRp1466
g1453
F37.78879797920407
sstp1467
a(g11
(tRp1468
S'workload'
p1469
g11
(tRp1470
S'n_contents'
p1471
I10000
sS'name'
p1472
S'STATIONARY'
p1473
sS'n_warmup'
p1474
I720000
sS'rate'
p1475
I100
sS'n_measured'
p1476
I360000
sS'alpha'
p1477
F0.69999999999999996
ssS'cache_policy'
p1478
g11
(tRp1479
g1472
S'LRU'
p1480
ssS'desc'
p1481
S'strategy network_cache: 0.1'
p1482
sS'strategy'
p1483
g11
(tRp1484
g1472
S'NRR_PROB'
p1485
ssS'content_placement'
p1486
g11
(tRp1487
g1472
S'UNIFORM'
p1488
ssS'joint_cache_rsn_placement'
p1489
g11
(tRp1490
S'network_cache'
p1491
F0.10000000000000001
sS'network_rsn'
p1492
F12.800000000000001
sg1472
S'CACHE_ALL_RSN_ALL'
p1493
sS'rsn_cache_ratio'
p1494
I128
ssS'warmup_strategy'
p1495
g11
(tRp1496
g1472
g1485
ssS'topology'
p1497
g11
(tRp1498
S'ext_delay'
p1499
I0
sS'source_ratio'
p1500
F0.10000000000000001
sg1472
S'ROCKET_FUEL'
p1501
sS'asn'
p1502
I3257
ssg11
(tRp1503
S'SAT_RATE'
p1504
g11
(tRp1505
S'MEAN_CACHE_HIT'
p1506
F0.29412500000000003
sS'MEAN_SERVER_HIT'
p1507
F0.70587500000000003
sS'MEAN_SERVER_CACHE_HITS'
p1508
F0
sS'MEAN'
p1509
F1
ssS'CACHE_HIT_RATIO'
p1510
g11
(tRp1511
S'MEAN_OFF_PATH'
p1512
F0.25453055555555554
sS'MEAN_ON_PATH'
p1513
F0.039594444444444488
sg1509
F0.29412500000000003
ssS'OVERHEAD'
p1514
g11
(tRp1515
S'SUCCESS_RATE'
p1516
F0
sS'QUOTA_USED_FAILURE'
p1517
F0
sS'FAILURE_RATE'
p1518
F0
sS'QUOTA_USED_SUCCESS'
p1519
F0
sg1509
F1
sS'NUM_SUCCESS_FIRST_TIME'
p1520
F0
ssS'LATENCY'
p1521
g11
(tRp1522
g1509
F84.299117487165503
sstp1523
a(g11
(tRp1524
S'workload'
p1525
g11
(tRp1526
S'n_contents'
p1527
I10000
sS'name'
p1528
S'STATIONARY'
p1529
sS'n_warmup'
p1530
I720000
sS'rate'
p1531
I100
sS'n_measured'
p1532
I360000
sS'alpha'
p1533
F0.69999999999999996
ssS'cache_policy'
p1534
g11
(tRp1535
g1528
S'LRU'
p1536
ssS'desc'
p1537
S'strategy network_cache: 0.3'
p1538
sS'strategy'
p1539
g11
(tRp1540
g1528
S'NRR_PROB'
p1541
ssS'content_placement'
p1542
g11
(tRp1543
g1528
S'UNIFORM'
p1544
ssS'joint_cache_rsn_placement'
p1545
g11
(tRp1546
S'network_cache'
p1547
F0.29999999999999999
sS'network_rsn'
p1548
F38.399999999999999
sg1528
S'CACHE_ALL_RSN_ALL'
p1549
sS'rsn_cache_ratio'
p1550
I128
ssS'warmup_strategy'
p1551
g11
(tRp1552
g1528
g1541
ssS'topology'
p1553
g11
(tRp1554
S'ext_delay'
p1555
I0
sS'source_ratio'
p1556
F0.10000000000000001
sg1528
S'ROCKET_FUEL'
p1557
sS'asn'
p1558
I3257
ssg11
(tRp1559
S'SAT_RATE'
p1560
g11
(tRp1561
S'MEAN_CACHE_HIT'
p1562
F0.52322222222222226
sS'MEAN_SERVER_HIT'
p1563
F0.4767777777777778
sS'MEAN_SERVER_CACHE_HITS'
p1564
F0
sS'MEAN'
p1565
F1
ssS'CACHE_HIT_RATIO'
p1566
g11
(tRp1567
S'MEAN_OFF_PATH'
p1568
F0.44498611111111114
sS'MEAN_ON_PATH'
p1569
F0.078236111111111117
sg1565
F0.52322222222222226
ssS'OVERHEAD'
p1570
g11
(tRp1571
S'SUCCESS_RATE'
p1572
F0
sS'QUOTA_USED_FAILURE'
p1573
F0
sS'FAILURE_RATE'
p1574
F0
sS'QUOTA_USED_SUCCESS'
p1575
F0
sg1565
F1
sS'NUM_SUCCESS_FIRST_TIME'
p1576
F0
ssS'LATENCY'
p1577
g11
(tRp1578
g1565
F66.537835701573911
sstp1579
a(g11
(tRp1580
S'workload'
p1581
g11
(tRp1582
S'n_contents'
p1583
I10000
sS'name'
p1584
S'STATIONARY'
p1585
sS'n_warmup'
p1586
I720000
sS'rate'
p1587
I100
sS'n_measured'
p1588
I360000
sS'alpha'
p1589
F0.69999999999999996
ssS'cache_policy'
p1590
g11
(tRp1591
g1584
S'LRU'
p1592
ssS'desc'
p1593
S'strategy network_cache: 0.2'
p1594
sS'strategy'
p1595
g11
(tRp1596
g1584
S'NRR_PROB'
p1597
ssS'content_placement'
p1598
g11
(tRp1599
g1584
S'UNIFORM'
p1600
ssS'joint_cache_rsn_placement'
p1601
g11
(tRp1602
S'network_cache'
p1603
F0.20000000000000001
sS'network_rsn'
p1604
F25.600000000000001
sg1584
S'CACHE_ALL_RSN_ALL'
p1605
sS'rsn_cache_ratio'
p1606
I128
ssS'warmup_strategy'
p1607
g11
(tRp1608
g1584
g1597
ssS'topology'
p1609
g11
(tRp1610
S'ext_delay'
p1611
I0
sS'source_ratio'
p1612
F0.10000000000000001
sg1584
S'ROCKET_FUEL'
p1613
sS'asn'
p1614
I3257
ssg11
(tRp1615
S'SAT_RATE'
p1616
g11
(tRp1617
S'MEAN_CACHE_HIT'
p1618
F0.41876111111111108
sS'MEAN_SERVER_HIT'
p1619
F0.58123888888888886
sS'MEAN_SERVER_CACHE_HITS'
p1620
F0
sS'MEAN'
p1621
F1
ssS'CACHE_HIT_RATIO'
p1622
g11
(tRp1623
S'MEAN_OFF_PATH'
p1624
F0.35466111111111109
sS'MEAN_ON_PATH'
p1625
F0.06409999999999999
sg1621
F0.41876111111111108
ssS'OVERHEAD'
p1626
g11
(tRp1627
S'SUCCESS_RATE'
p1628
F0
sS'QUOTA_USED_FAILURE'
p1629
F0
sS'FAILURE_RATE'
p1630
F0
sS'QUOTA_USED_SUCCESS'
p1631
F0
sg1621
F1
sS'NUM_SUCCESS_FIRST_TIME'
p1632
F0
ssS'LATENCY'
p1633
g11
(tRp1634
g1621
F74.309621880525327
sstp1635
a(g11
(tRp1636
S'workload'
p1637
g11
(tRp1638
S'n_contents'
p1639
I10000
sS'name'
p1640
S'STATIONARY'
p1641
sS'n_warmup'
p1642
I720000
sS'rate'
p1643
I100
sS'n_measured'
p1644
I360000
sS'alpha'
p1645
F0.69999999999999996
ssS'cache_policy'
p1646
g11
(tRp1647
g1640
S'LRU'
p1648
ssS'desc'
p1649
S'strategy network_cache: 0.5'
p1650
sS'strategy'
p1651
g11
(tRp1652
g1640
S'NRR_PROB'
p1653
ssS'content_placement'
p1654
g11
(tRp1655
g1640
S'UNIFORM'
p1656
ssS'joint_cache_rsn_placement'
p1657
g11
(tRp1658
S'network_cache'
p1659
F0.5
sS'network_rsn'
p1660
F64
sg1640
S'CACHE_ALL_RSN_ALL'
p1661
sS'rsn_cache_ratio'
p1662
I128
ssS'warmup_strategy'
p1663
g11
(tRp1664
g1640
g1653
ssS'topology'
p1665
g11
(tRp1666
S'ext_delay'
p1667
I0
sS'source_ratio'
p1668
F0.10000000000000001
sg1640
S'ROCKET_FUEL'
p1669
sS'asn'
p1670
I3257
ssg11
(tRp1671
S'SAT_RATE'
p1672
g11
(tRp1673
S'MEAN_CACHE_HIT'
p1674
F0.6448694444444445
sS'MEAN_SERVER_HIT'
p1675
F0.35513055555555556
sS'MEAN_SERVER_CACHE_HITS'
p1676
F0
sS'MEAN'
p1677
F1
ssS'CACHE_HIT_RATIO'
p1678
g11
(tRp1679
S'MEAN_OFF_PATH'
p1680
F0.55170555555555556
sS'MEAN_ON_PATH'
p1681
F0.093163888888888935
sg1677
F0.6448694444444445
ssS'OVERHEAD'
p1682
g11
(tRp1683
S'SUCCESS_RATE'
p1684
F0
sS'QUOTA_USED_FAILURE'
p1685
F0
sS'FAILURE_RATE'
p1686
F0
sS'QUOTA_USED_SUCCESS'
p1687
F0
sg1677
F1
sS'NUM_SUCCESS_FIRST_TIME'
p1688
F0
ssS'LATENCY'
p1689
g11
(tRp1690
g1677
F56.066498496998783
sstp1691
a(g11
(tRp1692
S'workload'
p1693
g11
(tRp1694
S'n_contents'
p1695
I10000
sS'name'
p1696
S'STATIONARY'
p1697
sS'n_warmup'
p1698
I720000
sS'rate'
p1699
I100
sS'n_measured'
p1700
I360000
sS'alpha'
p1701
F0.69999999999999996
ssS'cache_policy'
p1702
g11
(tRp1703
g1696
S'LRU'
p1704
ssS'desc'
p1705
S'strategy network_cache: 0.6'
p1706
sS'strategy'
p1707
g11
(tRp1708
g1696
S'NRR_PROB'
p1709
ssS'content_placement'
p1710
g11
(tRp1711
g1696
S'UNIFORM'
p1712
ssS'joint_cache_rsn_placement'
p1713
g11
(tRp1714
S'network_cache'
p1715
F0.59999999999999998
sS'network_rsn'
p1716
F76.799999999999997
sg1696
S'CACHE_ALL_RSN_ALL'
p1717
sS'rsn_cache_ratio'
p1718
I128
ssS'warmup_strategy'
p1719
g11
(tRp1720
g1696
g1709
ssS'topology'
p1721
g11
(tRp1722
S'ext_delay'
p1723
I0
sS'source_ratio'
p1724
F0.10000000000000001
sg1696
S'ROCKET_FUEL'
p1725
sS'asn'
p1726
I3257
ssg11
(tRp1727
S'SAT_RATE'
p1728
g11
(tRp1729
S'MEAN_CACHE_HIT'
p1730
F0.69739166666666663
sS'MEAN_SERVER_HIT'
p1731
F0.30260833333333331
sS'MEAN_SERVER_CACHE_HITS'
p1732
F0
sS'MEAN'
p1733
F1
ssS'CACHE_HIT_RATIO'
p1734
g11
(tRp1735
S'MEAN_OFF_PATH'
p1736
F0.59880277777777779
sS'MEAN_ON_PATH'
p1737
F0.098588888888888837
sg1733
F0.69739166666666663
ssS'OVERHEAD'
p1738
g11
(tRp1739
S'SUCCESS_RATE'
p1740
F0
sS'QUOTA_USED_FAILURE'
p1741
F0
sS'FAILURE_RATE'
p1742
F0
sS'QUOTA_USED_SUCCESS'
p1743
F0
sg1733
F1
sS'NUM_SUCCESS_FIRST_TIME'
p1744
F0
ssS'LATENCY'
p1745
g11
(tRp1746
g1733
F52.353995636785136
sstp1747
a(g11
(tRp1748
S'workload'
p1749
g11
(tRp1750
S'n_contents'
p1751
I10000
sS'name'
p1752
S'STATIONARY'
p1753
sS'n_warmup'
p1754
I720000
sS'rate'
p1755
I100
sS'n_measured'
p1756
I360000
sS'alpha'
p1757
F0.69999999999999996
ssS'cache_policy'
p1758
g11
(tRp1759
g1752
S'LRU'
p1760
ssS'desc'
p1761
S'strategy network_cache: 0.4'
p1762
sS'strategy'
p1763
g11
(tRp1764
g1752
S'NRR_PROB'
p1765
ssS'content_placement'
p1766
g11
(tRp1767
g1752
S'UNIFORM'
p1768
ssS'joint_cache_rsn_placement'
p1769
g11
(tRp1770
S'network_cache'
p1771
F0.40000000000000002
sS'network_rsn'
p1772
F51.200000000000003
sg1752
S'CACHE_ALL_RSN_ALL'
p1773
sS'rsn_cache_ratio'
p1774
I128
ssS'warmup_strategy'
p1775
g11
(tRp1776
g1752
g1765
ssS'topology'
p1777
g11
(tRp1778
S'ext_delay'
p1779
I0
sS'source_ratio'
p1780
F0.10000000000000001
sg1752
S'ROCKET_FUEL'
p1781
sS'asn'
p1782
I3257
ssg11
(tRp1783
S'SAT_RATE'
p1784
g11
(tRp1785
S'MEAN_CACHE_HIT'
p1786
F0.58853055555555556
sS'MEAN_SERVER_HIT'
p1787
F0.41146944444444444
sS'MEAN_SERVER_CACHE_HITS'
p1788
F0
sS'MEAN'
p1789
F1
ssS'CACHE_HIT_RATIO'
p1790
g11
(tRp1791
S'MEAN_OFF_PATH'
p1792
F0.49865555555555557
sS'MEAN_ON_PATH'
p1793
F0.089874999999999983
sg1789
F0.58853055555555556
ssS'OVERHEAD'
p1794
g11
(tRp1795
S'SUCCESS_RATE'
p1796
F0
sS'QUOTA_USED_FAILURE'
p1797
F0
sS'FAILURE_RATE'
p1798
F0
sS'QUOTA_USED_SUCCESS'
p1799
F0
sg1789
F1
sS'NUM_SUCCESS_FIRST_TIME'
p1800
F0
ssS'LATENCY'
p1801
g11
(tRp1802
g1789
F60.671633208184801
sstp1803
a(g11
(tRp1804
S'workload'
p1805
g11
(tRp1806
S'n_contents'
p1807
I10000
sS'name'
p1808
S'STATIONARY'
p1809
sS'n_warmup'
p1810
I720000
sS'rate'
p1811
I100
sS'n_measured'
p1812
I360000
sS'alpha'
p1813
F0.69999999999999996
ssS'cache_policy'
p1814
g11
(tRp1815
g1808
S'LRU'
p1816
ssS'desc'
p1817
S'strategy network_cache: 0.8'
p1818
sS'strategy'
p1819
g11
(tRp1820
g1808
S'NRR_PROB'
p1821
ssS'content_placement'
p1822
g11
(tRp1823
g1808
S'UNIFORM'
p1824
ssS'joint_cache_rsn_placement'
p1825
g11
(tRp1826
S'network_cache'
p1827
F0.80000000000000004
sS'network_rsn'
p1828
F102.40000000000001
sg1808
S'CACHE_ALL_RSN_ALL'
p1829
sS'rsn_cache_ratio'
p1830
I128
ssS'warmup_strategy'
p1831
g11
(tRp1832
g1808
g1821
ssS'topology'
p1833
g11
(tRp1834
S'ext_delay'
p1835
I0
sS'source_ratio'
p1836
F0.10000000000000001
sg1808
S'ROCKET_FUEL'
p1837
sS'asn'
p1838
I3257
ssg11
(tRp1839
S'SAT_RATE'
p1840
g11
(tRp1841
S'MEAN_CACHE_HIT'
p1842
F0.78895000000000004
sS'MEAN_SERVER_HIT'
p1843
F0.21104999999999999
sS'MEAN_SERVER_CACHE_HITS'
p1844
F0
sS'MEAN'
p1845
F1
ssS'CACHE_HIT_RATIO'
p1846
g11
(tRp1847
S'MEAN_OFF_PATH'
p1848
F0.66070555555555555
sS'MEAN_ON_PATH'
p1849
F0.12824444444444449
sg1845
F0.78895000000000004
ssS'OVERHEAD'
p1850
g11
(tRp1851
S'SUCCESS_RATE'
p1852
F0
sS'QUOTA_USED_FAILURE'
p1853
F0
sS'FAILURE_RATE'
p1854
F0
sS'QUOTA_USED_SUCCESS'
p1855
F0
sg1845
F1
sS'NUM_SUCCESS_FIRST_TIME'
p1856
F0
ssS'LATENCY'
p1857
g11
(tRp1858
g1845
F43.927268208283515
sstp1859
a(g11
(tRp1860
S'workload'
p1861
g11
(tRp1862
S'n_contents'
p1863
I10000
sS'name'
p1864
S'STATIONARY'
p1865
sS'n_warmup'
p1866
I720000
sS'rate'
p1867
I100
sS'n_measured'
p1868
I360000
sS'alpha'
p1869
F0.69999999999999996
ssS'cache_policy'
p1870
g11
(tRp1871
g1864
S'LRU'
p1872
ssS'desc'
p1873
S'strategy network_cache: 0.7'
p1874
sS'strategy'
p1875
g11
(tRp1876
g1864
S'NRR_PROB'
p1877
ssS'content_placement'
p1878
g11
(tRp1879
g1864
S'UNIFORM'
p1880
ssS'joint_cache_rsn_placement'
p1881
g11
(tRp1882
S'network_cache'
p1883
F0.69999999999999996
sS'network_rsn'
p1884
F89.599999999999994
sg1864
S'CACHE_ALL_RSN_ALL'
p1885
sS'rsn_cache_ratio'
p1886
I128
ssS'warmup_strategy'
p1887
g11
(tRp1888
g1864
g1877
ssS'topology'
p1889
g11
(tRp1890
S'ext_delay'
p1891
I0
sS'source_ratio'
p1892
F0.10000000000000001
sg1864
S'ROCKET_FUEL'
p1893
sS'asn'
p1894
I3257
ssg11
(tRp1895
S'SAT_RATE'
p1896
g11
(tRp1897
S'MEAN_CACHE_HIT'
p1898
F0.74192222222222226
sS'MEAN_SERVER_HIT'
p1899
F0.25807777777777779
sS'MEAN_SERVER_CACHE_HITS'
p1900
F0
sS'MEAN'
p1901
F1
ssS'CACHE_HIT_RATIO'
p1902
g11
(tRp1903
S'MEAN_OFF_PATH'
p1904
F0.61656388888888891
sS'MEAN_ON_PATH'
p1905
F0.12535833333333335
sg1901
F0.74192222222222226
ssS'OVERHEAD'
p1906
g11
(tRp1907
S'SUCCESS_RATE'
p1908
F0
sS'QUOTA_USED_FAILURE'
p1909
F0
sS'FAILURE_RATE'
p1910
F0
sS'QUOTA_USED_SUCCESS'
p1911
F0
sg1901
F1
sS'NUM_SUCCESS_FIRST_TIME'
p1912
F0
ssS'LATENCY'
p1913
g11
(tRp1914
g1901
F47.762830594830277
sstp1915
a(g11
(tRp1916
S'workload'
p1917
g11
(tRp1918
S'n_contents'
p1919
I10000
sS'name'
p1920
S'STATIONARY'
p1921
sS'n_warmup'
p1922
I720000
sS'rate'
p1923
I100
sS'n_measured'
p1924
I360000
sS'alpha'
p1925
F0.69999999999999996
ssS'cache_policy'
p1926
g11
(tRp1927
g1920
S'LRU'
p1928
ssS'desc'
p1929
S'strategy network_cache: 0.9'
p1930
sS'strategy'
p1931
g11
(tRp1932
g1920
S'NRR_PROB'
p1933
ssS'content_placement'
p1934
g11
(tRp1935
g1920
S'UNIFORM'
p1936
ssS'joint_cache_rsn_placement'
p1937
g11
(tRp1938
S'network_cache'
p1939
F0.90000000000000002
sS'network_rsn'
p1940
F115.2
sg1920
S'CACHE_ALL_RSN_ALL'
p1941
sS'rsn_cache_ratio'
p1942
I128
ssS'warmup_strategy'
p1943
g11
(tRp1944
g1920
g1933
ssS'topology'
p1945
g11
(tRp1946
S'ext_delay'
p1947
I0
sS'source_ratio'
p1948
F0.10000000000000001
sg1920
S'ROCKET_FUEL'
p1949
sS'asn'
p1950
I3257
ssg11
(tRp1951
S'SAT_RATE'
p1952
g11
(tRp1953
S'MEAN_CACHE_HIT'
p1954
F0.82596111111111115
sS'MEAN_SERVER_HIT'
p1955
F0.17403888888888888
sS'MEAN_SERVER_CACHE_HITS'
p1956
F0
sS'MEAN'
p1957
F1
ssS'CACHE_HIT_RATIO'
p1958
g11
(tRp1959
S'MEAN_OFF_PATH'
p1960
F0.68330000000000002
sS'MEAN_ON_PATH'
p1961
F0.14266111111111113
sg1957
F0.82596111111111115
ssS'OVERHEAD'
p1962
g11
(tRp1963
S'SUCCESS_RATE'
p1964
F0
sS'QUOTA_USED_FAILURE'
p1965
F0
sS'FAILURE_RATE'
p1966
F0
sS'QUOTA_USED_SUCCESS'
p1967
F0
sg1957
F1
sS'NUM_SUCCESS_FIRST_TIME'
p1968
F0
ssS'LATENCY'
p1969
g11
(tRp1970
g1957
F40.972202328091178
sstp1971
a(g11
(tRp1972
S'workload'
p1973
g11
(tRp1974
S'n_contents'
p1975
I10000
sS'name'
p1976
S'STATIONARY'
p1977
sS'n_warmup'
p1978
I720000
sS'rate'
p1979
I100
sS'n_measured'
p1980
I360000
sS'alpha'
p1981
F0.69999999999999996
ssS'cache_policy'
p1982
g11
(tRp1983
g1976
S'LRU'
p1984
ssS'desc'
p1985
S'RSN size sensitivity -> RSN/cache ratio: 2.0'
p1986
sS'strategy'
p1987
g11
(tRp1988
S'extra_quota'
p1989
I1000
sS'fan_out'
p1990
I2
sg1976
S'TFIB_SC'
p1991
ssS'content_placement'
p1992
g11
(tRp1993
g1976
S'UNIFORM'
p1994
ssS'joint_cache_rsn_placement'
p1995
g11
(tRp1996
S'network_cache'
p1997
F0.69999999999999996
sS'network_rsn'
p1998
F1.3999999999999999
sg1976
S'CACHE_ALL_RSN_ALL'
p1999
sS'rsn_cache_ratio'
p2000
F2
ssS'warmup_strategy'
p2001
g11
(tRp2002
g1989
I10000
sg1990
I100
sg1976
g1991
ssS'topology'
p2003
g11
(tRp2004
S'ext_delay'
p2005
I0
sS'source_ratio'
p2006
F0.10000000000000001
sg1976
S'ROCKET_FUEL'
p2007
sS'asn'
p2008
I3257
ssg11
(tRp2009
S'SAT_RATE'
p2010
g11
(tRp2011
S'MEAN_CACHE_HIT'
p2012
F0.28508333333333336
sS'MEAN_SERVER_HIT'
p2013
F0.71889444444444439
sS'MEAN_SERVER_CACHE_HITS'
p2014
F0.003977777777777778
sS'MEAN'
p2015
F1
ssS'CACHE_HIT_RATIO'
p2016
g11
(tRp2017
S'MEAN_OFF_PATH'
p2018
F0.0040560880054892759
sS'MEAN_ON_PATH'
p2019
F0.28102724532784407
sg2015
F0.28508333333333336
ssS'OVERHEAD'
p2020
g11
(tRp2021
S'SUCCESS_RATE'
p2022
F0.12875884036063273
sS'QUOTA_USED_FAILURE'
p2023
F1
sS'FAILURE_RATE'
p2024
F0.87124115963936732
sS'QUOTA_USED_SUCCESS'
p2025
F1
sg2015
F1.0066250000000001
sS'NUM_SUCCESS_FIRST_TIME'
p2026
F0.12927881203253808
ssS'LATENCY'
p2027
g11
(tRp2028
g2015
F33.320038888888888
sstp2029
a(g11
(tRp2030
S'workload'
p2031
g11
(tRp2032
S'n_contents'
p2033
I10000
sS'name'
p2034
S'STATIONARY'
p2035
sS'n_warmup'
p2036
I720000
sS'rate'
p2037
I100
sS'n_measured'
p2038
I360000
sS'alpha'
p2039
F0.69999999999999996
ssS'cache_policy'
p2040
g11
(tRp2041
g2034
S'LRU'
p2042
ssS'desc'
p2043
S'RSN size sensitivity -> RSN/cache ratio: 8.0'
p2044
sS'strategy'
p2045
g11
(tRp2046
S'extra_quota'
p2047
I1000
sS'fan_out'
p2048
I2
sg2034
S'TFIB_SC'
p2049
ssS'content_placement'
p2050
g11
(tRp2051
g2034
S'UNIFORM'
p2052
ssS'joint_cache_rsn_placement'
p2053
g11
(tRp2054
S'network_cache'
p2055
F0.69999999999999996
sS'network_rsn'
p2056
F5.5999999999999996
sg2034
S'CACHE_ALL_RSN_ALL'
p2057
sS'rsn_cache_ratio'
p2058
F8
ssS'warmup_strategy'
p2059
g11
(tRp2060
g2047
I10000
sg2048
I100
sg2034
g2049
ssS'topology'
p2061
g11
(tRp2062
S'ext_delay'
p2063
I0
sS'source_ratio'
p2064
F0.10000000000000001
sg2034
S'ROCKET_FUEL'
p2065
sS'asn'
p2066
I3257
ssg11
(tRp2067
S'SAT_RATE'
p2068
g11
(tRp2069
S'MEAN_CACHE_HIT'
p2070
F0.30314999999999998
sS'MEAN_SERVER_HIT'
p2071
F0.7197944444444444
sS'MEAN_SERVER_CACHE_HITS'
p2072
F0.022944444444444444
sS'MEAN'
p2073
F1
ssS'CACHE_HIT_RATIO'
p2074
g11
(tRp2075
S'MEAN_OFF_PATH'
p2076
F0.024287188399500354
sS'MEAN_ON_PATH'
p2077
F0.27886281160049964
sg2073
F0.30314999999999998
ssS'OVERHEAD'
p2078
g11
(tRp2079
S'SUCCESS_RATE'
p2080
F0.15403952449458622
sS'QUOTA_USED_FAILURE'
p2081
F1
sS'FAILURE_RATE'
p2082
F0.84596047550541376
sS'QUOTA_USED_SUCCESS'
p2083
F1
sg2073
F1.0282555555555555
sS'NUM_SUCCESS_FIRST_TIME'
p2084
F0.15414315414315413
ssS'LATENCY'
p2085
g11
(tRp2086
g2073
F32.827666666666666
sstp2087
a(g11
(tRp2088
S'workload'
p2089
g11
(tRp2090
S'n_contents'
p2091
I10000
sS'name'
p2092
S'STATIONARY'
p2093
sS'n_warmup'
p2094
I720000
sS'rate'
p2095
I100
sS'n_measured'
p2096
I360000
sS'alpha'
p2097
F0.69999999999999996
ssS'cache_policy'
p2098
g11
(tRp2099
g2092
S'LRU'
p2100
ssS'desc'
p2101
S'RSN size sensitivity -> RSN/cache ratio: 4.0'
p2102
sS'strategy'
p2103
g11
(tRp2104
S'extra_quota'
p2105
I1000
sS'fan_out'
p2106
I2
sg2092
S'TFIB_SC'
p2107
ssS'content_placement'
p2108
g11
(tRp2109
g2092
S'UNIFORM'
p2110
ssS'joint_cache_rsn_placement'
p2111
g11
(tRp2112
S'network_cache'
p2113
F0.69999999999999996
sS'network_rsn'
p2114
F2.7999999999999998
sg2092
S'CACHE_ALL_RSN_ALL'
p2115
sS'rsn_cache_ratio'
p2116
F4
ssS'warmup_strategy'
p2117
g11
(tRp2118
g2105
I10000
sg2106
I100
sg2092
g2107
ssS'topology'
p2119
g11
(tRp2120
S'ext_delay'
p2121
I0
sS'source_ratio'
p2122
F0.10000000000000001
sg2092
S'ROCKET_FUEL'
p2123
sS'asn'
p2124
I3257
ssg11
(tRp2125
S'SAT_RATE'
p2126
g11
(tRp2127
S'MEAN_CACHE_HIT'
p2128
F0.28672500000000001
sS'MEAN_SERVER_HIT'
p2129
F0.72259444444444443
sS'MEAN_SERVER_CACHE_HITS'
p2130
F0.0093194444444444444
sS'MEAN'
p2131
F1
ssS'CACHE_HIT_RATIO'
p2132
g11
(tRp2133
S'MEAN_OFF_PATH'
p2134
F0.0096104360749129647
sS'MEAN_ON_PATH'
p2135
F0.27711456392508704
sg2131
F0.28672500000000001
ssS'OVERHEAD'
p2136
g11
(tRp2137
S'SUCCESS_RATE'
p2138
F0.12517435697148915
sS'QUOTA_USED_FAILURE'
p2139
F1
sS'FAILURE_RATE'
p2140
F0.87482564302851085
sS'QUOTA_USED_SUCCESS'
p2141
F1
sg2131
F1.0124638888888888
sS'NUM_SUCCESS_FIRST_TIME'
p2142
F0.12572258450323207
ssS'LATENCY'
p2143
g11
(tRp2144
g2131
F33.024797222222219
sstp2145
a(g11
(tRp2146
S'workload'
p2147
g11
(tRp2148
S'n_contents'
p2149
I10000
sS'name'
p2150
S'STATIONARY'
p2151
sS'n_warmup'
p2152
I720000
sS'rate'
p2153
I100
sS'n_measured'
p2154
I360000
sS'alpha'
p2155
F0.69999999999999996
ssS'cache_policy'
p2156
g11
(tRp2157
g2150
S'LRU'
p2158
ssS'desc'
p2159
S'RSN size sensitivity -> RSN/cache ratio: 16.0'
p2160
sS'strategy'
p2161
g11
(tRp2162
S'extra_quota'
p2163
I1000
sS'fan_out'
p2164
I2
sg2150
S'TFIB_SC'
p2165
ssS'content_placement'
p2166
g11
(tRp2167
g2150
S'UNIFORM'
p2168
ssS'joint_cache_rsn_placement'
p2169
g11
(tRp2170
S'network_cache'
p2171
F0.69999999999999996
sS'network_rsn'
p2172
F11.199999999999999
sg2150
S'CACHE_ALL_RSN_ALL'
p2173
sS'rsn_cache_ratio'
p2174
F16
ssS'warmup_strategy'
p2175
g11
(tRp2176
g2163
I10000
sg2164
I100
sg2150
g2165
ssS'topology'
p2177
g11
(tRp2178
S'ext_delay'
p2179
I0
sS'source_ratio'
p2180
F0.10000000000000001
sg2150
S'ROCKET_FUEL'
p2181
sS'asn'
p2182
I3257
ssg11
(tRp2183
S'SAT_RATE'
p2184
g11
(tRp2185
S'MEAN_CACHE_HIT'
p2186
F0.34905555555555556
sS'MEAN_SERVER_HIT'
p2187
F0.72355555555555551
sS'MEAN_SERVER_CACHE_HITS'
p2188
F0.072611111111111112
sS'MEAN'
p2189
F1
ssS'CACHE_HIT_RATIO'
p2190
g11
(tRp2191
S'MEAN_OFF_PATH'
p2192
F0.072901020355311541
sS'MEAN_ON_PATH'
p2193
F0.27615453520024402
sg2189
F0.34905555555555556
ssS'OVERHEAD'
p2194
g11
(tRp2195
S'SUCCESS_RATE'
p2196
F0.26290687466234469
sS'QUOTA_USED_FAILURE'
p2197
F1
sS'FAILURE_RATE'
p2198
F0.73709312533765536
sS'QUOTA_USED_SUCCESS'
p2199
F1
sg2189
F1.0865138888888888
sS'NUM_SUCCESS_FIRST_TIME'
p2200
F0.26091171908052463
ssS'LATENCY'
p2201
g11
(tRp2202
g2189
F30.577411111111111
sstp2203
a(g11
(tRp2204
S'workload'
p2205
g11
(tRp2206
S'n_contents'
p2207
I10000
sS'name'
p2208
S'STATIONARY'
p2209
sS'n_warmup'
p2210
I720000
sS'rate'
p2211
I100
sS'n_measured'
p2212
I360000
sS'alpha'
p2213
F0.69999999999999996
ssS'cache_policy'
p2214
g11
(tRp2215
g2208
S'LRU'
p2216
ssS'desc'
p2217
S'strategy network_cache: 0.1'
p2218
sS'strategy'
p2219
g11
(tRp2220
S'extra_quota'
p2221
I2
sS'fan_out'
p2222
I2
sg2208
S'TFIB_SC'
p2223
ssS'content_placement'
p2224
g11
(tRp2225
g2208
S'UNIFORM'
p2226
ssS'joint_cache_rsn_placement'
p2227
g11
(tRp2228
S'network_cache'
p2229
F0.10000000000000001
sS'network_rsn'
p2230
F12.800000000000001
sg2208
S'CACHE_ALL_RSN_ALL'
p2231
sS'rsn_cache_ratio'
p2232
I128
ssS'warmup_strategy'
p2233
g11
(tRp2234
g2221
I10000
sg2222
I10
sg2208
g2223
ssS'topology'
p2235
g11
(tRp2236
S'ext_delay'
p2237
I0
sS'source_ratio'
p2238
F0.10000000000000001
sg2208
S'ROCKET_FUEL'
p2239
sS'asn'
p2240
I3257
ssg11
(tRp2241
S'SAT_RATE'
p2242
g11
(tRp2243
S'MEAN_CACHE_HIT'
p2244
F0.29086111111111113
sS'MEAN_SERVER_HIT'
p2245
F0.90590277777777772
sS'MEAN_SERVER_CACHE_HITS'
p2246
F0.19685555555555556
sS'MEAN'
p2247
F0.99990833333333329
ssS'CACHE_HIT_RATIO'
p2248
g11
(tRp2249
S'MEAN_OFF_PATH'
p2250
F0.17544303503661496
sS'MEAN_ON_PATH'
p2251
F0.11541807607449617
sg2247
F0.29086111111111113
ssS'OVERHEAD'
p2252
g11
(tRp2253
S'SUCCESS_RATE'
p2254
F0.42334554212031511
sS'QUOTA_USED_FAILURE'
p2255
F1
sS'FAILURE_RATE'
p2256
F0.57665445787968495
sS'QUOTA_USED_SUCCESS'
p2257
F1
sg2247
F1.2327213327888389
sS'NUM_SUCCESS_FIRST_TIME'
p2258
F0.40671836572148168
ssS'LATENCY'
p2259
g11
(tRp2260
g2247
F35.675244444444445
sstp2261
a(g11
(tRp2262
S'workload'
p2263
g11
(tRp2264
S'n_contents'
p2265
I10000
sS'name'
p2266
S'STATIONARY'
p2267
sS'n_warmup'
p2268
I720000
sS'rate'
p2269
I100
sS'n_measured'
p2270
I360000
sS'alpha'
p2271
F0.69999999999999996
ssS'cache_policy'
p2272
g11
(tRp2273
g2266
S'LRU'
p2274
ssS'desc'
p2275
S'RSN size sensitivity -> RSN/cache ratio: 32.0'
p2276
sS'strategy'
p2277
g11
(tRp2278
S'extra_quota'
p2279
I1000
sS'fan_out'
p2280
I2
sg2266
S'TFIB_SC'
p2281
ssS'content_placement'
p2282
g11
(tRp2283
g2266
S'UNIFORM'
p2284
ssS'joint_cache_rsn_placement'
p2285
g11
(tRp2286
S'network_cache'
p2287
F0.69999999999999996
sS'network_rsn'
p2288
F22.399999999999999
sg2266
S'CACHE_ALL_RSN_ALL'
p2289
sS'rsn_cache_ratio'
p2290
F32
ssS'warmup_strategy'
p2291
g11
(tRp2292
g2279
I10000
sg2280
I100
sg2266
g2281
ssS'topology'
p2293
g11
(tRp2294
S'ext_delay'
p2295
I0
sS'source_ratio'
p2296
F0.10000000000000001
sg2266
S'ROCKET_FUEL'
p2297
sS'asn'
p2298
I3257
ssg11
(tRp2299
S'SAT_RATE'
p2300
g11
(tRp2301
S'MEAN_CACHE_HIT'
p2302
F0.46858888888888889
sS'MEAN_SERVER_HIT'
p2303
F0.72591388888888886
sS'MEAN_SERVER_CACHE_HITS'
p2304
F0.19450277777777777
sS'MEAN'
p2305
F1
ssS'CACHE_HIT_RATIO'
p2306
g11
(tRp2307
S'MEAN_OFF_PATH'
p2308
F0.1964555219396262
sS'MEAN_ON_PATH'
p2309
F0.27213336694926271
sg2305
F0.46858888888888889
ssS'OVERHEAD'
p2310
g11
(tRp2311
S'SUCCESS_RATE'
p2312
F0.47618787547788094
sS'QUOTA_USED_FAILURE'
p2313
F1
sS'FAILURE_RATE'
p2314
F0.52381212452211912
sS'QUOTA_USED_SUCCESS'
p2315
F1
sg2305
F1.266413888888889
sS'NUM_SUCCESS_FIRST_TIME'
p2316
F0.46556941157701615
ssS'LATENCY'
p2317
g11
(tRp2318
g2305
F26.722549999999998
sstp2319
a(g11
(tRp2320
S'workload'
p2321
g11
(tRp2322
S'n_contents'
p2323
I10000
sS'name'
p2324
S'STATIONARY'
p2325
sS'n_warmup'
p2326
I720000
sS'rate'
p2327
I100
sS'n_measured'
p2328
I360000
sS'alpha'
p2329
F0.69999999999999996
ssS'cache_policy'
p2330
g11
(tRp2331
g2324
S'LRU'
p2332
ssS'desc'
p2333
S'strategy network_cache: 0.2'
p2334
sS'strategy'
p2335
g11
(tRp2336
S'extra_quota'
p2337
I2
sS'fan_out'
p2338
I2
sg2324
S'TFIB_SC'
p2339
ssS'content_placement'
p2340
g11
(tRp2341
g2324
S'UNIFORM'
p2342
ssS'joint_cache_rsn_placement'
p2343
g11
(tRp2344
S'network_cache'
p2345
F0.20000000000000001
sS'network_rsn'
p2346
F25.600000000000001
sg2324
S'CACHE_ALL_RSN_ALL'
p2347
sS'rsn_cache_ratio'
p2348
I128
ssS'warmup_strategy'
p2349
g11
(tRp2350
g2337
I10000
sg2338
I10
sg2324
g2339
ssS'topology'
p2351
g11
(tRp2352
S'ext_delay'
p2353
I0
sS'source_ratio'
p2354
F0.10000000000000001
sg2324
S'ROCKET_FUEL'
p2355
sS'asn'
p2356
I3257
ssg11
(tRp2357
S'SAT_RATE'
p2358
g11
(tRp2359
S'MEAN_CACHE_HIT'
p2360
F0.43662222222222224
sS'MEAN_SERVER_HIT'
p2361
F0.84685277777777779
sS'MEAN_SERVER_CACHE_HITS'
p2362
F0.28358333333333335
sS'MEAN'
p2363
F0.99989166666666662
ssS'CACHE_HIT_RATIO'
p2364
g11
(tRp2365
S'MEAN_OFF_PATH'
p2366
F0.24773239317737653
sS'MEAN_ON_PATH'
p2367
F0.18888982904484572
sg2363
F0.43662222222222224
ssS'OVERHEAD'
p2368
g11
(tRp2369
S'SUCCESS_RATE'
p2370
F0.49878506565318298
sS'QUOTA_USED_FAILURE'
p2371
F1
sS'FAILURE_RATE'
p2372
F0.50121493434681708
sS'QUOTA_USED_SUCCESS'
p2373
F1
sg2363
F1.3537216531790943
sS'NUM_SUCCESS_FIRST_TIME'
p2374
F0.48454299948001411
ssS'LATENCY'
p2375
g11
(tRp2376
g2363
F29.926230555555556
sstp2377
a(g11
(tRp2378
S'workload'
p2379
g11
(tRp2380
S'n_contents'
p2381
I10000
sS'name'
p2382
S'STATIONARY'
p2383
sS'n_warmup'
p2384
I720000
sS'rate'
p2385
I100
sS'n_measured'
p2386
I360000
sS'alpha'
p2387
F0.69999999999999996
ssS'cache_policy'
p2388
g11
(tRp2389
g2382
S'LRU'
p2390
ssS'desc'
p2391
S'RSN size sensitivity -> RSN/cache ratio: 64.0'
p2392
sS'strategy'
p2393
g11
(tRp2394
S'extra_quota'
p2395
I1000
sS'fan_out'
p2396
I2
sg2382
S'TFIB_SC'
p2397
ssS'content_placement'
p2398
g11
(tRp2399
g2382
S'UNIFORM'
p2400
ssS'joint_cache_rsn_placement'
p2401
g11
(tRp2402
S'network_cache'
p2403
F0.69999999999999996
sS'network_rsn'
p2404
F44.799999999999997
sg2382
S'CACHE_ALL_RSN_ALL'
p2405
sS'rsn_cache_ratio'
p2406
F64
ssS'warmup_strategy'
p2407
g11
(tRp2408
g2395
I10000
sg2396
I100
sg2382
g2397
ssS'topology'
p2409
g11
(tRp2410
S'ext_delay'
p2411
I0
sS'source_ratio'
p2412
F0.10000000000000001
sg2382
S'ROCKET_FUEL'
p2413
sS'asn'
p2414
I3257
ssg11
(tRp2415
S'SAT_RATE'
p2416
g11
(tRp2417
S'MEAN_CACHE_HIT'
p2418
F0.67308888888888885
sS'MEAN_SERVER_HIT'
p2419
F0.72400277777777777
sS'MEAN_SERVER_CACHE_HITS'
p2420
F0.39709166666666668
sS'MEAN'
p2421
F1
ssS'CACHE_HIT_RATIO'
p2422
g11
(tRp2423
S'MEAN_OFF_PATH'
p2424
F0.33142261801798578
sS'MEAN_ON_PATH'
p2425
F0.34166627087090307
sg2421
F0.67308888888888885
ssS'OVERHEAD'
p2426
g11
(tRp2427
S'SUCCESS_RATE'
p2428
F0.67061378468031596
sS'QUOTA_USED_FAILURE'
p2429
F1
sS'FAILURE_RATE'
p2430
F0.32938621531968404
sS'QUOTA_USED_SUCCESS'
p2431
F1
sg2421
F1.5155194444444444
sS'NUM_SUCCESS_FIRST_TIME'
p2432
F0.65989529206455033
ssS'LATENCY'
p2433
g11
(tRp2434
g2421
F19.71263888888889
sstp2435
a(g11
(tRp2436
S'workload'
p2437
g11
(tRp2438
S'n_contents'
p2439
I10000
sS'name'
p2440
S'STATIONARY'
p2441
sS'n_warmup'
p2442
I720000
sS'rate'
p2443
I100
sS'n_measured'
p2444
I360000
sS'alpha'
p2445
F0.69999999999999996
ssS'cache_policy'
p2446
g11
(tRp2447
g2440
S'LRU'
p2448
ssS'desc'
p2449
S'strategy network_cache: 0.3'
p2450
sS'strategy'
p2451
g11
(tRp2452
S'extra_quota'
p2453
I2
sS'fan_out'
p2454
I2
sg2440
S'TFIB_SC'
p2455
ssS'content_placement'
p2456
g11
(tRp2457
g2440
S'UNIFORM'
p2458
ssS'joint_cache_rsn_placement'
p2459
g11
(tRp2460
S'network_cache'
p2461
F0.29999999999999999
sS'network_rsn'
p2462
F38.399999999999999
sg2440
S'CACHE_ALL_RSN_ALL'
p2463
sS'rsn_cache_ratio'
p2464
I128
ssS'warmup_strategy'
p2465
g11
(tRp2466
g2453
I10000
sg2454
I10
sg2440
g2455
ssS'topology'
p2467
g11
(tRp2468
S'ext_delay'
p2469
I0
sS'source_ratio'
p2470
F0.10000000000000001
sg2440
S'ROCKET_FUEL'
p2471
sS'asn'
p2472
I3257
ssg11
(tRp2473
S'SAT_RATE'
p2474
g11
(tRp2475
S'MEAN_CACHE_HIT'
p2476
F0.55674999999999997
sS'MEAN_SERVER_HIT'
p2477
F0.80423055555555556
sS'MEAN_SERVER_CACHE_HITS'
p2478
F0.36108055555555557
sS'MEAN'
p2479
F0.99990000000000001
ssS'CACHE_HIT_RATIO'
p2480
g11
(tRp2481
S'MEAN_OFF_PATH'
p2482
F0.30309641945247812
sS'MEAN_ON_PATH'
p2483
F0.25365358054752185
sg2479
F0.55674999999999997
ssS'OVERHEAD'
p2484
g11
(tRp2485
S'SUCCESS_RATE'
p2486
F0.57701049103636082
sS'QUOTA_USED_FAILURE'
p2487
F1
sS'FAILURE_RATE'
p2488
F0.42298950896363924
sS'QUOTA_USED_SUCCESS'
p2489
F1
sg2479
F1.4564706470647064
sS'NUM_SUCCESS_FIRST_TIME'
p2490
F0.56424292851522351
ssS'LATENCY'
p2491
g11
(tRp2492
g2479
F25.190361111111113
sstp2493
a(g11
(tRp2494
S'workload'
p2495
g11
(tRp2496
S'n_contents'
p2497
I10000
sS'name'
p2498
S'STATIONARY'
p2499
sS'n_warmup'
p2500
I720000
sS'rate'
p2501
I100
sS'n_measured'
p2502
I360000
sS'alpha'
p2503
F0.69999999999999996
ssS'cache_policy'
p2504
g11
(tRp2505
g2498
S'LRU'
p2506
ssS'desc'
p2507
S'RSN size sensitivity -> RSN/cache ratio: 128.0'
p2508
sS'strategy'
p2509
g11
(tRp2510
S'extra_quota'
p2511
I1000
sS'fan_out'
p2512
I2
sg2498
S'TFIB_SC'
p2513
ssS'content_placement'
p2514
g11
(tRp2515
g2498
S'UNIFORM'
p2516
ssS'joint_cache_rsn_placement'
p2517
g11
(tRp2518
S'network_cache'
p2519
F0.69999999999999996
sS'network_rsn'
p2520
F89.599999999999994
sg2498
S'CACHE_ALL_RSN_ALL'
p2521
sS'rsn_cache_ratio'
p2522
F128
ssS'warmup_strategy'
p2523
g11
(tRp2524
g2511
I10000
sg2512
I100
sg2498
g2513
ssS'topology'
p2525
g11
(tRp2526
S'ext_delay'
p2527
I0
sS'source_ratio'
p2528
F0.10000000000000001
sg2498
S'ROCKET_FUEL'
p2529
sS'asn'
p2530
I3257
ssg11
(tRp2531
S'SAT_RATE'
p2532
g11
(tRp2533
S'MEAN_CACHE_HIT'
p2534
F0.8233166666666667
sS'MEAN_SERVER_HIT'
p2535
F0.72030833333333333
sS'MEAN_SERVER_CACHE_HITS'
p2536
F0.54362500000000002
sS'MEAN'
p2537
F1
ssS'CACHE_HIT_RATIO'
p2538
g11
(tRp2539
S'MEAN_OFF_PATH'
p2540
F0.40250852520671937
sS'MEAN_ON_PATH'
p2541
F0.42080814145994733
sg2537
F0.8233166666666667
ssS'OVERHEAD'
p2542
g11
(tRp2543
S'SUCCESS_RATE'
p2544
F0.80963329723038835
sS'QUOTA_USED_FAILURE'
p2545
F1
sS'FAILURE_RATE'
p2546
F0.19036670276961162
sS'QUOTA_USED_SUCCESS'
p2547
F1
sg2537
F1.7267583333333334
sS'NUM_SUCCESS_FIRST_TIME'
p2548
F0.79155838274331658
ssS'LATENCY'
p2549
g11
(tRp2550
g2537
F15.530066666666666
sstp2551
a(g11
(tRp2552
S'workload'
p2553
g11
(tRp2554
S'n_contents'
p2555
I10000
sS'name'
p2556
S'STATIONARY'
p2557
sS'n_warmup'
p2558
I720000
sS'rate'
p2559
I100
sS'n_measured'
p2560
I360000
sS'alpha'
p2561
F0.69999999999999996
ssS'cache_policy'
p2562
g11
(tRp2563
g2556
S'LRU'
p2564
ssS'desc'
p2565
S'strategy network_cache: 0.8'
p2566
sS'strategy'
p2567
g11
(tRp2568
S'extra_quota'
p2569
I2
sS'fan_out'
p2570
I2
sg2556
S'TFIB_SC'
p2571
ssS'content_placement'
p2572
g11
(tRp2573
g2556
S'UNIFORM'
p2574
ssS'joint_cache_rsn_placement'
p2575
g11
(tRp2576
S'network_cache'
p2577
F0.80000000000000004
sS'network_rsn'
p2578
F102.40000000000001
sg2556
S'CACHE_ALL_RSN_ALL'
p2579
sS'rsn_cache_ratio'
p2580
I128
ssS'warmup_strategy'
p2581
g11
(tRp2582
g2569
I10000
sg2570
I10
sg2556
g2571
ssS'topology'
p2583
g11
(tRp2584
S'ext_delay'
p2585
I0
sS'source_ratio'
p2586
F0.10000000000000001
sg2556
S'ROCKET_FUEL'
p2587
sS'asn'
p2588
I3257
ssg11
(tRp2589
S'SAT_RATE'
p2590
g11
(tRp2591
S'MEAN_CACHE_HIT'
p2592
F0.87093888888888893
sS'MEAN_SERVER_HIT'
p2593
F0.70059166666666661
sS'MEAN_SERVER_CACHE_HITS'
p2594
F0.57156666666666667
sS'MEAN'
p2595
F0.99996388888888887
ssS'CACHE_HIT_RATIO'
p2596
g11
(tRp2597
S'MEAN_OFF_PATH'
p2598
F0.42246500669022236
sS'MEAN_ON_PATH'
p2599
F0.44847388219866657
sg2595
F0.87093888888888893
ssS'OVERHEAD'
p2600
g11
(tRp2601
S'SUCCESS_RATE'
p2602
F0.86123624886458516
sS'QUOTA_USED_FAILURE'
p2603
F1
sS'FAILURE_RATE'
p2604
F0.13876375113541486
sS'QUOTA_USED_SUCCESS'
p2605
F1
sg2595
F1.7728640200896144
sS'NUM_SUCCESS_FIRST_TIME'
p2606
F0.84656566569559266
ssS'LATENCY'
p2607
g11
(tRp2608
g2595
F13.380133333333333
sstp2609
a(g11
(tRp2610
S'workload'
p2611
g11
(tRp2612
S'n_contents'
p2613
I10000
sS'name'
p2614
S'STATIONARY'
p2615
sS'n_warmup'
p2616
I720000
sS'rate'
p2617
I100
sS'n_measured'
p2618
I360000
sS'alpha'
p2619
F0.69999999999999996
ssS'cache_policy'
p2620
g11
(tRp2621
g2614
S'LRU'
p2622
ssS'desc'
p2623
S'strategy network_cache: 0.6'
p2624
sS'strategy'
p2625
g11
(tRp2626
S'extra_quota'
p2627
I2
sS'fan_out'
p2628
I2
sg2614
S'TFIB_SC'
p2629
ssS'content_placement'
p2630
g11
(tRp2631
g2614
S'UNIFORM'
p2632
ssS'joint_cache_rsn_placement'
p2633
g11
(tRp2634
S'network_cache'
p2635
F0.59999999999999998
sS'network_rsn'
p2636
F76.799999999999997
sg2614
S'CACHE_ALL_RSN_ALL'
p2637
sS'rsn_cache_ratio'
p2638
I128
ssS'warmup_strategy'
p2639
g11
(tRp2640
g2627
I10000
sg2628
I10
sg2614
g2629
ssS'topology'
p2641
g11
(tRp2642
S'ext_delay'
p2643
I0
sS'source_ratio'
p2644
F0.10000000000000001
sg2614
S'ROCKET_FUEL'
p2645
sS'asn'
p2646
I3257
ssg11
(tRp2647
S'SAT_RATE'
p2648
g11
(tRp2649
S'MEAN_CACHE_HIT'
p2650
F0.77540277777777777
sS'MEAN_SERVER_HIT'
p2651
F0.72552777777777777
sS'MEAN_SERVER_CACHE_HITS'
p2652
F0.50100555555555559
sS'MEAN'
p2653
F0.99992499999999995
ssS'CACHE_HIT_RATIO'
p2654
g11
(tRp2655
S'MEAN_OFF_PATH'
p2656
F0.39067060249659935
sS'MEAN_ON_PATH'
p2657
F0.38473217528117842
sg2653
F0.77540277777777777
ssS'OVERHEAD'
p2658
g11
(tRp2659
S'SUCCESS_RATE'
p2660
F0.76092553018658071
sS'QUOTA_USED_FAILURE'
p2661
F1
sS'FAILURE_RATE'
p2662
F0.23907446981341932
sS'QUOTA_USED_SUCCESS'
p2663
F1
sg2653
F1.6692613057090393
sS'NUM_SUCCESS_FIRST_TIME'
p2664
F0.7424888981404385
ssS'LATENCY'
p2665
g11
(tRp2666
g2653
F16.889305555555556
sstp2667
a(g11
(tRp2668
S'workload'
p2669
g11
(tRp2670
S'n_contents'
p2671
I10000
sS'name'
p2672
S'STATIONARY'
p2673
sS'n_warmup'
p2674
I720000
sS'rate'
p2675
I100
sS'n_measured'
p2676
I360000
sS'alpha'
p2677
F0.69999999999999996
ssS'cache_policy'
p2678
g11
(tRp2679
g2672
S'LRU'
p2680
ssS'desc'
p2681
S'strategy network_cache: 0.9'
p2682
sS'strategy'
p2683
g11
(tRp2684
S'extra_quota'
p2685
I2
sS'fan_out'
p2686
I2
sg2672
S'TFIB_SC'
p2687
ssS'content_placement'
p2688
g11
(tRp2689
g2672
S'UNIFORM'
p2690
ssS'joint_cache_rsn_placement'
p2691
g11
(tRp2692
S'network_cache'
p2693
F0.90000000000000002
sS'network_rsn'
p2694
F115.2
sg2672
S'CACHE_ALL_RSN_ALL'
p2695
sS'rsn_cache_ratio'
p2696
I128
ssS'warmup_strategy'
p2697
g11
(tRp2698
g2685
I10000
sg2686
I10
sg2672
g2687
ssS'topology'
p2699
g11
(tRp2700
S'ext_delay'
p2701
I0
sS'source_ratio'
p2702
F0.10000000000000001
sg2672
S'ROCKET_FUEL'
p2703
sS'asn'
p2704
I3257
ssg11
(tRp2705
S'SAT_RATE'
p2706
g11
(tRp2707
S'MEAN_CACHE_HIT'
p2708
F0.90295833333333331
sS'MEAN_SERVER_HIT'
p2709
F0.68248888888888892
sS'MEAN_SERVER_CACHE_HITS'
p2710
F0.58548333333333336
sS'MEAN'
p2711
F0.99996388888888887
ssS'CACHE_HIT_RATIO'
p2712
g11
(tRp2713
S'MEAN_OFF_PATH'
p2714
F0.44168049323622322
sS'MEAN_ON_PATH'
p2715
F0.46127784009711009
sg2711
F0.90295833333333331
ssS'OVERHEAD'
p2716
g11
(tRp2717
S'SUCCESS_RATE'
p2718
F0.89701782470277169
sS'QUOTA_USED_FAILURE'
p2719
F1
sS'FAILURE_RATE'
p2720
F0.10298217529722827
sS'QUOTA_USED_SUCCESS'
p2721
F1
sg2711
F1.8204074036006856
sS'NUM_SUCCESS_FIRST_TIME'
p2722
F0.88457192224622028
ssS'LATENCY'
p2723
g11
(tRp2724
g2711
F12.188180555555556
sstp2725
a(g11
(tRp2726
S'workload'
p2727
g11
(tRp2728
S'n_contents'
p2729
I10000
sS'name'
p2730
S'STATIONARY'
p2731
sS'n_warmup'
p2732
I720000
sS'rate'
p2733
I100
sS'n_measured'
p2734
I360000
sS'alpha'
p2735
F0.69999999999999996
ssS'cache_policy'
p2736
g11
(tRp2737
g2730
S'LRU'
p2738
ssS'desc'
p2739
S'strategy network_cache: 0.4'
p2740
sS'strategy'
p2741
g11
(tRp2742
S'extra_quota'
p2743
I2
sS'fan_out'
p2744
I2
sg2730
S'TFIB_SC'
p2745
ssS'content_placement'
p2746
g11
(tRp2747
g2730
S'UNIFORM'
p2748
ssS'joint_cache_rsn_placement'
p2749
g11
(tRp2750
S'network_cache'
p2751
F0.40000000000000002
sS'network_rsn'
p2752
F51.200000000000003
sg2730
S'CACHE_ALL_RSN_ALL'
p2753
sS'rsn_cache_ratio'
p2754
I128
ssS'warmup_strategy'
p2755
g11
(tRp2756
g2743
I10000
sg2744
I10
sg2730
g2745
ssS'topology'
p2757
g11
(tRp2758
S'ext_delay'
p2759
I0
sS'source_ratio'
p2760
F0.10000000000000001
sg2730
S'ROCKET_FUEL'
p2761
sS'asn'
p2762
I3257
ssg11
(tRp2763
S'SAT_RATE'
p2764
g11
(tRp2765
S'MEAN_CACHE_HIT'
p2766
F0.64086944444444449
sS'MEAN_SERVER_HIT'
p2767
F0.7762027777777778
sS'MEAN_SERVER_CACHE_HITS'
p2768
F0.41714722222222222
sS'MEAN'
p2769
F0.99992499999999995
ssS'CACHE_HIT_RATIO'
p2770
g11
(tRp2771
S'MEAN_OFF_PATH'
p2772
F0.34238041658662421
sS'MEAN_ON_PATH'
p2773
F0.29848902785782028
sg2769
F0.64086944444444449
ssS'OVERHEAD'
p2774
g11
(tRp2775
S'SUCCESS_RATE'
p2776
F0.64625369716783299
sS'QUOTA_USED_FAILURE'
p2777
F1
sS'FAILURE_RATE'
p2778
F0.35374630283216707
sS'QUOTA_USED_SUCCESS'
p2779
F1
sg2769
F1.5542776819372564
sS'NUM_SUCCESS_FIRST_TIME'
p2780
F0.62621036710345901
ssS'LATENCY'
p2781
g11
(tRp2782
g2769
F22.461111111111112
sstp2783
a(g11
(tRp2784
S'workload'
p2785
g11
(tRp2786
S'n_contents'
p2787
I10000
sS'name'
p2788
S'STATIONARY'
p2789
sS'n_warmup'
p2790
I720000
sS'rate'
p2791
I100
sS'n_measured'
p2792
I360000
sS'alpha'
p2793
F0.69999999999999996
ssS'cache_policy'
p2794
g11
(tRp2795
g2788
S'LRU'
p2796
ssS'desc'
p2797
S'strategy network_cache: 0.7'
p2798
sS'strategy'
p2799
g11
(tRp2800
S'extra_quota'
p2801
I2
sS'fan_out'
p2802
I2
sg2788
S'TFIB_SC'
p2803
ssS'content_placement'
p2804
g11
(tRp2805
g2788
S'UNIFORM'
p2806
ssS'joint_cache_rsn_placement'
p2807
g11
(tRp2808
S'network_cache'
p2809
F0.69999999999999996
sS'network_rsn'
p2810
F89.599999999999994
sg2788
S'CACHE_ALL_RSN_ALL'
p2811
sS'rsn_cache_ratio'
p2812
I128
ssS'warmup_strategy'
p2813
g11
(tRp2814
g2801
I10000
sg2802
I10
sg2788
g2803
ssS'topology'
p2815
g11
(tRp2816
S'ext_delay'
p2817
I0
sS'source_ratio'
p2818
F0.10000000000000001
sg2788
S'ROCKET_FUEL'
p2819
sS'asn'
p2820
I3257
ssg11
(tRp2821
S'SAT_RATE'
p2822
g11
(tRp2823
S'MEAN_CACHE_HIT'
p2824
F0.8235527777777778
sS'MEAN_SERVER_HIT'
p2825
F0.71690555555555557
sS'MEAN_SERVER_CACHE_HITS'
p2826
F0.54052500000000003
sS'MEAN'
p2827
F0.99993333333333334
ssS'CACHE_HIT_RATIO'
p2828
g11
(tRp2829
S'MEAN_OFF_PATH'
p2830
F0.40612371859024643
sS'MEAN_ON_PATH'
p2831
F0.41742905918753137
sg2827
F0.8235527777777778
ssS'OVERHEAD'
p2832
g11
(tRp2833
S'SUCCESS_RATE'
p2834
F0.81116720019699584
sS'QUOTA_USED_FAILURE'
p2835
F1
sS'FAILURE_RATE'
p2836
F0.18883279980300419
sS'QUOTA_USED_SUCCESS'
p2837
F1
sg2827
F1.7227065137675845
sS'NUM_SUCCESS_FIRST_TIME'
p2838
F0.79293102790182834
ssS'LATENCY'
p2839
g11
(tRp2840
g2827
F15.247472222222223
sstp2841
a(g11
(tRp2842
S'workload'
p2843
g11
(tRp2844
S'n_contents'
p2845
I10000
sS'name'
p2846
S'STATIONARY'
p2847
sS'n_warmup'
p2848
I720000
sS'rate'
p2849
I100
sS'n_measured'
p2850
I360000
sS'alpha'
p2851
F0.69999999999999996
ssS'cache_policy'
p2852
g11
(tRp2853
g2846
S'LRU'
p2854
ssS'desc'
p2855
S'strategy network_cache: 0.5'
p2856
sS'strategy'
p2857
g11
(tRp2858
S'extra_quota'
p2859
I2
sS'fan_out'
p2860
I2
sg2846
S'TFIB_SC'
p2861
ssS'content_placement'
p2862
g11
(tRp2863
g2846
S'UNIFORM'
p2864
ssS'joint_cache_rsn_placement'
p2865
g11
(tRp2866
S'network_cache'
p2867
F0.5
sS'network_rsn'
p2868
F64
sg2846
S'CACHE_ALL_RSN_ALL'
p2869
sS'rsn_cache_ratio'
p2870
I128
ssS'warmup_strategy'
p2871
g11
(tRp2872
g2859
I10000
sg2860
I10
sg2846
g2861
ssS'topology'
p2873
g11
(tRp2874
S'ext_delay'
p2875
I0
sS'source_ratio'
p2876
F0.10000000000000001
sg2846
S'ROCKET_FUEL'
p2877
sS'asn'
p2878
I3257
ssg11
(tRp2879
S'SAT_RATE'
p2880
g11
(tRp2881
S'MEAN_CACHE_HIT'
p2882
F0.7157
sS'MEAN_SERVER_HIT'
p2883
F0.75715833333333338
sS'MEAN_SERVER_CACHE_HITS'
p2884
F0.47290833333333332
sS'MEAN'
p2885
F0.99995000000000001
ssS'CACHE_HIT_RATIO'
p2886
g11
(tRp2887
S'MEAN_OFF_PATH'
p2888
F0.36080259661391589
sS'MEAN_ON_PATH'
p2889
F0.35489740338608411
sg2885
F0.7157
ssS'OVERHEAD'
p2890
g11
(tRp2891
S'SUCCESS_RATE'
p2892
F0.70073527992743689
sS'QUOTA_USED_FAILURE'
p2893
F1
sS'FAILURE_RATE'
p2894
F0.29926472007256305
sS'QUOTA_USED_SUCCESS'
p2895
F1
sg2885
F1.6004439110844431
sS'NUM_SUCCESS_FIRST_TIME'
p2896
F0.68231097976973631
ssS'LATENCY'
p2897
g11
(tRp2898
g2885
F19.429380555555557
sstp2899
a(g11
(tRp2900
S'workload'
p2901
g11
(tRp2902
S'n_contents'
p2903
I10000
sS'name'
p2904
S'STATIONARY'
p2905
sS'n_warmup'
p2906
I720000
sS'rate'
p2907
I100
sS'n_measured'
p2908
I360000
sS'alpha'
p2909
F0.69999999999999996
ssS'cache_policy'
p2910
g11
(tRp2911
g2904
S'LRU'
p2912
ssS'desc'
p2913
S'RSN size sensitivity -> RSN/cache ratio: 256.0'
p2914
sS'strategy'
p2915
g11
(tRp2916
S'extra_quota'
p2917
I1000
sS'fan_out'
p2918
I2
sg2904
S'TFIB_SC'
p2919
ssS'content_placement'
p2920
g11
(tRp2921
g2904
S'UNIFORM'
p2922
ssS'joint_cache_rsn_placement'
p2923
g11
(tRp2924
S'network_cache'
p2925
F0.69999999999999996
sS'network_rsn'
p2926
F179.19999999999999
sg2904
S'CACHE_ALL_RSN_ALL'
p2927
sS'rsn_cache_ratio'
p2928
F256
ssS'warmup_strategy'
p2929
g11
(tRp2930
g2917
I10000
sg2918
I100
sg2904
g2919
ssS'topology'
p2931
g11
(tRp2932
S'ext_delay'
p2933
I0
sS'source_ratio'
p2934
F0.10000000000000001
sg2904
S'ROCKET_FUEL'
p2935
sS'asn'
p2936
I3257
ssg11
(tRp2937
S'SAT_RATE'
p2938
g11
(tRp2939
S'MEAN_CACHE_HIT'
p2940
F0.83904722222222228
sS'MEAN_SERVER_HIT'
p2941
F0.72664722222222222
sS'MEAN_SERVER_CACHE_HITS'
p2942
F0.5656944444444445
sS'MEAN'
p2943
F1
ssS'CACHE_HIT_RATIO'
p2944
g11
(tRp2945
S'MEAN_OFF_PATH'
p2946
F0.40462875898163753
sS'MEAN_ON_PATH'
p2947
F0.43441846324058475
sg2943
F0.83904722222222228
ssS'OVERHEAD'
p2948
g11
(tRp2949
S'SUCCESS_RATE'
p2950
F0.83024609090718504
sS'QUOTA_USED_FAILURE'
p2951
F1
sS'FAILURE_RATE'
p2952
F0.16975390909281493
sS'QUOTA_USED_SUCCESS'
p2953
F1
sg2943
F1.7700555555555555
sS'NUM_SUCCESS_FIRST_TIME'
p2954
F0.80600081204604368
ssS'LATENCY'
p2955
g11
(tRp2956
g2943
F15.404394444444444
sstp2957
a(g11
(tRp2958
S'workload'
p2959
g11
(tRp2960
S'n_contents'
p2961
I10000
sS'name'
p2962
S'STATIONARY'
p2963
sS'n_warmup'
p2964
I720000
sS'rate'
p2965
I100
sS'n_measured'
p2966
I360000
sS'alpha'
p2967
F0.69999999999999996
ssS'cache_policy'
p2968
g11
(tRp2969
g2962
S'LRU'
p2970
ssS'desc'
p2971
S'extra_quota: 1'
p2972
sS'strategy'
p2973
g11
(tRp2974
S'extra_quota'
p2975
I1
sS'fan_out'
p2976
I2
sg2962
S'TFIB_DC'
p2977
ssS'content_placement'
p2978
g11
(tRp2979
g2962
S'UNIFORM'
p2980
ssS'joint_cache_rsn_placement'
p2981
g11
(tRp2982
S'network_cache'
p2983
F0.69999999999999996
sS'network_rsn'
p2984
F89.599999999999994
sg2962
S'CACHE_ALL_RSN_ALL'
p2985
sS'rsn_cache_ratio'
p2986
I128
ssS'warmup_strategy'
p2987
g11
(tRp2988
g2975
I1000000
sg2976
I10
sg2962
g2977
ssS'topology'
p2989
g11
(tRp2990
S'ext_delay'
p2991
I0
sS'source_ratio'
p2992
F0.10000000000000001
sg2962
S'ROCKET_FUEL'
p2993
sS'asn'
p2994
I3257
ssg11
(tRp2995
S'SAT_RATE'
p2996
g11
(tRp2997
S'MEAN_CACHE_HIT'
p2998
F0.82857777777777775
sS'MEAN_SERVER_HIT'
p2999
F0.11889444444444444
sS'MEAN_SERVER_CACHE_HITS'
p3000
F0.032330555555555557
sS'MEAN'
p3001
F0.91514166666666663
ssS'CACHE_HIT_RATIO'
p3002
g11
(tRp3003
S'MEAN_OFF_PATH'
p3004
F0.67731390542085668
sS'MEAN_ON_PATH'
p3005
F0.15126387235692107
sg3001
F0.82857777777777775
ssS'OVERHEAD'
p3006
g11
(tRp3007
S'SUCCESS_RATE'
p3008
F0.86250675794214848
sS'QUOTA_USED_FAILURE'
p3009
F8.0461115664004357
sS'FAILURE_RATE'
p3010
F0.13749324205785157
sS'QUOTA_USED_SUCCESS'
p3011
F23.970565559602935
sg3001
F1.1162631165180861
sS'NUM_SUCCESS_FIRST_TIME'
p3012
F0.861908681369559
ssS'LATENCY'
p3013
g11
(tRp3014
g3001
F4.2789222222222225
sstp3015
a(g11
(tRp3016
S'workload'
p3017
g11
(tRp3018
S'n_contents'
p3019
I10000
sS'name'
p3020
S'STATIONARY'
p3021
sS'n_warmup'
p3022
I720000
sS'rate'
p3023
I100
sS'n_measured'
p3024
I360000
sS'alpha'
p3025
F0.69999999999999996
ssS'cache_policy'
p3026
g11
(tRp3027
g3020
S'LRU'
p3028
ssS'desc'
p3029
S'extra_quota: 3'
p3030
sS'strategy'
p3031
g11
(tRp3032
S'extra_quota'
p3033
I3
sS'fan_out'
p3034
I2
sg3020
S'TFIB_DC'
p3035
ssS'content_placement'
p3036
g11
(tRp3037
g3020
S'UNIFORM'
p3038
ssS'joint_cache_rsn_placement'
p3039
g11
(tRp3040
S'network_cache'
p3041
F0.69999999999999996
sS'network_rsn'
p3042
F89.599999999999994
sg3020
S'CACHE_ALL_RSN_ALL'
p3043
sS'rsn_cache_ratio'
p3044
I128
ssS'warmup_strategy'
p3045
g11
(tRp3046
g3033
I1000000
sg3034
I10
sg3020
g3035
ssS'topology'
p3047
g11
(tRp3048
S'ext_delay'
p3049
I0
sS'source_ratio'
p3050
F0.10000000000000001
sg3020
S'ROCKET_FUEL'
p3051
sS'asn'
p3052
I3257
ssg11
(tRp3053
S'SAT_RATE'
p3054
g11
(tRp3055
S'MEAN_CACHE_HIT'
p3056
F0.82899999999999996
sS'MEAN_SERVER_HIT'
p3057
F0.1985861111111111
sS'MEAN_SERVER_CACHE_HITS'
p3058
F0.096194444444444444
sS'MEAN'
p3059
F0.93139166666666662
ssS'CACHE_HIT_RATIO'
p3060
g11
(tRp3061
S'MEAN_OFF_PATH'
p3062
F0.61675555711740837
sS'MEAN_ON_PATH'
p3063
F0.21224444288259159
sg3059
F0.82899999999999996
ssS'OVERHEAD'
p3064
g11
(tRp3065
S'SUCCESS_RATE'
p3066
F0.84993798362203832
sS'QUOTA_USED_FAILURE'
p3067
F8.0005111198766574
sS'FAILURE_RATE'
p3068
F0.15006201637796163
sS'QUOTA_USED_SUCCESS'
p3069
F23.670106635251049
sg3059
F1.1854035627689747
sS'NUM_SUCCESS_FIRST_TIME'
p3070
F0.84756877154548682
ssS'LATENCY'
p3071
g11
(tRp3072
g3059
F5.9142583333333336
sstp3073
a(g11
(tRp3074
S'workload'
p3075
g11
(tRp3076
S'n_contents'
p3077
I10000
sS'name'
p3078
S'STATIONARY'
p3079
sS'n_warmup'
p3080
I720000
sS'rate'
p3081
I100
sS'n_measured'
p3082
I360000
sS'alpha'
p3083
F0.69999999999999996
ssS'cache_policy'
p3084
g11
(tRp3085
g3078
S'LRU'
p3086
ssS'desc'
p3087
S'extra_quota: 2'
p3088
sS'strategy'
p3089
g11
(tRp3090
S'extra_quota'
p3091
I2
sS'fan_out'
p3092
I2
sg3078
S'TFIB_DC'
p3093
ssS'content_placement'
p3094
g11
(tRp3095
g3078
S'UNIFORM'
p3096
ssS'joint_cache_rsn_placement'
p3097
g11
(tRp3098
S'network_cache'
p3099
F0.69999999999999996
sS'network_rsn'
p3100
F89.599999999999994
sg3078
S'CACHE_ALL_RSN_ALL'
p3101
sS'rsn_cache_ratio'
p3102
I128
ssS'warmup_strategy'
p3103
g11
(tRp3104
g3091
I1000000
sg3092
I10
sg3078
g3093
ssS'topology'
p3105
g11
(tRp3106
S'ext_delay'
p3107
I0
sS'source_ratio'
p3108
F0.10000000000000001
sg3078
S'ROCKET_FUEL'
p3109
sS'asn'
p3110
I3257
ssg11
(tRp3111
S'SAT_RATE'
p3112
g11
(tRp3113
S'MEAN_CACHE_HIT'
p3114
F0.82830000000000004
sS'MEAN_SERVER_HIT'
p3115
F0.15758333333333333
sS'MEAN_SERVER_CACHE_HITS'
p3116
F0.062416666666666669
sS'MEAN'
p3117
F0.92346666666666666
ssS'CACHE_HIT_RATIO'
p3118
g11
(tRp3119
S'MEAN_OFF_PATH'
p3120
F0.63895885810243491
sS'MEAN_ON_PATH'
p3121
F0.18934114189756512
sg3117
F0.82830000000000004
ssS'OVERHEAD'
p3122
g11
(tRp3123
S'SUCCESS_RATE'
p3124
F0.85462709529687475
sS'QUOTA_USED_FAILURE'
p3125
F8.0324723966811558
sS'FAILURE_RATE'
p3126
F0.14537290470312528
sS'QUOTA_USED_SUCCESS'
p3127
F21.274185445260258
sg3117
F1.142984767542593
sS'NUM_SUCCESS_FIRST_TIME'
p3128
F0.85295042370843832
ssS'LATENCY'
p3129
g11
(tRp3130
g3117
F4.9943638888888886
sstp3131
a(g11
(tRp3132
S'workload'
p3133
g11
(tRp3134
S'n_contents'
p3135
I10000
sS'name'
p3136
S'STATIONARY'
p3137
sS'n_warmup'
p3138
I720000
sS'rate'
p3139
I100
sS'n_measured'
p3140
I360000
sS'alpha'
p3141
F0.69999999999999996
ssS'cache_policy'
p3142
g11
(tRp3143
g3136
S'LRU'
p3144
ssS'desc'
p3145
S'extra_quota: 2'
p3146
sS'strategy'
p3147
g11
(tRp3148
S'extra_quota'
p3149
I2
sS'fan_out'
p3150
I2
sg3136
S'TFIB_SC'
p3151
ssS'content_placement'
p3152
g11
(tRp3153
g3136
S'UNIFORM'
p3154
ssS'joint_cache_rsn_placement'
p3155
g11
(tRp3156
S'network_cache'
p3157
F0.69999999999999996
sS'network_rsn'
p3158
F89.599999999999994
sg3136
S'CACHE_ALL_RSN_ALL'
p3159
sS'rsn_cache_ratio'
p3160
I128
ssS'warmup_strategy'
p3161
g11
(tRp3162
g3149
I1000000
sg3150
I10
sg3136
g3151
ssS'topology'
p3163
g11
(tRp3164
S'ext_delay'
p3165
I0
sS'source_ratio'
p3166
F0.10000000000000001
sg3136
S'ROCKET_FUEL'
p3167
sS'asn'
p3168
I3257
ssg11
(tRp3169
S'SAT_RATE'
p3170
g11
(tRp3171
S'MEAN_CACHE_HIT'
p3172
F0.82463333333333333
sS'MEAN_SERVER_HIT'
p3173
F0.7164611111111111
sS'MEAN_SERVER_CACHE_HITS'
p3174
F0.54113888888888884
sS'MEAN'
p3175
F0.9999555555555556
ssS'CACHE_HIT_RATIO'
p3176
g11
(tRp3177
S'MEAN_OFF_PATH'
p3178
F0.40483134280471672
sS'MEAN_ON_PATH'
p3179
F0.41980199052861661
sg3175
F0.82463333333333333
ssS'OVERHEAD'
p3180
g11
(tRp3181
S'SUCCESS_RATE'
p3182
F0.81380941584504241
sS'QUOTA_USED_FAILURE'
p3183
F1
sS'FAILURE_RATE'
p3184
F0.18619058415495762
sS'QUOTA_USED_SUCCESS'
p3185
F1
sg3175
F1.7276628961287168
sS'NUM_SUCCESS_FIRST_TIME'
p3186
F0.79488122584092658
ssS'LATENCY'
p3187
g11
(tRp3188
g3175
F14.957513888888888
sstp3189
a(g11
(tRp3190
S'workload'
p3191
g11
(tRp3192
S'n_contents'
p3193
I10000
sS'name'
p3194
S'STATIONARY'
p3195
sS'n_warmup'
p3196
I720000
sS'rate'
p3197
I100
sS'n_measured'
p3198
I360000
sS'alpha'
p3199
F0.69999999999999996
ssS'cache_policy'
p3200
g11
(tRp3201
g3194
S'LRU'
p3202
ssS'desc'
p3203
S'extra_quota: 1'
p3204
sS'strategy'
p3205
g11
(tRp3206
S'extra_quota'
p3207
I1
sS'fan_out'
p3208
I2
sg3194
S'TFIB_SC'
p3209
ssS'content_placement'
p3210
g11
(tRp3211
g3194
S'UNIFORM'
p3212
ssS'joint_cache_rsn_placement'
p3213
g11
(tRp3214
S'network_cache'
p3215
F0.69999999999999996
sS'network_rsn'
p3216
F89.599999999999994
sg3194
S'CACHE_ALL_RSN_ALL'
p3217
sS'rsn_cache_ratio'
p3218
I128
ssS'warmup_strategy'
p3219
g11
(tRp3220
g3207
I1000000
sg3208
I10
sg3194
g3209
ssS'topology'
p3221
g11
(tRp3222
S'ext_delay'
p3223
I0
sS'source_ratio'
p3224
F0.10000000000000001
sg3194
S'ROCKET_FUEL'
p3225
sS'asn'
p3226
I3257
ssg11
(tRp3227
S'SAT_RATE'
p3228
g11
(tRp3229
S'MEAN_CACHE_HIT'
p3230
F0.82565833333333338
sS'MEAN_SERVER_HIT'
p3231
F0.64290555555555551
sS'MEAN_SERVER_CACHE_HITS'
p3232
F0.47194444444444444
sS'MEAN'
p3233
F0.99661944444444439
ssS'CACHE_HIT_RATIO'
p3234
g11
(tRp3235
S'MEAN_OFF_PATH'
p3236
F0.41528666516608254
sS'MEAN_ON_PATH'
p3237
F0.41037166816725085
sg3233
F0.82565833333333338
ssS'OVERHEAD'
p3238
g11
(tRp3239
S'SUCCESS_RATE'
p3240
F0.81179639412361648
sS'QUOTA_USED_FAILURE'
p3241
F1
sS'FAILURE_RATE'
p3242
F0.18820360587638349
sS'QUOTA_USED_SUCCESS'
p3243
F1
sg3233
F1.6414044143674589
sS'NUM_SUCCESS_FIRST_TIME'
p3244
F0.79374666714067332
ssS'LATENCY'
p3245
g11
(tRp3246
g3233
F13.856836111111111
sstp3247
a(g11
(tRp3248
S'workload'
p3249
g11
(tRp3250
S'n_contents'
p3251
I10000
sS'name'
p3252
S'STATIONARY'
p3253
sS'n_warmup'
p3254
I720000
sS'rate'
p3255
I100
sS'n_measured'
p3256
I360000
sS'alpha'
p3257
F0.69999999999999996
ssS'cache_policy'
p3258
g11
(tRp3259
g3252
S'LRU'
p3260
ssS'desc'
p3261
S'extra_quota: 3'
p3262
sS'strategy'
p3263
g11
(tRp3264
S'extra_quota'
p3265
I3
sS'fan_out'
p3266
I2
sg3252
S'TFIB_SC'
p3267
ssS'content_placement'
p3268
g11
(tRp3269
g3252
S'UNIFORM'
p3270
ssS'joint_cache_rsn_placement'
p3271
g11
(tRp3272
S'network_cache'
p3273
F0.69999999999999996
sS'network_rsn'
p3274
F89.599999999999994
sg3252
S'CACHE_ALL_RSN_ALL'
p3275
sS'rsn_cache_ratio'
p3276
I128
ssS'warmup_strategy'
p3277
g11
(tRp3278
g3265
I1000000
sg3266
I10
sg3252
g3267
ssS'topology'
p3279
g11
(tRp3280
S'ext_delay'
p3281
I0
sS'source_ratio'
p3282
F0.10000000000000001
sg3252
S'ROCKET_FUEL'
p3283
sS'asn'
p3284
I3257
ssg11
(tRp3285
S'SAT_RATE'
p3286
g11
(tRp3287
S'MEAN_CACHE_HIT'
p3288
F0.82445833333333329
sS'MEAN_SERVER_HIT'
p3289
F0.72126666666666661
sS'MEAN_SERVER_CACHE_HITS'
p3290
F0.54572500000000002
sS'MEAN'
p3291
F1
ssS'CACHE_HIT_RATIO'
p3292
g11
(tRp3293
S'MEAN_OFF_PATH'
p3294
F0.40725585440848505
sS'MEAN_ON_PATH'
p3295
F0.41720247892484824
sg3291
F0.82445833333333329
ssS'OVERHEAD'
p3296
g11
(tRp3297
S'SUCCESS_RATE'
p3298
F0.81246471266907239
sS'QUOTA_USED_FAILURE'
p3299
F1
sS'FAILURE_RATE'
p3300
F0.18753528733092767
sS'QUOTA_USED_SUCCESS'
p3301
F1
sg3291
F1.7347277777777779
sS'NUM_SUCCESS_FIRST_TIME'
p3302
F0.79521693223929835
ssS'LATENCY'
p3303
g11
(tRp3304
g3291
F15.848994444444445
sstp3305
a(g11
(tRp3306
S'workload'
p3307
g11
(tRp3308
S'n_contents'
p3309
I10000
sS'name'
p3310
S'STATIONARY'
p3311
sS'n_warmup'
p3312
I720000
sS'rate'
p3313
I100
sS'n_measured'
p3314
I360000
sS'alpha'
p3315
F0.69999999999999996
ssS'cache_policy'
p3316
g11
(tRp3317
g3310
S'LRU'
p3318
ssS'desc'
p3319
S'extra_quota: 4'
p3320
sS'strategy'
p3321
g11
(tRp3322
S'extra_quota'
p3323
I4
sS'fan_out'
p3324
I2
sg3310
S'TFIB_DC'
p3325
ssS'content_placement'
p3326
g11
(tRp3327
g3310
S'UNIFORM'
p3328
ssS'joint_cache_rsn_placement'
p3329
g11
(tRp3330
S'network_cache'
p3331
F0.69999999999999996
sS'network_rsn'
p3332
F89.599999999999994
sg3310
S'CACHE_ALL_RSN_ALL'
p3333
sS'rsn_cache_ratio'
p3334
I128
ssS'warmup_strategy'
p3335
g11
(tRp3336
g3323
I1000000
sg3324
I10
sg3310
g3325
ssS'topology'
p3337
g11
(tRp3338
S'ext_delay'
p3339
I0
sS'source_ratio'
p3340
F0.10000000000000001
sg3310
S'ROCKET_FUEL'
p3341
sS'asn'
p3342
I3257
ssg11
(tRp3343
S'SAT_RATE'
p3344
g11
(tRp3345
S'MEAN_CACHE_HIT'
p3346
F0.83134722222222224
sS'MEAN_SERVER_HIT'
p3347
F0.23906111111111111
sS'MEAN_SERVER_CACHE_HITS'
p3348
F0.13027222222222223
sS'MEAN'
p3349
F0.94013611111111106
ssS'CACHE_HIT_RATIO'
p3350
g11
(tRp3351
S'MEAN_OFF_PATH'
p3352
F0.59808432399888933
sS'MEAN_ON_PATH'
p3353
F0.2332628982233329
sg3349
F0.83134722222222224
ssS'OVERHEAD'
p3354
g11
(tRp3355
S'SUCCESS_RATE'
p3356
F0.8483333217664083
sS'QUOTA_USED_FAILURE'
p3357
F7.7449948289926942
sS'FAILURE_RATE'
p3358
F0.15166667823359173
sS'QUOTA_USED_SUCCESS'
p3359
F25.703676507623307
sg3349
F1.2171966825134659
sS'NUM_SUCCESS_FIRST_TIME'
p3360
F0.84485462267232936
ssS'LATENCY'
p3361
g11
(tRp3362
g3349
F6.5896972222222221
sstp3363
a(g11
(tRp3364
S'workload'
p3365
g11
(tRp3366
S'n_contents'
p3367
I10000
sS'name'
p3368
S'STATIONARY'
p3369
sS'n_warmup'
p3370
I720000
sS'rate'
p3371
I100
sS'n_measured'
p3372
I360000
sS'alpha'
p3373
F0.69999999999999996
ssS'cache_policy'
p3374
g11
(tRp3375
g3368
S'LRU'
p3376
ssS'desc'
p3377
S'extra_quota: 4'
p3378
sS'strategy'
p3379
g11
(tRp3380
S'extra_quota'
p3381
I4
sS'fan_out'
p3382
I2
sg3368
S'TFIB_SC'
p3383
ssS'content_placement'
p3384
g11
(tRp3385
g3368
S'UNIFORM'
p3386
ssS'joint_cache_rsn_placement'
p3387
g11
(tRp3388
S'network_cache'
p3389
F0.69999999999999996
sS'network_rsn'
p3390
F89.599999999999994
sg3368
S'CACHE_ALL_RSN_ALL'
p3391
sS'rsn_cache_ratio'
p3392
I128
ssS'warmup_strategy'
p3393
g11
(tRp3394
g3381
I1000000
sg3382
I10
sg3368
g3383
ssS'topology'
p3395
g11
(tRp3396
S'ext_delay'
p3397
I0
sS'source_ratio'
p3398
F0.10000000000000001
sg3368
S'ROCKET_FUEL'
p3399
sS'asn'
p3400
I3257
ssg11
(tRp3401
S'SAT_RATE'
p3402
g11
(tRp3403
S'MEAN_CACHE_HIT'
p3404
F0.82177500000000003
sS'MEAN_SERVER_HIT'
p3405
F0.72484166666666672
sS'MEAN_SERVER_CACHE_HITS'
p3406
F0.54661666666666664
sS'MEAN'
p3407
F1
ssS'CACHE_HIT_RATIO'
p3408
g11
(tRp3409
S'MEAN_OFF_PATH'
p3410
F0.39216605421870676
sS'MEAN_ON_PATH'
p3411
F0.42960894578129327
sg3407
F0.82177500000000003
ssS'OVERHEAD'
p3412
g11
(tRp3413
S'SUCCESS_RATE'
p3414
F0.80513726453416967
sS'QUOTA_USED_FAILURE'
p3415
F1
sS'FAILURE_RATE'
p3416
F0.1948627354658303
sS'QUOTA_USED_SUCCESS'
p3417
F1
sg3407
F1.710075
sS'NUM_SUCCESS_FIRST_TIME'
p3418
F0.78635083262971928
ssS'LATENCY'
p3419
g11
(tRp3420
g3407
F15.676958333333333
sstp3421
a(g11
(tRp3422
S'workload'
p3423
g11
(tRp3424
S'n_contents'
p3425
I10000
sS'name'
p3426
S'STATIONARY'
p3427
sS'n_warmup'
p3428
I720000
sS'rate'
p3429
I100
sS'n_measured'
p3430
I360000
sS'alpha'
p3431
F0.69999999999999996
ssS'cache_policy'
p3432
g11
(tRp3433
g3426
S'LRU'
p3434
ssS'desc'
p3435
S'quota_increment: 0.25'
p3436
sS'strategy'
p3437
g11
(tRp3438
S'extra_quota'
p3439
I2
sS'fan_out'
p3440
I2
sg3426
S'TFIB_DC'
p3441
sS'quota_increment'
p3442
F0.25
ssS'content_placement'
p3443
g11
(tRp3444
g3426
S'UNIFORM'
p3445
ssS'joint_cache_rsn_placement'
p3446
g11
(tRp3447
S'network_cache'
p3448
F0.69999999999999996
sS'network_rsn'
p3449
F89.599999999999994
sg3426
S'CACHE_ALL_RSN_ALL'
p3450
sS'rsn_cache_ratio'
p3451
I128
ssS'warmup_strategy'
p3452
g11
(tRp3453
g3439
I1000000
sg3440
I10
sg3426
g3441
ssS'topology'
p3454
g11
(tRp3455
S'ext_delay'
p3456
I0
sS'source_ratio'
p3457
F0.10000000000000001
sg3426
S'ROCKET_FUEL'
p3458
sS'asn'
p3459
I3257
ssg11
(tRp3460
S'SAT_RATE'
p3461
g11
(tRp3462
S'MEAN_CACHE_HIT'
p3463
F0.82882222222222224
sS'MEAN_SERVER_HIT'
p3464
F0.24379722222222222
sS'MEAN_SERVER_CACHE_HITS'
p3465
F0.13504166666666667
sS'MEAN'
p3466
F0.93757777777777773
ssS'CACHE_HIT_RATIO'
p3467
g11
(tRp3468
S'MEAN_OFF_PATH'
p3469
F0.59222878570892135
sS'MEAN_ON_PATH'
p3470
F0.23659343651330089
sg3466
F0.82882222222222224
ssS'OVERHEAD'
p3471
g11
(tRp3472
S'SUCCESS_RATE'
p3473
F0.84663831863650618
sS'QUOTA_USED_FAILURE'
p3474
F5.4555134955731903
sS'FAILURE_RATE'
p3475
F0.15336168136349379
sS'QUOTA_USED_SUCCESS'
p3476
F16.578689486673948
sg3466
F1.2387476001990947
sS'NUM_SUCCESS_FIRST_TIME'
p3477
F0.84340521290773629
ssS'LATENCY'
p3478
g11
(tRp3479
g3466
F6.5126472222222223
sstp3480
a(g11
(tRp3481
S'workload'
p3482
g11
(tRp3483
S'n_contents'
p3484
I10000
sS'name'
p3485
S'STATIONARY'
p3486
sS'n_warmup'
p3487
I720000
sS'rate'
p3488
I100
sS'n_measured'
p3489
I360000
sS'alpha'
p3490
F0.69999999999999996
ssS'cache_policy'
p3491
g11
(tRp3492
g3485
S'LRU'
p3493
ssS'desc'
p3494
S'quota_increment: 0.75'
p3495
sS'strategy'
p3496
g11
(tRp3497
S'extra_quota'
p3498
I2
sS'fan_out'
p3499
I2
sg3485
S'TFIB_DC'
p3500
sS'quota_increment'
p3501
F0.75
ssS'content_placement'
p3502
g11
(tRp3503
g3485
S'UNIFORM'
p3504
ssS'joint_cache_rsn_placement'
p3505
g11
(tRp3506
S'network_cache'
p3507
F0.69999999999999996
sS'network_rsn'
p3508
F89.599999999999994
sg3485
S'CACHE_ALL_RSN_ALL'
p3509
sS'rsn_cache_ratio'
p3510
I128
ssS'warmup_strategy'
p3511
g11
(tRp3512
g3498
I1000000
sg3499
I10
sg3485
g3500
ssS'topology'
p3513
g11
(tRp3514
S'ext_delay'
p3515
I0
sS'source_ratio'
p3516
F0.10000000000000001
sg3485
S'ROCKET_FUEL'
p3517
sS'asn'
p3518
I3257
ssg11
(tRp3519
S'SAT_RATE'
p3520
g11
(tRp3521
S'MEAN_CACHE_HIT'
p3522
F0.82757499999999995
sS'MEAN_SERVER_HIT'
p3523
F0.17986111111111111
sS'MEAN_SERVER_CACHE_HITS'
p3524
F0.080677777777777779
sS'MEAN'
p3525
F0.92675833333333335
ssS'CACHE_HIT_RATIO'
p3526
g11
(tRp3527
S'MEAN_OFF_PATH'
p3528
F0.62474322882344346
sS'MEAN_ON_PATH'
p3529
F0.20283177117655649
sg3525
F0.82757499999999995
ssS'OVERHEAD'
p3530
g11
(tRp3531
S'SUCCESS_RATE'
p3532
F0.85180274019353419
sS'QUOTA_USED_FAILURE'
p3533
F7.2815264678154108
sS'FAILURE_RATE'
p3534
F0.14819725980646584
sS'QUOTA_USED_SUCCESS'
p3535
F20.517507830523975
sg3525
F1.1663714320825578
sS'NUM_SUCCESS_FIRST_TIME'
p3536
F0.84928015226909725
ssS'LATENCY'
p3537
g11
(tRp3538
g3525
F5.4809888888888887
sstp3539
a(g11
(tRp3540
S'workload'
p3541
g11
(tRp3542
S'n_contents'
p3543
I10000
sS'name'
p3544
S'STATIONARY'
p3545
sS'n_warmup'
p3546
I720000
sS'rate'
p3547
I100
sS'n_measured'
p3548
I360000
sS'alpha'
p3549
F0.69999999999999996
ssS'cache_policy'
p3550
g11
(tRp3551
g3544
S'LRU'
p3552
ssS'desc'
p3553
S'quota_increment: 0.5'
p3554
sS'strategy'
p3555
g11
(tRp3556
S'extra_quota'
p3557
I2
sS'fan_out'
p3558
I2
sg3544
S'TFIB_DC'
p3559
sS'quota_increment'
p3560
F0.5
ssS'content_placement'
p3561
g11
(tRp3562
g3544
S'UNIFORM'
p3563
ssS'joint_cache_rsn_placement'
p3564
g11
(tRp3565
S'network_cache'
p3566
F0.69999999999999996
sS'network_rsn'
p3567
F89.599999999999994
sg3544
S'CACHE_ALL_RSN_ALL'
p3568
sS'rsn_cache_ratio'
p3569
I128
ssS'warmup_strategy'
p3570
g11
(tRp3571
g3557
I1000000
sg3558
I10
sg3544
g3559
ssS'topology'
p3572
g11
(tRp3573
S'ext_delay'
p3574
I0
sS'source_ratio'
p3575
F0.10000000000000001
sg3544
S'ROCKET_FUEL'
p3576
sS'asn'
p3577
I3257
ssg11
(tRp3578
S'SAT_RATE'
p3579
g11
(tRp3580
S'MEAN_CACHE_HIT'
p3581
F0.82880555555555557
sS'MEAN_SERVER_HIT'
p3582
F0.19591388888888889
sS'MEAN_SERVER_CACHE_HITS'
p3583
F0.094766666666666666
sS'MEAN'
p3584
F0.92995277777777774
ssS'CACHE_HIT_RATIO'
p3585
g11
(tRp3586
S'MEAN_OFF_PATH'
p3587
F0.62543948343584554
sS'MEAN_ON_PATH'
p3588
F0.20336607211971003
sg3584
F0.82880555555555557
ssS'OVERHEAD'
p3589
g11
(tRp3590
S'SUCCESS_RATE'
p3591
F0.85292988249750401
sS'QUOTA_USED_FAILURE'
p3592
F6.6891625287663388
sS'FAILURE_RATE'
p3593
F0.14707011750249596
sS'QUOTA_USED_SUCCESS'
p3594
F20.69521906572507
sg3584
F1.1835786165964222
sS'NUM_SUCCESS_FIRST_TIME'
p3595
F0.85041919210249339
ssS'LATENCY'
p3596
g11
(tRp3597
g3584
F5.765908333333333
sstp3598
a(g11
(tRp3599
S'workload'
p3600
g11
(tRp3601
S'n_contents'
p3602
I10000
sS'name'
p3603
S'STATIONARY'
p3604
sS'n_warmup'
p3605
I720000
sS'rate'
p3606
I100
sS'n_measured'
p3607
I360000
sS'alpha'
p3608
F0.69999999999999996
ssS'cache_policy'
p3609
g11
(tRp3610
g3603
S'LRU'
p3611
ssS'desc'
p3612
S'quota_increment: 1.0'
p3613
sS'strategy'
p3614
g11
(tRp3615
S'extra_quota'
p3616
I2
sS'fan_out'
p3617
I2
sg3603
S'TFIB_DC'
p3618
sS'quota_increment'
p3619
F1
ssS'content_placement'
p3620
g11
(tRp3621
g3603
S'UNIFORM'
p3622
ssS'joint_cache_rsn_placement'
p3623
g11
(tRp3624
S'network_cache'
p3625
F0.69999999999999996
sS'network_rsn'
p3626
F89.599999999999994
sg3603
S'CACHE_ALL_RSN_ALL'
p3627
sS'rsn_cache_ratio'
p3628
I128
ssS'warmup_strategy'
p3629
g11
(tRp3630
g3616
I1000000
sg3617
I10
sg3603
g3618
ssS'topology'
p3631
g11
(tRp3632
S'ext_delay'
p3633
I0
sS'source_ratio'
p3634
F0.10000000000000001
sg3603
S'ROCKET_FUEL'
p3635
sS'asn'
p3636
I3257
ssg11
(tRp3637
S'SAT_RATE'
p3638
g11
(tRp3639
S'MEAN_CACHE_HIT'
p3640
F0.82947222222222228
sS'MEAN_SERVER_HIT'
p3641
F0.15750555555555557
sS'MEAN_SERVER_CACHE_HITS'
p3642
F0.06318611111111111
sS'MEAN'
p3643
F0.92379166666666668
ssS'CACHE_HIT_RATIO'
p3644
g11
(tRp3645
S'MEAN_OFF_PATH'
p3646
F0.63890045931463058
sS'MEAN_ON_PATH'
p3647
F0.1905717629075917
sg3643
F0.82947222222222228
ssS'OVERHEAD'
p3648
g11
(tRp3649
S'SUCCESS_RATE'
p3650
F0.85575307900699793
sS'QUOTA_USED_FAILURE'
p3651
F8.0847956812574093
sS'FAILURE_RATE'
p3652
F0.1442469209930021
sS'QUOTA_USED_SUCCESS'
p3653
F22.234847869066826
sg3643
F1.1420053222678272
sS'NUM_SUCCESS_FIRST_TIME'
p3654
F0.85426033799198209
ssS'LATENCY'
p3655
g11
(tRp3656
g3643
F5.0911027777777775
sstp3657
a(g11
(tRp3658
S'workload'
p3659
g11
(tRp3660
S'n_contents'
p3661
I10000
sS'name'
p3662
S'STATIONARY'
p3663
sS'n_warmup'
p3664
I720000
sS'rate'
p3665
I100
sS'n_measured'
p3666
I360000
sS'alpha'
p3667
F0.69999999999999996
ssS'cache_policy'
p3668
g11
(tRp3669
g3662
S'LRU'
p3670
ssS'desc'
p3671
S'quota_increment: 1.25'
p3672
sS'strategy'
p3673
g11
(tRp3674
S'extra_quota'
p3675
I2
sS'fan_out'
p3676
I2
sg3662
S'TFIB_DC'
p3677
sS'quota_increment'
p3678
F1.25
ssS'content_placement'
p3679
g11
(tRp3680
g3662
S'UNIFORM'
p3681
ssS'joint_cache_rsn_placement'
p3682
g11
(tRp3683
S'network_cache'
p3684
F0.69999999999999996
sS'network_rsn'
p3685
F89.599999999999994
sg3662
S'CACHE_ALL_RSN_ALL'
p3686
sS'rsn_cache_ratio'
p3687
I128
ssS'warmup_strategy'
p3688
g11
(tRp3689
g3675
I1000000
sg3676
I10
sg3662
g3677
ssS'topology'
p3690
g11
(tRp3691
S'ext_delay'
p3692
I0
sS'source_ratio'
p3693
F0.10000000000000001
sg3662
S'ROCKET_FUEL'
p3694
sS'asn'
p3695
I3257
ssg11
(tRp3696
S'SAT_RATE'
p3697
g11
(tRp3698
S'MEAN_CACHE_HIT'
p3699
F0.82725555555555552
sS'MEAN_SERVER_HIT'
p3700
F0.15283611111111112
sS'MEAN_SERVER_CACHE_HITS'
p3701
F0.058338888888888892
sS'MEAN'
p3702
F0.92175277777777775
ssS'CACHE_HIT_RATIO'
p3703
g11
(tRp3704
S'MEAN_OFF_PATH'
p3705
F0.64675072909846865
sS'MEAN_ON_PATH'
p3706
F0.18050482645708688
sg3702
F0.82725555555555552
ssS'OVERHEAD'
p3707
g11
(tRp3708
S'SUCCESS_RATE'
p3709
F0.85493424462643297
sS'QUOTA_USED_FAILURE'
p3710
F8.8550275769251421
sS'FAILURE_RATE'
p3711
F0.14506575537356703
sS'QUOTA_USED_SUCCESS'
p3712
F21.507328582037399
sg3702
F1.1367684152475206
sS'NUM_SUCCESS_FIRST_TIME'
p3713
F0.85358764491296923
ssS'LATENCY'
p3714
g11
(tRp3715
g3702
F5.0160916666666671
sstp3716
a(g11
(tRp3717
S'workload'
p3718
g11
(tRp3719
S'n_contents'
p3720
I10000
sS'name'
p3721
S'STATIONARY'
p3722
sS'n_warmup'
p3723
I720000
sS'rate'
p3724
I100
sS'n_measured'
p3725
I360000
sS'alpha'
p3726
F0.69999999999999996
ssS'cache_policy'
p3727
g11
(tRp3728
g3721
S'LRU'
p3729
ssS'desc'
p3730
S'quota_increment: 1.5'
p3731
sS'strategy'
p3732
g11
(tRp3733
S'extra_quota'
p3734
I2
sS'fan_out'
p3735
I2
sg3721
S'TFIB_DC'
p3736
sS'quota_increment'
p3737
F1.5
ssS'content_placement'
p3738
g11
(tRp3739
g3721
S'UNIFORM'
p3740
ssS'joint_cache_rsn_placement'
p3741
g11
(tRp3742
S'network_cache'
p3743
F0.69999999999999996
sS'network_rsn'
p3744
F89.599999999999994
sg3721
S'CACHE_ALL_RSN_ALL'
p3745
sS'rsn_cache_ratio'
p3746
I128
ssS'warmup_strategy'
p3747
g11
(tRp3748
g3734
I1000000
sg3735
I10
sg3721
g3736
ssS'topology'
p3749
g11
(tRp3750
S'ext_delay'
p3751
I0
sS'source_ratio'
p3752
F0.10000000000000001
sg3721
S'ROCKET_FUEL'
p3753
sS'asn'
p3754
I3257
ssg11
(tRp3755
S'SAT_RATE'
p3756
g11
(tRp3757
S'MEAN_CACHE_HIT'
p3758
F0.82776666666666665
sS'MEAN_SERVER_HIT'
p3759
F0.14815555555555557
sS'MEAN_SERVER_CACHE_HITS'
p3760
F0.054941666666666666
sS'MEAN'
p3761
F0.92098055555555558
ssS'CACHE_HIT_RATIO'
p3762
g11
(tRp3763
S'MEAN_OFF_PATH'
p3764
F0.65195313834208102
sS'MEAN_ON_PATH'
p3765
F0.17581352832458563
sg3761
F0.82776666666666665
ssS'OVERHEAD'
p3766
g11
(tRp3767
S'SUCCESS_RATE'
p3768
F0.85647237427300715
sS'QUOTA_USED_FAILURE'
p3769
F9.4665382325819447
sS'FAILURE_RATE'
p3770
F0.14352762572699282
sS'QUOTA_USED_SUCCESS'
p3771
F27.968887801159234
sg3761
F1.1351699426637671
sS'NUM_SUCCESS_FIRST_TIME'
p3772
F0.85534715728874466
ssS'LATENCY'
p3773
g11
(tRp3774
g3761
F4.8159222222222224
sstp3775
a(g11
(tRp3776
S'workload'
p3777
g11
(tRp3778
S'n_contents'
p3779
I10000
sS'name'
p3780
S'STATIONARY'
p3781
sS'n_warmup'
p3782
I720000
sS'rate'
p3783
I100
sS'n_measured'
p3784
I360000
sS'alpha'
p3785
F0.69999999999999996
ssS'cache_policy'
p3786
g11
(tRp3787
g3780
S'LRU'
p3788
ssS'desc'
p3789
S'quota_increment: 1.75'
p3790
sS'strategy'
p3791
g11
(tRp3792
S'extra_quota'
p3793
I2
sS'fan_out'
p3794
I2
sg3780
S'TFIB_DC'
p3795
sS'quota_increment'
p3796
F1.75
ssS'content_placement'
p3797
g11
(tRp3798
g3780
S'UNIFORM'
p3799
ssS'joint_cache_rsn_placement'
p3800
g11
(tRp3801
S'network_cache'
p3802
F0.69999999999999996
sS'network_rsn'
p3803
F89.599999999999994
sg3780
S'CACHE_ALL_RSN_ALL'
p3804
sS'rsn_cache_ratio'
p3805
I128
ssS'warmup_strategy'
p3806
g11
(tRp3807
g3793
I1000000
sg3794
I10
sg3780
g3795
ssS'topology'
p3808
g11
(tRp3809
S'ext_delay'
p3810
I0
sS'source_ratio'
p3811
F0.10000000000000001
sg3780
S'ROCKET_FUEL'
p3812
sS'asn'
p3813
I3257
ssg11
(tRp3814
S'SAT_RATE'
p3815
g11
(tRp3816
S'MEAN_CACHE_HIT'
p3817
F0.82899722222222227
sS'MEAN_SERVER_HIT'
p3818
F0.14275833333333332
sS'MEAN_SERVER_CACHE_HITS'
p3819
F0.050674999999999998
sS'MEAN'
p3820
F0.92108055555555557
ssS'CACHE_HIT_RATIO'
p3821
g11
(tRp3822
S'MEAN_OFF_PATH'
p3823
F0.64497244391593678
sS'MEAN_ON_PATH'
p3824
F0.1840247783062855
sg3820
F0.82899722222222227
ssS'OVERHEAD'
p3825
g11
(tRp3826
S'SUCCESS_RATE'
p3827
F0.85702401659446203
sS'QUOTA_USED_FAILURE'
p3828
F10.443794094639745
sS'FAILURE_RATE'
p3829
F0.14297598340553797
sS'QUOTA_USED_SUCCESS'
p3830
F28.868023116881602
sg3820
F1.1195606609386921
sS'NUM_SUCCESS_FIRST_TIME'
p3831
F0.85612618950642427
ssS'LATENCY'
p3832
g11
(tRp3833
g3820
F4.8339888888888884
sstp3834
a(g11
(tRp3835
S'workload'
p3836
g11
(tRp3837
S'n_contents'
p3838
I10000
sS'name'
p3839
S'STATIONARY'
p3840
sS'n_warmup'
p3841
I720000
sS'rate'
p3842
I100
sS'n_measured'
p3843
I360000
sS'alpha'
p3844
F0.69999999999999996
ssS'cache_policy'
p3845
g11
(tRp3846
g3839
S'LRU'
p3847
ssS'desc'
p3848
S'quota_increment: 2.25'
p3849
sS'strategy'
p3850
g11
(tRp3851
S'extra_quota'
p3852
I2
sS'fan_out'
p3853
I2
sg3839
S'TFIB_DC'
p3854
sS'quota_increment'
p3855
F2.25
ssS'content_placement'
p3856
g11
(tRp3857
g3839
S'UNIFORM'
p3858
ssS'joint_cache_rsn_placement'
p3859
g11
(tRp3860
S'network_cache'
p3861
F0.69999999999999996
sS'network_rsn'
p3862
F89.599999999999994
sg3839
S'CACHE_ALL_RSN_ALL'
p3863
sS'rsn_cache_ratio'
p3864
I128
ssS'warmup_strategy'
p3865
g11
(tRp3866
g3852
I1000000
sg3853
I10
sg3839
g3854
ssS'topology'
p3867
g11
(tRp3868
S'ext_delay'
p3869
I0
sS'source_ratio'
p3870
F0.10000000000000001
sg3839
S'ROCKET_FUEL'
p3871
sS'asn'
p3872
I3257
ssg11
(tRp3873
S'SAT_RATE'
p3874
g11
(tRp3875
S'MEAN_CACHE_HIT'
p3876
F0.82496944444444442
sS'MEAN_SERVER_HIT'
p3877
F0.1320388888888889
sS'MEAN_SERVER_CACHE_HITS'
p3878
F0.040897222222222224
sS'MEAN'
p3879
F0.9161111111111111
ssS'CACHE_HIT_RATIO'
p3880
g11
(tRp3881
S'MEAN_OFF_PATH'
p3882
F0.65699532396966243
sS'MEAN_ON_PATH'
p3883
F0.167974120474782
sg3879
F0.82496944444444442
ssS'OVERHEAD'
p3884
g11
(tRp3885
S'SUCCESS_RATE'
p3886
F0.85774184951585675
sS'QUOTA_USED_FAILURE'
p3887
F12.220854948819674
sS'FAILURE_RATE'
p3888
F0.1422581504841432
sS'QUOTA_USED_SUCCESS'
p3889
F41.364872213185933
sg3879
F1.1104851425106126
sS'NUM_SUCCESS_FIRST_TIME'
p3890
F0.85718138711005976
ssS'LATENCY'
p3891
g11
(tRp3892
g3879
F4.7075166666666668
sstp3893
a(g11
(tRp3894
S'workload'
p3895
g11
(tRp3896
S'n_contents'
p3897
I10000
sS'name'
p3898
S'STATIONARY'
p3899
sS'n_warmup'
p3900
I720000
sS'rate'
p3901
I100
sS'n_measured'
p3902
I360000
sS'alpha'
p3903
F0.69999999999999996
ssS'cache_policy'
p3904
g11
(tRp3905
g3898
S'LRU'
p3906
ssS'desc'
p3907
S'quota_increment: 2.5'
p3908
sS'strategy'
p3909
g11
(tRp3910
S'extra_quota'
p3911
I2
sS'fan_out'
p3912
I2
sg3898
S'TFIB_DC'
p3913
sS'quota_increment'
p3914
F2.5
ssS'content_placement'
p3915
g11
(tRp3916
g3898
S'UNIFORM'
p3917
ssS'joint_cache_rsn_placement'
p3918
g11
(tRp3919
S'network_cache'
p3920
F0.69999999999999996
sS'network_rsn'
p3921
F89.599999999999994
sg3898
S'CACHE_ALL_RSN_ALL'
p3922
sS'rsn_cache_ratio'
p3923
I128
ssS'warmup_strategy'
p3924
g11
(tRp3925
g3911
I1000000
sg3912
I10
sg3898
g3913
ssS'topology'
p3926
g11
(tRp3927
S'ext_delay'
p3928
I0
sS'source_ratio'
p3929
F0.10000000000000001
sg3898
S'ROCKET_FUEL'
p3930
sS'asn'
p3931
I3257
ssg11
(tRp3932
S'SAT_RATE'
p3933
g11
(tRp3934
S'MEAN_CACHE_HIT'
p3935
F0.82771111111111106
sS'MEAN_SERVER_HIT'
p3936
F0.12834166666666666
sS'MEAN_SERVER_CACHE_HITS'
p3937
F0.038944444444444441
sS'MEAN'
p3938
F0.9171083333333333
ssS'CACHE_HIT_RATIO'
p3939
g11
(tRp3940
S'MEAN_OFF_PATH'
p3941
F0.65816915035490253
sS'MEAN_ON_PATH'
p3942
F0.16954196075620853
sg3938
F0.82771111111111106
ssS'OVERHEAD'
p3943
g11
(tRp3944
S'SUCCESS_RATE'
p3945
F0.85770999353474886
sS'QUOTA_USED_FAILURE'
p3946
F12.697042290438644
sS'FAILURE_RATE'
p3947
F0.14229000646525108
sS'QUOTA_USED_SUCCESS'
p3948
F33.140872140086586
sg3938
F1.1171617311658928
sS'NUM_SUCCESS_FIRST_TIME'
p3949
F0.85700124839292702
ssS'LATENCY'
p3950
g11
(tRp3951
g3938
F4.6390916666666664
sstp3952
a(g11
(tRp3953
S'workload'
p3954
g11
(tRp3955
S'n_contents'
p3956
I10000
sS'name'
p3957
S'STATIONARY'
p3958
sS'n_warmup'
p3959
I720000
sS'rate'
p3960
I100
sS'n_measured'
p3961
I360000
sS'alpha'
p3962
F0.69999999999999996
ssS'cache_policy'
p3963
g11
(tRp3964
g3957
S'LRU'
p3965
ssS'desc'
p3966
S'quota_increment: 2.0'
p3967
sS'strategy'
p3968
g11
(tRp3969
S'extra_quota'
p3970
I2
sS'fan_out'
p3971
I2
sg3957
S'TFIB_DC'
p3972
sS'quota_increment'
p3973
F2
ssS'content_placement'
p3974
g11
(tRp3975
g3957
S'UNIFORM'
p3976
ssS'joint_cache_rsn_placement'
p3977
g11
(tRp3978
S'network_cache'
p3979
F0.69999999999999996
sS'network_rsn'
p3980
F89.599999999999994
sg3957
S'CACHE_ALL_RSN_ALL'
p3981
sS'rsn_cache_ratio'
p3982
I128
ssS'warmup_strategy'
p3983
g11
(tRp3984
g3970
I1000000
sg3971
I10
sg3957
g3972
ssS'topology'
p3985
g11
(tRp3986
S'ext_delay'
p3987
I0
sS'source_ratio'
p3988
F0.10000000000000001
sg3957
S'ROCKET_FUEL'
p3989
sS'asn'
p3990
I3257
ssg11
(tRp3991
S'SAT_RATE'
p3992
g11
(tRp3993
S'MEAN_CACHE_HIT'
p3994
F0.83023333333333338
sS'MEAN_SERVER_HIT'
p3995
F0.13062777777777779
sS'MEAN_SERVER_CACHE_HITS'
p3996
F0.04203888888888889
sS'MEAN'
p3997
F0.91882222222222221
ssS'CACHE_HIT_RATIO'
p3998
g11
(tRp3999
S'MEAN_OFF_PATH'
p4000
F0.65248475036859299
sS'MEAN_ON_PATH'
p4001
F0.17774858296474039
sg3997
F0.83023333333333338
ssS'OVERHEAD'
p4002
g11
(tRp4003
S'SUCCESS_RATE'
p4004
F0.85869281140650178
sS'QUOTA_USED_FAILURE'
p4005
F11.165190877264992
sS'FAILURE_RATE'
p4006
F0.14130718859349817
sS'QUOTA_USED_SUCCESS'
p4007
F29.357019375111914
sg3997
F1.1077345393861706
sS'NUM_SUCCESS_FIRST_TIME'
p4008
F0.85806992069697308
ssS'LATENCY'
p4009
g11
(tRp4010
g3997
F4.537233333333333
sstp4011
a(g11
(tRp4012
S'workload'
p4013
g11
(tRp4014
S'n_contents'
p4015
I10000
sS'name'
p4016
S'STATIONARY'
p4017
sS'n_warmup'
p4018
I720000
sS'rate'
p4019
I100
sS'n_measured'
p4020
I360000
sS'alpha'
p4021
F0.69999999999999996
ssS'cache_policy'
p4022
g11
(tRp4023
g4016
S'LRU'
p4024
ssS'desc'
p4025
S'quota_increment: 2.75'
p4026
sS'strategy'
p4027
g11
(tRp4028
S'extra_quota'
p4029
I2
sS'fan_out'
p4030
I2
sg4016
S'TFIB_DC'
p4031
sS'quota_increment'
p4032
F2.75
ssS'content_placement'
p4033
g11
(tRp4034
g4016
S'UNIFORM'
p4035
ssS'joint_cache_rsn_placement'
p4036
g11
(tRp4037
S'network_cache'
p4038
F0.69999999999999996
sS'network_rsn'
p4039
F89.599999999999994
sg4016
S'CACHE_ALL_RSN_ALL'
p4040
sS'rsn_cache_ratio'
p4041
I128
ssS'warmup_strategy'
p4042
g11
(tRp4043
g4029
I1000000
sg4030
I10
sg4016
g4031
ssS'topology'
p4044
g11
(tRp4045
S'ext_delay'
p4046
I0
sS'source_ratio'
p4047
F0.10000000000000001
sg4016
S'ROCKET_FUEL'
p4048
sS'asn'
p4049
I3257
ssg11
(tRp4050
S'SAT_RATE'
p4051
g11
(tRp4052
S'MEAN_CACHE_HIT'
p4053
F0.83167777777777774
sS'MEAN_SERVER_HIT'
p4054
F0.12531944444444446
sS'MEAN_SERVER_CACHE_HITS'
p4055
F0.038230555555555552
sS'MEAN'
p4056
F0.91876666666666662
ssS'CACHE_HIT_RATIO'
p4057
g11
(tRp4058
S'MEAN_OFF_PATH'
p4059
F0.6632406340434055
sS'MEAN_ON_PATH'
p4060
F0.16843714373437224
sg4056
F0.83167777777777774
ssS'OVERHEAD'
p4061
g11
(tRp4062
S'SUCCESS_RATE'
p4063
F0.86091905656681444
sS'QUOTA_USED_FAILURE'
p4064
F13.501491618743565
sS'FAILURE_RATE'
p4065
F0.13908094343318558
sS'QUOTA_USED_SUCCESS'
p4066
F34.249518667010449
sg4056
F1.0966603780430286
sS'NUM_SUCCESS_FIRST_TIME'
p4067
F0.86052406615870658
ssS'LATENCY'
p4068
g11
(tRp4069
g4056
F4.4849611111111107
sstp4070
a(g11
(tRp4071
S'workload'
p4072
g11
(tRp4073
S'n_contents'
p4074
I10000
sS'name'
p4075
S'STATIONARY'
p4076
sS'n_warmup'
p4077
I720000
sS'rate'
p4078
I100
sS'n_measured'
p4079
I360000
sS'alpha'
p4080
F0.69999999999999996
ssS'cache_policy'
p4081
g11
(tRp4082
g4075
S'LRU'
p4083
ssS'desc'
p4084
S'quota_increment: 3.0'
p4085
sS'strategy'
p4086
g11
(tRp4087
S'extra_quota'
p4088
I2
sS'fan_out'
p4089
I2
sg4075
S'TFIB_DC'
p4090
sS'quota_increment'
p4091
F3
ssS'content_placement'
p4092
g11
(tRp4093
g4075
S'UNIFORM'
p4094
ssS'joint_cache_rsn_placement'
p4095
g11
(tRp4096
S'network_cache'
p4097
F0.69999999999999996
sS'network_rsn'
p4098
F89.599999999999994
sg4075
S'CACHE_ALL_RSN_ALL'
p4099
sS'rsn_cache_ratio'
p4100
I128
ssS'warmup_strategy'
p4101
g11
(tRp4102
g4088
I1000000
sg4089
I10
sg4075
g4090
ssS'topology'
p4103
g11
(tRp4104
S'ext_delay'
p4105
I0
sS'source_ratio'
p4106
F0.10000000000000001
sg4075
S'ROCKET_FUEL'
p4107
sS'asn'
p4108
I3257
ssg11
(tRp4109
S'SAT_RATE'
p4110
g11
(tRp4111
S'MEAN_CACHE_HIT'
p4112
F0.82751944444444447
sS'MEAN_SERVER_HIT'
p4113
F0.12772222222222221
sS'MEAN_SERVER_CACHE_HITS'
p4114
F0.03823611111111111
sS'MEAN'
p4115
F0.91700555555555552
ssS'CACHE_HIT_RATIO'
p4116
g11
(tRp4117
S'MEAN_OFF_PATH'
p4118
F0.65589568666451481
sS'MEAN_ON_PATH'
p4119
F0.17162375777992966
sg4115
F0.82751944444444447
ssS'OVERHEAD'
p4120
g11
(tRp4121
S'SUCCESS_RATE'
p4122
F0.8562617989549367
sS'QUOTA_USED_FAILURE'
p4123
F14.069226667074492
sS'FAILURE_RATE'
p4124
F0.14373820104506332
sS'QUOTA_USED_SUCCESS'
p4125
F35.555824656392815
sg4115
F1.1052307934642345
sS'NUM_SUCCESS_FIRST_TIME'
p4126
F0.855625509387688
ssS'LATENCY'
p4127
g11
(tRp4128
g4115
F4.6209388888888885
sstp4129
atRp4130
sb.