ccopy_reg
_reconstructor
p1
(cicarus.results.readwrite
ResultSet
p2
c__builtin__
object
p3
NtRp4
(dp5
S'attr'
p6
(dp7
sS'_results'
p8
ccollections
deque
p9
((lp10
(cicarus.util
Tree
p11
(tRp12
S'workload'
p13
g11
(tRp14
S'n_contents'
p15
I10000
sS'name'
p16
S'STATIONARY'
p17
sS'n_warmup'
p18
I720000
sS'rate'
p19
I100
sS'n_measured'
p20
I360000
sS'alpha'
p21
F1
ssS'cache_policy'
p22
g11
(tRp23
g16
S'LRU'
p24
ssS'desc'
p25
S'strategy zipf: 1.0'
p26
sS'strategy'
p27
g11
(tRp28
g16
S'NRR_PROB'
p29
ssS'content_placement'
p30
g11
(tRp31
g16
S'UNIFORM'
p32
ssS'joint_cache_rsn_placement'
p33
g11
(tRp34
S'network_cache'
p35
F0.29999999999999999
sS'network_rsn'
p36
F38.399999999999999
sg16
S'CACHE_ALL_RSN_ALL'
p37
sS'rsn_cache_ratio'
p38
I128
ssS'warmup_strategy'
p39
g11
(tRp40
g16
g29
ssS'topology'
p41
g11
(tRp42
S'ext_delay'
p43
I0
sS'source_ratio'
p44
F0.10000000000000001
sg16
S'ROCKET_FUEL'
p45
sS'asn'
p46
I3257
ssg11
(tRp47
S'SAT_RATE'
p48
g11
(tRp49
S'MEAN_CACHE_HIT'
p50
F0.84211666666666662
sS'MEAN_SERVER_HIT'
p51
F0.15788333333333332
sS'MEAN_SERVER_CACHE_HITS'
p52
F0
sS'MEAN'
p53
F1
ssS'CACHE_HIT_RATIO'
p54
g11
(tRp55
S'MEAN_OFF_PATH'
p56
F0.72729166666666667
sS'MEAN_ON_PATH'
p57
F0.11482499999999995
sg53
F0.84211666666666662
ssS'OVERHEAD'
p58
g11
(tRp59
S'INTEREST_HOPS'
p60
F5.454077777777778
sS'SUCCESS_RATE'
p61
F0
sS'QUOTA_USED_FAILURE'
p62
F0
sS'FAILURE_RATE'
p63
F0
sS'QUOTA_USED_SUCCESS'
p64
F0
sS'NUM_SUCCESS_FIRST_TIME'
p65
F0
sg53
F1
ssS'LATENCY'
p66
g11
(tRp67
g53
F41.677039486768741
sstp68
a(g11
(tRp69
S'workload'
p70
g11
(tRp71
S'n_contents'
p72
I10000
sS'name'
p73
S'STATIONARY'
p74
sS'n_warmup'
p75
I720000
sS'rate'
p76
I100
sS'n_measured'
p77
I360000
sS'alpha'
p78
F0.90000000000000002
ssS'cache_policy'
p79
g11
(tRp80
g73
S'LRU'
p81
ssS'desc'
p82
S'strategy zipf: 0.9'
p83
sS'strategy'
p84
g11
(tRp85
g73
S'NRR_PROB'
p86
ssS'content_placement'
p87
g11
(tRp88
g73
S'UNIFORM'
p89
ssS'joint_cache_rsn_placement'
p90
g11
(tRp91
S'network_cache'
p92
F0.29999999999999999
sS'network_rsn'
p93
F38.399999999999999
sg73
S'CACHE_ALL_RSN_ALL'
p94
sS'rsn_cache_ratio'
p95
I128
ssS'warmup_strategy'
p96
g11
(tRp97
g73
g86
ssS'topology'
p98
g11
(tRp99
S'ext_delay'
p100
I0
sS'source_ratio'
p101
F0.10000000000000001
sg73
S'ROCKET_FUEL'
p102
sS'asn'
p103
I3257
ssg11
(tRp104
S'SAT_RATE'
p105
g11
(tRp106
S'MEAN_CACHE_HIT'
p107
F0.76973888888888886
sS'MEAN_SERVER_HIT'
p108
F0.23026111111111111
sS'MEAN_SERVER_CACHE_HITS'
p109
F0
sS'MEAN'
p110
F1
ssS'CACHE_HIT_RATIO'
p111
g11
(tRp112
S'MEAN_OFF_PATH'
p113
F0.70627777777777778
sS'MEAN_ON_PATH'
p114
F0.063461111111111079
sg110
F0.76973888888888886
ssS'OVERHEAD'
p115
g11
(tRp116
S'INTEREST_HOPS'
p117
F5.6547416666666663
sS'SUCCESS_RATE'
p118
F0
sS'QUOTA_USED_FAILURE'
p119
F0
sS'FAILURE_RATE'
p120
F0
sS'QUOTA_USED_SUCCESS'
p121
F0
sS'NUM_SUCCESS_FIRST_TIME'
p122
F0
sg110
F1
ssS'LATENCY'
p123
g11
(tRp124
g110
F48.943587063342903
sstp125
a(g11
(tRp126
S'workload'
p127
g11
(tRp128
S'n_contents'
p129
I10000
sS'name'
p130
S'STATIONARY'
p131
sS'n_warmup'
p132
I720000
sS'rate'
p133
I100
sS'n_measured'
p134
I360000
sS'alpha'
p135
F0.80000000000000004
ssS'cache_policy'
p136
g11
(tRp137
g130
S'LRU'
p138
ssS'desc'
p139
S'strategy zipf: 0.8'
p140
sS'strategy'
p141
g11
(tRp142
g130
S'NRR_PROB'
p143
ssS'content_placement'
p144
g11
(tRp145
g130
S'UNIFORM'
p146
ssS'joint_cache_rsn_placement'
p147
g11
(tRp148
S'network_cache'
p149
F0.29999999999999999
sS'network_rsn'
p150
F38.399999999999999
sg130
S'CACHE_ALL_RSN_ALL'
p151
sS'rsn_cache_ratio'
p152
I128
ssS'warmup_strategy'
p153
g11
(tRp154
g130
g143
ssS'topology'
p155
g11
(tRp156
S'ext_delay'
p157
I0
sS'source_ratio'
p158
F0.10000000000000001
sg130
S'ROCKET_FUEL'
p159
sS'asn'
p160
I3257
ssg11
(tRp161
S'SAT_RATE'
p162
g11
(tRp163
S'MEAN_CACHE_HIT'
p164
F0.68789444444444448
sS'MEAN_SERVER_HIT'
p165
F0.31210555555555558
sS'MEAN_SERVER_CACHE_HITS'
p166
F0
sS'MEAN'
p167
F1
ssS'CACHE_HIT_RATIO'
p168
g11
(tRp169
S'MEAN_OFF_PATH'
p170
F0.60359166666666664
sS'MEAN_ON_PATH'
p171
F0.084302777777777838
sg167
F0.68789444444444448
ssS'OVERHEAD'
p172
g11
(tRp173
S'INTEREST_HOPS'
p174
F5.786372222222222
sS'SUCCESS_RATE'
p175
F0
sS'QUOTA_USED_FAILURE'
p176
F0
sS'FAILURE_RATE'
p177
F0
sS'QUOTA_USED_SUCCESS'
p178
F0
sS'NUM_SUCCESS_FIRST_TIME'
p179
F0
sg167
F1
ssS'LATENCY'
p180
g11
(tRp181
g167
F52.996273236581871
sstp182
a(g11
(tRp183
S'workload'
p184
g11
(tRp185
S'n_contents'
p186
I10000
sS'name'
p187
S'STATIONARY'
p188
sS'n_warmup'
p189
I720000
sS'rate'
p190
I100
sS'n_measured'
p191
I360000
sS'alpha'
p192
F0.69999999999999996
ssS'cache_policy'
p193
g11
(tRp194
g187
S'LRU'
p195
ssS'desc'
p196
S'strategy zipf: 0.7'
p197
sS'strategy'
p198
g11
(tRp199
g187
S'NRR_PROB'
p200
ssS'content_placement'
p201
g11
(tRp202
g187
S'UNIFORM'
p203
ssS'joint_cache_rsn_placement'
p204
g11
(tRp205
S'network_cache'
p206
F0.29999999999999999
sS'network_rsn'
p207
F38.399999999999999
sg187
S'CACHE_ALL_RSN_ALL'
p208
sS'rsn_cache_ratio'
p209
I128
ssS'warmup_strategy'
p210
g11
(tRp211
g187
g200
ssS'topology'
p212
g11
(tRp213
S'ext_delay'
p214
I0
sS'source_ratio'
p215
F0.10000000000000001
sg187
S'ROCKET_FUEL'
p216
sS'asn'
p217
I3257
ssg11
(tRp218
S'SAT_RATE'
p219
g11
(tRp220
S'MEAN_CACHE_HIT'
p221
F0.60451111111111111
sS'MEAN_SERVER_HIT'
p222
F0.39548888888888889
sS'MEAN_SERVER_CACHE_HITS'
p223
F0
sS'MEAN'
p224
F1
ssS'CACHE_HIT_RATIO'
p225
g11
(tRp226
S'MEAN_OFF_PATH'
p227
F0.5680722222222222
sS'MEAN_ON_PATH'
p228
F0.03643888888888891
sg224
F0.60451111111111111
ssS'OVERHEAD'
p229
g11
(tRp230
S'INTEREST_HOPS'
p231
F6.0277500000000002
sS'SUCCESS_RATE'
p232
F0
sS'QUOTA_USED_FAILURE'
p233
F0
sS'FAILURE_RATE'
p234
F0
sS'QUOTA_USED_SUCCESS'
p235
F0
sS'NUM_SUCCESS_FIRST_TIME'
p236
F0
sg224
F1
ssS'LATENCY'
p237
g11
(tRp238
g224
F61.234763732307165
sstp239
a(g11
(tRp240
S'workload'
p241
g11
(tRp242
S'n_contents'
p243
I10000
sS'name'
p244
S'STATIONARY'
p245
sS'n_warmup'
p246
I720000
sS'rate'
p247
I100
sS'n_measured'
p248
I360000
sS'alpha'
p249
F0.59999999999999998
ssS'cache_policy'
p250
g11
(tRp251
g244
S'LRU'
p252
ssS'desc'
p253
S'strategy zipf: 0.6'
p254
sS'strategy'
p255
g11
(tRp256
g244
S'NRR_PROB'
p257
ssS'content_placement'
p258
g11
(tRp259
g244
S'UNIFORM'
p260
ssS'joint_cache_rsn_placement'
p261
g11
(tRp262
S'network_cache'
p263
F0.29999999999999999
sS'network_rsn'
p264
F38.399999999999999
sg244
S'CACHE_ALL_RSN_ALL'
p265
sS'rsn_cache_ratio'
p266
I128
ssS'warmup_strategy'
p267
g11
(tRp268
g244
g257
ssS'topology'
p269
g11
(tRp270
S'ext_delay'
p271
I0
sS'source_ratio'
p272
F0.10000000000000001
sg244
S'ROCKET_FUEL'
p273
sS'asn'
p274
I3257
ssg11
(tRp275
S'SAT_RATE'
p276
g11
(tRp277
S'MEAN_CACHE_HIT'
p278
F0.52606666666666668
sS'MEAN_SERVER_HIT'
p279
F0.47393333333333332
sS'MEAN_SERVER_CACHE_HITS'
p280
F0
sS'MEAN'
p281
F1
ssS'CACHE_HIT_RATIO'
p282
g11
(tRp283
S'MEAN_OFF_PATH'
p284
F0.49882222222222222
sS'MEAN_ON_PATH'
p285
F0.02724444444444446
sg281
F0.52606666666666668
ssS'OVERHEAD'
p286
g11
(tRp287
S'INTEREST_HOPS'
p288
F6.1940333333333335
sS'SUCCESS_RATE'
p289
F0
sS'QUOTA_USED_FAILURE'
p290
F0
sS'FAILURE_RATE'
p291
F0
sS'QUOTA_USED_SUCCESS'
p292
F0
sS'NUM_SUCCESS_FIRST_TIME'
p293
F0
sg281
F1
ssS'LATENCY'
p294
g11
(tRp295
g281
F67.556704819992746
sstp296
a(g11
(tRp297
S'workload'
p298
g11
(tRp299
S'n_contents'
p300
I10000
sS'name'
p301
S'STATIONARY'
p302
sS'n_warmup'
p303
I720000
sS'rate'
p304
I100
sS'n_measured'
p305
I360000
sS'alpha'
p306
F0.20000000000000001
ssS'cache_policy'
p307
g11
(tRp308
g301
S'LRU'
p309
ssS'desc'
p310
S'strategy zipf: 0.2'
p311
sS'strategy'
p312
g11
(tRp313
g301
S'NRR_PROB'
p314
ssS'content_placement'
p315
g11
(tRp316
g301
S'UNIFORM'
p317
ssS'joint_cache_rsn_placement'
p318
g11
(tRp319
S'network_cache'
p320
F0.29999999999999999
sS'network_rsn'
p321
F38.399999999999999
sg301
S'CACHE_ALL_RSN_ALL'
p322
sS'rsn_cache_ratio'
p323
I128
ssS'warmup_strategy'
p324
g11
(tRp325
g301
g314
ssS'topology'
p326
g11
(tRp327
S'ext_delay'
p328
I0
sS'source_ratio'
p329
F0.10000000000000001
sg301
S'ROCKET_FUEL'
p330
sS'asn'
p331
I3257
ssg11
(tRp332
S'SAT_RATE'
p333
g11
(tRp334
S'MEAN_CACHE_HIT'
p335
F0.32591944444444443
sS'MEAN_SERVER_HIT'
p336
F0.67408055555555557
sS'MEAN_SERVER_CACHE_HITS'
p337
F0
sS'MEAN'
p338
F1
ssS'CACHE_HIT_RATIO'
p339
g11
(tRp340
S'MEAN_OFF_PATH'
p341
F0.30844444444444447
sS'MEAN_ON_PATH'
p342
F0.017474999999999963
sg338
F0.32591944444444443
ssS'OVERHEAD'
p343
g11
(tRp344
S'INTEREST_HOPS'
p345
F6.518188888888889
sS'SUCCESS_RATE'
p346
F0
sS'QUOTA_USED_FAILURE'
p347
F0
sS'FAILURE_RATE'
p348
F0
sS'QUOTA_USED_SUCCESS'
p349
F0
sS'NUM_SUCCESS_FIRST_TIME'
p350
F0
sg338
F1
ssS'LATENCY'
p351
g11
(tRp352
g338
F82.327052099783117
sstp353
a(g11
(tRp354
S'workload'
p355
g11
(tRp356
S'n_contents'
p357
I10000
sS'name'
p358
S'STATIONARY'
p359
sS'n_warmup'
p360
I720000
sS'rate'
p361
I100
sS'n_measured'
p362
I360000
sS'alpha'
p363
F0.5
ssS'cache_policy'
p364
g11
(tRp365
g358
S'LRU'
p366
ssS'desc'
p367
S'strategy zipf: 0.5'
p368
sS'strategy'
p369
g11
(tRp370
g358
S'NRR_PROB'
p371
ssS'content_placement'
p372
g11
(tRp373
g358
S'UNIFORM'
p374
ssS'joint_cache_rsn_placement'
p375
g11
(tRp376
S'network_cache'
p377
F0.29999999999999999
sS'network_rsn'
p378
F38.399999999999999
sg358
S'CACHE_ALL_RSN_ALL'
p379
sS'rsn_cache_ratio'
p380
I128
ssS'warmup_strategy'
p381
g11
(tRp382
g358
g371
ssS'topology'
p383
g11
(tRp384
S'ext_delay'
p385
I0
sS'source_ratio'
p386
F0.10000000000000001
sg358
S'ROCKET_FUEL'
p387
sS'asn'
p388
I3257
ssg11
(tRp389
S'SAT_RATE'
p390
g11
(tRp391
S'MEAN_CACHE_HIT'
p392
F0.45718055555555553
sS'MEAN_SERVER_HIT'
p393
F0.54281944444444441
sS'MEAN_SERVER_CACHE_HITS'
p394
F0
sS'MEAN'
p395
F1
ssS'CACHE_HIT_RATIO'
p396
g11
(tRp397
S'MEAN_OFF_PATH'
p398
F0.42984722222222221
sS'MEAN_ON_PATH'
p399
F0.027333333333333321
sg395
F0.45718055555555553
ssS'OVERHEAD'
p400
g11
(tRp401
S'INTEREST_HOPS'
p402
F6.3048611111111112
sS'SUCCESS_RATE'
p403
F0
sS'QUOTA_USED_FAILURE'
p404
F0
sS'FAILURE_RATE'
p405
F0
sS'QUOTA_USED_SUCCESS'
p406
F0
sS'NUM_SUCCESS_FIRST_TIME'
p407
F0
sg395
F1
ssS'LATENCY'
p408
g11
(tRp409
g395
F72.557926794055192
sstp410
a(g11
(tRp411
S'workload'
p412
g11
(tRp413
S'n_contents'
p414
I10000
sS'name'
p415
S'STATIONARY'
p416
sS'n_warmup'
p417
I720000
sS'rate'
p418
I100
sS'n_measured'
p419
I360000
sS'alpha'
p420
F0.40000000000000002
ssS'cache_policy'
p421
g11
(tRp422
g415
S'LRU'
p423
ssS'desc'
p424
S'strategy zipf: 0.4'
p425
sS'strategy'
p426
g11
(tRp427
g415
S'NRR_PROB'
p428
ssS'content_placement'
p429
g11
(tRp430
g415
S'UNIFORM'
p431
ssS'joint_cache_rsn_placement'
p432
g11
(tRp433
S'network_cache'
p434
F0.29999999999999999
sS'network_rsn'
p435
F38.399999999999999
sg415
S'CACHE_ALL_RSN_ALL'
p436
sS'rsn_cache_ratio'
p437
I128
ssS'warmup_strategy'
p438
g11
(tRp439
g415
g428
ssS'topology'
p440
g11
(tRp441
S'ext_delay'
p442
I0
sS'source_ratio'
p443
F0.10000000000000001
sg415
S'ROCKET_FUEL'
p444
sS'asn'
p445
I3257
ssg11
(tRp446
S'SAT_RATE'
p447
g11
(tRp448
S'MEAN_CACHE_HIT'
p449
F0.39698888888888889
sS'MEAN_SERVER_HIT'
p450
F0.60301111111111116
sS'MEAN_SERVER_CACHE_HITS'
p451
F0
sS'MEAN'
p452
F1
ssS'CACHE_HIT_RATIO'
p453
g11
(tRp454
S'MEAN_OFF_PATH'
p455
F0.37833333333333335
sS'MEAN_ON_PATH'
p456
F0.018655555555555536
sg452
F0.39698888888888889
ssS'OVERHEAD'
p457
g11
(tRp458
S'INTEREST_HOPS'
p459
F6.4141694444444441
sS'SUCCESS_RATE'
p460
F0
sS'QUOTA_USED_FAILURE'
p461
F0
sS'FAILURE_RATE'
p462
F0
sS'QUOTA_USED_SUCCESS'
p463
F0
sS'NUM_SUCCESS_FIRST_TIME'
p464
F0
sg452
F1
ssS'LATENCY'
p465
g11
(tRp466
g452
F77.499015264515307
sstp467
a(g11
(tRp468
S'workload'
p469
g11
(tRp470
S'n_contents'
p471
I10000
sS'name'
p472
S'STATIONARY'
p473
sS'n_warmup'
p474
I720000
sS'rate'
p475
I100
sS'n_measured'
p476
I360000
sS'alpha'
p477
F0.29999999999999999
ssS'cache_policy'
p478
g11
(tRp479
g472
S'LRU'
p480
ssS'desc'
p481
S'strategy zipf: 0.3'
p482
sS'strategy'
p483
g11
(tRp484
g472
S'NRR_PROB'
p485
ssS'content_placement'
p486
g11
(tRp487
g472
S'UNIFORM'
p488
ssS'joint_cache_rsn_placement'
p489
g11
(tRp490
S'network_cache'
p491
F0.29999999999999999
sS'network_rsn'
p492
F38.399999999999999
sg472
S'CACHE_ALL_RSN_ALL'
p493
sS'rsn_cache_ratio'
p494
I128
ssS'warmup_strategy'
p495
g11
(tRp496
g472
g485
ssS'topology'
p497
g11
(tRp498
S'ext_delay'
p499
I0
sS'source_ratio'
p500
F0.10000000000000001
sg472
S'ROCKET_FUEL'
p501
sS'asn'
p502
I3257
ssg11
(tRp503
S'SAT_RATE'
p504
g11
(tRp505
S'MEAN_CACHE_HIT'
p506
F0.35486666666666666
sS'MEAN_SERVER_HIT'
p507
F0.64513333333333334
sS'MEAN_SERVER_CACHE_HITS'
p508
F0
sS'MEAN'
p509
F1
ssS'CACHE_HIT_RATIO'
p510
g11
(tRp511
S'MEAN_OFF_PATH'
p512
F0.33707777777777775
sS'MEAN_ON_PATH'
p513
F0.01778888888888891
sg509
F0.35486666666666666
ssS'OVERHEAD'
p514
g11
(tRp515
S'INTEREST_HOPS'
p516
F6.4679805555555552
sS'SUCCESS_RATE'
p517
F0
sS'QUOTA_USED_FAILURE'
p518
F0
sS'FAILURE_RATE'
p519
F0
sS'QUOTA_USED_SUCCESS'
p520
F0
sS'NUM_SUCCESS_FIRST_TIME'
p521
F0
sg509
F1
ssS'LATENCY'
p522
g11
(tRp523
g509
F80.219890867641425
sstp524
a(g11
(tRp525
S'workload'
p526
g11
(tRp527
S'n_contents'
p528
I10000
sS'name'
p529
S'STATIONARY'
p530
sS'n_warmup'
p531
I720000
sS'rate'
p532
I100
sS'n_measured'
p533
I360000
sS'alpha'
p534
F0.10000000000000001
ssS'cache_policy'
p535
g11
(tRp536
g529
S'LRU'
p537
ssS'desc'
p538
S'strategy zipf: 0.1'
p539
sS'strategy'
p540
g11
(tRp541
g529
S'NRR_PROB'
p542
ssS'content_placement'
p543
g11
(tRp544
g529
S'UNIFORM'
p545
ssS'joint_cache_rsn_placement'
p546
g11
(tRp547
S'network_cache'
p548
F0.29999999999999999
sS'network_rsn'
p549
F38.399999999999999
sg529
S'CACHE_ALL_RSN_ALL'
p550
sS'rsn_cache_ratio'
p551
I128
ssS'warmup_strategy'
p552
g11
(tRp553
g529
g542
ssS'topology'
p554
g11
(tRp555
S'ext_delay'
p556
I0
sS'source_ratio'
p557
F0.10000000000000001
sg529
S'ROCKET_FUEL'
p558
sS'asn'
p559
I3257
ssg11
(tRp560
S'SAT_RATE'
p561
g11
(tRp562
S'MEAN_CACHE_HIT'
p563
F0.310475
sS'MEAN_SERVER_HIT'
p564
F0.68952500000000005
sS'MEAN_SERVER_CACHE_HITS'
p565
F0
sS'MEAN'
p566
F1
ssS'CACHE_HIT_RATIO'
p567
g11
(tRp568
S'MEAN_OFF_PATH'
p569
F0.29422777777777775
sS'MEAN_ON_PATH'
p570
F0.016247222222222246
sg566
F0.310475
ssS'OVERHEAD'
p571
g11
(tRp572
S'INTEREST_HOPS'
p573
F6.5510083333333338
sS'SUCCESS_RATE'
p574
F0
sS'QUOTA_USED_FAILURE'
p575
F0
sS'FAILURE_RATE'
p576
F0
sS'QUOTA_USED_SUCCESS'
p577
F0
sS'NUM_SUCCESS_FIRST_TIME'
p578
F0
sg566
F1
ssS'LATENCY'
p579
g11
(tRp580
g566
F83.558238105996537
sstp581
atRp582
sb.