ccopy_reg
_reconstructor
p1
(cicarus.results.readwrite
ResultSet
p2
c__builtin__
object
p3
NtRp4
(dp5
S'attr'
p6
(dp7
sS'_results'
p8
ccollections
deque
p9
((lp10
(cicarus.util
Tree
p11
(tRp12
S'workload'
p13
g11
(tRp14
S'n_contents'
p15
I10000
sS'name'
p16
S'STATIONARY'
p17
sS'n_warmup'
p18
I720000
sS'rate'
p19
I100
sS'n_measured'
p20
I360000
sS'alpha'
p21
F0.69999999999999996
ssS'cache_policy'
p22
g11
(tRp23
g16
S'LRU'
p24
ssS'desc'
p25
S'RSN size sensitivity -> RSN/cache ratio: 16.0'
p26
sS'strategy'
p27
g11
(tRp28
S'p'
F0.10000000000000001
sg16
S'LIRA_BC'
p29
ssS'content_placement'
p30
g11
(tRp31
g16
S'UNIFORM'
p32
ssS'joint_cache_rsn_placement'
p33
g11
(tRp34
S'network_cache'
p35
F0.94999999999999996
sS'network_rsn'
p36
F15.199999999999999
sg16
S'CACHE_ALL_RSN_ALL'
p37
sS'rsn_cache_ratio'
p38
F16
ssS'warmup_strategy'
p39
g11
(tRp40
S'p'
F0.10000000000000001
sg16
g29
ssS'topology'
p41
g11
(tRp42
S'ext_delay'
p43
I5
sS'source_ratio'
p44
F0.10000000000000001
sg16
S'ROCKET_FUEL'
p45
sS'asn'
p46
I3257
ssg11
(tRp47
S'SAT_RATE'
p48
g11
(tRp49
S'MEAN_CACHE_HIT'
p50
F0.48086666666666666
sS'MEAN_SERVER_HIT'
p51
F0.51913333333333334
sS'MEAN_SERVER_CACHE_HITS'
p52
F0
sS'MEAN'
p53
F1
ssS'CACHE_HIT_RATIO'
p54
g11
(tRp55
S'MEAN_OFF_PATH'
p56
F0.21142222222222223
sS'MEAN_ON_PATH'
p57
F0.26944444444444443
sg53
F0.48086666666666666
ssS'OVERHEAD'
p58
g11
(tRp59
S'SUCCESS_RATE'
p60
F0.21144722222222223
sS'QUOTA_USED_FAILURE'
p61
F0
sS'FAILURE_RATE'
p62
F0.78855277777777777
sS'QUOTA_USED_SUCCESS'
p63
F0
sg53
F1
sS'NUM_SUCCESS_FIRST_TIME'
p64
F0.21144722222222223
ssS'LATENCY'
p65
g11
(tRp66
g53
F69.411838658326445
sstp67
a(g11
(tRp68
S'workload'
p69
g11
(tRp70
S'n_contents'
p71
I10000
sS'name'
p72
S'STATIONARY'
p73
sS'n_warmup'
p74
I720000
sS'rate'
p75
I100
sS'n_measured'
p76
I360000
sS'alpha'
p77
F0.69999999999999996
ssS'cache_policy'
p78
g11
(tRp79
g72
S'LRU'
p80
ssS'desc'
p81
S'RSN size sensitivity -> RSN/cache ratio: 4.0'
p82
sS'strategy'
p83
g11
(tRp84
S'p'
F0.10000000000000001
sg72
S'LIRA_BC'
p85
ssS'content_placement'
p86
g11
(tRp87
g72
S'UNIFORM'
p88
ssS'joint_cache_rsn_placement'
p89
g11
(tRp90
S'network_cache'
p91
F0.94999999999999996
sS'network_rsn'
p92
F3.7999999999999998
sg72
S'CACHE_ALL_RSN_ALL'
p93
sS'rsn_cache_ratio'
p94
F4
ssS'warmup_strategy'
p95
g11
(tRp96
S'p'
F0.10000000000000001
sg72
g85
ssS'topology'
p97
g11
(tRp98
S'ext_delay'
p99
I5
sS'source_ratio'
p100
F0.10000000000000001
sg72
S'ROCKET_FUEL'
p101
sS'asn'
p102
I3257
ssg11
(tRp103
S'SAT_RATE'
p104
g11
(tRp105
S'MEAN_CACHE_HIT'
p106
F0.41723055555555555
sS'MEAN_SERVER_HIT'
p107
F0.58276944444444445
sS'MEAN_SERVER_CACHE_HITS'
p108
F0
sS'MEAN'
p109
F1
ssS'CACHE_HIT_RATIO'
p110
g11
(tRp111
S'MEAN_OFF_PATH'
p112
F0.051075000000000002
sS'MEAN_ON_PATH'
p113
F0.36615555555555557
sg109
F0.41723055555555555
ssS'OVERHEAD'
p114
g11
(tRp115
S'SUCCESS_RATE'
p116
F0.051075000000000002
sS'QUOTA_USED_FAILURE'
p117
F0
sS'FAILURE_RATE'
p118
F0.94892500000000002
sS'QUOTA_USED_SUCCESS'
p119
F0
sg109
F1
sS'NUM_SUCCESS_FIRST_TIME'
p120
F0.051075000000000002
ssS'LATENCY'
p121
g11
(tRp122
g109
F71.681263667706602
sstp123
a(g11
(tRp124
S'workload'
p125
g11
(tRp126
S'n_contents'
p127
I10000
sS'name'
p128
S'STATIONARY'
p129
sS'n_warmup'
p130
I720000
sS'rate'
p131
I100
sS'n_measured'
p132
I360000
sS'alpha'
p133
F0.69999999999999996
ssS'cache_policy'
p134
g11
(tRp135
g128
S'LRU'
p136
ssS'desc'
p137
S'RSN size sensitivity -> RSN/cache ratio: 2.0'
p138
sS'strategy'
p139
g11
(tRp140
S'p'
F0.10000000000000001
sg128
S'LIRA_BC'
p141
ssS'content_placement'
p142
g11
(tRp143
g128
S'UNIFORM'
p144
ssS'joint_cache_rsn_placement'
p145
g11
(tRp146
S'network_cache'
p147
F0.94999999999999996
sS'network_rsn'
p148
F1.8999999999999999
sg128
S'CACHE_ALL_RSN_ALL'
p149
sS'rsn_cache_ratio'
p150
F2
ssS'warmup_strategy'
p151
g11
(tRp152
S'p'
F0.10000000000000001
sg128
g141
ssS'topology'
p153
g11
(tRp154
S'ext_delay'
p155
I5
sS'source_ratio'
p156
F0.10000000000000001
sg128
S'ROCKET_FUEL'
p157
sS'asn'
p158
I3257
ssg11
(tRp159
S'SAT_RATE'
p160
g11
(tRp161
S'MEAN_CACHE_HIT'
p162
F0.40725
sS'MEAN_SERVER_HIT'
p163
F0.59275
sS'MEAN_SERVER_CACHE_HITS'
p164
F0
sS'MEAN'
p165
F1
ssS'CACHE_HIT_RATIO'
p166
g11
(tRp167
S'MEAN_OFF_PATH'
p168
F0.024586111111111111
sS'MEAN_ON_PATH'
p169
F0.38266388888888891
sg165
F0.40725
ssS'OVERHEAD'
p170
g11
(tRp171
S'SUCCESS_RATE'
p172
F0.024586111111111111
sS'QUOTA_USED_FAILURE'
p173
F0
sS'FAILURE_RATE'
p174
F0.97541388888888891
sS'QUOTA_USED_SUCCESS'
p175
F0
sg165
F1
sS'NUM_SUCCESS_FIRST_TIME'
p176
F0.024586111111111111
ssS'LATENCY'
p177
g11
(tRp178
g165
F71.688814631103114
sstp179
a(g11
(tRp180
S'workload'
p181
g11
(tRp182
S'n_contents'
p183
I10000
sS'name'
p184
S'STATIONARY'
p185
sS'n_warmup'
p186
I720000
sS'rate'
p187
I100
sS'n_measured'
p188
I360000
sS'alpha'
p189
F0.69999999999999996
ssS'cache_policy'
p190
g11
(tRp191
g184
S'LRU'
p192
ssS'desc'
p193
S'RSN size sensitivity -> RSN/cache ratio: 8.0'
p194
sS'strategy'
p195
g11
(tRp196
S'p'
F0.10000000000000001
sg184
S'LIRA_BC'
p197
ssS'content_placement'
p198
g11
(tRp199
g184
S'UNIFORM'
p200
ssS'joint_cache_rsn_placement'
p201
g11
(tRp202
S'network_cache'
p203
F0.94999999999999996
sS'network_rsn'
p204
F7.5999999999999996
sg184
S'CACHE_ALL_RSN_ALL'
p205
sS'rsn_cache_ratio'
p206
F8
ssS'warmup_strategy'
p207
g11
(tRp208
S'p'
F0.10000000000000001
sg184
g197
ssS'topology'
p209
g11
(tRp210
S'ext_delay'
p211
I5
sS'source_ratio'
p212
F0.10000000000000001
sg184
S'ROCKET_FUEL'
p213
sS'asn'
p214
I3257
ssg11
(tRp215
S'SAT_RATE'
p216
g11
(tRp217
S'MEAN_CACHE_HIT'
p218
F0.43291666666666667
sS'MEAN_SERVER_HIT'
p219
F0.56708333333333338
sS'MEAN_SERVER_CACHE_HITS'
p220
F0
sS'MEAN'
p221
F1
ssS'CACHE_HIT_RATIO'
p222
g11
(tRp223
S'MEAN_OFF_PATH'
p224
F0.10535
sS'MEAN_ON_PATH'
p225
F0.32756666666666667
sg221
F0.43291666666666667
ssS'OVERHEAD'
p226
g11
(tRp227
S'SUCCESS_RATE'
p228
F0.10535277777777778
sS'QUOTA_USED_FAILURE'
p229
F0
sS'FAILURE_RATE'
p230
F0.89464722222222226
sS'QUOTA_USED_SUCCESS'
p231
F0
sg221
F1
sS'NUM_SUCCESS_FIRST_TIME'
p232
F0.10535277777777778
ssS'LATENCY'
p233
g11
(tRp234
g221
F71.272353500942685
sstp235
a(g11
(tRp236
S'workload'
p237
g11
(tRp238
S'n_contents'
p239
I10000
sS'name'
p240
S'STATIONARY'
p241
sS'n_warmup'
p242
I720000
sS'rate'
p243
I100
sS'n_measured'
p244
I360000
sS'alpha'
p245
F0.69999999999999996
ssS'cache_policy'
p246
g11
(tRp247
g240
S'LRU'
p248
ssS'desc'
p249
S'RSN size sensitivity -> RSN/cache ratio: 128.0'
p250
sS'strategy'
p251
g11
(tRp252
S'p'
F0.10000000000000001
sg240
S'LIRA_BC'
p253
ssS'content_placement'
p254
g11
(tRp255
g240
S'UNIFORM'
p256
ssS'joint_cache_rsn_placement'
p257
g11
(tRp258
S'network_cache'
p259
F0.94999999999999996
sS'network_rsn'
p260
F121.59999999999999
sg240
S'CACHE_ALL_RSN_ALL'
p261
sS'rsn_cache_ratio'
p262
F128
ssS'warmup_strategy'
p263
g11
(tRp264
S'p'
F0.10000000000000001
sg240
g253
ssS'topology'
p265
g11
(tRp266
S'ext_delay'
p267
I5
sS'source_ratio'
p268
F0.10000000000000001
sg240
S'ROCKET_FUEL'
p269
sS'asn'
p270
I3257
ssg11
(tRp271
S'SAT_RATE'
p272
g11
(tRp273
S'MEAN_CACHE_HIT'
p274
F0.64052222222222222
sS'MEAN_SERVER_HIT'
p275
F0.35947777777777778
sS'MEAN_SERVER_CACHE_HITS'
p276
F0
sS'MEAN'
p277
F1
ssS'CACHE_HIT_RATIO'
p278
g11
(tRp279
S'MEAN_OFF_PATH'
p280
F0.39013888888888887
sS'MEAN_ON_PATH'
p281
F0.25038333333333335
sg277
F0.64052222222222222
ssS'OVERHEAD'
p282
g11
(tRp283
S'SUCCESS_RATE'
p284
F0.39053055555555555
sS'QUOTA_USED_FAILURE'
p285
F0
sS'FAILURE_RATE'
p286
F0.6094694444444444
sS'QUOTA_USED_SUCCESS'
p287
F0
sg277
F1
sS'NUM_SUCCESS_FIRST_TIME'
p288
F0.39053055555555555
ssS'LATENCY'
p289
g11
(tRp290
g277
F63.291024929324131
sstp291
a(g11
(tRp292
S'workload'
p293
g11
(tRp294
S'n_contents'
p295
I10000
sS'name'
p296
S'STATIONARY'
p297
sS'n_warmup'
p298
I720000
sS'rate'
p299
I100
sS'n_measured'
p300
I360000
sS'alpha'
p301
F0.69999999999999996
ssS'cache_policy'
p302
g11
(tRp303
g296
S'LRU'
p304
ssS'desc'
p305
S'RSN size sensitivity -> RSN/cache ratio: 64.0'
p306
sS'strategy'
p307
g11
(tRp308
S'p'
F0.10000000000000001
sg296
S'LIRA_BC'
p309
ssS'content_placement'
p310
g11
(tRp311
g296
S'UNIFORM'
p312
ssS'joint_cache_rsn_placement'
p313
g11
(tRp314
S'network_cache'
p315
F0.94999999999999996
sS'network_rsn'
p316
F60.799999999999997
sg296
S'CACHE_ALL_RSN_ALL'
p317
sS'rsn_cache_ratio'
p318
F64
ssS'warmup_strategy'
p319
g11
(tRp320
S'p'
F0.10000000000000001
sg296
g309
ssS'topology'
p321
g11
(tRp322
S'ext_delay'
p323
I5
sS'source_ratio'
p324
F0.10000000000000001
sg296
S'ROCKET_FUEL'
p325
sS'asn'
p326
I3257
ssg11
(tRp327
S'SAT_RATE'
p328
g11
(tRp329
S'MEAN_CACHE_HIT'
p330
F0.64618888888888892
sS'MEAN_SERVER_HIT'
p331
F0.35381111111111113
sS'MEAN_SERVER_CACHE_HITS'
p332
F0
sS'MEAN'
p333
F1
ssS'CACHE_HIT_RATIO'
p334
g11
(tRp335
S'MEAN_OFF_PATH'
p336
F0.39553888888888888
sS'MEAN_ON_PATH'
p337
F0.25065000000000004
sg333
F0.64618888888888892
ssS'OVERHEAD'
p338
g11
(tRp339
S'SUCCESS_RATE'
p340
F0.39587777777777777
sS'QUOTA_USED_FAILURE'
p341
F0
sS'FAILURE_RATE'
p342
F0.60412222222222223
sS'QUOTA_USED_SUCCESS'
p343
F0
sg333
F1
sS'NUM_SUCCESS_FIRST_TIME'
p344
F0.39587777777777777
ssS'LATENCY'
p345
g11
(tRp346
g333
F62.634300954728033
sstp347
a(g11
(tRp348
S'workload'
p349
g11
(tRp350
S'n_contents'
p351
I10000
sS'name'
p352
S'STATIONARY'
p353
sS'n_warmup'
p354
I720000
sS'rate'
p355
I100
sS'n_measured'
p356
I360000
sS'alpha'
p357
F0.69999999999999996
ssS'cache_policy'
p358
g11
(tRp359
g352
S'LRU'
p360
ssS'desc'
p361
S'RSN size sensitivity -> RSN/cache ratio: 32.0'
p362
sS'strategy'
p363
g11
(tRp364
S'p'
F0.10000000000000001
sg352
S'LIRA_BC'
p365
ssS'content_placement'
p366
g11
(tRp367
g352
S'UNIFORM'
p368
ssS'joint_cache_rsn_placement'
p369
g11
(tRp370
S'network_cache'
p371
F0.94999999999999996
sS'network_rsn'
p372
F30.399999999999999
sg352
S'CACHE_ALL_RSN_ALL'
p373
sS'rsn_cache_ratio'
p374
F32
ssS'warmup_strategy'
p375
g11
(tRp376
S'p'
F0.10000000000000001
sg352
g365
ssS'topology'
p377
g11
(tRp378
S'ext_delay'
p379
I5
sS'source_ratio'
p380
F0.10000000000000001
sg352
S'ROCKET_FUEL'
p381
sS'asn'
p382
I3257
ssg11
(tRp383
S'SAT_RATE'
p384
g11
(tRp385
S'MEAN_CACHE_HIT'
p386
F0.5846055555555556
sS'MEAN_SERVER_HIT'
p387
F0.41539444444444446
sS'MEAN_SERVER_CACHE_HITS'
p388
F0
sS'MEAN'
p389
F1
ssS'CACHE_HIT_RATIO'
p390
g11
(tRp391
S'MEAN_OFF_PATH'
p392
F0.34053055555555556
sS'MEAN_ON_PATH'
p393
F0.24407500000000004
sg389
F0.5846055555555556
ssS'OVERHEAD'
p394
g11
(tRp395
S'SUCCESS_RATE'
p396
F0.34067222222222221
sS'QUOTA_USED_FAILURE'
p397
F0
sS'FAILURE_RATE'
p398
F0.65932777777777773
sS'QUOTA_USED_SUCCESS'
p399
F0
sg389
F1
sS'NUM_SUCCESS_FIRST_TIME'
p400
F0.34067222222222221
ssS'LATENCY'
p401
g11
(tRp402
g389
F64.374248730723266
sstp403
a(g11
(tRp404
S'workload'
p405
g11
(tRp406
S'n_contents'
p407
I10000
sS'name'
p408
S'STATIONARY'
p409
sS'n_warmup'
p410
I720000
sS'rate'
p411
I100
sS'n_measured'
p412
I360000
sS'alpha'
p413
F0.69999999999999996
ssS'cache_policy'
p414
g11
(tRp415
g408
S'LRU'
p416
ssS'desc'
p417
S'RSN size sensitivity -> RSN/cache ratio: 256.0'
p418
sS'strategy'
p419
g11
(tRp420
S'p'
F0.10000000000000001
sg408
S'LIRA_BC'
p421
ssS'content_placement'
p422
g11
(tRp423
g408
S'UNIFORM'
p424
ssS'joint_cache_rsn_placement'
p425
g11
(tRp426
S'network_cache'
p427
F0.94999999999999996
sS'network_rsn'
p428
F243.19999999999999
sg408
S'CACHE_ALL_RSN_ALL'
p429
sS'rsn_cache_ratio'
p430
F256
ssS'warmup_strategy'
p431
g11
(tRp432
S'p'
F0.10000000000000001
sg408
g421
ssS'topology'
p433
g11
(tRp434
S'ext_delay'
p435
I5
sS'source_ratio'
p436
F0.10000000000000001
sg408
S'ROCKET_FUEL'
p437
sS'asn'
p438
I3257
ssg11
(tRp439
S'SAT_RATE'
p440
g11
(tRp441
S'MEAN_CACHE_HIT'
p442
F0.64137222222222223
sS'MEAN_SERVER_HIT'
p443
F0.35862777777777777
sS'MEAN_SERVER_CACHE_HITS'
p444
F0
sS'MEAN'
p445
F1
ssS'CACHE_HIT_RATIO'
p446
g11
(tRp447
S'MEAN_OFF_PATH'
p448
F0.38700833333333334
sS'MEAN_ON_PATH'
p449
F0.25436388888888889
sg445
F0.64137222222222223
ssS'OVERHEAD'
p450
g11
(tRp451
S'SUCCESS_RATE'
p452
F0.38745833333333335
sS'QUOTA_USED_FAILURE'
p453
F0
sS'FAILURE_RATE'
p454
F0.61254166666666665
sS'QUOTA_USED_SUCCESS'
p455
F0
sg445
F1
sS'NUM_SUCCESS_FIRST_TIME'
p456
F0.38745833333333335
ssS'LATENCY'
p457
g11
(tRp458
g445
F63.507958470178593
sstp459
a(g11
(tRp460
S'workload'
p461
g11
(tRp462
S'n_contents'
p463
I10000
sS'name'
p464
S'STATIONARY'
p465
sS'n_warmup'
p466
I720000
sS'rate'
p467
I100
sS'n_measured'
p468
I360000
sS'alpha'
p469
F0.69999999999999996
ssS'cache_policy'
p470
g11
(tRp471
g464
S'LRU'
p472
ssS'desc'
p473
S'RSN size sensitivity -> RSN/cache ratio: 2.0'
p474
sS'strategy'
p475
g11
(tRp476
S'extra_quota'
p477
I3
sS'p'
F0.10000000000000001
sg464
S'LIRA_DFIB_OPH'
p478
ssS'content_placement'
p479
g11
(tRp480
g464
S'UNIFORM'
p481
ssS'joint_cache_rsn_placement'
p482
g11
(tRp483
S'network_cache'
p484
F0.94999999999999996
sS'network_rsn'
p485
F1.8999999999999999
sg464
S'CACHE_ALL_RSN_ALL'
p486
sS'rsn_cache_ratio'
p487
F2
ssS'warmup_strategy'
p488
g11
(tRp489
g477
I10
sS'p'
F0.10000000000000001
sg464
g478
sS'fan_out'
p490
I100
ssS'topology'
p491
g11
(tRp492
S'ext_delay'
p493
I5
sS'source_ratio'
p494
F0.10000000000000001
sg464
S'ROCKET_FUEL'
p495
sS'asn'
p496
I3257
ssg11
(tRp497
S'SAT_RATE'
p498
g11
(tRp499
S'MEAN_CACHE_HIT'
p500
F0.45079999999999998
sS'MEAN_SERVER_HIT'
p501
F0.5541166666666667
sS'MEAN_SERVER_CACHE_HITS'
p502
F0.0049166666666666664
sS'MEAN'
p503
F1
ssS'CACHE_HIT_RATIO'
p504
g11
(tRp505
S'MEAN_OFF_PATH'
p506
F0.0059595875832711394
sS'MEAN_ON_PATH'
p507
F0.44484041241672884
sg503
F0.45079999999999998
ssS'OVERHEAD'
p508
g11
(tRp509
S'SUCCESS_RATE'
p510
F0.19144800777453838
sS'QUOTA_USED_FAILURE'
p511
F1.0711723372780957
sS'FAILURE_RATE'
p512
F0.80855199222546159
sS'QUOTA_USED_SUCCESS'
p513
F1.0868606013276096
sg503
F1.0071138888888889
sS'NUM_SUCCESS_FIRST_TIME'
p514
F0.191150976106128
ssS'LATENCY'
p515
g11
(tRp516
g503
F36.708394444444444
sstp517
a(g11
(tRp518
S'workload'
p519
g11
(tRp520
S'n_contents'
p521
I10000
sS'name'
p522
S'STATIONARY'
p523
sS'n_warmup'
p524
I720000
sS'rate'
p525
I100
sS'n_measured'
p526
I360000
sS'alpha'
p527
F0.69999999999999996
ssS'cache_policy'
p528
g11
(tRp529
g522
S'LRU'
p530
ssS'desc'
p531
S'RSN size sensitivity -> RSN/cache ratio: 2.0'
p532
sS'strategy'
p533
g11
(tRp534
S'p'
F0.10000000000000001
sg522
S'LIRA_DFIB_SC'
p535
ssS'content_placement'
p536
g11
(tRp537
g522
S'UNIFORM'
p538
ssS'joint_cache_rsn_placement'
p539
g11
(tRp540
S'network_cache'
p541
F0.94999999999999996
sS'network_rsn'
p542
F1.8999999999999999
sg522
S'CACHE_ALL_RSN_ALL'
p543
sS'rsn_cache_ratio'
p544
F2
ssS'warmup_strategy'
p545
g11
(tRp546
S'p'
F0.10000000000000001
sg522
g535
ssS'topology'
p547
g11
(tRp548
S'ext_delay'
p549
I5
sS'source_ratio'
p550
F0.10000000000000001
sg522
S'ROCKET_FUEL'
p551
sS'asn'
p552
I3257
ssg11
(tRp553
S'SAT_RATE'
p554
g11
(tRp555
S'MEAN_CACHE_HIT'
p556
F0.451575
sS'MEAN_SERVER_HIT'
p557
F0.55339722222222221
sS'MEAN_SERVER_CACHE_HITS'
p558
F0.0049722222222222225
sS'MEAN'
p559
F1
ssS'CACHE_HIT_RATIO'
p560
g11
(tRp561
S'MEAN_OFF_PATH'
p562
F0.0059841344426324666
sS'MEAN_ON_PATH'
p563
F0.44559086555736754
sg559
F0.451575
ssS'OVERHEAD'
p564
g11
(tRp565
S'SUCCESS_RATE'
p566
F0.20104381064392826
sS'QUOTA_USED_FAILURE'
p567
F1
sS'FAILURE_RATE'
p568
F0.79895618935607171
sS'QUOTA_USED_SUCCESS'
p569
F1
sg559
F1.0075972222222223
sS'NUM_SUCCESS_FIRST_TIME'
p570
F0.20136266014959639
ssS'LATENCY'
p571
g11
(tRp572
g559
F37.755716666666665
sstp573
a(g11
(tRp574
S'workload'
p575
g11
(tRp576
S'n_contents'
p577
I10000
sS'name'
p578
S'STATIONARY'
p579
sS'n_warmup'
p580
I720000
sS'rate'
p581
I100
sS'n_measured'
p582
I360000
sS'alpha'
p583
F0.69999999999999996
ssS'cache_policy'
p584
g11
(tRp585
g578
S'LRU'
p586
ssS'desc'
p587
S'RSN size sensitivity -> RSN/cache ratio: 4.0'
p588
sS'strategy'
p589
g11
(tRp590
S'p'
F0.10000000000000001
sg578
S'LIRA_DFIB_SC'
p591
ssS'content_placement'
p592
g11
(tRp593
g578
S'UNIFORM'
p594
ssS'joint_cache_rsn_placement'
p595
g11
(tRp596
S'network_cache'
p597
F0.94999999999999996
sS'network_rsn'
p598
F3.7999999999999998
sg578
S'CACHE_ALL_RSN_ALL'
p599
sS'rsn_cache_ratio'
p600
F4
ssS'warmup_strategy'
p601
g11
(tRp602
S'p'
F0.10000000000000001
sg578
g591
ssS'topology'
p603
g11
(tRp604
S'ext_delay'
p605
I5
sS'source_ratio'
p606
F0.10000000000000001
sg578
S'ROCKET_FUEL'
p607
sS'asn'
p608
I3257
ssg11
(tRp609
S'SAT_RATE'
p610
g11
(tRp611
S'MEAN_CACHE_HIT'
p612
F0.45716111111111113
sS'MEAN_SERVER_HIT'
p613
F0.55330277777777781
sS'MEAN_SERVER_CACHE_HITS'
p614
F0.010463888888888889
sS'MEAN'
p615
F1
ssS'CACHE_HIT_RATIO'
p616
g11
(tRp617
S'MEAN_OFF_PATH'
p618
F0.018915954443366221
sS'MEAN_ON_PATH'
p619
F0.43824515666774488
sg615
F0.45716111111111113
ssS'OVERHEAD'
p620
g11
(tRp621
S'SUCCESS_RATE'
p622
F0.27045023287907538
sS'QUOTA_USED_FAILURE'
p623
F1
sS'FAILURE_RATE'
p624
F0.72954976712092456
sS'QUOTA_USED_SUCCESS'
p625
F1
sg615
F1.0217750000000001
sS'NUM_SUCCESS_FIRST_TIME'
p626
F0.27029768776017071
ssS'LATENCY'
p627
g11
(tRp628
g615
F36.929830555555554
sstp629
a(g11
(tRp630
S'workload'
p631
g11
(tRp632
S'n_contents'
p633
I10000
sS'name'
p634
S'STATIONARY'
p635
sS'n_warmup'
p636
I720000
sS'rate'
p637
I100
sS'n_measured'
p638
I360000
sS'alpha'
p639
F0.69999999999999996
ssS'cache_policy'
p640
g11
(tRp641
g634
S'LRU'
p642
ssS'desc'
p643
S'RSN size sensitivity -> RSN/cache ratio: 8.0'
p644
sS'strategy'
p645
g11
(tRp646
S'p'
F0.10000000000000001
sg634
S'LIRA_DFIB_SC'
p647
ssS'content_placement'
p648
g11
(tRp649
g634
S'UNIFORM'
p650
ssS'joint_cache_rsn_placement'
p651
g11
(tRp652
S'network_cache'
p653
F0.94999999999999996
sS'network_rsn'
p654
F7.5999999999999996
sg634
S'CACHE_ALL_RSN_ALL'
p655
sS'rsn_cache_ratio'
p656
F8
ssS'warmup_strategy'
p657
g11
(tRp658
S'p'
F0.10000000000000001
sg634
g647
ssS'topology'
p659
g11
(tRp660
S'ext_delay'
p661
I5
sS'source_ratio'
p662
F0.10000000000000001
sg634
S'ROCKET_FUEL'
p663
sS'asn'
p664
I3257
ssg11
(tRp665
S'SAT_RATE'
p666
g11
(tRp667
S'MEAN_CACHE_HIT'
p668
F0.4690111111111111
sS'MEAN_SERVER_HIT'
p669
F0.55366944444444444
sS'MEAN_SERVER_CACHE_HITS'
p670
F0.022680555555555554
sS'MEAN'
p671
F1
ssS'CACHE_HIT_RATIO'
p672
g11
(tRp673
S'MEAN_OFF_PATH'
p674
F0.062010239973924734
sS'MEAN_ON_PATH'
p675
F0.40700087113718636
sg671
F0.4690111111111111
ssS'OVERHEAD'
p676
g11
(tRp677
S'SUCCESS_RATE'
p678
F0.38185400021889021
sS'QUOTA_USED_FAILURE'
p679
F1
sS'FAILURE_RATE'
p680
F0.61814599978110973
sS'QUOTA_USED_SUCCESS'
p681
F1
sg671
F1.0678416666666666
sS'NUM_SUCCESS_FIRST_TIME'
p682
F0.38147064934234709
ssS'LATENCY'
p683
g11
(tRp684
g671
F37.661416666666668
sstp685
a(g11
(tRp686
S'workload'
p687
g11
(tRp688
S'n_contents'
p689
I10000
sS'name'
p690
S'STATIONARY'
p691
sS'n_warmup'
p692
I720000
sS'rate'
p693
I100
sS'n_measured'
p694
I360000
sS'alpha'
p695
F0.69999999999999996
ssS'cache_policy'
p696
g11
(tRp697
g690
S'LRU'
p698
ssS'desc'
p699
S'RSN size sensitivity -> RSN/cache ratio: 16.0'
p700
sS'strategy'
p701
g11
(tRp702
S'p'
F0.10000000000000001
sg690
S'LIRA_DFIB_SC'
p703
ssS'content_placement'
p704
g11
(tRp705
g690
S'UNIFORM'
p706
ssS'joint_cache_rsn_placement'
p707
g11
(tRp708
S'network_cache'
p709
F0.94999999999999996
sS'network_rsn'
p710
F15.199999999999999
sg690
S'CACHE_ALL_RSN_ALL'
p711
sS'rsn_cache_ratio'
p712
F16
ssS'warmup_strategy'
p713
g11
(tRp714
S'p'
F0.10000000000000001
sg690
g703
ssS'topology'
p715
g11
(tRp716
S'ext_delay'
p717
I5
sS'source_ratio'
p718
F0.10000000000000001
sg690
S'ROCKET_FUEL'
p719
sS'asn'
p720
I3257
ssg11
(tRp721
S'SAT_RATE'
p722
g11
(tRp723
S'MEAN_CACHE_HIT'
p724
F0.49002222222222225
sS'MEAN_SERVER_HIT'
p725
F0.55666666666666664
sS'MEAN_SERVER_CACHE_HITS'
p726
F0.046688888888888891
sS'MEAN'
p727
F1
ssS'CACHE_HIT_RATIO'
p728
g11
(tRp729
S'MEAN_OFF_PATH'
p730
F0.098777096027685182
sS'MEAN_ON_PATH'
p731
F0.39124512619453705
sg727
F0.49002222222222225
ssS'OVERHEAD'
p732
g11
(tRp733
S'SUCCESS_RATE'
p734
F0.36597164454410647
sS'QUOTA_USED_FAILURE'
p735
F1
sS'FAILURE_RATE'
p736
F0.63402835545589353
sS'QUOTA_USED_SUCCESS'
p737
F1
sg727
F1.1124305555555556
sS'NUM_SUCCESS_FIRST_TIME'
p738
F0.36439584451790946
ssS'LATENCY'
p739
g11
(tRp740
g727
F36.970011111111113
sstp741
a(g11
(tRp742
S'workload'
p743
g11
(tRp744
S'n_contents'
p745
I10000
sS'name'
p746
S'STATIONARY'
p747
sS'n_warmup'
p748
I720000
sS'rate'
p749
I100
sS'n_measured'
p750
I360000
sS'alpha'
p751
F0.69999999999999996
ssS'cache_policy'
p752
g11
(tRp753
g746
S'LRU'
p754
ssS'desc'
p755
S'RSN size sensitivity -> RSN/cache ratio: 16.0'
p756
sS'strategy'
p757
g11
(tRp758
S'extra_quota'
p759
I3
sS'p'
F0.10000000000000001
sg746
S'LIRA_DFIB_OPH'
p760
ssS'content_placement'
p761
g11
(tRp762
g746
S'UNIFORM'
p763
ssS'joint_cache_rsn_placement'
p764
g11
(tRp765
S'network_cache'
p766
F0.94999999999999996
sS'network_rsn'
p767
F15.199999999999999
sg746
S'CACHE_ALL_RSN_ALL'
p768
sS'rsn_cache_ratio'
p769
F16
ssS'warmup_strategy'
p770
g11
(tRp771
g759
I10
sS'p'
F0.10000000000000001
sg746
g760
sS'fan_out'
p772
I100
ssS'topology'
p773
g11
(tRp774
S'ext_delay'
p775
I5
sS'source_ratio'
p776
F0.10000000000000001
sg746
S'ROCKET_FUEL'
p777
sS'asn'
p778
I3257
ssg11
(tRp779
S'SAT_RATE'
p780
g11
(tRp781
S'MEAN_CACHE_HIT'
p782
F0.49070277777777777
sS'MEAN_SERVER_HIT'
p783
F0.55547500000000005
sS'MEAN_SERVER_CACHE_HITS'
p784
F0.046574999999999998
sS'MEAN'
p785
F0.99960277777777773
ssS'CACHE_HIT_RATIO'
p786
g11
(tRp787
S'MEAN_OFF_PATH'
p788
F0.088241853944517612
sS'MEAN_ON_PATH'
p789
F0.40246092383326015
sg785
F0.49070277777777777
ssS'OVERHEAD'
p790
g11
(tRp791
S'SUCCESS_RATE'
p792
F0.33909242100261344
sS'QUOTA_USED_FAILURE'
p793
F1.1491484160535199
sS'FAILURE_RATE'
p794
F0.6609075789973865
sS'QUOTA_USED_SUCCESS'
p795
F1.5071640907615145
sg785
F1.0988976176647947
sS'NUM_SUCCESS_FIRST_TIME'
p796
F0.34035546467962957
ssS'LATENCY'
p797
g11
(tRp798
g785
F36.145072222222225
sstp799
a(g11
(tRp800
S'workload'
p801
g11
(tRp802
S'n_contents'
p803
I10000
sS'name'
p804
S'STATIONARY'
p805
sS'n_warmup'
p806
I720000
sS'rate'
p807
I100
sS'n_measured'
p808
I360000
sS'alpha'
p809
F0.69999999999999996
ssS'cache_policy'
p810
g11
(tRp811
g804
S'LRU'
p812
ssS'desc'
p813
S'RSN size sensitivity -> RSN/cache ratio: 8.0'
p814
sS'strategy'
p815
g11
(tRp816
S'extra_quota'
p817
I3
sS'p'
F0.10000000000000001
sg804
S'LIRA_DFIB_OPH'
p818
ssS'content_placement'
p819
g11
(tRp820
g804
S'UNIFORM'
p821
ssS'joint_cache_rsn_placement'
p822
g11
(tRp823
S'network_cache'
p824
F0.94999999999999996
sS'network_rsn'
p825
F7.5999999999999996
sg804
S'CACHE_ALL_RSN_ALL'
p826
sS'rsn_cache_ratio'
p827
F8
ssS'warmup_strategy'
p828
g11
(tRp829
g817
I10
sS'p'
F0.10000000000000001
sg804
g818
sS'fan_out'
p830
I100
ssS'topology'
p831
g11
(tRp832
S'ext_delay'
p833
I5
sS'source_ratio'
p834
F0.10000000000000001
sg804
S'ROCKET_FUEL'
p835
sS'asn'
p836
I3257
ssg11
(tRp837
S'SAT_RATE'
p838
g11
(tRp839
S'MEAN_CACHE_HIT'
p840
F0.46689999999999998
sS'MEAN_SERVER_HIT'
p841
F0.55606388888888891
sS'MEAN_SERVER_CACHE_HITS'
p842
F0.02316388888888889
sS'MEAN'
p843
F0.99980000000000002
ssS'CACHE_HIT_RATIO'
p844
g11
(tRp845
S'MEAN_OFF_PATH'
p846
F0.041374872035778387
sS'MEAN_ON_PATH'
p847
F0.42552512796422159
sg843
F0.46689999999999998
ssS'OVERHEAD'
p848
g11
(tRp849
S'SUCCESS_RATE'
p850
F0.2982653869859998
sS'QUOTA_USED_FAILURE'
p851
F1.1134488946666581
sS'FAILURE_RATE'
p852
F0.7017346130140002
sS'QUOTA_USED_SUCCESS'
p853
F2.2441846632505906
sg843
F1.0469788402124869
sS'NUM_SUCCESS_FIRST_TIME'
p854
F0.29738585625810171
ssS'LATENCY'
p855
g11
(tRp856
g843
F36.336227777777779
sstp857
a(g11
(tRp858
S'workload'
p859
g11
(tRp860
S'n_contents'
p861
I10000
sS'name'
p862
S'STATIONARY'
p863
sS'n_warmup'
p864
I720000
sS'rate'
p865
I100
sS'n_measured'
p866
I360000
sS'alpha'
p867
F0.69999999999999996
ssS'cache_policy'
p868
g11
(tRp869
g862
S'LRU'
p870
ssS'desc'
p871
S'RSN size sensitivity -> RSN/cache ratio: 4.0'
p872
sS'strategy'
p873
g11
(tRp874
S'extra_quota'
p875
I3
sS'p'
F0.10000000000000001
sg862
S'LIRA_DFIB_OPH'
p876
ssS'content_placement'
p877
g11
(tRp878
g862
S'UNIFORM'
p879
ssS'joint_cache_rsn_placement'
p880
g11
(tRp881
S'network_cache'
p882
F0.94999999999999996
sS'network_rsn'
p883
F3.7999999999999998
sg862
S'CACHE_ALL_RSN_ALL'
p884
sS'rsn_cache_ratio'
p885
F4
ssS'warmup_strategy'
p886
g11
(tRp887
g875
I10
sS'p'
F0.10000000000000001
sg862
g876
sS'fan_out'
p888
I100
ssS'topology'
p889
g11
(tRp890
S'ext_delay'
p891
I5
sS'source_ratio'
p892
F0.10000000000000001
sg862
S'ROCKET_FUEL'
p893
sS'asn'
p894
I3257
ssg11
(tRp895
S'SAT_RATE'
p896
g11
(tRp897
S'MEAN_CACHE_HIT'
p898
F0.45695000000000002
sS'MEAN_SERVER_HIT'
p899
F0.55267222222222223
sS'MEAN_SERVER_CACHE_HITS'
p900
F0.010344444444444444
sS'MEAN'
p901
F0.99927777777777782
ssS'CACHE_HIT_RATIO'
p902
g11
(tRp903
S'MEAN_OFF_PATH'
p904
F0.030729315695639733
sS'MEAN_ON_PATH'
p905
F0.42622068430436028
sg901
F0.45695000000000002
ssS'OVERHEAD'
p906
g11
(tRp907
S'SUCCESS_RATE'
p908
F0.37043473050304104
sS'QUOTA_USED_FAILURE'
p909
F1.285955868288575
sS'FAILURE_RATE'
p910
F0.62956526949695901
sS'QUOTA_USED_SUCCESS'
p911
F11.882012417426997
sg901
F1.0335269917162395
sS'NUM_SUCCESS_FIRST_TIME'
p912
F0.36469542291302615
ssS'LATENCY'
p913
g11
(tRp914
g901
F37.032055555555559
sstp915
a(g11
(tRp916
S'workload'
p917
g11
(tRp918
S'n_contents'
p919
I10000
sS'name'
p920
S'STATIONARY'
p921
sS'n_warmup'
p922
I720000
sS'rate'
p923
I100
sS'n_measured'
p924
I360000
sS'alpha'
p925
F0.69999999999999996
ssS'cache_policy'
p926
g11
(tRp927
g920
S'LRU'
p928
ssS'desc'
p929
S'RSN size sensitivity -> RSN/cache ratio: 32.0'
p930
sS'strategy'
p931
g11
(tRp932
S'extra_quota'
p933
I3
sS'p'
F0.10000000000000001
sg920
S'LIRA_DFIB_OPH'
p934
ssS'content_placement'
p935
g11
(tRp936
g920
S'UNIFORM'
p937
ssS'joint_cache_rsn_placement'
p938
g11
(tRp939
S'network_cache'
p940
F0.94999999999999996
sS'network_rsn'
p941
F30.399999999999999
sg920
S'CACHE_ALL_RSN_ALL'
p942
sS'rsn_cache_ratio'
p943
F32
ssS'warmup_strategy'
p944
g11
(tRp945
g933
I10
sS'p'
F0.10000000000000001
sg920
g934
sS'fan_out'
p946
I100
ssS'topology'
p947
g11
(tRp948
S'ext_delay'
p949
I5
sS'source_ratio'
p950
F0.10000000000000001
sg920
S'ROCKET_FUEL'
p951
sS'asn'
p952
I3257
ssg11
(tRp953
S'SAT_RATE'
p954
g11
(tRp955
S'MEAN_CACHE_HIT'
p956
F0.5254361111111111
sS'MEAN_SERVER_HIT'
p957
F0.55274166666666669
sS'MEAN_SERVER_CACHE_HITS'
p958
F0.080694444444444444
sS'MEAN'
p959
F0.99748333333333339
ssS'CACHE_HIT_RATIO'
p960
g11
(tRp961
S'MEAN_OFF_PATH'
p962
F0.18784007997032029
sS'MEAN_ON_PATH'
p963
F0.33759603114079084
sg959
F0.5254361111111111
ssS'OVERHEAD'
p964
g11
(tRp965
S'SUCCESS_RATE'
p966
F0.42684005172813988
sS'QUOTA_USED_FAILURE'
p967
F1.2446154429171132
sS'FAILURE_RATE'
p968
F0.57315994827186012
sS'QUOTA_USED_SUCCESS'
p969
F2.7652373600978697
sg959
F1.2116521022350695
sS'NUM_SUCCESS_FIRST_TIME'
p970
F0.43090614409901284
ssS'LATENCY'
p971
g11
(tRp972
g959
F35.478908333333337
sstp973
a(g11
(tRp974
S'workload'
p975
g11
(tRp976
S'n_contents'
p977
I10000
sS'name'
p978
S'STATIONARY'
p979
sS'n_warmup'
p980
I720000
sS'rate'
p981
I100
sS'n_measured'
p982
I360000
sS'alpha'
p983
F0.69999999999999996
ssS'cache_policy'
p984
g11
(tRp985
g978
S'LRU'
p986
ssS'desc'
p987
S'RSN size sensitivity -> RSN/cache ratio: 32.0'
p988
sS'strategy'
p989
g11
(tRp990
S'p'
F0.10000000000000001
sg978
S'LIRA_DFIB_SC'
p991
ssS'content_placement'
p992
g11
(tRp993
g978
S'UNIFORM'
p994
ssS'joint_cache_rsn_placement'
p995
g11
(tRp996
S'network_cache'
p997
F0.94999999999999996
sS'network_rsn'
p998
F30.399999999999999
sg978
S'CACHE_ALL_RSN_ALL'
p999
sS'rsn_cache_ratio'
p1000
F32
ssS'warmup_strategy'
p1001
g11
(tRp1002
S'p'
F0.10000000000000001
sg978
g991
ssS'topology'
p1003
g11
(tRp1004
S'ext_delay'
p1005
I5
sS'source_ratio'
p1006
F0.10000000000000001
sg978
S'ROCKET_FUEL'
p1007
sS'asn'
p1008
I3257
ssg11
(tRp1009
S'SAT_RATE'
p1010
g11
(tRp1011
S'MEAN_CACHE_HIT'
p1012
F0.52237500000000003
sS'MEAN_SERVER_HIT'
p1013
F0.55811666666666671
sS'MEAN_SERVER_CACHE_HITS'
p1014
F0.08049722222222222
sS'MEAN'
p1015
F0.99999444444444441
ssS'CACHE_HIT_RATIO'
p1016
g11
(tRp1017
S'MEAN_OFF_PATH'
p1018
F0.16458299590978387
sS'MEAN_ON_PATH'
p1019
F0.35779200409021616
sg1015
F0.52237500000000003
ssS'OVERHEAD'
p1020
g11
(tRp1021
S'SUCCESS_RATE'
p1022
F0.3952904004991214
sS'QUOTA_USED_FAILURE'
p1023
F1
sS'FAILURE_RATE'
p1024
F0.60470959950087866
sS'QUOTA_USED_SUCCESS'
p1025
F1
sg1015
F1.191826065700365
sS'NUM_SUCCESS_FIRST_TIME'
p1026
F0.39534855050576656
ssS'LATENCY'
p1027
g11
(tRp1028
g1015
F35.925733333333334
sstp1029
a(g11
(tRp1030
S'workload'
p1031
g11
(tRp1032
S'n_contents'
p1033
I10000
sS'name'
p1034
S'STATIONARY'
p1035
sS'n_warmup'
p1036
I720000
sS'rate'
p1037
I100
sS'n_measured'
p1038
I360000
sS'alpha'
p1039
F0.69999999999999996
ssS'cache_policy'
p1040
g11
(tRp1041
g1034
S'LRU'
p1042
ssS'desc'
p1043
S'RSN size sensitivity -> RSN/cache ratio: 64.0'
p1044
sS'strategy'
p1045
g11
(tRp1046
S'p'
F0.10000000000000001
sg1034
S'LIRA_DFIB_SC'
p1047
ssS'content_placement'
p1048
g11
(tRp1049
g1034
S'UNIFORM'
p1050
ssS'joint_cache_rsn_placement'
p1051
g11
(tRp1052
S'network_cache'
p1053
F0.94999999999999996
sS'network_rsn'
p1054
F60.799999999999997
sg1034
S'CACHE_ALL_RSN_ALL'
p1055
sS'rsn_cache_ratio'
p1056
F64
ssS'warmup_strategy'
p1057
g11
(tRp1058
S'p'
F0.10000000000000001
sg1034
g1047
ssS'topology'
p1059
g11
(tRp1060
S'ext_delay'
p1061
I5
sS'source_ratio'
p1062
F0.10000000000000001
sg1034
S'ROCKET_FUEL'
p1063
sS'asn'
p1064
I3257
ssg11
(tRp1065
S'SAT_RATE'
p1066
g11
(tRp1067
S'MEAN_CACHE_HIT'
p1068
F0.54998611111111106
sS'MEAN_SERVER_HIT'
p1069
F0.55846111111111107
sS'MEAN_SERVER_CACHE_HITS'
p1070
F0.10849722222222222
sS'MEAN'
p1071
F0.99995000000000001
ssS'CACHE_HIT_RATIO'
p1072
g11
(tRp1073
S'MEAN_OFF_PATH'
p1074
F0.24501993529486946
sS'MEAN_ON_PATH'
p1075
F0.30496617581624164
sg1071
F0.54998611111111106
ssS'OVERHEAD'
p1076
g11
(tRp1077
S'SUCCESS_RATE'
p1078
F0.44953330335492059
sS'QUOTA_USED_FAILURE'
p1079
F1
sS'FAILURE_RATE'
p1080
F0.55046669664507941
sS'QUOTA_USED_SUCCESS'
p1081
F1
sg1071
F1.2970509636592942
sS'NUM_SUCCESS_FIRST_TIME'
p1082
F0.45308529262278108
ssS'LATENCY'
p1083
g11
(tRp1084
g1071
F36.808244444444448
sstp1085
a(g11
(tRp1086
S'workload'
p1087
g11
(tRp1088
S'n_contents'
p1089
I10000
sS'name'
p1090
S'STATIONARY'
p1091
sS'n_warmup'
p1092
I720000
sS'rate'
p1093
I100
sS'n_measured'
p1094
I360000
sS'alpha'
p1095
F0.69999999999999996
ssS'cache_policy'
p1096
g11
(tRp1097
g1090
S'LRU'
p1098
ssS'desc'
p1099
S'RSN size sensitivity -> RSN/cache ratio: 64.0'
p1100
sS'strategy'
p1101
g11
(tRp1102
S'extra_quota'
p1103
I3
sS'p'
F0.10000000000000001
sg1090
S'LIRA_DFIB_OPH'
p1104
ssS'content_placement'
p1105
g11
(tRp1106
g1090
S'UNIFORM'
p1107
ssS'joint_cache_rsn_placement'
p1108
g11
(tRp1109
S'network_cache'
p1110
F0.94999999999999996
sS'network_rsn'
p1111
F60.799999999999997
sg1090
S'CACHE_ALL_RSN_ALL'
p1112
sS'rsn_cache_ratio'
p1113
F64
ssS'warmup_strategy'
p1114
g11
(tRp1115
g1103
I10
sS'p'
F0.10000000000000001
sg1090
g1104
sS'fan_out'
p1116
I100
ssS'topology'
p1117
g11
(tRp1118
S'ext_delay'
p1119
I5
sS'source_ratio'
p1120
F0.10000000000000001
sg1090
S'ROCKET_FUEL'
p1121
sS'asn'
p1122
I3257
ssg11
(tRp1123
S'SAT_RATE'
p1124
g11
(tRp1125
S'MEAN_CACHE_HIT'
p1126
F0.54847500000000005
sS'MEAN_SERVER_HIT'
p1127
F0.54572777777777781
sS'MEAN_SERVER_CACHE_HITS'
p1128
F0.10051388888888889
sS'MEAN'
p1129
F0.99368888888888884
ssS'CACHE_HIT_RATIO'
p1130
g11
(tRp1131
S'MEAN_OFF_PATH'
p1132
F0.2265931817431768
sS'MEAN_ON_PATH'
p1133
F0.32188181825682327
sg1129
F0.54847500000000005
ssS'OVERHEAD'
p1134
g11
(tRp1135
S'SUCCESS_RATE'
p1136
F0.43946445619446278
sS'QUOTA_USED_FAILURE'
p1137
F1.3409026445198362
sS'FAILURE_RATE'
p1138
F0.56053554380553716
sS'QUOTA_USED_SUCCESS'
p1139
F2.5501083621793543
sg1129
F1.2539722917971197
sS'NUM_SUCCESS_FIRST_TIME'
p1140
F0.44651172176510057
ssS'LATENCY'
p1141
g11
(tRp1142
g1129
F35.401105555555553
sstp1143
a(g11
(tRp1144
S'workload'
p1145
g11
(tRp1146
S'n_contents'
p1147
I10000
sS'name'
p1148
S'STATIONARY'
p1149
sS'n_warmup'
p1150
I720000
sS'rate'
p1151
I100
sS'n_measured'
p1152
I360000
sS'alpha'
p1153
F0.69999999999999996
ssS'cache_policy'
p1154
g11
(tRp1155
g1148
S'LRU'
p1156
ssS'desc'
p1157
S'caching probability: 0.25'
p1158
sS'strategy'
p1159
g11
(tRp1160
S'extra_quota'
p1161
I3
sS'p'
F0.25
sg1148
S'LIRA_DFIB_OPH'
p1162
ssS'content_placement'
p1163
g11
(tRp1164
g1148
S'UNIFORM'
p1165
ssS'joint_cache_rsn_placement'
p1166
g11
(tRp1167
S'network_cache'
p1168
F0.94999999999999996
sS'network_rsn'
p1169
F60.799999999999997
sg1148
S'CACHE_ALL_RSN_ALL'
p1170
sS'rsn_cache_ratio'
p1171
I64
ssS'warmup_strategy'
p1172
g11
(tRp1173
g1161
I10
sS'p'
F0.10000000000000001
sg1148
g1162
sS'fan_out'
p1174
I100
ssS'topology'
p1175
g11
(tRp1176
S'ext_delay'
p1177
I5
sS'source_ratio'
p1178
F0.10000000000000001
sg1148
S'ROCKET_FUEL'
p1179
sS'asn'
p1180
I3257
ssg11
(tRp1181
S'SAT_RATE'
p1182
g11
(tRp1183
S'MEAN_CACHE_HIT'
p1184
F0.52676666666666672
sS'MEAN_SERVER_HIT'
p1185
F0.58522777777777779
sS'MEAN_SERVER_CACHE_HITS'
p1186
F0.11599444444444444
sS'MEAN'
p1187
F0.996
ssS'CACHE_HIT_RATIO'
p1188
g11
(tRp1189
S'MEAN_OFF_PATH'
p1190
F0.21688008033613276
sS'MEAN_ON_PATH'
p1191
F0.30988658633053395
sg1187
F0.52676666666666672
ssS'OVERHEAD'
p1192
g11
(tRp1193
S'SUCCESS_RATE'
p1194
F0.43216386497322556
sS'QUOTA_USED_FAILURE'
p1195
F1.3146615850492809
sS'FAILURE_RATE'
p1196
F0.56783613502677444
sS'QUOTA_USED_SUCCESS'
p1197
F2.7069853103302761
sg1187
F1.2542196564033914
sS'NUM_SUCCESS_FIRST_TIME'
p1198
F0.43338227946200047
ssS'LATENCY'
p1199
g11
(tRp1200
g1187
F36.917169444444447
sstp1201
a(g11
(tRp1202
S'workload'
p1203
g11
(tRp1204
S'n_contents'
p1205
I10000
sS'name'
p1206
S'STATIONARY'
p1207
sS'n_warmup'
p1208
I720000
sS'rate'
p1209
I100
sS'n_measured'
p1210
I360000
sS'alpha'
p1211
F0.69999999999999996
ssS'cache_policy'
p1212
g11
(tRp1213
g1206
S'LRU'
p1214
ssS'desc'
p1215
S'caching probability: 0.25'
p1216
sS'strategy'
p1217
g11
(tRp1218
S'extra_quota'
p1219
I1
sS'p'
F0.25
sg1206
S'LIRA_DFIB_OPH'
p1220
ssS'content_placement'
p1221
g11
(tRp1222
g1206
S'UNIFORM'
p1223
ssS'joint_cache_rsn_placement'
p1224
g11
(tRp1225
S'network_cache'
p1226
F0.94999999999999996
sS'network_rsn'
p1227
F60.799999999999997
sg1206
S'CACHE_ALL_RSN_ALL'
p1228
sS'rsn_cache_ratio'
p1229
I64
ssS'warmup_strategy'
p1230
g11
(tRp1231
g1219
I10
sS'p'
F0.10000000000000001
sg1206
g1220
sS'fan_out'
p1232
I100
ssS'topology'
p1233
g11
(tRp1234
S'ext_delay'
p1235
I5
sS'source_ratio'
p1236
F0.10000000000000001
sg1206
S'ROCKET_FUEL'
p1237
sS'asn'
p1238
I3257
ssg11
(tRp1239
S'SAT_RATE'
p1240
g11
(tRp1241
S'MEAN_CACHE_HIT'
p1242
F0.52815000000000001
sS'MEAN_SERVER_HIT'
p1243
F0.52618888888888893
sS'MEAN_SERVER_CACHE_HITS'
p1244
F0.090913888888888891
sS'MEAN'
p1245
F0.96342499999999998
ssS'CACHE_HIT_RATIO'
p1246
g11
(tRp1247
S'MEAN_OFF_PATH'
p1248
F0.24039023927579684
sS'MEAN_ON_PATH'
p1249
F0.28775976072420317
sg1245
F0.52815000000000001
ssS'OVERHEAD'
p1250
g11
(tRp1251
S'SUCCESS_RATE'
p1252
F0.4511901045554696
sS'QUOTA_USED_FAILURE'
p1253
F1.3283475269672731
sS'FAILURE_RATE'
p1254
F0.5488098954445304
sS'QUOTA_USED_SUCCESS'
p1255
F2.8983192541377711
sg1245
F1.2419608284102148
sS'NUM_SUCCESS_FIRST_TIME'
p1256
F0.4547720098476038
ssS'LATENCY'
p1257
g11
(tRp1258
g1245
F33.875519444444443
sstp1259
a(g11
(tRp1260
S'workload'
p1261
g11
(tRp1262
S'n_contents'
p1263
I10000
sS'name'
p1264
S'STATIONARY'
p1265
sS'n_warmup'
p1266
I720000
sS'rate'
p1267
I100
sS'n_measured'
p1268
I360000
sS'alpha'
p1269
F0.69999999999999996
ssS'cache_policy'
p1270
g11
(tRp1271
g1264
S'LRU'
p1272
ssS'desc'
p1273
S'caching probability: 0.25'
p1274
sS'strategy'
p1275
g11
(tRp1276
S'extra_quota'
p1277
I2
sS'p'
F0.25
sg1264
S'LIRA_DFIB_OPH'
p1278
ssS'content_placement'
p1279
g11
(tRp1280
g1264
S'UNIFORM'
p1281
ssS'joint_cache_rsn_placement'
p1282
g11
(tRp1283
S'network_cache'
p1284
F0.94999999999999996
sS'network_rsn'
p1285
F60.799999999999997
sg1264
S'CACHE_ALL_RSN_ALL'
p1286
sS'rsn_cache_ratio'
p1287
I64
ssS'warmup_strategy'
p1288
g11
(tRp1289
g1277
I10
sS'p'
F0.10000000000000001
sg1264
g1278
sS'fan_out'
p1290
I100
ssS'topology'
p1291
g11
(tRp1292
S'ext_delay'
p1293
I5
sS'source_ratio'
p1294
F0.10000000000000001
sg1264
S'ROCKET_FUEL'
p1295
sS'asn'
p1296
I3257
ssg11
(tRp1297
S'SAT_RATE'
p1298
g11
(tRp1299
S'MEAN_CACHE_HIT'
p1300
F0.52875833333333333
sS'MEAN_SERVER_HIT'
p1301
F0.57045277777777781
sS'MEAN_SERVER_CACHE_HITS'
p1302
F0.10806388888888889
sS'MEAN'
p1303
F0.99114722222222218
ssS'CACHE_HIT_RATIO'
p1304
g11
(tRp1305
S'MEAN_OFF_PATH'
p1306
F0.22520696661241901
sS'MEAN_ON_PATH'
p1307
F0.30355136672091432
sg1303
F0.52875833333333333
ssS'OVERHEAD'
p1308
g11
(tRp1309
S'SUCCESS_RATE'
p1310
F0.43866317169069463
sS'QUOTA_USED_FAILURE'
p1311
F1.3042954504063999
sS'FAILURE_RATE'
p1312
F0.56133682830930542
sS'QUOTA_USED_SUCCESS'
p1313
F2.5201606866319026
sg1303
F1.253676295426456
sS'NUM_SUCCESS_FIRST_TIME'
p1314
F0.44029102110713669
ssS'LATENCY'
p1315
g11
(tRp1316
g1303
F35.995602777777776
sstp1317
a(g11
(tRp1318
S'workload'
p1319
g11
(tRp1320
S'n_contents'
p1321
I10000
sS'name'
p1322
S'STATIONARY'
p1323
sS'n_warmup'
p1324
I720000
sS'rate'
p1325
I100
sS'n_measured'
p1326
I360000
sS'alpha'
p1327
F0.69999999999999996
ssS'cache_policy'
p1328
g11
(tRp1329
g1322
S'LRU'
p1330
ssS'desc'
p1331
S'RSN size sensitivity -> RSN/cache ratio: 128.0'
p1332
sS'strategy'
p1333
g11
(tRp1334
S'p'
F0.10000000000000001
sg1322
S'LIRA_DFIB_SC'
p1335
ssS'content_placement'
p1336
g11
(tRp1337
g1322
S'UNIFORM'
p1338
ssS'joint_cache_rsn_placement'
p1339
g11
(tRp1340
S'network_cache'
p1341
F0.94999999999999996
sS'network_rsn'
p1342
F121.59999999999999
sg1322
S'CACHE_ALL_RSN_ALL'
p1343
sS'rsn_cache_ratio'
p1344
F128
ssS'warmup_strategy'
p1345
g11
(tRp1346
S'p'
F0.10000000000000001
sg1322
g1335
ssS'topology'
p1347
g11
(tRp1348
S'ext_delay'
p1349
I5
sS'source_ratio'
p1350
F0.10000000000000001
sg1322
S'ROCKET_FUEL'
p1351
sS'asn'
p1352
I3257
ssg11
(tRp1353
S'SAT_RATE'
p1354
g11
(tRp1355
S'MEAN_CACHE_HIT'
p1356
F0.54677500000000001
sS'MEAN_SERVER_HIT'
p1357
F0.55802499999999999
sS'MEAN_SERVER_CACHE_HITS'
p1358
F0.10510277777777778
sS'MEAN'
p1359
F0.99969722222222224
ssS'CACHE_HIT_RATIO'
p1360
g11
(tRp1361
S'MEAN_OFF_PATH'
p1362
F0.2509227411698447
sS'MEAN_ON_PATH'
p1363
F0.29585225883015531
sg1359
F0.54677500000000001
ssS'OVERHEAD'
p1364
g11
(tRp1365
S'SUCCESS_RATE'
p1366
F0.4394694456847611
sS'QUOTA_USED_FAILURE'
p1367
F1
sS'FAILURE_RATE'
p1368
F0.5605305543152389
sS'QUOTA_USED_SUCCESS'
p1369
F1
sg1359
F1.306151029061577
sS'NUM_SUCCESS_FIRST_TIME'
p1370
F0.44899377362686238
ssS'LATENCY'
p1371
g11
(tRp1372
g1359
F36.352088888888886
sstp1373
a(g11
(tRp1374
S'workload'
p1375
g11
(tRp1376
S'n_contents'
p1377
I10000
sS'name'
p1378
S'STATIONARY'
p1379
sS'n_warmup'
p1380
I720000
sS'rate'
p1381
I100
sS'n_measured'
p1382
I360000
sS'alpha'
p1383
F0.69999999999999996
ssS'cache_policy'
p1384
g11
(tRp1385
g1378
S'LRU'
p1386
ssS'desc'
p1387
S'caching probability: 0.25'
p1388
sS'strategy'
p1389
g11
(tRp1390
S'extra_quota'
p1391
I4
sS'p'
F0.25
sg1378
S'LIRA_DFIB_OPH'
p1392
ssS'content_placement'
p1393
g11
(tRp1394
g1378
S'UNIFORM'
p1395
ssS'joint_cache_rsn_placement'
p1396
g11
(tRp1397
S'network_cache'
p1398
F0.94999999999999996
sS'network_rsn'
p1399
F60.799999999999997
sg1378
S'CACHE_ALL_RSN_ALL'
p1400
sS'rsn_cache_ratio'
p1401
I64
ssS'warmup_strategy'
p1402
g11
(tRp1403
g1391
I10
sS'p'
F0.10000000000000001
sg1378
g1392
sS'fan_out'
p1404
I100
ssS'topology'
p1405
g11
(tRp1406
S'ext_delay'
p1407
I5
sS'source_ratio'
p1408
F0.10000000000000001
sg1378
S'ROCKET_FUEL'
p1409
sS'asn'
p1410
I3257
ssg11
(tRp1411
S'SAT_RATE'
p1412
g11
(tRp1413
S'MEAN_CACHE_HIT'
p1414
F0.52777777777777779
sS'MEAN_SERVER_HIT'
p1415
F0.58768611111111113
sS'MEAN_SERVER_CACHE_HITS'
p1416
F0.11778333333333334
sS'MEAN'
p1417
F0.99768055555555557
ssS'CACHE_HIT_RATIO'
p1418
g11
(tRp1419
S'MEAN_OFF_PATH'
p1420
F0.219963293796552
sS'MEAN_ON_PATH'
p1421
F0.30781448398122579
sg1417
F0.52777777777777779
ssS'OVERHEAD'
p1422
g11
(tRp1423
S'SUCCESS_RATE'
p1424
F0.43761167561564329
sS'QUOTA_USED_FAILURE'
p1425
F1.3103316303625074
sS'FAILURE_RATE'
p1426
F0.56238832438435671
sS'QUOTA_USED_SUCCESS'
p1427
F2.4950233319850206
sg1417
F1.2611473835145406
sS'NUM_SUCCESS_FIRST_TIME'
p1428
F0.43739884946784108
ssS'LATENCY'
p1429
g11
(tRp1430
g1417
F36.070700000000002
sstp1431
a(g11
(tRp1432
S'workload'
p1433
g11
(tRp1434
S'n_contents'
p1435
I10000
sS'name'
p1436
S'STATIONARY'
p1437
sS'n_warmup'
p1438
I720000
sS'rate'
p1439
I100
sS'n_measured'
p1440
I360000
sS'alpha'
p1441
F0.69999999999999996
ssS'cache_policy'
p1442
g11
(tRp1443
g1436
S'LRU'
p1444
ssS'desc'
p1445
S'RSN size sensitivity -> RSN/cache ratio: 256.0'
p1446
sS'strategy'
p1447
g11
(tRp1448
S'extra_quota'
p1449
I3
sS'p'
F0.10000000000000001
sg1436
S'LIRA_DFIB_OPH'
p1450
ssS'content_placement'
p1451
g11
(tRp1452
g1436
S'UNIFORM'
p1453
ssS'joint_cache_rsn_placement'
p1454
g11
(tRp1455
S'network_cache'
p1456
F0.94999999999999996
sS'network_rsn'
p1457
F243.19999999999999
sg1436
S'CACHE_ALL_RSN_ALL'
p1458
sS'rsn_cache_ratio'
p1459
F256
ssS'warmup_strategy'
p1460
g11
(tRp1461
g1449
I10
sS'p'
F0.10000000000000001
sg1436
g1450
sS'fan_out'
p1462
I100
ssS'topology'
p1463
g11
(tRp1464
S'ext_delay'
p1465
I5
sS'source_ratio'
p1466
F0.10000000000000001
sg1436
S'ROCKET_FUEL'
p1467
sS'asn'
p1468
I3257
ssg11
(tRp1469
S'SAT_RATE'
p1470
g11
(tRp1471
S'MEAN_CACHE_HIT'
p1472
F0.54017222222222228
sS'MEAN_SERVER_HIT'
p1473
F0.5443972222222222
sS'MEAN_SERVER_CACHE_HITS'
p1474
F0.091319444444444439
sS'MEAN'
p1475
F0.99324999999999997
ssS'CACHE_HIT_RATIO'
p1476
g11
(tRp1477
S'MEAN_OFF_PATH'
p1478
F0.2175184725121336
sS'MEAN_ON_PATH'
p1479
F0.32265374971008864
sg1475
F0.54017222222222228
ssS'OVERHEAD'
p1480
g11
(tRp1481
S'SUCCESS_RATE'
p1482
F0.44573218406148096
sS'QUOTA_USED_FAILURE'
p1483
F1.3432190179274948
sS'FAILURE_RATE'
p1484
F0.55426781593851904
sS'QUOTA_USED_SUCCESS'
p1485
F2.7444352669778369
sg1475
F1.2466538020527449
sS'NUM_SUCCESS_FIRST_TIME'
p1486
F0.45966539222863961
ssS'LATENCY'
p1487
g11
(tRp1488
g1475
F34.60915
sstp1489
a(g11
(tRp1490
S'workload'
p1491
g11
(tRp1492
S'n_contents'
p1493
I10000
sS'name'
p1494
S'STATIONARY'
p1495
sS'n_warmup'
p1496
I720000
sS'rate'
p1497
I100
sS'n_measured'
p1498
I360000
sS'alpha'
p1499
F0.69999999999999996
ssS'cache_policy'
p1500
g11
(tRp1501
g1494
S'LRU'
p1502
ssS'desc'
p1503
S'RSN size sensitivity -> RSN/cache ratio: 128.0'
p1504
sS'strategy'
p1505
g11
(tRp1506
S'extra_quota'
p1507
I3
sS'p'
F0.10000000000000001
sg1494
S'LIRA_DFIB_OPH'
p1508
ssS'content_placement'
p1509
g11
(tRp1510
g1494
S'UNIFORM'
p1511
ssS'joint_cache_rsn_placement'
p1512
g11
(tRp1513
S'network_cache'
p1514
F0.94999999999999996
sS'network_rsn'
p1515
F121.59999999999999
sg1494
S'CACHE_ALL_RSN_ALL'
p1516
sS'rsn_cache_ratio'
p1517
F128
ssS'warmup_strategy'
p1518
g11
(tRp1519
g1507
I10
sS'p'
F0.10000000000000001
sg1494
g1508
sS'fan_out'
p1520
I100
ssS'topology'
p1521
g11
(tRp1522
S'ext_delay'
p1523
I5
sS'source_ratio'
p1524
F0.10000000000000001
sg1494
S'ROCKET_FUEL'
p1525
sS'asn'
p1526
I3257
ssg11
(tRp1527
S'SAT_RATE'
p1528
g11
(tRp1529
S'MEAN_CACHE_HIT'
p1530
F0.5448305555555556
sS'MEAN_SERVER_HIT'
p1531
F0.54398888888888886
sS'MEAN_SERVER_CACHE_HITS'
p1532
F0.096911111111111115
sS'MEAN'
p1533
F0.99190833333333328
ssS'CACHE_HIT_RATIO'
p1534
g11
(tRp1535
S'MEAN_OFF_PATH'
p1536
F0.23034122074111871
sS'MEAN_ON_PATH'
p1537
F0.31448933481443686
sg1533
F0.5448305555555556
ssS'OVERHEAD'
p1538
g11
(tRp1539
S'SUCCESS_RATE'
p1540
F0.44329813160032494
sS'QUOTA_USED_FAILURE'
p1541
F1.3880395620163959
sS'FAILURE_RATE'
p1542
F0.55670186839967506
sS'QUOTA_USED_SUCCESS'
p1543
F3.9235554580832819
sg1533
F1.2593737660570112
sS'NUM_SUCCESS_FIRST_TIME'
p1544
F0.45583288089668716
ssS'LATENCY'
p1545
g11
(tRp1546
g1533
F35.044563888888888
sstp1547
a(g11
(tRp1548
S'workload'
p1549
g11
(tRp1550
S'n_contents'
p1551
I10000
sS'name'
p1552
S'STATIONARY'
p1553
sS'n_warmup'
p1554
I720000
sS'rate'
p1555
I100
sS'n_measured'
p1556
I360000
sS'alpha'
p1557
F0.69999999999999996
ssS'cache_policy'
p1558
g11
(tRp1559
g1552
S'LRU'
p1560
ssS'desc'
p1561
S'RSN size sensitivity -> RSN/cache ratio: 256.0'
p1562
sS'strategy'
p1563
g11
(tRp1564
S'p'
F0.10000000000000001
sg1552
S'LIRA_DFIB_SC'
p1565
ssS'content_placement'
p1566
g11
(tRp1567
g1552
S'UNIFORM'
p1568
ssS'joint_cache_rsn_placement'
p1569
g11
(tRp1570
S'network_cache'
p1571
F0.94999999999999996
sS'network_rsn'
p1572
F243.19999999999999
sg1552
S'CACHE_ALL_RSN_ALL'
p1573
sS'rsn_cache_ratio'
p1574
F256
ssS'warmup_strategy'
p1575
g11
(tRp1576
S'p'
F0.10000000000000001
sg1552
g1565
ssS'topology'
p1577
g11
(tRp1578
S'ext_delay'
p1579
I5
sS'source_ratio'
p1580
F0.10000000000000001
sg1552
S'ROCKET_FUEL'
p1581
sS'asn'
p1582
I3257
ssg11
(tRp1583
S'SAT_RATE'
p1584
g11
(tRp1585
S'MEAN_CACHE_HIT'
p1586
F0.54117222222222228
sS'MEAN_SERVER_HIT'
p1587
F0.55631388888888889
sS'MEAN_SERVER_CACHE_HITS'
p1588
F0.098066666666666663
sS'MEAN'
p1589
F0.99941944444444442
ssS'CACHE_HIT_RATIO'
p1590
g11
(tRp1591
S'MEAN_OFF_PATH'
p1592
F0.23170629848517446
sS'MEAN_ON_PATH'
p1593
F0.30946592373704784
sg1589
F0.54117222222222228
ssS'OVERHEAD'
p1594
g11
(tRp1595
S'SUCCESS_RATE'
p1596
F0.42600741656365881
sS'QUOTA_USED_FAILURE'
p1597
F1
sS'FAILURE_RATE'
p1598
F0.57399258343634119
sS'QUOTA_USED_SUCCESS'
p1599
F1
sg1589
F1.2871889513634305
sS'NUM_SUCCESS_FIRST_TIME'
p1600
F0.439549878643752
ssS'LATENCY'
p1601
g11
(tRp1602
g1589
F35.623366666666669
sstp1603
a(g11
(tRp1604
S'workload'
p1605
g11
(tRp1606
S'n_contents'
p1607
I10000
sS'name'
p1608
S'STATIONARY'
p1609
sS'n_warmup'
p1610
I720000
sS'rate'
p1611
I100
sS'n_measured'
p1612
I360000
sS'alpha'
p1613
F0.69999999999999996
ssS'cache_policy'
p1614
g11
(tRp1615
g1608
S'LRU'
p1616
ssS'desc'
p1617
S'caching probability: 0.25'
p1618
sS'strategy'
p1619
g11
(tRp1620
S'extra_quota'
p1621
I5
sS'p'
F0.25
sg1608
S'LIRA_DFIB_OPH'
p1622
ssS'content_placement'
p1623
g11
(tRp1624
g1608
S'UNIFORM'
p1625
ssS'joint_cache_rsn_placement'
p1626
g11
(tRp1627
S'network_cache'
p1628
F0.94999999999999996
sS'network_rsn'
p1629
F60.799999999999997
sg1608
S'CACHE_ALL_RSN_ALL'
p1630
sS'rsn_cache_ratio'
p1631
I64
ssS'warmup_strategy'
p1632
g11
(tRp1633
g1621
I10
sS'p'
F0.10000000000000001
sg1608
g1622
sS'fan_out'
p1634
I100
ssS'topology'
p1635
g11
(tRp1636
S'ext_delay'
p1637
I5
sS'source_ratio'
p1638
F0.10000000000000001
sg1608
S'ROCKET_FUEL'
p1639
sS'asn'
p1640
I3257
ssg11
(tRp1641
S'SAT_RATE'
p1642
g11
(tRp1643
S'MEAN_CACHE_HIT'
p1644
F0.52525555555555559
sS'MEAN_SERVER_HIT'
p1645
F0.58876944444444446
sS'MEAN_SERVER_CACHE_HITS'
p1646
F0.11580833333333333
sS'MEAN'
p1647
F0.99821666666666664
ssS'CACHE_HIT_RATIO'
p1648
g11
(tRp1649
S'MEAN_OFF_PATH'
p1650
F0.22469074851202722
sS'MEAN_ON_PATH'
p1651
F0.30056480704352839
sg1647
F0.52525555555555559
ssS'OVERHEAD'
p1652
g11
(tRp1653
S'SUCCESS_RATE'
p1654
F0.43877041802935385
sS'QUOTA_USED_FAILURE'
p1655
F1.324217481957441
sS'FAILURE_RATE'
p1656
F0.56122958197064621
sS'QUOTA_USED_SUCCESS'
p1657
F2.5809165693908578
sg1647
F1.2669566282091953
sS'NUM_SUCCESS_FIRST_TIME'
p1658
F0.43915685891365669
ssS'LATENCY'
p1659
g11
(tRp1660
g1647
F36.736833333333337
sstp1661
a(g11
(tRp1662
S'workload'
p1663
g11
(tRp1664
S'n_contents'
p1665
I10000
sS'name'
p1666
S'STATIONARY'
p1667
sS'n_warmup'
p1668
I720000
sS'rate'
p1669
I100
sS'n_measured'
p1670
I360000
sS'alpha'
p1671
F0.69999999999999996
ssS'cache_policy'
p1672
g11
(tRp1673
g1666
S'LRU'
p1674
ssS'desc'
p1675
S'caching probability: 0.5'
p1676
sS'strategy'
p1677
g11
(tRp1678
S'extra_quota'
p1679
I4
sS'p'
F0.5
sg1666
S'LIRA_DFIB_OPH'
p1680
ssS'content_placement'
p1681
g11
(tRp1682
g1666
S'UNIFORM'
p1683
ssS'joint_cache_rsn_placement'
p1684
g11
(tRp1685
S'network_cache'
p1686
F0.94999999999999996
sS'network_rsn'
p1687
F60.799999999999997
sg1666
S'CACHE_ALL_RSN_ALL'
p1688
sS'rsn_cache_ratio'
p1689
I64
ssS'warmup_strategy'
p1690
g11
(tRp1691
g1679
I10
sS'p'
F0.10000000000000001
sg1666
g1680
sS'fan_out'
p1692
I100
ssS'topology'
p1693
g11
(tRp1694
S'ext_delay'
p1695
I5
sS'source_ratio'
p1696
F0.10000000000000001
sg1666
S'ROCKET_FUEL'
p1697
sS'asn'
p1698
I3257
ssg11
(tRp1699
S'SAT_RATE'
p1700
g11
(tRp1701
S'MEAN_CACHE_HIT'
p1702
F0.50017777777777783
sS'MEAN_SERVER_HIT'
p1703
F0.62426388888888884
sS'MEAN_SERVER_CACHE_HITS'
p1704
F0.12626666666666667
sS'MEAN'
p1705
F0.99817500000000003
ssS'CACHE_HIT_RATIO'
p1706
g11
(tRp1707
S'MEAN_OFF_PATH'
p1708
F0.23859001627968449
sS'MEAN_ON_PATH'
p1709
F0.26158776149809337
sg1705
F0.50017777777777783
ssS'OVERHEAD'
p1710
g11
(tRp1711
S'SUCCESS_RATE'
p1712
F0.44748989339055145
sS'QUOTA_USED_FAILURE'
p1713
F1.3033193616814664
sS'FAILURE_RATE'
p1714
F0.55251010660944855
sS'QUOTA_USED_SUCCESS'
p1715
F2.7258236477330997
sg1705
F1.2827716137506504
sS'NUM_SUCCESS_FIRST_TIME'
p1716
F0.44308180776111383
ssS'LATENCY'
p1717
g11
(tRp1718
g1705
F37.159055555555554
sstp1719
a(g11
(tRp1720
S'workload'
p1721
g11
(tRp1722
S'n_contents'
p1723
I10000
sS'name'
p1724
S'STATIONARY'
p1725
sS'n_warmup'
p1726
I720000
sS'rate'
p1727
I100
sS'n_measured'
p1728
I360000
sS'alpha'
p1729
F0.69999999999999996
ssS'cache_policy'
p1730
g11
(tRp1731
g1724
S'LRU'
p1732
ssS'desc'
p1733
S'caching probability: 0.5'
p1734
sS'strategy'
p1735
g11
(tRp1736
S'extra_quota'
p1737
I5
sS'p'
F0.5
sg1724
S'LIRA_DFIB_OPH'
p1738
ssS'content_placement'
p1739
g11
(tRp1740
g1724
S'UNIFORM'
p1741
ssS'joint_cache_rsn_placement'
p1742
g11
(tRp1743
S'network_cache'
p1744
F0.94999999999999996
sS'network_rsn'
p1745
F60.799999999999997
sg1724
S'CACHE_ALL_RSN_ALL'
p1746
sS'rsn_cache_ratio'
p1747
I64
ssS'warmup_strategy'
p1748
g11
(tRp1749
g1737
I10
sS'p'
F0.10000000000000001
sg1724
g1738
sS'fan_out'
p1750
I100
ssS'topology'
p1751
g11
(tRp1752
S'ext_delay'
p1753
I5
sS'source_ratio'
p1754
F0.10000000000000001
sg1724
S'ROCKET_FUEL'
p1755
sS'asn'
p1756
I3257
ssg11
(tRp1757
S'SAT_RATE'
p1758
g11
(tRp1759
S'MEAN_CACHE_HIT'
p1760
F0.50166388888888891
sS'MEAN_SERVER_HIT'
p1761
F0.62537777777777781
sS'MEAN_SERVER_CACHE_HITS'
p1762
F0.12847222222222221
sS'MEAN'
p1763
F0.9985694444444444
ssS'CACHE_HIT_RATIO'
p1764
g11
(tRp1765
S'MEAN_OFF_PATH'
p1766
F0.25474755690290463
sS'MEAN_ON_PATH'
p1767
F0.24691633198598428
sg1763
F0.50166388888888891
ssS'OVERHEAD'
p1768
g11
(tRp1769
S'SUCCESS_RATE'
p1770
F0.46468129315140211
sS'QUOTA_USED_FAILURE'
p1771
F1.3310955953924795
sS'FAILURE_RATE'
p1772
F0.53531870684859784
sS'QUOTA_USED_SUCCESS'
p1773
F4.5876832841120736
sg1763
F1.3038346523498894
sS'NUM_SUCCESS_FIRST_TIME'
p1774
F0.46329738859295827
ssS'LATENCY'
p1775
g11
(tRp1776
g1763
F38.677258333333334
sstp1777
a(g11
(tRp1778
S'workload'
p1779
g11
(tRp1780
S'n_contents'
p1781
I10000
sS'name'
p1782
S'STATIONARY'
p1783
sS'n_warmup'
p1784
I720000
sS'rate'
p1785
I100
sS'n_measured'
p1786
I360000
sS'alpha'
p1787
F0.69999999999999996
ssS'cache_policy'
p1788
g11
(tRp1789
g1782
S'LRU'
p1790
ssS'desc'
p1791
S'caching probability: 0.75'
p1792
sS'strategy'
p1793
g11
(tRp1794
S'extra_quota'
p1795
I1
sS'p'
F0.75
sg1782
S'LIRA_DFIB_OPH'
p1796
ssS'content_placement'
p1797
g11
(tRp1798
g1782
S'UNIFORM'
p1799
ssS'joint_cache_rsn_placement'
p1800
g11
(tRp1801
S'network_cache'
p1802
F0.94999999999999996
sS'network_rsn'
p1803
F60.799999999999997
sg1782
S'CACHE_ALL_RSN_ALL'
p1804
sS'rsn_cache_ratio'
p1805
I64
ssS'warmup_strategy'
p1806
g11
(tRp1807
g1795
I10
sS'p'
F0.10000000000000001
sg1782
g1796
sS'fan_out'
p1808
I100
ssS'topology'
p1809
g11
(tRp1810
S'ext_delay'
p1811
I5
sS'source_ratio'
p1812
F0.10000000000000001
sg1782
S'ROCKET_FUEL'
p1813
sS'asn'
p1814
I3257
ssg11
(tRp1815
S'SAT_RATE'
p1816
g11
(tRp1817
S'MEAN_CACHE_HIT'
p1818
F0.47052500000000003
sS'MEAN_SERVER_HIT'
p1819
F0.58499722222222217
sS'MEAN_SERVER_CACHE_HITS'
p1820
F0.09633333333333334
sS'MEAN'
p1821
F0.95918888888888887
ssS'CACHE_HIT_RATIO'
p1822
g11
(tRp1823
S'MEAN_OFF_PATH'
p1824
F0.27120330115687863
sS'MEAN_ON_PATH'
p1825
F0.1993216988431214
sg1821
F0.47052500000000003
ssS'OVERHEAD'
p1826
g11
(tRp1827
S'SUCCESS_RATE'
p1828
F0.45261541719610332
sS'QUOTA_USED_FAILURE'
p1829
F1.3002931419192363
sS'FAILURE_RATE'
p1830
F0.54738458280389668
sS'QUOTA_USED_SUCCESS'
p1831
F4.5974986487747573
sg1821
F1.26004610376823
sS'NUM_SUCCESS_FIRST_TIME'
p1832
F0.45336264340179983
ssS'LATENCY'
p1833
g11
(tRp1834
g1821
F35.448702777777775
sstp1835
a(g11
(tRp1836
S'workload'
p1837
g11
(tRp1838
S'n_contents'
p1839
I10000
sS'name'
p1840
S'STATIONARY'
p1841
sS'n_warmup'
p1842
I720000
sS'rate'
p1843
I100
sS'n_measured'
p1844
I360000
sS'alpha'
p1845
F0.69999999999999996
ssS'cache_policy'
p1846
g11
(tRp1847
g1840
S'LRU'
p1848
ssS'desc'
p1849
S'caching probability: 0.5'
p1850
sS'strategy'
p1851
g11
(tRp1852
S'extra_quota'
p1853
I1
sS'p'
F0.5
sg1840
S'LIRA_DFIB_OPH'
p1854
ssS'content_placement'
p1855
g11
(tRp1856
g1840
S'UNIFORM'
p1857
ssS'joint_cache_rsn_placement'
p1858
g11
(tRp1859
S'network_cache'
p1860
F0.94999999999999996
sS'network_rsn'
p1861
F60.799999999999997
sg1840
S'CACHE_ALL_RSN_ALL'
p1862
sS'rsn_cache_ratio'
p1863
I64
ssS'warmup_strategy'
p1864
g11
(tRp1865
g1853
I10
sS'p'
F0.10000000000000001
sg1840
g1854
sS'fan_out'
p1866
I100
ssS'topology'
p1867
g11
(tRp1868
S'ext_delay'
p1869
I5
sS'source_ratio'
p1870
F0.10000000000000001
sg1840
S'ROCKET_FUEL'
p1871
sS'asn'
p1872
I3257
ssg11
(tRp1873
S'SAT_RATE'
p1874
g11
(tRp1875
S'MEAN_CACHE_HIT'
p1876
F0.49644444444444447
sS'MEAN_SERVER_HIT'
p1877
F0.56160833333333338
sS'MEAN_SERVER_CACHE_HITS'
p1878
F0.095686111111111111
sS'MEAN'
p1879
F0.9623666666666667
ssS'CACHE_HIT_RATIO'
p1880
g11
(tRp1881
S'MEAN_OFF_PATH'
p1882
F0.25520676084736371
sS'MEAN_ON_PATH'
p1883
F0.24123768359708075
sg1879
F0.49644444444444447
ssS'OVERHEAD'
p1884
g11
(tRp1885
S'SUCCESS_RATE'
p1886
F0.45340026722331073
sS'QUOTA_USED_FAILURE'
p1887
F1.2876691774274849
sS'FAILURE_RATE'
p1888
F0.54659973277668927
sS'QUOTA_USED_SUCCESS'
p1889
F2.9640018047695205
sg1879
F1.2516856591966563
sS'NUM_SUCCESS_FIRST_TIME'
p1890
F0.45364038036691962
ssS'LATENCY'
p1891
g11
(tRp1892
g1879
F34.914144444444446
sstp1893
a(g11
(tRp1894
S'workload'
p1895
g11
(tRp1896
S'n_contents'
p1897
I10000
sS'name'
p1898
S'STATIONARY'
p1899
sS'n_warmup'
p1900
I720000
sS'rate'
p1901
I100
sS'n_measured'
p1902
I360000
sS'alpha'
p1903
F0.69999999999999996
ssS'cache_policy'
p1904
g11
(tRp1905
g1898
S'LRU'
p1906
ssS'desc'
p1907
S'caching probability: 0.75'
p1908
sS'strategy'
p1909
g11
(tRp1910
S'extra_quota'
p1911
I2
sS'p'
F0.75
sg1898
S'LIRA_DFIB_OPH'
p1912
ssS'content_placement'
p1913
g11
(tRp1914
g1898
S'UNIFORM'
p1915
ssS'joint_cache_rsn_placement'
p1916
g11
(tRp1917
S'network_cache'
p1918
F0.94999999999999996
sS'network_rsn'
p1919
F60.799999999999997
sg1898
S'CACHE_ALL_RSN_ALL'
p1920
sS'rsn_cache_ratio'
p1921
I64
ssS'warmup_strategy'
p1922
g11
(tRp1923
g1911
I10
sS'p'
F0.10000000000000001
sg1898
g1912
sS'fan_out'
p1924
I100
ssS'topology'
p1925
g11
(tRp1926
S'ext_delay'
p1927
I5
sS'source_ratio'
p1928
F0.10000000000000001
sg1898
S'ROCKET_FUEL'
p1929
sS'asn'
p1930
I3257
ssg11
(tRp1931
S'SAT_RATE'
p1932
g11
(tRp1933
S'MEAN_CACHE_HIT'
p1934
F0.47444166666666665
sS'MEAN_SERVER_HIT'
p1935
F0.63761666666666672
sS'MEAN_SERVER_CACHE_HITS'
p1936
F0.12041388888888889
sS'MEAN'
p1937
F0.99164444444444444
ssS'CACHE_HIT_RATIO'
p1938
g11
(tRp1939
S'MEAN_OFF_PATH'
p1940
F0.24880539340212468
sS'MEAN_ON_PATH'
p1941
F0.22563627326454197
sg1937
F0.47444166666666665
ssS'OVERHEAD'
p1942
g11
(tRp1943
S'SUCCESS_RATE'
p1944
F0.44133927366005132
sS'QUOTA_USED_FAILURE'
p1945
F1.275169246339277
sS'FAILURE_RATE'
p1946
F0.55866072633994868
sS'QUOTA_USED_SUCCESS'
p1947
F3.1618230317830305
sg1937
F1.2746812253495876
sS'NUM_SUCCESS_FIRST_TIME'
p1948
F0.44113702907999203
ssS'LATENCY'
p1949
g11
(tRp1950
g1937
F37.525952777777775
sstp1951
a(g11
(tRp1952
S'workload'
p1953
g11
(tRp1954
S'n_contents'
p1955
I10000
sS'name'
p1956
S'STATIONARY'
p1957
sS'n_warmup'
p1958
I720000
sS'rate'
p1959
I100
sS'n_measured'
p1960
I360000
sS'alpha'
p1961
F0.69999999999999996
ssS'cache_policy'
p1962
g11
(tRp1963
g1956
S'LRU'
p1964
ssS'desc'
p1965
S'caching probability: 0.5'
p1966
sS'strategy'
p1967
g11
(tRp1968
S'extra_quota'
p1969
I2
sS'p'
F0.5
sg1956
S'LIRA_DFIB_OPH'
p1970
ssS'content_placement'
p1971
g11
(tRp1972
g1956
S'UNIFORM'
p1973
ssS'joint_cache_rsn_placement'
p1974
g11
(tRp1975
S'network_cache'
p1976
F0.94999999999999996
sS'network_rsn'
p1977
F60.799999999999997
sg1956
S'CACHE_ALL_RSN_ALL'
p1978
sS'rsn_cache_ratio'
p1979
I64
ssS'warmup_strategy'
p1980
g11
(tRp1981
g1969
I10
sS'p'
F0.10000000000000001
sg1956
g1970
sS'fan_out'
p1982
I100
ssS'topology'
p1983
g11
(tRp1984
S'ext_delay'
p1985
I5
sS'source_ratio'
p1986
F0.10000000000000001
sg1956
S'ROCKET_FUEL'
p1987
sS'asn'
p1988
I3257
ssg11
(tRp1989
S'SAT_RATE'
p1990
g11
(tRp1991
S'MEAN_CACHE_HIT'
p1992
F0.4979972222222222
sS'MEAN_SERVER_HIT'
p1993
F0.61137222222222221
sS'MEAN_SERVER_CACHE_HITS'
p1994
F0.11818888888888888
sS'MEAN'
p1995
F0.99118055555555551
ssS'CACHE_HIT_RATIO'
p1996
g11
(tRp1997
S'MEAN_OFF_PATH'
p1998
F0.24647384775635808
sS'MEAN_ON_PATH'
p1999
F0.25152337446586415
sg1995
F0.4979972222222222
ssS'OVERHEAD'
p2000
g11
(tRp2001
S'SUCCESS_RATE'
p2002
F0.45104950860672594
sS'QUOTA_USED_FAILURE'
p2003
F1.3341093075157708
sS'FAILURE_RATE'
p2004
F0.54895049139327412
sS'QUOTA_USED_SUCCESS'
p2005
F10.97785034876844
sg1995
F1.2758551110488334
sS'NUM_SUCCESS_FIRST_TIME'
p2006
F0.45115597061670748
ssS'LATENCY'
p2007
g11
(tRp2008
g1995
F36.756711111111109
sstp2009
a(g11
(tRp2010
S'workload'
p2011
g11
(tRp2012
S'n_contents'
p2013
I10000
sS'name'
p2014
S'STATIONARY'
p2015
sS'n_warmup'
p2016
I720000
sS'rate'
p2017
I100
sS'n_measured'
p2018
I360000
sS'alpha'
p2019
F0.69999999999999996
ssS'cache_policy'
p2020
g11
(tRp2021
g2014
S'LRU'
p2022
ssS'desc'
p2023
S'caching probability: 0.5'
p2024
sS'strategy'
p2025
g11
(tRp2026
S'extra_quota'
p2027
I3
sS'p'
F0.5
sg2014
S'LIRA_DFIB_OPH'
p2028
ssS'content_placement'
p2029
g11
(tRp2030
g2014
S'UNIFORM'
p2031
ssS'joint_cache_rsn_placement'
p2032
g11
(tRp2033
S'network_cache'
p2034
F0.94999999999999996
sS'network_rsn'
p2035
F60.799999999999997
sg2014
S'CACHE_ALL_RSN_ALL'
p2036
sS'rsn_cache_ratio'
p2037
I64
ssS'warmup_strategy'
p2038
g11
(tRp2039
g2027
I10
sS'p'
F0.10000000000000001
sg2014
g2028
sS'fan_out'
p2040
I100
ssS'topology'
p2041
g11
(tRp2042
S'ext_delay'
p2043
I5
sS'source_ratio'
p2044
F0.10000000000000001
sg2014
S'ROCKET_FUEL'
p2045
sS'asn'
p2046
I3257
ssg11
(tRp2047
S'SAT_RATE'
p2048
g11
(tRp2049
S'MEAN_CACHE_HIT'
p2050
F0.49719444444444444
sS'MEAN_SERVER_HIT'
p2051
F0.6223805555555556
sS'MEAN_SERVER_CACHE_HITS'
p2052
F0.1229
sS'MEAN'
p2053
F0.99667499999999998
ssS'CACHE_HIT_RATIO'
p2054
g11
(tRp2055
S'MEAN_OFF_PATH'
p2056
F0.23829727054164898
sS'MEAN_ON_PATH'
p2057
F0.25889717390279543
sg2053
F0.49719444444444444
ssS'OVERHEAD'
p2058
g11
(tRp2059
S'SUCCESS_RATE'
p2060
F0.446414549507333
sS'QUOTA_USED_FAILURE'
p2061
F1.3008283535025713
sS'FAILURE_RATE'
p2062
F0.55358545049266694
sS'QUOTA_USED_SUCCESS'
p2063
F2.9808503037108802
sg2053
F1.2780606628149709
sS'NUM_SUCCESS_FIRST_TIME'
p2064
F0.44375520918157169
ssS'LATENCY'
p2065
g11
(tRp2066
g2053
F37.444711111111111
sstp2067
a(g11
(tRp2068
S'workload'
p2069
g11
(tRp2070
S'n_contents'
p2071
I10000
sS'name'
p2072
S'STATIONARY'
p2073
sS'n_warmup'
p2074
I720000
sS'rate'
p2075
I100
sS'n_measured'
p2076
I360000
sS'alpha'
p2077
F0.69999999999999996
ssS'cache_policy'
p2078
g11
(tRp2079
g2072
S'LRU'
p2080
ssS'desc'
p2081
S'caching probability: 0.75'
p2082
sS'strategy'
p2083
g11
(tRp2084
S'extra_quota'
p2085
I5
sS'p'
F0.75
sg2072
S'LIRA_DFIB_OPH'
p2086
ssS'content_placement'
p2087
g11
(tRp2088
g2072
S'UNIFORM'
p2089
ssS'joint_cache_rsn_placement'
p2090
g11
(tRp2091
S'network_cache'
p2092
F0.94999999999999996
sS'network_rsn'
p2093
F60.799999999999997
sg2072
S'CACHE_ALL_RSN_ALL'
p2094
sS'rsn_cache_ratio'
p2095
I64
ssS'warmup_strategy'
p2096
g11
(tRp2097
g2085
I10
sS'p'
F0.10000000000000001
sg2072
g2086
sS'fan_out'
p2098
I100
ssS'topology'
p2099
g11
(tRp2100
S'ext_delay'
p2101
I5
sS'source_ratio'
p2102
F0.10000000000000001
sg2072
S'ROCKET_FUEL'
p2103
sS'asn'
p2104
I3257
ssg11
(tRp2105
S'SAT_RATE'
p2106
g11
(tRp2107
S'MEAN_CACHE_HIT'
p2108
F0.47612777777777776
sS'MEAN_SERVER_HIT'
p2109
F0.65195833333333331
sS'MEAN_SERVER_CACHE_HITS'
p2110
F0.12896388888888888
sS'MEAN'
p2111
F0.99912222222222224
ssS'CACHE_HIT_RATIO'
p2112
g11
(tRp2113
S'MEAN_OFF_PATH'
p2114
F0.26332702143010162
sS'MEAN_ON_PATH'
p2115
F0.21280075634767615
sg2111
F0.47612777777777776
ssS'OVERHEAD'
p2116
g11
(tRp2117
S'SUCCESS_RATE'
p2118
F0.46250048944751165
sS'QUOTA_USED_FAILURE'
p2119
F1.2946962387650325
sS'FAILURE_RATE'
p2120
F0.53749951055248835
sS'QUOTA_USED_SUCCESS'
p2121
F8.3665493401739273
sg2111
F1.3190272572591497
sS'NUM_SUCCESS_FIRST_TIME'
p2122
F0.46003363803864361
ssS'LATENCY'
p2123
g11
(tRp2124
g2111
F39.146949999999997
sstp2125
a(g11
(tRp2126
S'workload'
p2127
g11
(tRp2128
S'n_contents'
p2129
I10000
sS'name'
p2130
S'STATIONARY'
p2131
sS'n_warmup'
p2132
I720000
sS'rate'
p2133
I100
sS'n_measured'
p2134
I360000
sS'alpha'
p2135
F0.69999999999999996
ssS'cache_policy'
p2136
g11
(tRp2137
g2130
S'LRU'
p2138
ssS'desc'
p2139
S'caching probability: 0.75'
p2140
sS'strategy'
p2141
g11
(tRp2142
S'extra_quota'
p2143
I4
sS'p'
F0.75
sg2130
S'LIRA_DFIB_OPH'
p2144
ssS'content_placement'
p2145
g11
(tRp2146
g2130
S'UNIFORM'
p2147
ssS'joint_cache_rsn_placement'
p2148
g11
(tRp2149
S'network_cache'
p2150
F0.94999999999999996
sS'network_rsn'
p2151
F60.799999999999997
sg2130
S'CACHE_ALL_RSN_ALL'
p2152
sS'rsn_cache_ratio'
p2153
I64
ssS'warmup_strategy'
p2154
g11
(tRp2155
g2143
I10
sS'p'
F0.10000000000000001
sg2130
g2144
sS'fan_out'
p2156
I100
ssS'topology'
p2157
g11
(tRp2158
S'ext_delay'
p2159
I5
sS'source_ratio'
p2160
F0.10000000000000001
sg2130
S'ROCKET_FUEL'
p2161
sS'asn'
p2162
I3257
ssg11
(tRp2163
S'SAT_RATE'
p2164
g11
(tRp2165
S'MEAN_CACHE_HIT'
p2166
F0.47711388888888889
sS'MEAN_SERVER_HIT'
p2167
F0.64927222222222225
sS'MEAN_SERVER_CACHE_HITS'
p2168
F0.12813888888888889
sS'MEAN'
p2169
F0.99824722222222217
ssS'CACHE_HIT_RATIO'
p2170
g11
(tRp2171
S'MEAN_OFF_PATH'
p2172
F0.24581318326309065
sS'MEAN_ON_PATH'
p2173
F0.23130070562579824
sg2169
F0.47711388888888889
ssS'OVERHEAD'
p2174
g11
(tRp2175
S'SUCCESS_RATE'
p2176
F0.44379797129713172
sS'QUOTA_USED_FAILURE'
p2177
F1.2892013447238668
sS'FAILURE_RATE'
p2178
F0.55620202870286828
sS'QUOTA_USED_SUCCESS'
p2179
F3.421379973049453
sg2169
F1.2899387537600628
sS'NUM_SUCCESS_FIRST_TIME'
p2180
F0.4409927580659288
ssS'LATENCY'
p2181
g11
(tRp2182
g2169
F38.8247
sstp2183
a(g11
(tRp2184
S'workload'
p2185
g11
(tRp2186
S'n_contents'
p2187
I10000
sS'name'
p2188
S'STATIONARY'
p2189
sS'n_warmup'
p2190
I720000
sS'rate'
p2191
I100
sS'n_measured'
p2192
I360000
sS'alpha'
p2193
F0.69999999999999996
ssS'cache_policy'
p2194
g11
(tRp2195
g2188
S'LRU'
p2196
ssS'desc'
p2197
S'caching probability: 1.0'
p2198
sS'strategy'
p2199
g11
(tRp2200
S'extra_quota'
p2201
I2
sS'p'
F1
sg2188
S'LIRA_DFIB_OPH'
p2202
ssS'content_placement'
p2203
g11
(tRp2204
g2188
S'UNIFORM'
p2205
ssS'joint_cache_rsn_placement'
p2206
g11
(tRp2207
S'network_cache'
p2208
F0.94999999999999996
sS'network_rsn'
p2209
F60.799999999999997
sg2188
S'CACHE_ALL_RSN_ALL'
p2210
sS'rsn_cache_ratio'
p2211
I64
ssS'warmup_strategy'
p2212
g11
(tRp2213
g2201
I10
sS'p'
F0.10000000000000001
sg2188
g2202
sS'fan_out'
p2214
I100
ssS'topology'
p2215
g11
(tRp2216
S'ext_delay'
p2217
I5
sS'source_ratio'
p2218
F0.10000000000000001
sg2188
S'ROCKET_FUEL'
p2219
sS'asn'
p2220
I3257
ssg11
(tRp2221
S'SAT_RATE'
p2222
g11
(tRp2223
S'MEAN_CACHE_HIT'
p2224
F0.45509166666666667
sS'MEAN_SERVER_HIT'
p2225
F0.65703333333333336
sS'MEAN_SERVER_CACHE_HITS'
p2226
F0.12141944444444444
sS'MEAN'
p2227
F0.99070555555555551
ssS'CACHE_HIT_RATIO'
p2228
g11
(tRp2229
S'MEAN_OFF_PATH'
p2230
F0.25421303060956879
sS'MEAN_ON_PATH'
p2231
F0.20087863605709788
sg2227
F0.45509166666666667
ssS'OVERHEAD'
p2232
g11
(tRp2233
S'SUCCESS_RATE'
p2234
F0.43983253776958581
sS'QUOTA_USED_FAILURE'
p2235
F1.2694636172638918
sS'FAILURE_RATE'
p2236
F0.56016746223041414
sS'QUOTA_USED_SUCCESS'
p2237
F3.4187801727323963
sg2227
F1.2698357511762099
sS'NUM_SUCCESS_FIRST_TIME'
p2238
F0.43738667576252627
ssS'LATENCY'
p2239
g11
(tRp2240
g2227
F38.001522222222221
sstp2241
a(g11
(tRp2242
S'workload'
p2243
g11
(tRp2244
S'n_contents'
p2245
I10000
sS'name'
p2246
S'STATIONARY'
p2247
sS'n_warmup'
p2248
I720000
sS'rate'
p2249
I100
sS'n_measured'
p2250
I360000
sS'alpha'
p2251
F0.69999999999999996
ssS'cache_policy'
p2252
g11
(tRp2253
g2246
S'LRU'
p2254
ssS'desc'
p2255
S'caching probability: 0.75'
p2256
sS'strategy'
p2257
g11
(tRp2258
S'extra_quota'
p2259
I3
sS'p'
F0.75
sg2246
S'LIRA_DFIB_OPH'
p2260
ssS'content_placement'
p2261
g11
(tRp2262
g2246
S'UNIFORM'
p2263
ssS'joint_cache_rsn_placement'
p2264
g11
(tRp2265
S'network_cache'
p2266
F0.94999999999999996
sS'network_rsn'
p2267
F60.799999999999997
sg2246
S'CACHE_ALL_RSN_ALL'
p2268
sS'rsn_cache_ratio'
p2269
I64
ssS'warmup_strategy'
p2270
g11
(tRp2271
g2259
I10
sS'p'
F0.10000000000000001
sg2246
g2260
sS'fan_out'
p2272
I100
ssS'topology'
p2273
g11
(tRp2274
S'ext_delay'
p2275
I5
sS'source_ratio'
p2276
F0.10000000000000001
sg2246
S'ROCKET_FUEL'
p2277
sS'asn'
p2278
I3257
ssg11
(tRp2279
S'SAT_RATE'
p2280
g11
(tRp2281
S'MEAN_CACHE_HIT'
p2282
F0.47485833333333333
sS'MEAN_SERVER_HIT'
p2283
F0.64870000000000005
sS'MEAN_SERVER_CACHE_HITS'
p2284
F0.12688888888888888
sS'MEAN'
p2285
F0.9966694444444445
ssS'CACHE_HIT_RATIO'
p2286
g11
(tRp2287
S'MEAN_OFF_PATH'
p2288
F0.25089435597716581
sS'MEAN_ON_PATH'
p2289
F0.22396397735616752
sg2285
F0.47485833333333333
ssS'OVERHEAD'
p2290
g11
(tRp2291
S'SUCCESS_RATE'
p2292
F0.45152701142050561
sS'QUOTA_USED_FAILURE'
p2293
F1.2934999549351267
sS'FAILURE_RATE'
p2294
F0.54847298857949445
sS'QUOTA_USED_SUCCESS'
p2295
F4.0360923863368026
sg2285
F1.2911000805460409
sS'NUM_SUCCESS_FIRST_TIME'
p2296
F0.4496325256958289
ssS'LATENCY'
p2297
g11
(tRp2298
g2285
F39.237650000000002
sstp2299
a(g11
(tRp2300
S'workload'
p2301
g11
(tRp2302
S'n_contents'
p2303
I10000
sS'name'
p2304
S'STATIONARY'
p2305
sS'n_warmup'
p2306
I720000
sS'rate'
p2307
I100
sS'n_measured'
p2308
I360000
sS'alpha'
p2309
F0.69999999999999996
ssS'cache_policy'
p2310
g11
(tRp2311
g2304
S'LRU'
p2312
ssS'desc'
p2313
S'caching probability: 1.0'
p2314
sS'strategy'
p2315
g11
(tRp2316
S'extra_quota'
p2317
I1
sS'p'
F1
sg2304
S'LIRA_DFIB_OPH'
p2318
ssS'content_placement'
p2319
g11
(tRp2320
g2304
S'UNIFORM'
p2321
ssS'joint_cache_rsn_placement'
p2322
g11
(tRp2323
S'network_cache'
p2324
F0.94999999999999996
sS'network_rsn'
p2325
F60.799999999999997
sg2304
S'CACHE_ALL_RSN_ALL'
p2326
sS'rsn_cache_ratio'
p2327
I64
ssS'warmup_strategy'
p2328
g11
(tRp2329
g2317
I10
sS'p'
F0.10000000000000001
sg2304
g2318
sS'fan_out'
p2330
I100
ssS'topology'
p2331
g11
(tRp2332
S'ext_delay'
p2333
I5
sS'source_ratio'
p2334
F0.10000000000000001
sg2304
S'ROCKET_FUEL'
p2335
sS'asn'
p2336
I3257
ssg11
(tRp2337
S'SAT_RATE'
p2338
g11
(tRp2339
S'MEAN_CACHE_HIT'
p2340
F0.45392222222222223
sS'MEAN_SERVER_HIT'
p2341
F0.60283611111111113
sS'MEAN_SERVER_CACHE_HITS'
p2342
F0.099386111111111106
sS'MEAN'
p2343
F0.95737222222222218
ssS'CACHE_HIT_RATIO'
p2344
g11
(tRp2345
S'MEAN_OFF_PATH'
p2346
F0.240176325397639
sS'MEAN_ON_PATH'
p2347
F0.21374589682458323
sg2343
F0.45392222222222223
ssS'OVERHEAD'
p2348
g11
(tRp2349
S'SUCCESS_RATE'
p2350
F0.42178691750892289
sS'QUOTA_USED_FAILURE'
p2351
F1.2700496953255889
sS'FAILURE_RATE'
p2352
F0.57821308249107706
sS'QUOTA_USED_SUCCESS'
p2353
F3.0148790175339495
sg2343
F1.2272394923604542
sS'NUM_SUCCESS_FIRST_TIME'
p2354
F0.416990135004639
ssS'LATENCY'
p2355
g11
(tRp2356
g2343
F35.726627777777779
sstp2357
a(g11
(tRp2358
S'workload'
p2359
g11
(tRp2360
S'n_contents'
p2361
I10000
sS'name'
p2362
S'STATIONARY'
p2363
sS'n_warmup'
p2364
I720000
sS'rate'
p2365
I100
sS'n_measured'
p2366
I360000
sS'alpha'
p2367
F0.69999999999999996
ssS'cache_policy'
p2368
g11
(tRp2369
g2362
S'LRU'
p2370
ssS'desc'
p2371
S'caching probability: 1.0'
p2372
sS'strategy'
p2373
g11
(tRp2374
S'extra_quota'
p2375
I5
sS'p'
F1
sg2362
S'LIRA_DFIB_OPH'
p2376
ssS'content_placement'
p2377
g11
(tRp2378
g2362
S'UNIFORM'
p2379
ssS'joint_cache_rsn_placement'
p2380
g11
(tRp2381
S'network_cache'
p2382
F0.94999999999999996
sS'network_rsn'
p2383
F60.799999999999997
sg2362
S'CACHE_ALL_RSN_ALL'
p2384
sS'rsn_cache_ratio'
p2385
I64
ssS'warmup_strategy'
p2386
g11
(tRp2387
g2375
I10
sS'p'
F0.10000000000000001
sg2362
g2376
sS'fan_out'
p2388
I100
ssS'topology'
p2389
g11
(tRp2390
S'ext_delay'
p2391
I5
sS'source_ratio'
p2392
F0.10000000000000001
sg2362
S'ROCKET_FUEL'
p2393
sS'asn'
p2394
I3257
ssg11
(tRp2395
S'SAT_RATE'
p2396
g11
(tRp2397
S'MEAN_CACHE_HIT'
p2398
F0.45755555555555555
sS'MEAN_SERVER_HIT'
p2399
F0.67030833333333328
sS'MEAN_SERVER_CACHE_HITS'
p2400
F0.1290138888888889
sS'MEAN'
p2401
F0.99885000000000002
ssS'CACHE_HIT_RATIO'
p2402
g11
(tRp2403
S'MEAN_OFF_PATH'
p2404
F0.24128453246180712
sS'MEAN_ON_PATH'
p2405
F0.21627102309374843
sg2401
F0.45755555555555555
ssS'OVERHEAD'
p2406
g11
(tRp2407
S'SUCCESS_RATE'
p2408
F0.43502385086721351
sS'QUOTA_USED_FAILURE'
p2409
F1.2797843432303835
sS'FAILURE_RATE'
p2410
F0.56497614913278649
sS'QUOTA_USED_SUCCESS'
p2411
F4.1742284299548578
sg2401
F1.2898583370876509
sS'NUM_SUCCESS_FIRST_TIME'
p2412
F0.42906309224987266
ssS'LATENCY'
p2413
g11
(tRp2414
g2401
F39.272261111111114
sstp2415
a(g11
(tRp2416
S'workload'
p2417
g11
(tRp2418
S'n_contents'
p2419
I10000
sS'name'
p2420
S'STATIONARY'
p2421
sS'n_warmup'
p2422
I720000
sS'rate'
p2423
I100
sS'n_measured'
p2424
I360000
sS'alpha'
p2425
F0.69999999999999996
ssS'cache_policy'
p2426
g11
(tRp2427
g2420
S'LRU'
p2428
ssS'desc'
p2429
S'caching probability: 0.25'
p2430
sS'strategy'
p2431
g11
(tRp2432
S'extra_quota'
p2433
I1
sS'p'
F0.25
sg2420
S'LIRA_DFIB_SC'
p2434
ssS'content_placement'
p2435
g11
(tRp2436
g2420
S'UNIFORM'
p2437
ssS'joint_cache_rsn_placement'
p2438
g11
(tRp2439
S'network_cache'
p2440
F0.94999999999999996
sS'network_rsn'
p2441
F60.799999999999997
sg2420
S'CACHE_ALL_RSN_ALL'
p2442
sS'rsn_cache_ratio'
p2443
I64
ssS'warmup_strategy'
p2444
g11
(tRp2445
g2433
I10
sS'p'
F0.10000000000000001
sg2420
g2434
sS'fan_out'
p2446
I100
ssS'topology'
p2447
g11
(tRp2448
S'ext_delay'
p2449
I5
sS'source_ratio'
p2450
F0.10000000000000001
sg2420
S'ROCKET_FUEL'
p2451
sS'asn'
p2452
I3257
ssg11
(tRp2453
S'SAT_RATE'
p2454
g11
(tRp2455
S'MEAN_CACHE_HIT'
p2456
F0.52377499999999999
sS'MEAN_SERVER_HIT'
p2457
F0.5546861111111111
sS'MEAN_SERVER_CACHE_HITS'
p2458
F0.10188611111111111
sS'MEAN'
p2459
F0.97657499999999997
ssS'CACHE_HIT_RATIO'
p2460
g11
(tRp2461
S'MEAN_OFF_PATH'
p2462
F0.22939579544927702
sS'MEAN_ON_PATH'
p2463
F0.29437920455072297
sg2459
F0.52377499999999999
ssS'OVERHEAD'
p2464
g11
(tRp2465
S'SUCCESS_RATE'
p2466
F0.43732530250843055
sS'QUOTA_USED_FAILURE'
p2467
F1
sS'FAILURE_RATE'
p2468
F0.5626746974915694
sS'QUOTA_USED_SUCCESS'
p2469
F1
sg2459
F1.2580759855162742
sS'NUM_SUCCESS_FIRST_TIME'
p2470
F0.43715988204177181
ssS'LATENCY'
p2471
g11
(tRp2472
g2459
F35.075230555555557
sstp2473
a(g11
(tRp2474
S'workload'
p2475
g11
(tRp2476
S'n_contents'
p2477
I10000
sS'name'
p2478
S'STATIONARY'
p2479
sS'n_warmup'
p2480
I720000
sS'rate'
p2481
I100
sS'n_measured'
p2482
I360000
sS'alpha'
p2483
F0.69999999999999996
ssS'cache_policy'
p2484
g11
(tRp2485
g2478
S'LRU'
p2486
ssS'desc'
p2487
S'caching probability: 0.25'
p2488
sS'strategy'
p2489
g11
(tRp2490
S'extra_quota'
p2491
I2
sS'p'
F0.25
sg2478
S'LIRA_DFIB_SC'
p2492
ssS'content_placement'
p2493
g11
(tRp2494
g2478
S'UNIFORM'
p2495
ssS'joint_cache_rsn_placement'
p2496
g11
(tRp2497
S'network_cache'
p2498
F0.94999999999999996
sS'network_rsn'
p2499
F60.799999999999997
sg2478
S'CACHE_ALL_RSN_ALL'
p2500
sS'rsn_cache_ratio'
p2501
I64
ssS'warmup_strategy'
p2502
g11
(tRp2503
g2491
I10
sS'p'
F0.10000000000000001
sg2478
g2492
sS'fan_out'
p2504
I100
ssS'topology'
p2505
g11
(tRp2506
S'ext_delay'
p2507
I5
sS'source_ratio'
p2508
F0.10000000000000001
sg2478
S'ROCKET_FUEL'
p2509
sS'asn'
p2510
I3257
ssg11
(tRp2511
S'SAT_RATE'
p2512
g11
(tRp2513
S'MEAN_CACHE_HIT'
p2514
F0.52531111111111106
sS'MEAN_SERVER_HIT'
p2515
F0.59236111111111112
sS'MEAN_SERVER_CACHE_HITS'
p2516
F0.11890555555555556
sS'MEAN'
p2517
F0.99876666666666669
ssS'CACHE_HIT_RATIO'
p2518
g11
(tRp2519
S'MEAN_OFF_PATH'
p2520
F0.22038363463746577
sS'MEAN_ON_PATH'
p2521
F0.30492747647364526
sg2517
F0.52531111111111106
ssS'OVERHEAD'
p2522
g11
(tRp2523
S'SUCCESS_RATE'
p2524
F0.4368296176918256
sS'QUOTA_USED_FAILURE'
p2525
F1
sS'FAILURE_RATE'
p2526
F0.5631703823081744
sS'QUOTA_USED_SUCCESS'
p2527
F1
sg2517
F1.2700886649089433
sS'NUM_SUCCESS_FIRST_TIME'
p2528
F0.43520220588235292
ssS'LATENCY'
p2529
g11
(tRp2530
g2517
F36.24755833333333
sstp2531
a(g11
(tRp2532
S'workload'
p2533
g11
(tRp2534
S'n_contents'
p2535
I10000
sS'name'
p2536
S'STATIONARY'
p2537
sS'n_warmup'
p2538
I720000
sS'rate'
p2539
I100
sS'n_measured'
p2540
I360000
sS'alpha'
p2541
F0.69999999999999996
ssS'cache_policy'
p2542
g11
(tRp2543
g2536
S'LRU'
p2544
ssS'desc'
p2545
S'caching probability: 1.0'
p2546
sS'strategy'
p2547
g11
(tRp2548
S'extra_quota'
p2549
I4
sS'p'
F1
sg2536
S'LIRA_DFIB_OPH'
p2550
ssS'content_placement'
p2551
g11
(tRp2552
g2536
S'UNIFORM'
p2553
ssS'joint_cache_rsn_placement'
p2554
g11
(tRp2555
S'network_cache'
p2556
F0.94999999999999996
sS'network_rsn'
p2557
F60.799999999999997
sg2536
S'CACHE_ALL_RSN_ALL'
p2558
sS'rsn_cache_ratio'
p2559
I64
ssS'warmup_strategy'
p2560
g11
(tRp2561
g2549
I10
sS'p'
F0.10000000000000001
sg2536
g2550
sS'fan_out'
p2562
I100
ssS'topology'
p2563
g11
(tRp2564
S'ext_delay'
p2565
I5
sS'source_ratio'
p2566
F0.10000000000000001
sg2536
S'ROCKET_FUEL'
p2567
sS'asn'
p2568
I3257
ssg11
(tRp2569
S'SAT_RATE'
p2570
g11
(tRp2571
S'MEAN_CACHE_HIT'
p2572
F0.45663333333333334
sS'MEAN_SERVER_HIT'
p2573
F0.67215000000000003
sS'MEAN_SERVER_CACHE_HITS'
p2574
F0.13059722222222223
sS'MEAN'
p2575
F0.99818611111111111
ssS'CACHE_HIT_RATIO'
p2576
g11
(tRp2577
S'MEAN_OFF_PATH'
p2578
F0.24536250928974659
sS'MEAN_ON_PATH'
p2579
F0.21127082404358674
sg2575
F0.45663333333333334
ssS'OVERHEAD'
p2580
g11
(tRp2581
S'SUCCESS_RATE'
p2582
F0.43535201901750836
sS'QUOTA_USED_FAILURE'
p2583
F1.2727652915028704
sS'FAILURE_RATE'
p2584
F0.56464798098249158
sS'QUOTA_USED_SUCCESS'
p2585
F3.6834447384075446
sg2575
F1.2884621271361665
sS'NUM_SUCCESS_FIRST_TIME'
p2586
F0.43331498473730423
ssS'LATENCY'
p2587
g11
(tRp2588
g2575
F38.708827777777778
sstp2589
a(g11
(tRp2590
S'workload'
p2591
g11
(tRp2592
S'n_contents'
p2593
I10000
sS'name'
p2594
S'STATIONARY'
p2595
sS'n_warmup'
p2596
I720000
sS'rate'
p2597
I100
sS'n_measured'
p2598
I360000
sS'alpha'
p2599
F0.69999999999999996
ssS'cache_policy'
p2600
g11
(tRp2601
g2594
S'LRU'
p2602
ssS'desc'
p2603
S'caching probability: 1.0'
p2604
sS'strategy'
p2605
g11
(tRp2606
S'extra_quota'
p2607
I3
sS'p'
F1
sg2594
S'LIRA_DFIB_OPH'
p2608
ssS'content_placement'
p2609
g11
(tRp2610
g2594
S'UNIFORM'
p2611
ssS'joint_cache_rsn_placement'
p2612
g11
(tRp2613
S'network_cache'
p2614
F0.94999999999999996
sS'network_rsn'
p2615
F60.799999999999997
sg2594
S'CACHE_ALL_RSN_ALL'
p2616
sS'rsn_cache_ratio'
p2617
I64
ssS'warmup_strategy'
p2618
g11
(tRp2619
g2607
I10
sS'p'
F0.10000000000000001
sg2594
g2608
sS'fan_out'
p2620
I100
ssS'topology'
p2621
g11
(tRp2622
S'ext_delay'
p2623
I5
sS'source_ratio'
p2624
F0.10000000000000001
sg2594
S'ROCKET_FUEL'
p2625
sS'asn'
p2626
I3257
ssg11
(tRp2627
S'SAT_RATE'
p2628
g11
(tRp2629
S'MEAN_CACHE_HIT'
p2630
F0.45430277777777778
sS'MEAN_SERVER_HIT'
p2631
F0.66922777777777775
sS'MEAN_SERVER_CACHE_HITS'
p2632
F0.12663888888888888
sS'MEAN'
p2633
F0.99689166666666662
ssS'CACHE_HIT_RATIO'
p2634
g11
(tRp2635
S'MEAN_OFF_PATH'
p2636
F0.24132261645457895
sS'MEAN_ON_PATH'
p2637
F0.21298016132319883
sg2633
F0.45430277777777778
ssS'OVERHEAD'
p2638
g11
(tRp2639
S'SUCCESS_RATE'
p2640
F0.4292375677350983
sS'QUOTA_USED_FAILURE'
p2641
F1.2624843658280822
sS'FAILURE_RATE'
p2642
F0.57076243226490175
sS'QUOTA_USED_SUCCESS'
p2643
F3.5017413056479785
sg2633
F1.2800789119513154
sS'NUM_SUCCESS_FIRST_TIME'
p2644
F0.4258188207516953
ssS'LATENCY'
p2645
g11
(tRp2646
g2633
F39.429877777777776
sstp2647
a(g11
(tRp2648
S'workload'
p2649
g11
(tRp2650
S'n_contents'
p2651
I10000
sS'name'
p2652
S'STATIONARY'
p2653
sS'n_warmup'
p2654
I720000
sS'rate'
p2655
I100
sS'n_measured'
p2656
I360000
sS'alpha'
p2657
F0.69999999999999996
ssS'cache_policy'
p2658
g11
(tRp2659
g2652
S'LRU'
p2660
ssS'desc'
p2661
S'caching probability: 0.25'
p2662
sS'strategy'
p2663
g11
(tRp2664
S'p'
F0.25
sg2652
S'LIRA_BC'
p2665
ssS'content_placement'
p2666
g11
(tRp2667
g2652
S'UNIFORM'
p2668
ssS'joint_cache_rsn_placement'
p2669
g11
(tRp2670
S'network_cache'
p2671
F0.94999999999999996
sS'network_rsn'
p2672
F60.799999999999997
sg2652
S'CACHE_ALL_RSN_ALL'
p2673
sS'rsn_cache_ratio'
p2674
I64
ssS'warmup_strategy'
p2675
g11
(tRp2676
S'p'
F0.10000000000000001
sg2652
g2665
ssS'topology'
p2677
g11
(tRp2678
S'ext_delay'
p2679
I5
sS'source_ratio'
p2680
F0.10000000000000001
sg2652
S'ROCKET_FUEL'
p2681
sS'asn'
p2682
I3257
ssg11
(tRp2683
S'SAT_RATE'
p2684
g11
(tRp2685
S'MEAN_CACHE_HIT'
p2686
F0.62735833333333335
sS'MEAN_SERVER_HIT'
p2687
F0.37264166666666665
sS'MEAN_SERVER_CACHE_HITS'
p2688
F0
sS'MEAN'
p2689
F1
ssS'CACHE_HIT_RATIO'
p2690
g11
(tRp2691
S'MEAN_OFF_PATH'
p2692
F0.41591666666666666
sS'MEAN_ON_PATH'
p2693
F0.21144166666666669
sg2689
F0.62735833333333335
ssS'OVERHEAD'
p2694
g11
(tRp2695
S'SUCCESS_RATE'
p2696
F0.41640833333333332
sS'QUOTA_USED_FAILURE'
p2697
F0
sS'FAILURE_RATE'
p2698
F0.58359166666666662
sS'QUOTA_USED_SUCCESS'
p2699
F0
sg2689
F1
sS'NUM_SUCCESS_FIRST_TIME'
p2700
F0.41640833333333332
ssS'LATENCY'
p2701
g11
(tRp2702
g2689
F63.795248750854348
sstp2703
a(g11
(tRp2704
S'workload'
p2705
g11
(tRp2706
S'n_contents'
p2707
I10000
sS'name'
p2708
S'STATIONARY'
p2709
sS'n_warmup'
p2710
I720000
sS'rate'
p2711
I100
sS'n_measured'
p2712
I360000
sS'alpha'
p2713
F0.69999999999999996
ssS'cache_policy'
p2714
g11
(tRp2715
g2708
S'LRU'
p2716
ssS'desc'
p2717
S'caching probability: 0.5'
p2718
sS'strategy'
p2719
g11
(tRp2720
S'p'
F0.5
sg2708
S'LIRA_BC'
p2721
ssS'content_placement'
p2722
g11
(tRp2723
g2708
S'UNIFORM'
p2724
ssS'joint_cache_rsn_placement'
p2725
g11
(tRp2726
S'network_cache'
p2727
F0.94999999999999996
sS'network_rsn'
p2728
F60.799999999999997
sg2708
S'CACHE_ALL_RSN_ALL'
p2729
sS'rsn_cache_ratio'
p2730
I64
ssS'warmup_strategy'
p2731
g11
(tRp2732
S'p'
F0.10000000000000001
sg2708
g2721
ssS'topology'
p2733
g11
(tRp2734
S'ext_delay'
p2735
I5
sS'source_ratio'
p2736
F0.10000000000000001
sg2708
S'ROCKET_FUEL'
p2737
sS'asn'
p2738
I3257
ssg11
(tRp2739
S'SAT_RATE'
p2740
g11
(tRp2741
S'MEAN_CACHE_HIT'
p2742
F0.60490277777777779
sS'MEAN_SERVER_HIT'
p2743
F0.39509722222222221
sS'MEAN_SERVER_CACHE_HITS'
p2744
F0
sS'MEAN'
p2745
F1
ssS'CACHE_HIT_RATIO'
p2746
g11
(tRp2747
S'MEAN_OFF_PATH'
p2748
F0.42677777777777776
sS'MEAN_ON_PATH'
p2749
F0.17812500000000003
sg2745
F0.60490277777777779
ssS'OVERHEAD'
p2750
g11
(tRp2751
S'SUCCESS_RATE'
p2752
F0.42736944444444447
sS'QUOTA_USED_FAILURE'
p2753
F0
sS'FAILURE_RATE'
p2754
F0.57263055555555553
sS'QUOTA_USED_SUCCESS'
p2755
F0
sg2745
F1
sS'NUM_SUCCESS_FIRST_TIME'
p2756
F0.42736944444444447
ssS'LATENCY'
p2757
g11
(tRp2758
g2745
F65.377659430953386
sstp2759
a(g11
(tRp2760
S'workload'
p2761
g11
(tRp2762
S'n_contents'
p2763
I10000
sS'name'
p2764
S'STATIONARY'
p2765
sS'n_warmup'
p2766
I720000
sS'rate'
p2767
I100
sS'n_measured'
p2768
I360000
sS'alpha'
p2769
F0.69999999999999996
ssS'cache_policy'
p2770
g11
(tRp2771
g2764
S'LRU'
p2772
ssS'desc'
p2773
S'caching probability: 0.75'
p2774
sS'strategy'
p2775
g11
(tRp2776
S'p'
F0.75
sg2764
S'LIRA_BC'
p2777
ssS'content_placement'
p2778
g11
(tRp2779
g2764
S'UNIFORM'
p2780
ssS'joint_cache_rsn_placement'
p2781
g11
(tRp2782
S'network_cache'
p2783
F0.94999999999999996
sS'network_rsn'
p2784
F60.799999999999997
sg2764
S'CACHE_ALL_RSN_ALL'
p2785
sS'rsn_cache_ratio'
p2786
I64
ssS'warmup_strategy'
p2787
g11
(tRp2788
S'p'
F0.10000000000000001
sg2764
g2777
ssS'topology'
p2789
g11
(tRp2790
S'ext_delay'
p2791
I5
sS'source_ratio'
p2792
F0.10000000000000001
sg2764
S'ROCKET_FUEL'
p2793
sS'asn'
p2794
I3257
ssg11
(tRp2795
S'SAT_RATE'
p2796
g11
(tRp2797
S'MEAN_CACHE_HIT'
p2798
F0.58530555555555552
sS'MEAN_SERVER_HIT'
p2799
F0.41469444444444442
sS'MEAN_SERVER_CACHE_HITS'
p2800
F0
sS'MEAN'
p2801
F1
ssS'CACHE_HIT_RATIO'
p2802
g11
(tRp2803
S'MEAN_OFF_PATH'
p2804
F0.43311666666666665
sS'MEAN_ON_PATH'
p2805
F0.15218888888888887
sg2801
F0.58530555555555552
ssS'OVERHEAD'
p2806
g11
(tRp2807
S'SUCCESS_RATE'
p2808
F0.43366944444444444
sS'QUOTA_USED_FAILURE'
p2809
F0
sS'FAILURE_RATE'
p2810
F0.56633055555555556
sS'QUOTA_USED_SUCCESS'
p2811
F0
sg2801
F1
sS'NUM_SUCCESS_FIRST_TIME'
p2812
F0.43366944444444444
ssS'LATENCY'
p2813
g11
(tRp2814
g2801
F66.257035677935306
sstp2815
a(g11
(tRp2816
S'workload'
p2817
g11
(tRp2818
S'n_contents'
p2819
I10000
sS'name'
p2820
S'STATIONARY'
p2821
sS'n_warmup'
p2822
I720000
sS'rate'
p2823
I100
sS'n_measured'
p2824
I360000
sS'alpha'
p2825
F0.69999999999999996
ssS'cache_policy'
p2826
g11
(tRp2827
g2820
S'LRU'
p2828
ssS'desc'
p2829
S'caching probability: 1.0'
p2830
sS'strategy'
p2831
g11
(tRp2832
S'p'
F1
sg2820
S'LIRA_BC'
p2833
ssS'content_placement'
p2834
g11
(tRp2835
g2820
S'UNIFORM'
p2836
ssS'joint_cache_rsn_placement'
p2837
g11
(tRp2838
S'network_cache'
p2839
F0.94999999999999996
sS'network_rsn'
p2840
F60.799999999999997
sg2820
S'CACHE_ALL_RSN_ALL'
p2841
sS'rsn_cache_ratio'
p2842
I64
ssS'warmup_strategy'
p2843
g11
(tRp2844
S'p'
F0.10000000000000001
sg2820
g2833
ssS'topology'
p2845
g11
(tRp2846
S'ext_delay'
p2847
I5
sS'source_ratio'
p2848
F0.10000000000000001
sg2820
S'ROCKET_FUEL'
p2849
sS'asn'
p2850
I3257
ssg11
(tRp2851
S'SAT_RATE'
p2852
g11
(tRp2853
S'MEAN_CACHE_HIT'
p2854
F0.56929444444444444
sS'MEAN_SERVER_HIT'
p2855
F0.43070555555555556
sS'MEAN_SERVER_CACHE_HITS'
p2856
F0
sS'MEAN'
p2857
F1
ssS'CACHE_HIT_RATIO'
p2858
g11
(tRp2859
S'MEAN_OFF_PATH'
p2860
F0.43277222222222222
sS'MEAN_ON_PATH'
p2861
F0.13652222222222221
sg2857
F0.56929444444444444
ssS'OVERHEAD'
p2862
g11
(tRp2863
S'SUCCESS_RATE'
p2864
F0.43339722222222221
sS'QUOTA_USED_FAILURE'
p2865
F0
sS'FAILURE_RATE'
p2866
F0.56660277777777779
sS'QUOTA_USED_SUCCESS'
p2867
F0
sg2857
F1
sS'NUM_SUCCESS_FIRST_TIME'
p2868
F0.43339722222222221
ssS'LATENCY'
p2869
g11
(tRp2870
g2857
F67.544755117421801
sstp2871
a(g11
(tRp2872
S'workload'
p2873
g11
(tRp2874
S'n_contents'
p2875
I10000
sS'name'
p2876
S'STATIONARY'
p2877
sS'n_warmup'
p2878
I720000
sS'rate'
p2879
I100
sS'n_measured'
p2880
I360000
sS'alpha'
p2881
F0.69999999999999996
ssS'cache_policy'
p2882
g11
(tRp2883
g2876
S'LRU'
p2884
ssS'desc'
p2885
S'caching probability: 0.25'
p2886
sS'strategy'
p2887
g11
(tRp2888
S'extra_quota'
p2889
I4
sS'p'
F0.25
sg2876
S'LIRA_DFIB_SC'
p2890
ssS'content_placement'
p2891
g11
(tRp2892
g2876
S'UNIFORM'
p2893
ssS'joint_cache_rsn_placement'
p2894
g11
(tRp2895
S'network_cache'
p2896
F0.94999999999999996
sS'network_rsn'
p2897
F60.799999999999997
sg2876
S'CACHE_ALL_RSN_ALL'
p2898
sS'rsn_cache_ratio'
p2899
I64
ssS'warmup_strategy'
p2900
g11
(tRp2901
g2889
I10
sS'p'
F0.10000000000000001
sg2876
g2890
sS'fan_out'
p2902
I100
ssS'topology'
p2903
g11
(tRp2904
S'ext_delay'
p2905
I5
sS'source_ratio'
p2906
F0.10000000000000001
sg2876
S'ROCKET_FUEL'
p2907
sS'asn'
p2908
I3257
ssg11
(tRp2909
S'SAT_RATE'
p2910
g11
(tRp2911
S'MEAN_CACHE_HIT'
p2912
F0.52815833333333329
sS'MEAN_SERVER_HIT'
p2913
F0.59357222222222217
sS'MEAN_SERVER_CACHE_HITS'
p2914
F0.12173055555555555
sS'MEAN'
p2915
F1
ssS'CACHE_HIT_RATIO'
p2916
g11
(tRp2917
S'MEAN_OFF_PATH'
p2918
F0.23751990352208766
sS'MEAN_ON_PATH'
p2919
F0.29063842981124566
sg2915
F0.52815833333333329
ssS'OVERHEAD'
p2920
g11
(tRp2921
S'SUCCESS_RATE'
p2922
F0.45425085449746894
sS'QUOTA_USED_FAILURE'
p2923
F1
sS'FAILURE_RATE'
p2924
F0.54574914550253106
sS'QUOTA_USED_SUCCESS'
p2925
F1
sg2915
F1.2916388888888888
sS'NUM_SUCCESS_FIRST_TIME'
p2926
F0.45472756021612815
ssS'LATENCY'
p2927
g11
(tRp2928
g2915
F37.13601666666667
sstp2929
a(g11
(tRp2930
S'workload'
p2931
g11
(tRp2932
S'n_contents'
p2933
I10000
sS'name'
p2934
S'STATIONARY'
p2935
sS'n_warmup'
p2936
I720000
sS'rate'
p2937
I100
sS'n_measured'
p2938
I360000
sS'alpha'
p2939
F0.69999999999999996
ssS'cache_policy'
p2940
g11
(tRp2941
g2934
S'LRU'
p2942
ssS'desc'
p2943
S'caching probability: 0.25'
p2944
sS'strategy'
p2945
g11
(tRp2946
S'p'
F0.25
sg2934
S'NDN'
p2947
ssS'content_placement'
p2948
g11
(tRp2949
g2934
S'UNIFORM'
p2950
ssS'joint_cache_rsn_placement'
p2951
g11
(tRp2952
S'network_cache'
p2953
F0.94999999999999996
sS'network_rsn'
p2954
F60.799999999999997
sg2934
S'CACHE_ALL_RSN_ALL'
p2955
sS'rsn_cache_ratio'
p2956
I64
ssS'warmup_strategy'
p2957
g11
(tRp2958
S'p'
F0.10000000000000001
sg2934
g2947
ssS'topology'
p2959
g11
(tRp2960
S'ext_delay'
p2961
I5
sS'source_ratio'
p2962
F0.10000000000000001
sg2934
S'ROCKET_FUEL'
p2963
sS'asn'
p2964
I3257
ssg11
(tRp2965
S'SAT_RATE'
p2966
g11
(tRp2967
S'MEAN_CACHE_HIT'
p2968
F0.37046388888888887
sS'MEAN_SERVER_HIT'
p2969
F0.62953611111111107
sS'MEAN_SERVER_CACHE_HITS'
p2970
F0
sS'MEAN'
p2971
F1
ssS'CACHE_HIT_RATIO'
p2972
g11
(tRp2973
S'MEAN_OFF_PATH'
p2974
F0
sS'MEAN_ON_PATH'
p2975
F0.37046388888888887
sg2971
F0.37046388888888887
ssS'OVERHEAD'
p2976
g11
(tRp2977
S'SUCCESS_RATE'
p2978
F0
sS'QUOTA_USED_FAILURE'
p2979
F0
sS'FAILURE_RATE'
p2980
F0
sS'QUOTA_USED_SUCCESS'
p2981
F0
sg2971
F1
sS'NUM_SUCCESS_FIRST_TIME'
p2982
F0
ssS'LATENCY'
p2983
g11
(tRp2984
g2971
F73.765419957953227
sstp2985
a(g11
(tRp2986
S'workload'
p2987
g11
(tRp2988
S'n_contents'
p2989
I10000
sS'name'
p2990
S'STATIONARY'
p2991
sS'n_warmup'
p2992
I720000
sS'rate'
p2993
I100
sS'n_measured'
p2994
I360000
sS'alpha'
p2995
F0.69999999999999996
ssS'cache_policy'
p2996
g11
(tRp2997
g2990
S'LRU'
p2998
ssS'desc'
p2999
S'caching probability: 0.5'
p3000
sS'strategy'
p3001
g11
(tRp3002
S'p'
F0.5
sg2990
S'NDN'
p3003
ssS'content_placement'
p3004
g11
(tRp3005
g2990
S'UNIFORM'
p3006
ssS'joint_cache_rsn_placement'
p3007
g11
(tRp3008
S'network_cache'
p3009
F0.94999999999999996
sS'network_rsn'
p3010
F60.799999999999997
sg2990
S'CACHE_ALL_RSN_ALL'
p3011
sS'rsn_cache_ratio'
p3012
I64
ssS'warmup_strategy'
p3013
g11
(tRp3014
S'p'
F0.10000000000000001
sg2990
g3003
ssS'topology'
p3015
g11
(tRp3016
S'ext_delay'
p3017
I5
sS'source_ratio'
p3018
F0.10000000000000001
sg2990
S'ROCKET_FUEL'
p3019
sS'asn'
p3020
I3257
ssg11
(tRp3021
S'SAT_RATE'
p3022
g11
(tRp3023
S'MEAN_CACHE_HIT'
p3024
F0.33857500000000001
sS'MEAN_SERVER_HIT'
p3025
F0.66142500000000004
sS'MEAN_SERVER_CACHE_HITS'
p3026
F0
sS'MEAN'
p3027
F1
ssS'CACHE_HIT_RATIO'
p3028
g11
(tRp3029
S'MEAN_OFF_PATH'
p3030
F0
sS'MEAN_ON_PATH'
p3031
F0.33857500000000001
sg3027
F0.33857500000000001
ssS'OVERHEAD'
p3032
g11
(tRp3033
S'SUCCESS_RATE'
p3034
F0
sS'QUOTA_USED_FAILURE'
p3035
F0
sS'FAILURE_RATE'
p3036
F0
sS'QUOTA_USED_SUCCESS'
p3037
F0
sg3027
F1
sS'NUM_SUCCESS_FIRST_TIME'
p3038
F0
ssS'LATENCY'
p3039
g11
(tRp3040
g3027
F76.698507145943012
sstp3041
a(g11
(tRp3042
S'workload'
p3043
g11
(tRp3044
S'n_contents'
p3045
I10000
sS'name'
p3046
S'STATIONARY'
p3047
sS'n_warmup'
p3048
I720000
sS'rate'
p3049
I100
sS'n_measured'
p3050
I360000
sS'alpha'
p3051
F0.69999999999999996
ssS'cache_policy'
p3052
g11
(tRp3053
g3046
S'LRU'
p3054
ssS'desc'
p3055
S'caching probability: 0.75'
p3056
sS'strategy'
p3057
g11
(tRp3058
S'p'
F0.75
sg3046
S'NDN'
p3059
ssS'content_placement'
p3060
g11
(tRp3061
g3046
S'UNIFORM'
p3062
ssS'joint_cache_rsn_placement'
p3063
g11
(tRp3064
S'network_cache'
p3065
F0.94999999999999996
sS'network_rsn'
p3066
F60.799999999999997
sg3046
S'CACHE_ALL_RSN_ALL'
p3067
sS'rsn_cache_ratio'
p3068
I64
ssS'warmup_strategy'
p3069
g11
(tRp3070
S'p'
F0.10000000000000001
sg3046
g3059
ssS'topology'
p3071
g11
(tRp3072
S'ext_delay'
p3073
I5
sS'source_ratio'
p3074
F0.10000000000000001
sg3046
S'ROCKET_FUEL'
p3075
sS'asn'
p3076
I3257
ssg11
(tRp3077
S'SAT_RATE'
p3078
g11
(tRp3079
S'MEAN_CACHE_HIT'
p3080
F0.31810277777777779
sS'MEAN_SERVER_HIT'
p3081
F0.68189722222222227
sS'MEAN_SERVER_CACHE_HITS'
p3082
F0
sS'MEAN'
p3083
F1
ssS'CACHE_HIT_RATIO'
p3084
g11
(tRp3085
S'MEAN_OFF_PATH'
p3086
F0
sS'MEAN_ON_PATH'
p3087
F0.31810277777777779
sg3083
F0.31810277777777779
ssS'OVERHEAD'
p3088
g11
(tRp3089
S'SUCCESS_RATE'
p3090
F0
sS'QUOTA_USED_FAILURE'
p3091
F0
sS'FAILURE_RATE'
p3092
F0
sS'QUOTA_USED_SUCCESS'
p3093
F0
sg3083
F1
sS'NUM_SUCCESS_FIRST_TIME'
p3094
F0
ssS'LATENCY'
p3095
g11
(tRp3096
g3083
F78.659366136030698
sstp3097
a(g11
(tRp3098
S'workload'
p3099
g11
(tRp3100
S'n_contents'
p3101
I10000
sS'name'
p3102
S'STATIONARY'
p3103
sS'n_warmup'
p3104
I720000
sS'rate'
p3105
I100
sS'n_measured'
p3106
I360000
sS'alpha'
p3107
F0.69999999999999996
ssS'cache_policy'
p3108
g11
(tRp3109
g3102
S'LRU'
p3110
ssS'desc'
p3111
S'caching probability: 1.0'
p3112
sS'strategy'
p3113
g11
(tRp3114
S'p'
F1
sg3102
S'NDN'
p3115
ssS'content_placement'
p3116
g11
(tRp3117
g3102
S'UNIFORM'
p3118
ssS'joint_cache_rsn_placement'
p3119
g11
(tRp3120
S'network_cache'
p3121
F0.94999999999999996
sS'network_rsn'
p3122
F60.799999999999997
sg3102
S'CACHE_ALL_RSN_ALL'
p3123
sS'rsn_cache_ratio'
p3124
I64
ssS'warmup_strategy'
p3125
g11
(tRp3126
S'p'
F0.10000000000000001
sg3102
g3115
ssS'topology'
p3127
g11
(tRp3128
S'ext_delay'
p3129
I5
sS'source_ratio'
p3130
F0.10000000000000001
sg3102
S'ROCKET_FUEL'
p3131
sS'asn'
p3132
I3257
ssg11
(tRp3133
S'SAT_RATE'
p3134
g11
(tRp3135
S'MEAN_CACHE_HIT'
p3136
F0.2993972222222222
sS'MEAN_SERVER_HIT'
p3137
F0.7006027777777778
sS'MEAN_SERVER_CACHE_HITS'
p3138
F0
sS'MEAN'
p3139
F1
ssS'CACHE_HIT_RATIO'
p3140
g11
(tRp3141
S'MEAN_OFF_PATH'
p3142
F0
sS'MEAN_ON_PATH'
p3143
F0.2993972222222222
sg3139
F0.2993972222222222
ssS'OVERHEAD'
p3144
g11
(tRp3145
S'SUCCESS_RATE'
p3146
F0
sS'QUOTA_USED_FAILURE'
p3147
F0
sS'FAILURE_RATE'
p3148
F0
sS'QUOTA_USED_SUCCESS'
p3149
F0
sg3139
F1
sS'NUM_SUCCESS_FIRST_TIME'
p3150
F0
ssS'LATENCY'
p3151
g11
(tRp3152
g3139
F79.056766919311585
sstp3153
a(g11
(tRp3154
S'workload'
p3155
g11
(tRp3156
S'n_contents'
p3157
I10000
sS'name'
p3158
S'STATIONARY'
p3159
sS'n_warmup'
p3160
I720000
sS'rate'
p3161
I100
sS'n_measured'
p3162
I360000
sS'alpha'
p3163
F0.69999999999999996
ssS'cache_policy'
p3164
g11
(tRp3165
g3158
S'LRU'
p3166
ssS'desc'
p3167
S'caching probability: 0.25'
p3168
sS'strategy'
p3169
g11
(tRp3170
S'extra_quota'
p3171
I3
sS'p'
F0.25
sg3158
S'LIRA_DFIB_SC'
p3172
ssS'content_placement'
p3173
g11
(tRp3174
g3158
S'UNIFORM'
p3175
ssS'joint_cache_rsn_placement'
p3176
g11
(tRp3177
S'network_cache'
p3178
F0.94999999999999996
sS'network_rsn'
p3179
F60.799999999999997
sg3158
S'CACHE_ALL_RSN_ALL'
p3180
sS'rsn_cache_ratio'
p3181
I64
ssS'warmup_strategy'
p3182
g11
(tRp3183
g3171
I10
sS'p'
F0.10000000000000001
sg3158
g3172
sS'fan_out'
p3184
I100
ssS'topology'
p3185
g11
(tRp3186
S'ext_delay'
p3187
I5
sS'source_ratio'
p3188
F0.10000000000000001
sg3158
S'ROCKET_FUEL'
p3189
sS'asn'
p3190
I3257
ssg11
(tRp3191
S'SAT_RATE'
p3192
g11
(tRp3193
S'MEAN_CACHE_HIT'
p3194
F0.52641111111111116
sS'MEAN_SERVER_HIT'
p3195
F0.59330000000000005
sS'MEAN_SERVER_CACHE_HITS'
p3196
F0.11975555555555556
sS'MEAN'
p3197
F0.9999555555555556
ssS'CACHE_HIT_RATIO'
p3198
g11
(tRp3199
S'MEAN_OFF_PATH'
p3200
F0.23919364121698056
sS'MEAN_ON_PATH'
p3201
F0.28721746989413061
sg3197
F0.52641111111111116
ssS'OVERHEAD'
p3202
g11
(tRp3203
S'SUCCESS_RATE'
p3204
F0.45481110234377031
sS'QUOTA_USED_FAILURE'
p3205
F1
sS'FAILURE_RATE'
p3206
F0.54518889765622969
sS'QUOTA_USED_SUCCESS'
p3207
F1
sg3197
F1.2913435041557402
sS'NUM_SUCCESS_FIRST_TIME'
p3208
F0.45544308846204357
ssS'LATENCY'
p3209
g11
(tRp3210
g3197
F37.046550000000003
sstp3211
a(g11
(tRp3212
S'workload'
p3213
g11
(tRp3214
S'n_contents'
p3215
I10000
sS'name'
p3216
S'STATIONARY'
p3217
sS'n_warmup'
p3218
I720000
sS'rate'
p3219
I100
sS'n_measured'
p3220
I360000
sS'alpha'
p3221
F0.69999999999999996
ssS'cache_policy'
p3222
g11
(tRp3223
g3216
S'LRU'
p3224
ssS'desc'
p3225
S'caching probability: 0.25'
p3226
sS'strategy'
p3227
g11
(tRp3228
S'extra_quota'
p3229
I5
sS'p'
F0.25
sg3216
S'LIRA_DFIB_SC'
p3230
ssS'content_placement'
p3231
g11
(tRp3232
g3216
S'UNIFORM'
p3233
ssS'joint_cache_rsn_placement'
p3234
g11
(tRp3235
S'network_cache'
p3236
F0.94999999999999996
sS'network_rsn'
p3237
F60.799999999999997
sg3216
S'CACHE_ALL_RSN_ALL'
p3238
sS'rsn_cache_ratio'
p3239
I64
ssS'warmup_strategy'
p3240
g11
(tRp3241
g3229
I10
sS'p'
F0.10000000000000001
sg3216
g3230
sS'fan_out'
p3242
I100
ssS'topology'
p3243
g11
(tRp3244
S'ext_delay'
p3245
I5
sS'source_ratio'
p3246
F0.10000000000000001
sg3216
S'ROCKET_FUEL'
p3247
sS'asn'
p3248
I3257
ssg11
(tRp3249
S'SAT_RATE'
p3250
g11
(tRp3251
S'MEAN_CACHE_HIT'
p3252
F0.5292944444444444
sS'MEAN_SERVER_HIT'
p3253
F0.59149722222222223
sS'MEAN_SERVER_CACHE_HITS'
p3254
F0.12079166666666667
sS'MEAN'
p3255
F1
ssS'CACHE_HIT_RATIO'
p3256
g11
(tRp3257
S'MEAN_OFF_PATH'
p3258
F0.22562177032603442
sS'MEAN_ON_PATH'
p3259
F0.30367267411840998
sg3255
F0.5292944444444444
ssS'OVERHEAD'
p3260
g11
(tRp3261
S'SUCCESS_RATE'
p3262
F0.44541075253526258
sS'QUOTA_USED_FAILURE'
p3263
F1
sS'FAILURE_RATE'
p3264
F0.55458924746473737
sS'QUOTA_USED_SUCCESS'
p3265
F1
sg3255
F1.278413888888889
sS'NUM_SUCCESS_FIRST_TIME'
p3266
F0.44376402018907224
ssS'LATENCY'
p3267
g11
(tRp3268
g3255
F36.17221111111111
sstp3269
a(g11
(tRp3270
S'workload'
p3271
g11
(tRp3272
S'n_contents'
p3273
I10000
sS'name'
p3274
S'STATIONARY'
p3275
sS'n_warmup'
p3276
I720000
sS'rate'
p3277
I100
sS'n_measured'
p3278
I360000
sS'alpha'
p3279
F0.69999999999999996
ssS'cache_policy'
p3280
g11
(tRp3281
g3274
S'LRU'
p3282
ssS'desc'
p3283
S'caching probability: 0.5'
p3284
sS'strategy'
p3285
g11
(tRp3286
S'extra_quota'
p3287
I2
sS'p'
F0.5
sg3274
S'LIRA_DFIB_SC'
p3288
ssS'content_placement'
p3289
g11
(tRp3290
g3274
S'UNIFORM'
p3291
ssS'joint_cache_rsn_placement'
p3292
g11
(tRp3293
S'network_cache'
p3294
F0.94999999999999996
sS'network_rsn'
p3295
F60.799999999999997
sg3274
S'CACHE_ALL_RSN_ALL'
p3296
sS'rsn_cache_ratio'
p3297
I64
ssS'warmup_strategy'
p3298
g11
(tRp3299
g3287
I10
sS'p'
F0.10000000000000001
sg3274
g3288
sS'fan_out'
p3300
I100
ssS'topology'
p3301
g11
(tRp3302
S'ext_delay'
p3303
I5
sS'source_ratio'
p3304
F0.10000000000000001
sg3274
S'ROCKET_FUEL'
p3305
sS'asn'
p3306
I3257
ssg11
(tRp3307
S'SAT_RATE'
p3308
g11
(tRp3309
S'MEAN_CACHE_HIT'
p3310
F0.50076944444444449
sS'MEAN_SERVER_HIT'
p3311
F0.62627222222222223
sS'MEAN_SERVER_CACHE_HITS'
p3312
F0.12864444444444445
sS'MEAN'
p3313
F0.99839722222222227
ssS'CACHE_HIT_RATIO'
p3314
g11
(tRp3315
S'MEAN_OFF_PATH'
p3316
F0.23465808963978951
sS'MEAN_ON_PATH'
p3317
F0.26611135480465498
sg3313
F0.50076944444444449
ssS'OVERHEAD'
p3318
g11
(tRp3319
S'SUCCESS_RATE'
p3320
F0.45111950806373652
sS'QUOTA_USED_FAILURE'
p3321
F1
sS'FAILURE_RATE'
p3322
F0.54888049193626354
sS'QUOTA_USED_SUCCESS'
p3323
F1
sg3313
F1.2968702615024637
sS'NUM_SUCCESS_FIRST_TIME'
p3324
F0.44254568307067582
ssS'LATENCY'
p3325
g11
(tRp3326
g3313
F37.889486111111111
sstp3327
a(g11
(tRp3328
S'workload'
p3329
g11
(tRp3330
S'n_contents'
p3331
I10000
sS'name'
p3332
S'STATIONARY'
p3333
sS'n_warmup'
p3334
I720000
sS'rate'
p3335
I100
sS'n_measured'
p3336
I360000
sS'alpha'
p3337
F0.69999999999999996
ssS'cache_policy'
p3338
g11
(tRp3339
g3332
S'LRU'
p3340
ssS'desc'
p3341
S'caching probability: 0.5'
p3342
sS'strategy'
p3343
g11
(tRp3344
S'extra_quota'
p3345
I1
sS'p'
F0.5
sg3332
S'LIRA_DFIB_SC'
p3346
ssS'content_placement'
p3347
g11
(tRp3348
g3332
S'UNIFORM'
p3349
ssS'joint_cache_rsn_placement'
p3350
g11
(tRp3351
S'network_cache'
p3352
F0.94999999999999996
sS'network_rsn'
p3353
F60.799999999999997
sg3332
S'CACHE_ALL_RSN_ALL'
p3354
sS'rsn_cache_ratio'
p3355
I64
ssS'warmup_strategy'
p3356
g11
(tRp3357
g3345
I10
sS'p'
F0.10000000000000001
sg3332
g3346
sS'fan_out'
p3358
I100
ssS'topology'
p3359
g11
(tRp3360
S'ext_delay'
p3361
I5
sS'source_ratio'
p3362
F0.10000000000000001
sg3332
S'ROCKET_FUEL'
p3363
sS'asn'
p3364
I3257
ssg11
(tRp3365
S'SAT_RATE'
p3366
g11
(tRp3367
S'MEAN_CACHE_HIT'
p3368
F0.4995
sS'MEAN_SERVER_HIT'
p3369
F0.58244166666666664
sS'MEAN_SERVER_CACHE_HITS'
p3370
F0.10835
sS'MEAN'
p3371
F0.97359166666666663
ssS'CACHE_HIT_RATIO'
p3372
g11
(tRp3373
S'MEAN_OFF_PATH'
p3374
F0.25852954693080082
sS'MEAN_ON_PATH'
p3375
F0.24097045306919918
sg3371
F0.4995
ssS'OVERHEAD'
p3376
g11
(tRp3377
S'SUCCESS_RATE'
p3378
F0.46441742250573109
sS'QUOTA_USED_FAILURE'
p3379
F1
sS'FAILURE_RATE'
p3380
F0.53558257749426896
sS'QUOTA_USED_SUCCESS'
p3381
F1
sg3371
F1.2975751298884715
sS'NUM_SUCCESS_FIRST_TIME'
p3382
F0.45944602508083338
ssS'LATENCY'
p3383
g11
(tRp3384
g3371
F36.548805555555553
sstp3385
a(g11
(tRp3386
S'workload'
p3387
g11
(tRp3388
S'n_contents'
p3389
I10000
sS'name'
p3390
S'STATIONARY'
p3391
sS'n_warmup'
p3392
I720000
sS'rate'
p3393
I100
sS'n_measured'
p3394
I360000
sS'alpha'
p3395
F0.69999999999999996
ssS'cache_policy'
p3396
g11
(tRp3397
g3390
S'LRU'
p3398
ssS'desc'
p3399
S'caching probability: 0.5'
p3400
sS'strategy'
p3401
g11
(tRp3402
S'extra_quota'
p3403
I3
sS'p'
F0.5
sg3390
S'LIRA_DFIB_SC'
p3404
ssS'content_placement'
p3405
g11
(tRp3406
g3390
S'UNIFORM'
p3407
ssS'joint_cache_rsn_placement'
p3408
g11
(tRp3409
S'network_cache'
p3410
F0.94999999999999996
sS'network_rsn'
p3411
F60.799999999999997
sg3390
S'CACHE_ALL_RSN_ALL'
p3412
sS'rsn_cache_ratio'
p3413
I64
ssS'warmup_strategy'
p3414
g11
(tRp3415
g3403
I10
sS'p'
F0.10000000000000001
sg3390
g3404
sS'fan_out'
p3416
I100
ssS'topology'
p3417
g11
(tRp3418
S'ext_delay'
p3419
I5
sS'source_ratio'
p3420
F0.10000000000000001
sg3390
S'ROCKET_FUEL'
p3421
sS'asn'
p3422
I3257
ssg11
(tRp3423
S'SAT_RATE'
p3424
g11
(tRp3425
S'MEAN_CACHE_HIT'
p3426
F0.49799444444444446
sS'MEAN_SERVER_HIT'
p3427
F0.62866944444444439
sS'MEAN_SERVER_CACHE_HITS'
p3428
F0.12674166666666667
sS'MEAN'
p3429
F0.99992222222222227
ssS'CACHE_HIT_RATIO'
p3430
g11
(tRp3431
S'MEAN_OFF_PATH'
p3432
F0.24747348982615835
sS'MEAN_ON_PATH'
p3433
F0.25052095461828611
sg3429
F0.49799444444444446
ssS'OVERHEAD'
p3434
g11
(tRp3435
S'SUCCESS_RATE'
p3436
F0.46012933684132878
sS'QUOTA_USED_FAILURE'
p3437
F1
sS'FAILURE_RATE'
p3438
F0.53987066315867127
sS'QUOTA_USED_SUCCESS'
p3439
F1
sg3429
F1.3118131410220795
sS'NUM_SUCCESS_FIRST_TIME'
p3440
F0.45341340135350094
ssS'LATENCY'
p3441
g11
(tRp3442
g3429
F38.283477777777776
sstp3443
a(g11
(tRp3444
S'workload'
p3445
g11
(tRp3446
S'n_contents'
p3447
I10000
sS'name'
p3448
S'STATIONARY'
p3449
sS'n_warmup'
p3450
I720000
sS'rate'
p3451
I100
sS'n_measured'
p3452
I360000
sS'alpha'
p3453
F0.69999999999999996
ssS'cache_policy'
p3454
g11
(tRp3455
g3448
S'LRU'
p3456
ssS'desc'
p3457
S'caching probability: 0.75'
p3458
sS'strategy'
p3459
g11
(tRp3460
S'extra_quota'
p3461
I1
sS'p'
F0.75
sg3448
S'LIRA_DFIB_SC'
p3462
ssS'content_placement'
p3463
g11
(tRp3464
g3448
S'UNIFORM'
p3465
ssS'joint_cache_rsn_placement'
p3466
g11
(tRp3467
S'network_cache'
p3468
F0.94999999999999996
sS'network_rsn'
p3469
F60.799999999999997
sg3448
S'CACHE_ALL_RSN_ALL'
p3470
sS'rsn_cache_ratio'
p3471
I64
ssS'warmup_strategy'
p3472
g11
(tRp3473
g3461
I10
sS'p'
F0.10000000000000001
sg3448
g3462
sS'fan_out'
p3474
I100
ssS'topology'
p3475
g11
(tRp3476
S'ext_delay'
p3477
I5
sS'source_ratio'
p3478
F0.10000000000000001
sg3448
S'ROCKET_FUEL'
p3479
sS'asn'
p3480
I3257
ssg11
(tRp3481
S'SAT_RATE'
p3482
g11
(tRp3483
S'MEAN_CACHE_HIT'
p3484
F0.47629444444444446
sS'MEAN_SERVER_HIT'
p3485
F0.60599999999999998
sS'MEAN_SERVER_CACHE_HITS'
p3486
F0.11136111111111111
sS'MEAN'
p3487
F0.97093333333333331
ssS'CACHE_HIT_RATIO'
p3488
g11
(tRp3489
S'MEAN_OFF_PATH'
p3490
F0.25770867447244278
sS'MEAN_ON_PATH'
p3491
F0.21858576997200169
sg3487
F0.47629444444444446
ssS'OVERHEAD'
p3492
g11
(tRp3493
S'SUCCESS_RATE'
p3494
F0.46002635448387796
sS'QUOTA_USED_FAILURE'
p3495
F1
sS'FAILURE_RATE'
p3496
F0.53997364551612204
sS'QUOTA_USED_SUCCESS'
p3497
F1
sg3487
F1.3038599743660166
sS'NUM_SUCCESS_FIRST_TIME'
p3498
F0.44833269113817098
ssS'LATENCY'
p3499
g11
(tRp3500
g3487
F37.121422222222222
sstp3501
a(g11
(tRp3502
S'workload'
p3503
g11
(tRp3504
S'n_contents'
p3505
I10000
sS'name'
p3506
S'STATIONARY'
p3507
sS'n_warmup'
p3508
I720000
sS'rate'
p3509
I100
sS'n_measured'
p3510
I360000
sS'alpha'
p3511
F0.69999999999999996
ssS'cache_policy'
p3512
g11
(tRp3513
g3506
S'LRU'
p3514
ssS'desc'
p3515
S'caching probability: 0.5'
p3516
sS'strategy'
p3517
g11
(tRp3518
S'extra_quota'
p3519
I4
sS'p'
F0.5
sg3506
S'LIRA_DFIB_SC'
p3520
ssS'content_placement'
p3521
g11
(tRp3522
g3506
S'UNIFORM'
p3523
ssS'joint_cache_rsn_placement'
p3524
g11
(tRp3525
S'network_cache'
p3526
F0.94999999999999996
sS'network_rsn'
p3527
F60.799999999999997
sg3506
S'CACHE_ALL_RSN_ALL'
p3528
sS'rsn_cache_ratio'
p3529
I64
ssS'warmup_strategy'
p3530
g11
(tRp3531
g3519
I10
sS'p'
F0.10000000000000001
sg3506
g3520
sS'fan_out'
p3532
I100
ssS'topology'
p3533
g11
(tRp3534
S'ext_delay'
p3535
I5
sS'source_ratio'
p3536
F0.10000000000000001
sg3506
S'ROCKET_FUEL'
p3537
sS'asn'
p3538
I3257
ssg11
(tRp3539
S'SAT_RATE'
p3540
g11
(tRp3541
S'MEAN_CACHE_HIT'
p3542
F0.50216666666666665
sS'MEAN_SERVER_HIT'
p3543
F0.62808888888888892
sS'MEAN_SERVER_CACHE_HITS'
p3544
F0.13025555555555557
sS'MEAN'
p3545
F1
ssS'CACHE_HIT_RATIO'
p3546
g11
(tRp3547
S'MEAN_OFF_PATH'
p3548
F0.23844902332805756
sS'MEAN_ON_PATH'
p3549
F0.26371764333860909
sg3545
F0.50216666666666665
ssS'OVERHEAD'
p3550
g11
(tRp3551
S'SUCCESS_RATE'
p3552
F0.45146012548380182
sS'QUOTA_USED_FAILURE'
p3553
F1
sS'FAILURE_RATE'
p3554
F0.54853987451619812
sS'QUOTA_USED_SUCCESS'
p3555
F1
sg3545
F1.2984111111111112
sS'NUM_SUCCESS_FIRST_TIME'
p3556
F0.44719243325647062
ssS'LATENCY'
p3557
g11
(tRp3558
g3545
F38.345483333333334
sstp3559
a(g11
(tRp3560
S'workload'
p3561
g11
(tRp3562
S'n_contents'
p3563
I10000
sS'name'
p3564
S'STATIONARY'
p3565
sS'n_warmup'
p3566
I720000
sS'rate'
p3567
I100
sS'n_measured'
p3568
I360000
sS'alpha'
p3569
F0.69999999999999996
ssS'cache_policy'
p3570
g11
(tRp3571
g3564
S'LRU'
p3572
ssS'desc'
p3573
S'caching probability: 0.5'
p3574
sS'strategy'
p3575
g11
(tRp3576
S'extra_quota'
p3577
I5
sS'p'
F0.5
sg3564
S'LIRA_DFIB_SC'
p3578
ssS'content_placement'
p3579
g11
(tRp3580
g3564
S'UNIFORM'
p3581
ssS'joint_cache_rsn_placement'
p3582
g11
(tRp3583
S'network_cache'
p3584
F0.94999999999999996
sS'network_rsn'
p3585
F60.799999999999997
sg3564
S'CACHE_ALL_RSN_ALL'
p3586
sS'rsn_cache_ratio'
p3587
I64
ssS'warmup_strategy'
p3588
g11
(tRp3589
g3577
I10
sS'p'
F0.10000000000000001
sg3564
g3578
sS'fan_out'
p3590
I100
ssS'topology'
p3591
g11
(tRp3592
S'ext_delay'
p3593
I5
sS'source_ratio'
p3594
F0.10000000000000001
sg3564
S'ROCKET_FUEL'
p3595
sS'asn'
p3596
I3257
ssg11
(tRp3597
S'SAT_RATE'
p3598
g11
(tRp3599
S'MEAN_CACHE_HIT'
p3600
F0.50213055555555552
sS'MEAN_SERVER_HIT'
p3601
F0.62846388888888893
sS'MEAN_SERVER_CACHE_HITS'
p3602
F0.13059444444444446
sS'MEAN'
p3603
F1
ssS'CACHE_HIT_RATIO'
p3604
g11
(tRp3605
S'MEAN_OFF_PATH'
p3606
F0.24128162667623226
sS'MEAN_ON_PATH'
p3607
F0.26084892887932326
sg3603
F0.50213055555555552
ssS'OVERHEAD'
p3608
g11
(tRp3609
S'SUCCESS_RATE'
p3610
F0.45565821981837606
sS'QUOTA_USED_FAILURE'
p3611
F1
sS'FAILURE_RATE'
p3612
F0.54434178018162394
sS'QUOTA_USED_SUCCESS'
p3613
F1
sg3603
F1.3032861111111111
sS'NUM_SUCCESS_FIRST_TIME'
p3614
F0.45101243508504457
ssS'LATENCY'
p3615
g11
(tRp3616
g3603
F37.834072222222225
sstp3617
a(g11
(tRp3618
S'workload'
p3619
g11
(tRp3620
S'n_contents'
p3621
I10000
sS'name'
p3622
S'STATIONARY'
p3623
sS'n_warmup'
p3624
I720000
sS'rate'
p3625
I100
sS'n_measured'
p3626
I360000
sS'alpha'
p3627
F0.69999999999999996
ssS'cache_policy'
p3628
g11
(tRp3629
g3622
S'LRU'
p3630
ssS'desc'
p3631
S'caching probability: 0.75'
p3632
sS'strategy'
p3633
g11
(tRp3634
S'extra_quota'
p3635
I2
sS'p'
F0.75
sg3622
S'LIRA_DFIB_SC'
p3636
ssS'content_placement'
p3637
g11
(tRp3638
g3622
S'UNIFORM'
p3639
ssS'joint_cache_rsn_placement'
p3640
g11
(tRp3641
S'network_cache'
p3642
F0.94999999999999996
sS'network_rsn'
p3643
F60.799999999999997
sg3622
S'CACHE_ALL_RSN_ALL'
p3644
sS'rsn_cache_ratio'
p3645
I64
ssS'warmup_strategy'
p3646
g11
(tRp3647
g3635
I10
sS'p'
F0.10000000000000001
sg3622
g3636
sS'fan_out'
p3648
I100
ssS'topology'
p3649
g11
(tRp3650
S'ext_delay'
p3651
I5
sS'source_ratio'
p3652
F0.10000000000000001
sg3622
S'ROCKET_FUEL'
p3653
sS'asn'
p3654
I3257
ssg11
(tRp3655
S'SAT_RATE'
p3656
g11
(tRp3657
S'MEAN_CACHE_HIT'
p3658
F0.47685277777777779
sS'MEAN_SERVER_HIT'
p3659
F0.64965277777777775
sS'MEAN_SERVER_CACHE_HITS'
p3660
F0.12845833333333334
sS'MEAN'
p3661
F0.9980472222222222
ssS'CACHE_HIT_RATIO'
p3662
g11
(tRp3663
S'MEAN_OFF_PATH'
p3664
F0.24835652040972328
sS'MEAN_ON_PATH'
p3665
F0.22849625736805451
sg3661
F0.47685277777777779
ssS'OVERHEAD'
p3666
g11
(tRp3667
S'SUCCESS_RATE'
p3668
F0.4503896750166545
sS'QUOTA_USED_FAILURE'
p3669
F1
sS'FAILURE_RATE'
p3670
F0.5496103249833455
sS'QUOTA_USED_SUCCESS'
p3671
F1
sg3661
F1.3103003921546799
sS'NUM_SUCCESS_FIRST_TIME'
p3672
F0.44430561254835421
ssS'LATENCY'
p3673
g11
(tRp3674
g3661
F38.74389166666667
sstp3675
a(g11
(tRp3676
S'workload'
p3677
g11
(tRp3678
S'n_contents'
p3679
I10000
sS'name'
p3680
S'STATIONARY'
p3681
sS'n_warmup'
p3682
I720000
sS'rate'
p3683
I100
sS'n_measured'
p3684
I360000
sS'alpha'
p3685
F0.69999999999999996
ssS'cache_policy'
p3686
g11
(tRp3687
g3680
S'LRU'
p3688
ssS'desc'
p3689
S'caching probability: 0.75'
p3690
sS'strategy'
p3691
g11
(tRp3692
S'extra_quota'
p3693
I3
sS'p'
F0.75
sg3680
S'LIRA_DFIB_SC'
p3694
ssS'content_placement'
p3695
g11
(tRp3696
g3680
S'UNIFORM'
p3697
ssS'joint_cache_rsn_placement'
p3698
g11
(tRp3699
S'network_cache'
p3700
F0.94999999999999996
sS'network_rsn'
p3701
F60.799999999999997
sg3680
S'CACHE_ALL_RSN_ALL'
p3702
sS'rsn_cache_ratio'
p3703
I64
ssS'warmup_strategy'
p3704
g11
(tRp3705
g3693
I10
sS'p'
F0.10000000000000001
sg3680
g3694
sS'fan_out'
p3706
I100
ssS'topology'
p3707
g11
(tRp3708
S'ext_delay'
p3709
I5
sS'source_ratio'
p3710
F0.10000000000000001
sg3680
S'ROCKET_FUEL'
p3711
sS'asn'
p3712
I3257
ssg11
(tRp3713
S'SAT_RATE'
p3714
g11
(tRp3715
S'MEAN_CACHE_HIT'
p3716
F0.47741666666666666
sS'MEAN_SERVER_HIT'
p3717
F0.65449166666666669
sS'MEAN_SERVER_CACHE_HITS'
p3718
F0.13199722222222221
sS'MEAN'
p3719
F0.99991111111111108
ssS'CACHE_HIT_RATIO'
p3720
g11
(tRp3721
S'MEAN_OFF_PATH'
p3722
F0.24343598691491999
sS'MEAN_ON_PATH'
p3723
F0.23398067975174666
sg3719
F0.47741666666666666
ssS'OVERHEAD'
p3724
g11
(tRp3725
S'SUCCESS_RATE'
p3726
F0.44908047691817637
sS'QUOTA_USED_FAILURE'
p3727
F1
sS'FAILURE_RATE'
p3728
F0.55091952308182368
sS'QUOTA_USED_SUCCESS'
p3729
F1
sg3719
F1.3092774913325629
sS'NUM_SUCCESS_FIRST_TIME'
p3730
F0.44300380934683636
ssS'LATENCY'
p3731
g11
(tRp3732
g3719
F38.761819444444441
sstp3733
a(g11
(tRp3734
S'workload'
p3735
g11
(tRp3736
S'n_contents'
p3737
I10000
sS'name'
p3738
S'STATIONARY'
p3739
sS'n_warmup'
p3740
I720000
sS'rate'
p3741
I100
sS'n_measured'
p3742
I360000
sS'alpha'
p3743
F0.69999999999999996
ssS'cache_policy'
p3744
g11
(tRp3745
g3738
S'LRU'
p3746
ssS'desc'
p3747
S'caching probability: 0.75'
p3748
sS'strategy'
p3749
g11
(tRp3750
S'extra_quota'
p3751
I5
sS'p'
F0.75
sg3738
S'LIRA_DFIB_SC'
p3752
ssS'content_placement'
p3753
g11
(tRp3754
g3738
S'UNIFORM'
p3755
ssS'joint_cache_rsn_placement'
p3756
g11
(tRp3757
S'network_cache'
p3758
F0.94999999999999996
sS'network_rsn'
p3759
F60.799999999999997
sg3738
S'CACHE_ALL_RSN_ALL'
p3760
sS'rsn_cache_ratio'
p3761
I64
ssS'warmup_strategy'
p3762
g11
(tRp3763
g3751
I10
sS'p'
F0.10000000000000001
sg3738
g3752
sS'fan_out'
p3764
I100
ssS'topology'
p3765
g11
(tRp3766
S'ext_delay'
p3767
I5
sS'source_ratio'
p3768
F0.10000000000000001
sg3738
S'ROCKET_FUEL'
p3769
sS'asn'
p3770
I3257
ssg11
(tRp3771
S'SAT_RATE'
p3772
g11
(tRp3773
S'MEAN_CACHE_HIT'
p3774
F0.47984444444444446
sS'MEAN_SERVER_HIT'
p3775
F0.65280833333333332
sS'MEAN_SERVER_CACHE_HITS'
p3776
F0.13265277777777779
sS'MEAN'
p3777
F1
ssS'CACHE_HIT_RATIO'
p3778
g11
(tRp3779
S'MEAN_OFF_PATH'
p3780
F0.25370381724319752
sS'MEAN_ON_PATH'
p3781
F0.22614062720124695
sg3777
F0.47984444444444446
ssS'OVERHEAD'
p3782
g11
(tRp3783
S'SUCCESS_RATE'
p3784
F0.4587225899177747
sS'QUOTA_USED_FAILURE'
p3785
F1
sS'FAILURE_RATE'
p3786
F0.5412774100822253
sS'QUOTA_USED_SUCCESS'
p3787
F1
sg3777
F1.3209388888888889
sS'NUM_SUCCESS_FIRST_TIME'
p3788
F0.45442092323882011
ssS'LATENCY'
p3789
g11
(tRp3790
g3777
F39.912894444444447
sstp3791
a(g11
(tRp3792
S'workload'
p3793
g11
(tRp3794
S'n_contents'
p3795
I10000
sS'name'
p3796
S'STATIONARY'
p3797
sS'n_warmup'
p3798
I720000
sS'rate'
p3799
I100
sS'n_measured'
p3800
I360000
sS'alpha'
p3801
F0.69999999999999996
ssS'cache_policy'
p3802
g11
(tRp3803
g3796
S'LRU'
p3804
ssS'desc'
p3805
S'caching probability: 1.0'
p3806
sS'strategy'
p3807
g11
(tRp3808
S'extra_quota'
p3809
I1
sS'p'
F1
sg3796
S'LIRA_DFIB_SC'
p3810
ssS'content_placement'
p3811
g11
(tRp3812
g3796
S'UNIFORM'
p3813
ssS'joint_cache_rsn_placement'
p3814
g11
(tRp3815
S'network_cache'
p3816
F0.94999999999999996
sS'network_rsn'
p3817
F60.799999999999997
sg3796
S'CACHE_ALL_RSN_ALL'
p3818
sS'rsn_cache_ratio'
p3819
I64
ssS'warmup_strategy'
p3820
g11
(tRp3821
g3809
I10
sS'p'
F0.10000000000000001
sg3796
g3810
sS'fan_out'
p3822
I100
ssS'topology'
p3823
g11
(tRp3824
S'ext_delay'
p3825
I5
sS'source_ratio'
p3826
F0.10000000000000001
sg3796
S'ROCKET_FUEL'
p3827
sS'asn'
p3828
I3257
ssg11
(tRp3829
S'SAT_RATE'
p3830
g11
(tRp3831
S'MEAN_CACHE_HIT'
p3832
F0.46040555555555557
sS'MEAN_SERVER_HIT'
p3833
F0.62035277777777775
sS'MEAN_SERVER_CACHE_HITS'
p3834
F0.11250277777777777
sS'MEAN'
p3835
F0.96825555555555554
ssS'CACHE_HIT_RATIO'
p3836
g11
(tRp3837
S'MEAN_OFF_PATH'
p3838
F0.24897898337844054
sS'MEAN_ON_PATH'
p3839
F0.21142657217711502
sg3835
F0.46040555555555557
ssS'OVERHEAD'
p3840
g11
(tRp3841
S'SUCCESS_RATE'
p3842
F0.44095828136943316
sS'QUOTA_USED_FAILURE'
p3843
F1
sS'FAILURE_RATE'
p3844
F0.55904171863056684
sS'QUOTA_USED_SUCCESS'
p3845
F1
sg3835
F1.289019198329183
sS'NUM_SUCCESS_FIRST_TIME'
p3846
F0.43167427956030896
ssS'LATENCY'
p3847
g11
(tRp3848
g3835
F37.451377777777779
sstp3849
a(g11
(tRp3850
S'workload'
p3851
g11
(tRp3852
S'n_contents'
p3853
I10000
sS'name'
p3854
S'STATIONARY'
p3855
sS'n_warmup'
p3856
I720000
sS'rate'
p3857
I100
sS'n_measured'
p3858
I360000
sS'alpha'
p3859
F0.69999999999999996
ssS'cache_policy'
p3860
g11
(tRp3861
g3854
S'LRU'
p3862
ssS'desc'
p3863
S'caching probability: 0.75'
p3864
sS'strategy'
p3865
g11
(tRp3866
S'extra_quota'
p3867
I4
sS'p'
F0.75
sg3854
S'LIRA_DFIB_SC'
p3868
ssS'content_placement'
p3869
g11
(tRp3870
g3854
S'UNIFORM'
p3871
ssS'joint_cache_rsn_placement'
p3872
g11
(tRp3873
S'network_cache'
p3874
F0.94999999999999996
sS'network_rsn'
p3875
F60.799999999999997
sg3854
S'CACHE_ALL_RSN_ALL'
p3876
sS'rsn_cache_ratio'
p3877
I64
ssS'warmup_strategy'
p3878
g11
(tRp3879
g3867
I10
sS'p'
F0.10000000000000001
sg3854
g3868
sS'fan_out'
p3880
I100
ssS'topology'
p3881
g11
(tRp3882
S'ext_delay'
p3883
I5
sS'source_ratio'
p3884
F0.10000000000000001
sg3854
S'ROCKET_FUEL'
p3885
sS'asn'
p3886
I3257
ssg11
(tRp3887
S'SAT_RATE'
p3888
g11
(tRp3889
S'MEAN_CACHE_HIT'
p3890
F0.47614722222222222
sS'MEAN_SERVER_HIT'
p3891
F0.65564444444444447
sS'MEAN_SERVER_CACHE_HITS'
p3892
F0.13179166666666667
sS'MEAN'
p3893
F1
ssS'CACHE_HIT_RATIO'
p3894
g11
(tRp3895
S'MEAN_OFF_PATH'
p3896
F0.24176023757807802
sS'MEAN_ON_PATH'
p3897
F0.2343869846441442
sg3893
F0.47614722222222222
ssS'OVERHEAD'
p3898
g11
(tRp3899
S'SUCCESS_RATE'
p3900
F0.4501456320430669
sS'QUOTA_USED_FAILURE'
p3901
F1
sS'FAILURE_RATE'
p3902
F0.5498543679569331
sS'QUOTA_USED_SUCCESS'
p3903
F1
sg3893
F1.311236111111111
sS'NUM_SUCCESS_FIRST_TIME'
p3904
F0.4410774254596731
ssS'LATENCY'
p3905
g11
(tRp3906
g3893
F39.414497222222224
sstp3907
a(g11
(tRp3908
S'workload'
p3909
g11
(tRp3910
S'n_contents'
p3911
I10000
sS'name'
p3912
S'STATIONARY'
p3913
sS'n_warmup'
p3914
I720000
sS'rate'
p3915
I100
sS'n_measured'
p3916
I360000
sS'alpha'
p3917
F0.69999999999999996
ssS'cache_policy'
p3918
g11
(tRp3919
g3912
S'LRU'
p3920
ssS'desc'
p3921
S'caching probability: 1.0'
p3922
sS'strategy'
p3923
g11
(tRp3924
S'extra_quota'
p3925
I2
sS'p'
F1
sg3912
S'LIRA_DFIB_SC'
p3926
ssS'content_placement'
p3927
g11
(tRp3928
g3912
S'UNIFORM'
p3929
ssS'joint_cache_rsn_placement'
p3930
g11
(tRp3931
S'network_cache'
p3932
F0.94999999999999996
sS'network_rsn'
p3933
F60.799999999999997
sg3912
S'CACHE_ALL_RSN_ALL'
p3934
sS'rsn_cache_ratio'
p3935
I64
ssS'warmup_strategy'
p3936
g11
(tRp3937
g3925
I10
sS'p'
F0.10000000000000001
sg3912
g3926
sS'fan_out'
p3938
I100
ssS'topology'
p3939
g11
(tRp3940
S'ext_delay'
p3941
I5
sS'source_ratio'
p3942
F0.10000000000000001
sg3912
S'ROCKET_FUEL'
p3943
sS'asn'
p3944
I3257
ssg11
(tRp3945
S'SAT_RATE'
p3946
g11
(tRp3947
S'MEAN_CACHE_HIT'
p3948
F0.45837499999999998
sS'MEAN_SERVER_HIT'
p3949
F0.67046388888888886
sS'MEAN_SERVER_CACHE_HITS'
p3950
F0.13115833333333332
sS'MEAN'
p3951
F0.99768055555555557
ssS'CACHE_HIT_RATIO'
p3952
g11
(tRp3953
S'MEAN_OFF_PATH'
p3954
F0.23985314310181061
sS'MEAN_ON_PATH'
p3955
F0.21852185689818937
sg3951
F0.45837499999999998
ssS'OVERHEAD'
p3956
g11
(tRp3957
S'SUCCESS_RATE'
p3958
F0.43855727691358221
sS'QUOTA_USED_FAILURE'
p3959
F1
sS'FAILURE_RATE'
p3960
F0.56144272308641785
sS'QUOTA_USED_SUCCESS'
p3961
F1
sg3951
F1.3065192877925187
sS'NUM_SUCCESS_FIRST_TIME'
p3962
F0.42869236542016731
ssS'LATENCY'
p3963
g11
(tRp3964
g3951
F38.917749999999998
sstp3965
a(g11
(tRp3966
S'workload'
p3967
g11
(tRp3968
S'n_contents'
p3969
I10000
sS'name'
p3970
S'STATIONARY'
p3971
sS'n_warmup'
p3972
I720000
sS'rate'
p3973
I100
sS'n_measured'
p3974
I360000
sS'alpha'
p3975
F0.69999999999999996
ssS'cache_policy'
p3976
g11
(tRp3977
g3970
S'LRU'
p3978
ssS'desc'
p3979
S'caching probability: 1.0'
p3980
sS'strategy'
p3981
g11
(tRp3982
S'extra_quota'
p3983
I3
sS'p'
F1
sg3970
S'LIRA_DFIB_SC'
p3984
ssS'content_placement'
p3985
g11
(tRp3986
g3970
S'UNIFORM'
p3987
ssS'joint_cache_rsn_placement'
p3988
g11
(tRp3989
S'network_cache'
p3990
F0.94999999999999996
sS'network_rsn'
p3991
F60.799999999999997
sg3970
S'CACHE_ALL_RSN_ALL'
p3992
sS'rsn_cache_ratio'
p3993
I64
ssS'warmup_strategy'
p3994
g11
(tRp3995
g3983
I10
sS'p'
F0.10000000000000001
sg3970
g3984
sS'fan_out'
p3996
I100
ssS'topology'
p3997
g11
(tRp3998
S'ext_delay'
p3999
I5
sS'source_ratio'
p4000
F0.10000000000000001
sg3970
S'ROCKET_FUEL'
p4001
sS'asn'
p4002
I3257
ssg11
(tRp4003
S'SAT_RATE'
p4004
g11
(tRp4005
S'MEAN_CACHE_HIT'
p4006
F0.45776388888888891
sS'MEAN_SERVER_HIT'
p4007
F0.67444166666666672
sS'MEAN_SERVER_CACHE_HITS'
p4008
F0.1323361111111111
sS'MEAN'
p4009
F0.99986944444444448
ssS'CACHE_HIT_RATIO'
p4010
g11
(tRp4011
S'MEAN_OFF_PATH'
p4012
F0.24988836930867481
sS'MEAN_ON_PATH'
p4013
F0.20787551958021411
sg4009
F0.45776388888888891
ssS'OVERHEAD'
p4014
g11
(tRp4015
S'SUCCESS_RATE'
p4016
F0.44774703742447192
sS'QUOTA_USED_FAILURE'
p4017
F1
sS'FAILURE_RATE'
p4018
F0.55225296257552814
sS'QUOTA_USED_SUCCESS'
p4019
F1
sg4009
F1.3185443655143867
sS'NUM_SUCCESS_FIRST_TIME'
p4020
F0.44085460709115271
ssS'LATENCY'
p4021
g11
(tRp4022
g4009
F40.024175
sstp4023
a(g11
(tRp4024
S'workload'
p4025
g11
(tRp4026
S'n_contents'
p4027
I10000
sS'name'
p4028
S'STATIONARY'
p4029
sS'n_warmup'
p4030
I720000
sS'rate'
p4031
I100
sS'n_measured'
p4032
I360000
sS'alpha'
p4033
F0.69999999999999996
ssS'cache_policy'
p4034
g11
(tRp4035
g4028
S'LRU'
p4036
ssS'desc'
p4037
S'caching probability: 1.0'
p4038
sS'strategy'
p4039
g11
(tRp4040
S'extra_quota'
p4041
I4
sS'p'
F1
sg4028
S'LIRA_DFIB_SC'
p4042
ssS'content_placement'
p4043
g11
(tRp4044
g4028
S'UNIFORM'
p4045
ssS'joint_cache_rsn_placement'
p4046
g11
(tRp4047
S'network_cache'
p4048
F0.94999999999999996
sS'network_rsn'
p4049
F60.799999999999997
sg4028
S'CACHE_ALL_RSN_ALL'
p4050
sS'rsn_cache_ratio'
p4051
I64
ssS'warmup_strategy'
p4052
g11
(tRp4053
g4041
I10
sS'p'
F0.10000000000000001
sg4028
g4042
sS'fan_out'
p4054
I100
ssS'topology'
p4055
g11
(tRp4056
S'ext_delay'
p4057
I5
sS'source_ratio'
p4058
F0.10000000000000001
sg4028
S'ROCKET_FUEL'
p4059
sS'asn'
p4060
I3257
ssg11
(tRp4061
S'SAT_RATE'
p4062
g11
(tRp4063
S'MEAN_CACHE_HIT'
p4064
F0.46045000000000003
sS'MEAN_SERVER_HIT'
p4065
F0.67199722222222225
sS'MEAN_SERVER_CACHE_HITS'
p4066
F0.13245000000000001
sS'MEAN'
p4067
F0.9999972222222222
ssS'CACHE_HIT_RATIO'
p4068
g11
(tRp4069
S'MEAN_OFF_PATH'
p4070
F0.24695534008207398
sS'MEAN_ON_PATH'
p4071
F0.21349465991792604
sg4067
F0.46045000000000003
ssS'OVERHEAD'
p4072
g11
(tRp4073
S'SUCCESS_RATE'
p4074
F0.44594859875462306
sS'QUOTA_USED_FAILURE'
p4075
F1
sS'FAILURE_RATE'
p4076
F0.554051401245377
sS'QUOTA_USED_SUCCESS'
p4077
F1
sg4067
F1.3155064319623111
sS'NUM_SUCCESS_FIRST_TIME'
p4078
F0.43685665896284459
ssS'LATENCY'
p4079
g11
(tRp4080
g4067
F39.461919444444447
sstp4081
a(g11
(tRp4082
S'workload'
p4083
g11
(tRp4084
S'n_contents'
p4085
I10000
sS'name'
p4086
S'STATIONARY'
p4087
sS'n_warmup'
p4088
I720000
sS'rate'
p4089
I100
sS'n_measured'
p4090
I360000
sS'alpha'
p4091
F0.69999999999999996
ssS'cache_policy'
p4092
g11
(tRp4093
g4086
S'LRU'
p4094
ssS'desc'
p4095
S'caching probability: 1.0'
p4096
sS'strategy'
p4097
g11
(tRp4098
S'extra_quota'
p4099
I5
sS'p'
F1
sg4086
S'LIRA_DFIB_SC'
p4100
ssS'content_placement'
p4101
g11
(tRp4102
g4086
S'UNIFORM'
p4103
ssS'joint_cache_rsn_placement'
p4104
g11
(tRp4105
S'network_cache'
p4106
F0.94999999999999996
sS'network_rsn'
p4107
F60.799999999999997
sg4086
S'CACHE_ALL_RSN_ALL'
p4108
sS'rsn_cache_ratio'
p4109
I64
ssS'warmup_strategy'
p4110
g11
(tRp4111
g4099
I10
sS'p'
F0.10000000000000001
sg4086
g4100
sS'fan_out'
p4112
I100
ssS'topology'
p4113
g11
(tRp4114
S'ext_delay'
p4115
I5
sS'source_ratio'
p4116
F0.10000000000000001
sg4086
S'ROCKET_FUEL'
p4117
sS'asn'
p4118
I3257
ssg11
(tRp4119
S'SAT_RATE'
p4120
g11
(tRp4121
S'MEAN_CACHE_HIT'
p4122
F0.46174444444444446
sS'MEAN_SERVER_HIT'
p4123
F0.67203888888888885
sS'MEAN_SERVER_CACHE_HITS'
p4124
F0.13378333333333334
sS'MEAN'
p4125
F1
ssS'CACHE_HIT_RATIO'
p4126
g11
(tRp4127
S'MEAN_OFF_PATH'
p4128
F0.2570057967179698
sS'MEAN_ON_PATH'
p4129
F0.20473864772647465
sg4125
F0.46174444444444446
ssS'OVERHEAD'
p4130
g11
(tRp4131
S'SUCCESS_RATE'
p4132
F0.45528574970557245
sS'QUOTA_USED_FAILURE'
p4133
F1
sS'FAILURE_RATE'
p4134
F0.54471425029442755
sS'QUOTA_USED_SUCCESS'
p4135
F1
sg4125
F1.3264499999999999
sS'NUM_SUCCESS_FIRST_TIME'
p4136
F0.4476477683956574
ssS'LATENCY'
p4137
g11
(tRp4138
g4125
F39.541233333333331
sstp4139
a(g11
(tRp4140
S'workload'
p4141
g11
(tRp4142
S'n_contents'
p4143
I10000
sS'name'
p4144
S'STATIONARY'
p4145
sS'n_warmup'
p4146
I720000
sS'rate'
p4147
I100
sS'n_measured'
p4148
I360000
sS'alpha'
p4149
F0.69999999999999996
ssS'cache_policy'
p4150
g11
(tRp4151
g4144
S'LRU'
p4152
ssS'desc'
p4153
S'caching probability: 0.25'
p4154
sS'strategy'
p4155
g11
(tRp4156
S'extra_quota'
p4157
I3
sS'p'
F0.25
sg4144
S'LIRA_DFIB_OPH'
p4158
ssS'content_placement'
p4159
g11
(tRp4160
g4144
S'UNIFORM'
p4161
ssS'joint_cache_rsn_placement'
p4162
g11
(tRp4163
S'network_cache'
p4164
F0.94999999999999996
sS'network_rsn'
p4165
F60.799999999999997
sg4144
S'CACHE_ALL_RSN_ALL'
p4166
sS'rsn_cache_ratio'
p4167
I64
ssS'warmup_strategy'
p4168
g11
(tRp4169
g4157
I10
sS'p'
F0.10000000000000001
sg4144
g4158
sS'fan_out'
p4170
I100
ssS'topology'
p4171
g11
(tRp4172
S'ext_delay'
p4173
I5
sS'source_ratio'
p4174
F0.10000000000000001
sg4144
S'ROCKET_FUEL'
p4175
sS'asn'
p4176
I3257
ssg11
(tRp4177
S'SAT_RATE'
p4178
g11
(tRp4179
S'MEAN_CACHE_HIT'
p4180
F0.52583333333333337
sS'MEAN_SERVER_HIT'
p4181
F0.5823694444444445
sS'MEAN_SERVER_CACHE_HITS'
p4182
F0.11270555555555556
sS'MEAN'
p4183
F0.99549722222222226
ssS'CACHE_HIT_RATIO'
p4184
g11
(tRp4185
S'MEAN_OFF_PATH'
p4186
F0.21678744112715032
sS'MEAN_ON_PATH'
p4187
F0.30904589220618306
sg4183
F0.52583333333333337
ssS'OVERHEAD'
p4188
g11
(tRp4189
S'SUCCESS_RATE'
p4190
F0.43071084724731795
sS'QUOTA_USED_FAILURE'
p4191
F1.3128616675569715
sS'FAILURE_RATE'
p4192
F0.56928915275268199
sS'QUOTA_USED_SUCCESS'
p4193
F2.4249324769562044
sg4183
F1.2528663788893881
sS'NUM_SUCCESS_FIRST_TIME'
p4194
F0.43184119601667015
ssS'LATENCY'
p4195
g11
(tRp4196
g4183
F35.74295
sstp4197
a(g11
(tRp4198
S'workload'
p4199
g11
(tRp4200
S'n_contents'
p4201
I10000
sS'name'
p4202
S'STATIONARY'
p4203
sS'n_warmup'
p4204
I720000
sS'rate'
p4205
I100
sS'n_measured'
p4206
I360000
sS'alpha'
p4207
F0.69999999999999996
ssS'cache_policy'
p4208
g11
(tRp4209
g4202
S'LRU'
p4210
ssS'desc'
p4211
S'caching probability: 0.75'
p4212
sS'strategy'
p4213
g11
(tRp4214
S'extra_quota'
p4215
I3
sS'p'
F0.75
sg4202
S'LIRA_DFIB_OPH'
p4216
ssS'content_placement'
p4217
g11
(tRp4218
g4202
S'UNIFORM'
p4219
ssS'joint_cache_rsn_placement'
p4220
g11
(tRp4221
S'network_cache'
p4222
F0.94999999999999996
sS'network_rsn'
p4223
F60.799999999999997
sg4202
S'CACHE_ALL_RSN_ALL'
p4224
sS'rsn_cache_ratio'
p4225
I64
ssS'warmup_strategy'
p4226
g11
(tRp4227
g4215
I10
sS'p'
F0.10000000000000001
sg4202
g4216
sS'fan_out'
p4228
I100
ssS'topology'
p4229
g11
(tRp4230
S'ext_delay'
p4231
I5
sS'source_ratio'
p4232
F0.10000000000000001
sg4202
S'ROCKET_FUEL'
p4233
sS'asn'
p4234
I3257
ssg11
(tRp4235
S'SAT_RATE'
p4236
g11
(tRp4237
S'MEAN_CACHE_HIT'
p4238
F0.47774444444444447
sS'MEAN_SERVER_HIT'
p4239
F0.64671111111111113
sS'MEAN_SERVER_CACHE_HITS'
p4240
F0.12798055555555554
sS'MEAN'
p4241
F0.996475
ssS'CACHE_HIT_RATIO'
p4242
g11
(tRp4243
S'MEAN_OFF_PATH'
p4244
F0.23580300589915121
sS'MEAN_ON_PATH'
p4245
F0.24194143854529326
sg4241
F0.47774444444444447
ssS'OVERHEAD'
p4246
g11
(tRp4247
S'SUCCESS_RATE'
p4248
F0.43801225908581776
sS'QUOTA_USED_FAILURE'
p4249
F1.2903227051610959
sS'FAILURE_RATE'
p4250
F0.56198774091418224
sS'QUOTA_USED_SUCCESS'
p4251
F3.0176213367181504
sg4241
F1.2766195282816373
sS'NUM_SUCCESS_FIRST_TIME'
p4252
F0.43615637778935856
ssS'LATENCY'
p4253
g11
(tRp4254
g4241
F37.892852777777776
sstp4255
a(g11
(tRp4256
S'workload'
p4257
g11
(tRp4258
S'n_contents'
p4259
I10000
sS'name'
p4260
S'STATIONARY'
p4261
sS'n_warmup'
p4262
I720000
sS'rate'
p4263
I100
sS'n_measured'
p4264
I360000
sS'alpha'
p4265
F0.69999999999999996
ssS'cache_policy'
p4266
g11
(tRp4267
g4260
S'LRU'
p4268
ssS'desc'
p4269
S'caching probability: 0.5'
p4270
sS'strategy'
p4271
g11
(tRp4272
S'extra_quota'
p4273
I3
sS'p'
F0.5
sg4260
S'LIRA_DFIB_OPH'
p4274
ssS'content_placement'
p4275
g11
(tRp4276
g4260
S'UNIFORM'
p4277
ssS'joint_cache_rsn_placement'
p4278
g11
(tRp4279
S'network_cache'
p4280
F0.94999999999999996
sS'network_rsn'
p4281
F60.799999999999997
sg4260
S'CACHE_ALL_RSN_ALL'
p4282
sS'rsn_cache_ratio'
p4283
I64
ssS'warmup_strategy'
p4284
g11
(tRp4285
g4273
I10
sS'p'
F0.10000000000000001
sg4260
g4274
sS'fan_out'
p4286
I100
ssS'topology'
p4287
g11
(tRp4288
S'ext_delay'
p4289
I5
sS'source_ratio'
p4290
F0.10000000000000001
sg4260
S'ROCKET_FUEL'
p4291
sS'asn'
p4292
I3257
ssg11
(tRp4293
S'SAT_RATE'
p4294
g11
(tRp4295
S'MEAN_CACHE_HIT'
p4296
F0.49808888888888891
sS'MEAN_SERVER_HIT'
p4297
F0.62037222222222221
sS'MEAN_SERVER_CACHE_HITS'
p4298
F0.12183055555555555
sS'MEAN'
p4299
F0.99663055555555558
ssS'CACHE_HIT_RATIO'
p4300
g11
(tRp4301
S'MEAN_OFF_PATH'
p4302
F0.24073752129662285
sS'MEAN_ON_PATH'
p4303
F0.25735136759226607
sg4299
F0.49808888888888891
ssS'OVERHEAD'
p4304
g11
(tRp4305
S'SUCCESS_RATE'
p4306
F0.44717468490753359
sS'QUOTA_USED_FAILURE'
p4307
F1.2991833568253079
sS'FAILURE_RATE'
p4308
F0.55282531509246635
sS'QUOTA_USED_SUCCESS'
p4309
F2.944911713930126
sg4299
F1.2766711168464855
sS'NUM_SUCCESS_FIRST_TIME'
p4310
F0.44508767073601418
ssS'LATENCY'
p4311
g11
(tRp4312
g4299
F37.160511111111113
sstp4313
a(g11
(tRp4314
S'workload'
p4315
g11
(tRp4316
S'n_contents'
p4317
I10000
sS'name'
p4318
S'STATIONARY'
p4319
sS'n_warmup'
p4320
I720000
sS'rate'
p4321
I100
sS'n_measured'
p4322
I360000
sS'alpha'
p4323
F0.69999999999999996
ssS'cache_policy'
p4324
g11
(tRp4325
g4318
S'LRU'
p4326
ssS'desc'
p4327
S'caching probability: 1.0'
p4328
sS'strategy'
p4329
g11
(tRp4330
S'extra_quota'
p4331
I3
sS'p'
F1
sg4318
S'LIRA_DFIB_OPH'
p4332
ssS'content_placement'
p4333
g11
(tRp4334
g4318
S'UNIFORM'
p4335
ssS'joint_cache_rsn_placement'
p4336
g11
(tRp4337
S'network_cache'
p4338
F0.94999999999999996
sS'network_rsn'
p4339
F60.799999999999997
sg4318
S'CACHE_ALL_RSN_ALL'
p4340
sS'rsn_cache_ratio'
p4341
I64
ssS'warmup_strategy'
p4342
g11
(tRp4343
g4331
I10
sS'p'
F0.10000000000000001
sg4318
g4332
sS'fan_out'
p4344
I100
ssS'topology'
p4345
g11
(tRp4346
S'ext_delay'
p4347
I5
sS'source_ratio'
p4348
F0.10000000000000001
sg4318
S'ROCKET_FUEL'
p4349
sS'asn'
p4350
I3257
ssg11
(tRp4351
S'SAT_RATE'
p4352
g11
(tRp4353
S'MEAN_CACHE_HIT'
p4354
F0.45739166666666664
sS'MEAN_SERVER_HIT'
p4355
F0.66757777777777783
sS'MEAN_SERVER_CACHE_HITS'
p4356
F0.12833333333333333
sS'MEAN'
p4357
F0.99663611111111106
ssS'CACHE_HIT_RATIO'
p4358
g11
(tRp4359
S'MEAN_OFF_PATH'
p4360
F0.24171767628256569
sS'MEAN_ON_PATH'
p4361
F0.21567399038410096
sg4357
F0.45739166666666664
ssS'OVERHEAD'
p4362
g11
(tRp4363
S'SUCCESS_RATE'
p4364
F0.43464785253588401
sS'QUOTA_USED_FAILURE'
p4365
F1.266370043364035
sS'FAILURE_RATE'
p4366
F0.56535214746411599
sS'QUOTA_USED_SUCCESS'
p4367
F3.2675819099701457
sg4357
F1.2826842517468484
sS'NUM_SUCCESS_FIRST_TIME'
p4368
F0.42983434505960655
ssS'LATENCY'
p4369
g11
(tRp4370
g4357
F39.715886111111111
sstp4371
atRp4372
sb.