ccopy_reg
_reconstructor
p1
(cicarus.results.readwrite
ResultSet
p2
c__builtin__
object
p3
NtRp4
(dp5
S'attr'
p6
(dp7
sS'_results'
p8
ccollections
deque
p9
((lp10
(cicarus.util
Tree
p11
(tRp12
S'workload'
p13
g11
(tRp14
S'n_contents'
p15
I10000
sS'name'
p16
S'STATIONARY'
p17
sS'n_warmup'
p18
I720000
sS'rate'
p19
I100
sS'n_measured'
p20
I360000
sS'alpha'
p21
F0.69999999999999996
ssS'cache_policy'
p22
g11
(tRp23
g16
S'LRU'
p24
ssS'desc'
p25
S'fan out: 1'
p26
sS'strategy'
p27
g11
(tRp28
S'extra_quota'
p29
I0
sS'p'
F0.5
sg16
S'LIRA_DFIB_SC'
p30
sS'fan_out'
p31
I1
ssS'content_placement'
p32
g11
(tRp33
g16
S'UNIFORM'
p34
ssS'joint_cache_rsn_placement'
p35
g11
(tRp36
S'network_cache'
p37
F0.94999999999999996
sS'network_rsn'
p38
F60.799999999999997
sg16
S'CACHE_ALL_RSN_ALL'
p39
sS'rsn_cache_ratio'
p40
I64
ssS'warmup_strategy'
p41
g11
(tRp42
g29
I10
sS'p'
F0.10000000000000001
sg16
g30
sg31
I100
ssS'topology'
p43
g11
(tRp44
S'ext_delay'
p45
I5
sS'source_ratio'
p46
F0.10000000000000001
sg16
S'ROCKET_FUEL'
p47
sS'asn'
p48
I3257
ssg11
(tRp49
S'SAT_RATE'
p50
g11
(tRp51
S'MEAN_CACHE_HIT'
p52
F0.59700555555555557
sS'MEAN_SERVER_HIT'
p53
F0.24188333333333334
sS'MEAN_SERVER_CACHE_HITS'
p54
F0.0021555555555555555
sS'MEAN'
p55
F0.83673333333333333
ssS'CACHE_HIT_RATIO'
p56
g11
(tRp57
S'MEAN_OFF_PATH'
p58
F0.37763576158940398
sS'MEAN_ON_PATH'
p59
F0.21936979396615158
sg55
F0.59700555555555557
ssS'OVERHEAD'
p60
g11
(tRp61
S'SUCCESS_RATE'
p62
F0.61230369061641143
sS'QUOTA_USED_FAILURE'
p63
F1
sS'FAILURE_RATE'
p64
F0.38769630938358851
sS'QUOTA_USED_SUCCESS'
p65
F1
sg55
F1.1178292566329375
sS'NUM_SUCCESS_FIRST_TIME'
p66
F0.61414238296404866
ssS'LATENCY'
p67
g11
(tRp68
g55
F23.028511111111111
sstp69
a(g11
(tRp70
S'workload'
p71
g11
(tRp72
S'n_contents'
p73
I10000
sS'name'
p74
S'STATIONARY'
p75
sS'n_warmup'
p76
I720000
sS'rate'
p77
I100
sS'n_measured'
p78
I360000
sS'alpha'
p79
F0.69999999999999996
ssS'cache_policy'
p80
g11
(tRp81
g74
S'LRU'
p82
ssS'desc'
p83
S'fan out: 2'
p84
sS'strategy'
p85
g11
(tRp86
S'extra_quota'
p87
I0
sS'p'
F0.5
sg74
S'LIRA_DFIB_OPH'
p88
sS'fan_out'
p89
I2
ssS'content_placement'
p90
g11
(tRp91
g74
S'UNIFORM'
p92
ssS'joint_cache_rsn_placement'
p93
g11
(tRp94
S'network_cache'
p95
F0.94999999999999996
sS'network_rsn'
p96
F60.799999999999997
sg74
S'CACHE_ALL_RSN_ALL'
p97
sS'rsn_cache_ratio'
p98
I64
ssS'warmup_strategy'
p99
g11
(tRp100
g87
I10
sS'p'
F0.10000000000000001
sg74
g88
sg89
I100
ssS'topology'
p101
g11
(tRp102
S'ext_delay'
p103
I5
sS'source_ratio'
p104
F0.10000000000000001
sg74
S'ROCKET_FUEL'
p105
sS'asn'
p106
I3257
ssg11
(tRp107
S'SAT_RATE'
p108
g11
(tRp109
S'MEAN_CACHE_HIT'
p110
F0.67746944444444446
sS'MEAN_SERVER_HIT'
p111
F0.16656944444444444
sS'MEAN_SERVER_CACHE_HITS'
p112
F0.002563888888888889
sS'MEAN'
p113
F0.84147499999999997
ssS'CACHE_HIT_RATIO'
p114
g11
(tRp115
S'MEAN_OFF_PATH'
p116
F0.54759193560065034
sS'MEAN_ON_PATH'
p117
F0.12987750884379412
sg113
F0.67746944444444446
ssS'OVERHEAD'
p118
g11
(tRp119
S'SUCCESS_RATE'
p120
F0.71528897973591421
sS'QUOTA_USED_FAILURE'
p121
F1.4565167455216657
sS'FAILURE_RATE'
p122
F0.28471102026408573
sS'QUOTA_USED_SUCCESS'
p123
F5.8732240613611051
sg113
F1.1201857848817058
sS'NUM_SUCCESS_FIRST_TIME'
p124
F0.71640386778372234
ssS'LATENCY'
p125
g11
(tRp126
g113
F20.719102777777778
sstp127
a(g11
(tRp128
S'workload'
p129
g11
(tRp130
S'n_contents'
p131
I10000
sS'name'
p132
S'STATIONARY'
p133
sS'n_warmup'
p134
I720000
sS'rate'
p135
I100
sS'n_measured'
p136
I360000
sS'alpha'
p137
F0.69999999999999996
ssS'cache_policy'
p138
g11
(tRp139
g132
S'LRU'
p140
ssS'desc'
p141
S'fan out: 1'
p142
sS'strategy'
p143
g11
(tRp144
S'extra_quota'
p145
I0
sS'p'
F0.5
sg132
S'LIRA_DFIB_OPH'
p146
sS'fan_out'
p147
I1
ssS'content_placement'
p148
g11
(tRp149
g132
S'UNIFORM'
p150
ssS'joint_cache_rsn_placement'
p151
g11
(tRp152
S'network_cache'
p153
F0.94999999999999996
sS'network_rsn'
p154
F60.799999999999997
sg132
S'CACHE_ALL_RSN_ALL'
p155
sS'rsn_cache_ratio'
p156
I64
ssS'warmup_strategy'
p157
g11
(tRp158
g145
I10
sS'p'
F0.10000000000000001
sg132
g146
sg147
I100
ssS'topology'
p159
g11
(tRp160
S'ext_delay'
p161
I5
sS'source_ratio'
p162
F0.10000000000000001
sg132
S'ROCKET_FUEL'
p163
sS'asn'
p164
I3257
ssg11
(tRp165
S'SAT_RATE'
p166
g11
(tRp167
S'MEAN_CACHE_HIT'
p168
F0.60122222222222221
sS'MEAN_SERVER_HIT'
p169
F0.23741944444444443
sS'MEAN_SERVER_CACHE_HITS'
p170
F0.0020972222222222221
sS'MEAN'
p171
F0.83654444444444442
ssS'CACHE_HIT_RATIO'
p172
g11
(tRp173
S'MEAN_OFF_PATH'
p174
F0.37239451361493953
sS'MEAN_ON_PATH'
p175
F0.22882770860728269
sg171
F0.60122222222222221
ssS'OVERHEAD'
p176
g11
(tRp177
S'SUCCESS_RATE'
p178
F0.61001103420603875
sS'QUOTA_USED_FAILURE'
p179
F1.3721902811932964
sS'FAILURE_RATE'
p180
F0.38998896579396131
sS'QUOTA_USED_SUCCESS'
p181
F3.2728913831690303
sg171
F1.0769700753098062
sS'NUM_SUCCESS_FIRST_TIME'
p182
F0.61401609587543193
ssS'LATENCY'
p183
g11
(tRp184
g171
F22.454991666666668
sstp185
a(g11
(tRp186
S'workload'
p187
g11
(tRp188
S'n_contents'
p189
I10000
sS'name'
p190
S'STATIONARY'
p191
sS'n_warmup'
p192
I720000
sS'rate'
p193
I100
sS'n_measured'
p194
I360000
sS'alpha'
p195
F0.69999999999999996
ssS'cache_policy'
p196
g11
(tRp197
g190
S'LRU'
p198
ssS'desc'
p199
S'fan out: 1'
p200
sS'strategy'
p201
g11
(tRp202
S'extra_quota'
p203
I1
sS'p'
F0.5
sg190
S'LIRA_DFIB_SC'
p204
sS'fan_out'
p205
I1
ssS'content_placement'
p206
g11
(tRp207
g190
S'UNIFORM'
p208
ssS'joint_cache_rsn_placement'
p209
g11
(tRp210
S'network_cache'
p211
F0.94999999999999996
sS'network_rsn'
p212
F60.799999999999997
sg190
S'CACHE_ALL_RSN_ALL'
p213
sS'rsn_cache_ratio'
p214
I64
ssS'warmup_strategy'
p215
g11
(tRp216
g203
I10
sS'p'
F0.10000000000000001
sg190
g204
sg205
I100
ssS'topology'
p217
g11
(tRp218
S'ext_delay'
p219
I5
sS'source_ratio'
p220
F0.10000000000000001
sg190
S'ROCKET_FUEL'
p221
sS'asn'
p222
I3257
ssg11
(tRp223
S'SAT_RATE'
p224
g11
(tRp225
S'MEAN_CACHE_HIT'
p226
F0.58310277777777775
sS'MEAN_SERVER_HIT'
p227
F0.58081388888888885
sS'MEAN_SERVER_CACHE_HITS'
p228
F0.18642777777777778
sS'MEAN'
p229
F0.97748888888888885
ssS'CACHE_HIT_RATIO'
p230
g11
(tRp231
S'MEAN_OFF_PATH'
p232
F0.30759647741104029
sS'MEAN_ON_PATH'
p233
F0.27550630036673746
sg229
F0.58310277777777775
ssS'OVERHEAD'
p234
g11
(tRp235
S'SUCCESS_RATE'
p236
F0.55575557357915772
sS'QUOTA_USED_FAILURE'
p237
F1
sS'FAILURE_RATE'
p238
F0.44424442642084233
sS'QUOTA_USED_SUCCESS'
p239
F1
sg229
F1.3719706958874214
sS'NUM_SUCCESS_FIRST_TIME'
p240
F0.55651327924493421
ssS'LATENCY'
p241
g11
(tRp242
g229
F34.940030555555559
sstp243
a(g11
(tRp244
S'workload'
p245
g11
(tRp246
S'n_contents'
p247
I10000
sS'name'
p248
S'STATIONARY'
p249
sS'n_warmup'
p250
I720000
sS'rate'
p251
I100
sS'n_measured'
p252
I360000
sS'alpha'
p253
F0.69999999999999996
ssS'cache_policy'
p254
g11
(tRp255
g248
S'LRU'
p256
ssS'desc'
p257
S'fan out: 2'
p258
sS'strategy'
p259
g11
(tRp260
S'extra_quota'
p261
I5
sS'p'
F0.5
sg248
S'LIRA_DFIB_OPH'
p262
sS'fan_out'
p263
I2
ssS'content_placement'
p264
g11
(tRp265
g248
S'UNIFORM'
p266
ssS'joint_cache_rsn_placement'
p267
g11
(tRp268
S'network_cache'
p269
F0.94999999999999996
sS'network_rsn'
p270
F60.799999999999997
sg248
S'CACHE_ALL_RSN_ALL'
p271
sS'rsn_cache_ratio'
p272
I64
ssS'warmup_strategy'
p273
g11
(tRp274
g261
I10
sS'p'
F0.10000000000000001
sg248
g262
sg263
I100
ssS'topology'
p275
g11
(tRp276
S'ext_delay'
p277
I5
sS'source_ratio'
p278
F0.10000000000000001
sg248
S'ROCKET_FUEL'
p279
sS'asn'
p280
I3257
ssg11
(tRp281
S'SAT_RATE'
p282
g11
(tRp283
S'MEAN_CACHE_HIT'
p284
F0.6580583333333333
sS'MEAN_SERVER_HIT'
p285
F0.61077777777777775
sS'MEAN_SERVER_CACHE_HITS'
p286
F0.27051944444444442
sS'MEAN'
p287
F0.99831666666666663
ssS'CACHE_HIT_RATIO'
p288
g11
(tRp289
S'MEAN_OFF_PATH'
p290
F0.40619903192120516
sS'MEAN_ON_PATH'
p291
F0.25185930141212814
sg287
F0.6580583333333333
ssS'OVERHEAD'
p292
g11
(tRp293
S'SUCCESS_RATE'
p294
F0.6427076291018774
sS'QUOTA_USED_FAILURE'
p295
F1.4115253286372245
sS'FAILURE_RATE'
p296
F0.3572923708981226
sS'QUOTA_USED_SUCCESS'
p297
F5.9523889786224737
sg287
F1.4964245368592686
sS'NUM_SUCCESS_FIRST_TIME'
p298
F0.64009370219713135
ssS'LATENCY'
p299
g11
(tRp300
g287
F33.70986666666667
sstp301
a(g11
(tRp302
S'workload'
p303
g11
(tRp304
S'n_contents'
p305
I10000
sS'name'
p306
S'STATIONARY'
p307
sS'n_warmup'
p308
I720000
sS'rate'
p309
I100
sS'n_measured'
p310
I360000
sS'alpha'
p311
F0.69999999999999996
ssS'cache_policy'
p312
g11
(tRp313
g306
S'LRU'
p314
ssS'desc'
p315
S'fan out: 2'
p316
sS'strategy'
p317
g11
(tRp318
S'extra_quota'
p319
I3
sS'p'
F0.5
sg306
S'LIRA_DFIB_OPH'
p320
sS'fan_out'
p321
I2
ssS'content_placement'
p322
g11
(tRp323
g306
S'UNIFORM'
p324
ssS'joint_cache_rsn_placement'
p325
g11
(tRp326
S'network_cache'
p327
F0.94999999999999996
sS'network_rsn'
p328
F60.799999999999997
sg306
S'CACHE_ALL_RSN_ALL'
p329
sS'rsn_cache_ratio'
p330
I64
ssS'warmup_strategy'
p331
g11
(tRp332
g319
I10
sS'p'
F0.10000000000000001
sg306
g320
sg321
I100
ssS'topology'
p333
g11
(tRp334
S'ext_delay'
p335
I5
sS'source_ratio'
p336
F0.10000000000000001
sg306
S'ROCKET_FUEL'
p337
sS'asn'
p338
I3257
ssg11
(tRp339
S'SAT_RATE'
p340
g11
(tRp341
S'MEAN_CACHE_HIT'
p342
F0.66063611111111109
sS'MEAN_SERVER_HIT'
p343
F0.59485277777777779
sS'MEAN_SERVER_CACHE_HITS'
p344
F0.25964999999999999
sS'MEAN'
p345
F0.99583888888888894
ssS'CACHE_HIT_RATIO'
p346
g11
(tRp347
S'MEAN_OFF_PATH'
p348
F0.40418075296033418
sS'MEAN_ON_PATH'
p349
F0.25645535815077691
sg345
F0.66063611111111109
ssS'OVERHEAD'
p350
g11
(tRp351
S'SUCCESS_RATE'
p352
F0.64004316785654991
sS'QUOTA_USED_FAILURE'
p353
F1.3953585254432364
sS'FAILURE_RATE'
p354
F0.35995683214345009
sS'QUOTA_USED_SUCCESS'
p355
F5.159573044822185
sg345
F1.4516766991537007
sS'NUM_SUCCESS_FIRST_TIME'
p356
F0.63862163822716234
ssS'LATENCY'
p357
g11
(tRp358
g345
F32.746488888888891
sstp359
a(g11
(tRp360
S'workload'
p361
g11
(tRp362
S'n_contents'
p363
I10000
sS'name'
p364
S'STATIONARY'
p365
sS'n_warmup'
p366
I720000
sS'rate'
p367
I100
sS'n_measured'
p368
I360000
sS'alpha'
p369
F0.69999999999999996
ssS'cache_policy'
p370
g11
(tRp371
g364
S'LRU'
p372
ssS'desc'
p373
S'fan out: 3'
p374
sS'strategy'
p375
g11
(tRp376
S'extra_quota'
p377
I5
sS'p'
F0.5
sg364
S'LIRA_DFIB_OPH'
p378
sS'fan_out'
p379
I3
ssS'content_placement'
p380
g11
(tRp381
g364
S'UNIFORM'
p382
ssS'joint_cache_rsn_placement'
p383
g11
(tRp384
S'network_cache'
p385
F0.94999999999999996
sS'network_rsn'
p386
F60.799999999999997
sg364
S'CACHE_ALL_RSN_ALL'
p387
sS'rsn_cache_ratio'
p388
I64
ssS'warmup_strategy'
p389
g11
(tRp390
g377
I10
sS'p'
F0.10000000000000001
sg364
g378
sg379
I100
ssS'topology'
p391
g11
(tRp392
S'ext_delay'
p393
I5
sS'source_ratio'
p394
F0.10000000000000001
sg364
S'ROCKET_FUEL'
p395
sS'asn'
p396
I3257
ssg11
(tRp397
S'SAT_RATE'
p398
g11
(tRp399
S'MEAN_CACHE_HIT'
p400
F0.6592055555555556
sS'MEAN_SERVER_HIT'
p401
F0.60988611111111113
sS'MEAN_SERVER_CACHE_HITS'
p402
F0.27080277777777778
sS'MEAN'
p403
F0.99828888888888889
ssS'CACHE_HIT_RATIO'
p404
g11
(tRp405
S'MEAN_OFF_PATH'
p406
F0.40750711904621195
sS'MEAN_ON_PATH'
p407
F0.25169843650934365
sg403
F0.6592055555555556
ssS'OVERHEAD'
p408
g11
(tRp409
S'SUCCESS_RATE'
p410
F0.64243524041923095
sS'QUOTA_USED_FAILURE'
p411
F1.4116110464374074
sS'FAILURE_RATE'
p412
F0.35756475958076905
sS'QUOTA_USED_SUCCESS'
p413
F6.2275403567635195
sg403
F1.4890507089909402
sS'NUM_SUCCESS_FIRST_TIME'
p414
F0.63968700708254722
ssS'LATENCY'
p415
g11
(tRp416
g403
F33.480472222222225
sstp417
a(g11
(tRp418
S'workload'
p419
g11
(tRp420
S'n_contents'
p421
I10000
sS'name'
p422
S'STATIONARY'
p423
sS'n_warmup'
p424
I720000
sS'rate'
p425
I100
sS'n_measured'
p426
I360000
sS'alpha'
p427
F0.69999999999999996
ssS'cache_policy'
p428
g11
(tRp429
g422
S'LRU'
p430
ssS'desc'
p431
S'fan out: 3'
p432
sS'strategy'
p433
g11
(tRp434
S'extra_quota'
p435
I3
sS'p'
F0.5
sg422
S'LIRA_DFIB_OPH'
p436
sS'fan_out'
p437
I3
ssS'content_placement'
p438
g11
(tRp439
g422
S'UNIFORM'
p440
ssS'joint_cache_rsn_placement'
p441
g11
(tRp442
S'network_cache'
p443
F0.94999999999999996
sS'network_rsn'
p444
F60.799999999999997
sg422
S'CACHE_ALL_RSN_ALL'
p445
sS'rsn_cache_ratio'
p446
I64
ssS'warmup_strategy'
p447
g11
(tRp448
g435
I10
sS'p'
F0.10000000000000001
sg422
g436
sg437
I100
ssS'topology'
p449
g11
(tRp450
S'ext_delay'
p451
I5
sS'source_ratio'
p452
F0.10000000000000001
sg422
S'ROCKET_FUEL'
p453
sS'asn'
p454
I3257
ssg11
(tRp455
S'SAT_RATE'
p456
g11
(tRp457
S'MEAN_CACHE_HIT'
p458
F0.66304444444444444
sS'MEAN_SERVER_HIT'
p459
F0.59372499999999995
sS'MEAN_SERVER_CACHE_HITS'
p460
F0.26094722222222222
sS'MEAN'
p461
F0.99582222222222228
ssS'CACHE_HIT_RATIO'
p462
g11
(tRp463
S'MEAN_OFF_PATH'
p464
F0.40929676396934822
sS'MEAN_ON_PATH'
p465
F0.25374768047509622
sg461
F0.66304444444444444
ssS'OVERHEAD'
p466
g11
(tRp467
S'SUCCESS_RATE'
p468
F0.64459877055989367
sS'QUOTA_USED_FAILURE'
p469
F1.414287864351085
sS'FAILURE_RATE'
p470
F0.35540122944010633
sS'QUOTA_USED_SUCCESS'
p471
F5.4443822147198668
sg461
F1.451366263500848
sS'NUM_SUCCESS_FIRST_TIME'
p472
F0.6443462706551415
ssS'LATENCY'
p473
g11
(tRp474
g461
F32.725505555555557
sstp475
a(g11
(tRp476
S'workload'
p477
g11
(tRp478
S'n_contents'
p479
I10000
sS'name'
p480
S'STATIONARY'
p481
sS'n_warmup'
p482
I720000
sS'rate'
p483
I100
sS'n_measured'
p484
I360000
sS'alpha'
p485
F0.69999999999999996
ssS'cache_policy'
p486
g11
(tRp487
g480
S'LRU'
p488
ssS'desc'
p489
S'fan out: 1'
p490
sS'strategy'
p491
g11
(tRp492
S'extra_quota'
p493
I1
sS'p'
F0.5
sg480
S'LIRA_DFIB_OPH'
p494
sS'fan_out'
p495
I1
ssS'content_placement'
p496
g11
(tRp497
g480
S'UNIFORM'
p498
ssS'joint_cache_rsn_placement'
p499
g11
(tRp500
S'network_cache'
p501
F0.94999999999999996
sS'network_rsn'
p502
F60.799999999999997
sg480
S'CACHE_ALL_RSN_ALL'
p503
sS'rsn_cache_ratio'
p504
I64
ssS'warmup_strategy'
p505
g11
(tRp506
g493
I10
sS'p'
F0.10000000000000001
sg480
g494
sg495
I100
ssS'topology'
p507
g11
(tRp508
S'ext_delay'
p509
I5
sS'source_ratio'
p510
F0.10000000000000001
sg480
S'ROCKET_FUEL'
p511
sS'asn'
p512
I3257
ssg11
(tRp513
S'SAT_RATE'
p514
g11
(tRp515
S'MEAN_CACHE_HIT'
p516
F0.58147777777777776
sS'MEAN_SERVER_HIT'
p517
F0.52698611111111116
sS'MEAN_SERVER_CACHE_HITS'
p518
F0.14430555555555555
sS'MEAN'
p519
F0.96415833333333334
ssS'CACHE_HIT_RATIO'
p520
g11
(tRp521
S'MEAN_OFF_PATH'
p522
F0.3193433354968212
sS'MEAN_ON_PATH'
p523
F0.26213444228095656
sg519
F0.58147777777777776
ssS'OVERHEAD'
p524
g11
(tRp525
S'SUCCESS_RATE'
p526
F0.55498762466038365
sS'QUOTA_USED_FAILURE'
p527
F1.3281046226089859
sS'FAILURE_RATE'
p528
F0.44501237533961641
sS'QUOTA_USED_SUCCESS'
p529
F3.1301016519686629
sg519
F1.2868391256622789
sS'NUM_SUCCESS_FIRST_TIME'
p530
F0.55898014520934047
ssS'LATENCY'
p531
g11
(tRp532
g519
F32.635427777777778
sstp533
a(g11
(tRp534
S'workload'
p535
g11
(tRp536
S'n_contents'
p537
I10000
sS'name'
p538
S'STATIONARY'
p539
sS'n_warmup'
p540
I720000
sS'rate'
p541
I100
sS'n_measured'
p542
I360000
sS'alpha'
p543
F0.69999999999999996
ssS'cache_policy'
p544
g11
(tRp545
g538
S'LRU'
p546
ssS'desc'
p547
S'fan out: 3'
p548
sS'strategy'
p549
g11
(tRp550
S'extra_quota'
p551
I2
sS'p'
F0.5
sg538
S'LIRA_DFIB_OPH'
p552
sS'fan_out'
p553
I3
ssS'content_placement'
p554
g11
(tRp555
g538
S'UNIFORM'
p556
ssS'joint_cache_rsn_placement'
p557
g11
(tRp558
S'network_cache'
p559
F0.94999999999999996
sS'network_rsn'
p560
F60.799999999999997
sg538
S'CACHE_ALL_RSN_ALL'
p561
sS'rsn_cache_ratio'
p562
I64
ssS'warmup_strategy'
p563
g11
(tRp564
g551
I10
sS'p'
F0.10000000000000001
sg538
g552
sg553
I100
ssS'topology'
p565
g11
(tRp566
S'ext_delay'
p567
I5
sS'source_ratio'
p568
F0.10000000000000001
sg538
S'ROCKET_FUEL'
p569
sS'asn'
p570
I3257
ssg11
(tRp571
S'SAT_RATE'
p572
g11
(tRp573
S'MEAN_CACHE_HIT'
p574
F0.65953055555555551
sS'MEAN_SERVER_HIT'
p575
F0.56761388888888886
sS'MEAN_SERVER_CACHE_HITS'
p576
F0.23664722222222223
sS'MEAN'
p577
F0.99049722222222225
ssS'CACHE_HIT_RATIO'
p578
g11
(tRp579
S'MEAN_OFF_PATH'
p580
F0.4175479659190714
sS'MEAN_ON_PATH'
p581
F0.24198258963648411
sg577
F0.65953055555555551
ssS'OVERHEAD'
p582
g11
(tRp583
S'SUCCESS_RATE'
p584
F0.64458137508581081
sS'QUOTA_USED_FAILURE'
p585
F1.4039725846357112
sS'FAILURE_RATE'
p586
F0.35541862491418913
sS'QUOTA_USED_SUCCESS'
p587
F5.1039706253909634
sg577
F1.4265085717330521
sS'NUM_SUCCESS_FIRST_TIME'
p588
F0.6430073132484978
ssS'LATENCY'
p589
g11
(tRp590
g577
F31.937686111111113
sstp591
a(g11
(tRp592
S'workload'
p593
g11
(tRp594
S'n_contents'
p595
I10000
sS'name'
p596
S'STATIONARY'
p597
sS'n_warmup'
p598
I720000
sS'rate'
p599
I100
sS'n_measured'
p600
I360000
sS'alpha'
p601
F0.69999999999999996
ssS'cache_policy'
p602
g11
(tRp603
g596
S'LRU'
p604
ssS'desc'
p605
S'fan out: 1'
p606
sS'strategy'
p607
g11
(tRp608
S'extra_quota'
p609
I5
sS'p'
F0.5
sg596
S'LIRA_DFIB_OPH'
p610
sS'fan_out'
p611
I1
ssS'content_placement'
p612
g11
(tRp613
g596
S'UNIFORM'
p614
ssS'joint_cache_rsn_placement'
p615
g11
(tRp616
S'network_cache'
p617
F0.94999999999999996
sS'network_rsn'
p618
F60.799999999999997
sg596
S'CACHE_ALL_RSN_ALL'
p619
sS'rsn_cache_ratio'
p620
I64
ssS'warmup_strategy'
p621
g11
(tRp622
g609
I10
sS'p'
F0.10000000000000001
sg596
g610
sg611
I100
ssS'topology'
p623
g11
(tRp624
S'ext_delay'
p625
I5
sS'source_ratio'
p626
F0.10000000000000001
sg596
S'ROCKET_FUEL'
p627
sS'asn'
p628
I3257
ssg11
(tRp629
S'SAT_RATE'
p630
g11
(tRp631
S'MEAN_CACHE_HIT'
p632
F0.58353888888888894
sS'MEAN_SERVER_HIT'
p633
F0.6212361111111111
sS'MEAN_SERVER_CACHE_HITS'
p634
F0.20581944444444444
sS'MEAN'
p635
F0.9989555555555556
ssS'CACHE_HIT_RATIO'
p636
g11
(tRp637
S'MEAN_OFF_PATH'
p638
F0.29196784092926525
sS'MEAN_ON_PATH'
p639
F0.29157104795962369
sg635
F0.58353888888888894
ssS'OVERHEAD'
p640
g11
(tRp641
S'SUCCESS_RATE'
p642
F0.5399020967416942
sS'QUOTA_USED_FAILURE'
p643
F1.319024009094738
sS'FAILURE_RATE'
p644
F0.4600979032583058
sS'QUOTA_USED_SUCCESS'
p645
F3.457524709535317
sg635
F1.3644528730006895
sS'NUM_SUCCESS_FIRST_TIME'
p646
F0.54290093500630221
ssS'LATENCY'
p647
g11
(tRp648
g635
F35.663363888888888
sstp649
a(g11
(tRp650
S'workload'
p651
g11
(tRp652
S'n_contents'
p653
I10000
sS'name'
p654
S'STATIONARY'
p655
sS'n_warmup'
p656
I720000
sS'rate'
p657
I100
sS'n_measured'
p658
I360000
sS'alpha'
p659
F0.69999999999999996
ssS'cache_policy'
p660
g11
(tRp661
g654
S'LRU'
p662
ssS'desc'
p663
S'fan out: 3'
p664
sS'strategy'
p665
g11
(tRp666
S'extra_quota'
p667
I4
sS'p'
F0.5
sg654
S'LIRA_DFIB_OPH'
p668
sS'fan_out'
p669
I3
ssS'content_placement'
p670
g11
(tRp671
g654
S'UNIFORM'
p672
ssS'joint_cache_rsn_placement'
p673
g11
(tRp674
S'network_cache'
p675
F0.94999999999999996
sS'network_rsn'
p676
F60.799999999999997
sg654
S'CACHE_ALL_RSN_ALL'
p677
sS'rsn_cache_ratio'
p678
I64
ssS'warmup_strategy'
p679
g11
(tRp680
g667
I10
sS'p'
F0.10000000000000001
sg654
g668
sg669
I100
ssS'topology'
p681
g11
(tRp682
S'ext_delay'
p683
I5
sS'source_ratio'
p684
F0.10000000000000001
sg654
S'ROCKET_FUEL'
p685
sS'asn'
p686
I3257
ssg11
(tRp687
S'SAT_RATE'
p688
g11
(tRp689
S'MEAN_CACHE_HIT'
p690
F0.66027499999999995
sS'MEAN_SERVER_HIT'
p691
F0.60472499999999996
sS'MEAN_SERVER_CACHE_HITS'
p692
F0.26756666666666667
sS'MEAN'
p693
F0.99743333333333328
ssS'CACHE_HIT_RATIO'
p694
g11
(tRp695
S'MEAN_OFF_PATH'
p696
F0.38331357048748355
sS'MEAN_ON_PATH'
p697
F0.2769614295125164
sg693
F0.66027499999999995
ssS'OVERHEAD'
p698
g11
(tRp699
S'SUCCESS_RATE'
p700
F0.63100243604121276
sS'QUOTA_USED_FAILURE'
p701
F1.3957944596798375
sS'FAILURE_RATE'
p702
F0.36899756395878719
sS'QUOTA_USED_SUCCESS'
p703
F4.1874104919616313
sg693
F1.4615680245964642
sS'NUM_SUCCESS_FIRST_TIME'
p704
F0.62886196436291653
ssS'LATENCY'
p705
g11
(tRp706
g693
F34.00611111111111
sstp707
a(g11
(tRp708
S'workload'
p709
g11
(tRp710
S'n_contents'
p711
I10000
sS'name'
p712
S'STATIONARY'
p713
sS'n_warmup'
p714
I720000
sS'rate'
p715
I100
sS'n_measured'
p716
I360000
sS'alpha'
p717
F0.69999999999999996
ssS'cache_policy'
p718
g11
(tRp719
g712
S'LRU'
p720
ssS'desc'
p721
S'fan out: 3'
p722
sS'strategy'
p723
g11
(tRp724
S'extra_quota'
p725
I1
sS'p'
F0.5
sg712
S'LIRA_DFIB_OPH'
p726
sS'fan_out'
p727
I3
ssS'content_placement'
p728
g11
(tRp729
g712
S'UNIFORM'
p730
ssS'joint_cache_rsn_placement'
p731
g11
(tRp732
S'network_cache'
p733
F0.94999999999999996
sS'network_rsn'
p734
F60.799999999999997
sg712
S'CACHE_ALL_RSN_ALL'
p735
sS'rsn_cache_ratio'
p736
I64
ssS'warmup_strategy'
p737
g11
(tRp738
g725
I10
sS'p'
F0.10000000000000001
sg712
g726
sg727
I100
ssS'topology'
p739
g11
(tRp740
S'ext_delay'
p741
I5
sS'source_ratio'
p742
F0.10000000000000001
sg712
S'ROCKET_FUEL'
p743
sS'asn'
p744
I3257
ssg11
(tRp745
S'SAT_RATE'
p746
g11
(tRp747
S'MEAN_CACHE_HIT'
p748
F0.66320277777777781
sS'MEAN_SERVER_HIT'
p749
F0.49883888888888889
sS'MEAN_SERVER_CACHE_HITS'
p750
F0.19336388888888889
sS'MEAN'
p751
F0.96867777777777775
ssS'CACHE_HIT_RATIO'
p752
g11
(tRp753
S'MEAN_OFF_PATH'
p754
F0.44246835669977408
sS'MEAN_ON_PATH'
p755
F0.22073442107800373
sg751
F0.66320277777777781
ssS'OVERHEAD'
p756
g11
(tRp757
S'SUCCESS_RATE'
p758
F0.65349648814008254
sS'QUOTA_USED_FAILURE'
p759
F1.411653683017515
sS'FAILURE_RATE'
p760
F0.34650351185991751
sS'QUOTA_USED_SUCCESS'
p761
F6.1026563542955818
sg751
F1.356273155848178
sS'NUM_SUCCESS_FIRST_TIME'
p762
F0.6536522241967786
ssS'LATENCY'
p763
g11
(tRp764
g751
F30.722761111111112
sstp765
a(g11
(tRp766
S'workload'
p767
g11
(tRp768
S'n_contents'
p769
I10000
sS'name'
p770
S'STATIONARY'
p771
sS'n_warmup'
p772
I720000
sS'rate'
p773
I100
sS'n_measured'
p774
I360000
sS'alpha'
p775
F0.69999999999999996
ssS'cache_policy'
p776
g11
(tRp777
g770
S'LRU'
p778
ssS'desc'
p779
S'fan out: 1'
p780
sS'strategy'
p781
g11
(tRp782
S'extra_quota'
p783
I2
sS'p'
F0.5
sg770
S'LIRA_DFIB_OPH'
p784
sS'fan_out'
p785
I1
ssS'content_placement'
p786
g11
(tRp787
g770
S'UNIFORM'
p788
ssS'joint_cache_rsn_placement'
p789
g11
(tRp790
S'network_cache'
p791
F0.94999999999999996
sS'network_rsn'
p792
F60.799999999999997
sg770
S'CACHE_ALL_RSN_ALL'
p793
sS'rsn_cache_ratio'
p794
I64
ssS'warmup_strategy'
p795
g11
(tRp796
g783
I10
sS'p'
F0.10000000000000001
sg770
g784
sg785
I100
ssS'topology'
p797
g11
(tRp798
S'ext_delay'
p799
I5
sS'source_ratio'
p800
F0.10000000000000001
sg770
S'ROCKET_FUEL'
p801
sS'asn'
p802
I3257
ssg11
(tRp803
S'SAT_RATE'
p804
g11
(tRp805
S'MEAN_CACHE_HIT'
p806
F0.58148888888888894
sS'MEAN_SERVER_HIT'
p807
F0.59079999999999999
sS'MEAN_SERVER_CACHE_HITS'
p808
F0.18040555555555557
sS'MEAN'
p809
F0.99188333333333334
ssS'CACHE_HIT_RATIO'
p810
g11
(tRp811
S'MEAN_OFF_PATH'
p812
F0.31379495005023411
sS'MEAN_ON_PATH'
p813
F0.26769393883865483
sg809
F0.58148888888888894
ssS'OVERHEAD'
p814
g11
(tRp815
S'SUCCESS_RATE'
p816
F0.54943902694767743
sS'QUOTA_USED_FAILURE'
p817
F1.3180938691906929
sS'FAILURE_RATE'
p818
F0.45056097305232251
sS'QUOTA_USED_SUCCESS'
p819
F4.6179896411760932
sg809
F1.3448434235657196
sS'NUM_SUCCESS_FIRST_TIME'
p820
F0.55449974689191861
ssS'LATENCY'
p821
g11
(tRp822
g809
F34.61568888888889
sstp823
a(g11
(tRp824
S'workload'
p825
g11
(tRp826
S'n_contents'
p827
I10000
sS'name'
p828
S'STATIONARY'
p829
sS'n_warmup'
p830
I720000
sS'rate'
p831
I100
sS'n_measured'
p832
I360000
sS'alpha'
p833
F0.69999999999999996
ssS'cache_policy'
p834
g11
(tRp835
g828
S'LRU'
p836
ssS'desc'
p837
S'fan out: 3'
p838
sS'strategy'
p839
g11
(tRp840
S'extra_quota'
p841
I0
sS'p'
F0.5
sg828
S'LIRA_DFIB_OPH'
p842
sS'fan_out'
p843
I3
ssS'content_placement'
p844
g11
(tRp845
g828
S'UNIFORM'
p846
ssS'joint_cache_rsn_placement'
p847
g11
(tRp848
S'network_cache'
p849
F0.94999999999999996
sS'network_rsn'
p850
F60.799999999999997
sg828
S'CACHE_ALL_RSN_ALL'
p851
sS'rsn_cache_ratio'
p852
I64
ssS'warmup_strategy'
p853
g11
(tRp854
g841
I10
sS'p'
F0.10000000000000001
sg828
g842
sg843
I100
ssS'topology'
p855
g11
(tRp856
S'ext_delay'
p857
I5
sS'source_ratio'
p858
F0.10000000000000001
sg828
S'ROCKET_FUEL'
p859
sS'asn'
p860
I3257
ssg11
(tRp861
S'SAT_RATE'
p862
g11
(tRp863
S'MEAN_CACHE_HIT'
p864
F0.67659722222222218
sS'MEAN_SERVER_HIT'
p865
F0.16649722222222221
sS'MEAN_SERVER_CACHE_HITS'
p866
F0.0027722222222222224
sS'MEAN'
p867
F0.84032222222222219
ssS'CACHE_HIT_RATIO'
p868
g11
(tRp869
S'MEAN_OFF_PATH'
p870
F0.54922013482079901
sS'MEAN_ON_PATH'
p871
F0.12737708740142317
sg867
F0.67659722222222218
ssS'OVERHEAD'
p872
g11
(tRp873
S'SUCCESS_RATE'
p874
F0.71633635103172666
sS'QUOTA_USED_FAILURE'
p875
F1.4473284937706925
sS'FAILURE_RATE'
p876
F0.2836636489682734
sS'QUOTA_USED_SUCCESS'
p877
F6.935907654135673
sg867
F1.120829972629547
sS'NUM_SUCCESS_FIRST_TIME'
p878
F0.71658645970291512
ssS'LATENCY'
p879
g11
(tRp880
g867
F20.793836111111112
sstp881
a(g11
(tRp882
S'workload'
p883
g11
(tRp884
S'n_contents'
p885
I10000
sS'name'
p886
S'STATIONARY'
p887
sS'n_warmup'
p888
I720000
sS'rate'
p889
I100
sS'n_measured'
p890
I360000
sS'alpha'
p891
F0.69999999999999996
ssS'cache_policy'
p892
g11
(tRp893
g886
S'LRU'
p894
ssS'desc'
p895
S'fan out: 1'
p896
sS'strategy'
p897
g11
(tRp898
S'extra_quota'
p899
I3
sS'p'
F0.5
sg886
S'LIRA_DFIB_OPH'
p900
sS'fan_out'
p901
I1
ssS'content_placement'
p902
g11
(tRp903
g886
S'UNIFORM'
p904
ssS'joint_cache_rsn_placement'
p905
g11
(tRp906
S'network_cache'
p907
F0.94999999999999996
sS'network_rsn'
p908
F60.799999999999997
sg886
S'CACHE_ALL_RSN_ALL'
p909
sS'rsn_cache_ratio'
p910
I64
ssS'warmup_strategy'
p911
g11
(tRp912
g899
I10
sS'p'
F0.10000000000000001
sg886
g900
sg901
I100
ssS'topology'
p913
g11
(tRp914
S'ext_delay'
p915
I5
sS'source_ratio'
p916
F0.10000000000000001
sg886
S'ROCKET_FUEL'
p917
sS'asn'
p918
I3257
ssg11
(tRp919
S'SAT_RATE'
p920
g11
(tRp921
S'MEAN_CACHE_HIT'
p922
F0.5836944444444444
sS'MEAN_SERVER_HIT'
p923
F0.60870555555555561
sS'MEAN_SERVER_CACHE_HITS'
p924
F0.19563333333333333
sS'MEAN'
p925
F0.99676666666666669
ssS'CACHE_HIT_RATIO'
p926
g11
(tRp927
S'MEAN_OFF_PATH'
p928
F0.31094850721234485
sS'MEAN_ON_PATH'
p929
F0.27274593723209956
sg925
F0.5836944444444444
ssS'OVERHEAD'
p930
g11
(tRp931
S'SUCCESS_RATE'
p932
F0.55335842144956982
sS'QUOTA_USED_FAILURE'
p933
F1.3211271573994003
sS'FAILURE_RATE'
p934
F0.44664157855043018
sS'QUOTA_USED_SUCCESS'
p935
F6.6110852733463705
sg925
F1.3663679229508745
sS'NUM_SUCCESS_FIRST_TIME'
p936
F0.55667636515891428
ssS'LATENCY'
p937
g11
(tRp938
g925
F34.844447222222222
sstp939
a(g11
(tRp940
S'workload'
p941
g11
(tRp942
S'n_contents'
p943
I10000
sS'name'
p944
S'STATIONARY'
p945
sS'n_warmup'
p946
I720000
sS'rate'
p947
I100
sS'n_measured'
p948
I360000
sS'alpha'
p949
F0.69999999999999996
ssS'cache_policy'
p950
g11
(tRp951
g944
S'LRU'
p952
ssS'desc'
p953
S'fan out: 2'
p954
sS'strategy'
p955
g11
(tRp956
S'extra_quota'
p957
I1
sS'p'
F0.5
sg944
S'LIRA_DFIB_OPH'
p958
sS'fan_out'
p959
I2
ssS'content_placement'
p960
g11
(tRp961
g944
S'UNIFORM'
p962
ssS'joint_cache_rsn_placement'
p963
g11
(tRp964
S'network_cache'
p965
F0.94999999999999996
sS'network_rsn'
p966
F60.799999999999997
sg944
S'CACHE_ALL_RSN_ALL'
p967
sS'rsn_cache_ratio'
p968
I64
ssS'warmup_strategy'
p969
g11
(tRp970
g957
I10
sS'p'
F0.10000000000000001
sg944
g958
sg959
I100
ssS'topology'
p971
g11
(tRp972
S'ext_delay'
p973
I5
sS'source_ratio'
p974
F0.10000000000000001
sg944
S'ROCKET_FUEL'
p975
sS'asn'
p976
I3257
ssg11
(tRp977
S'SAT_RATE'
p978
g11
(tRp979
S'MEAN_CACHE_HIT'
p980
F0.6630138888888889
sS'MEAN_SERVER_HIT'
p981
F0.50047222222222221
sS'MEAN_SERVER_CACHE_HITS'
p982
F0.19485
sS'MEAN'
p983
F0.96863611111111114
ssS'CACHE_HIT_RATIO'
p984
g11
(tRp985
S'MEAN_OFF_PATH'
p986
F0.43522460039870597
sS'MEAN_ON_PATH'
p987
F0.22778928849018293
sg983
F0.6630138888888889
ssS'OVERHEAD'
p988
g11
(tRp989
S'SUCCESS_RATE'
p990
F0.64969842357779306
sS'QUOTA_USED_FAILURE'
p991
F1.4068289869516015
sS'FAILURE_RATE'
p992
F0.35030157642220699
sS'QUOTA_USED_SUCCESS'
p993
F4.804074018948512
sg983
F1.3510807005268002
sS'NUM_SUCCESS_FIRST_TIME'
p994
F0.6504179467028649
ssS'LATENCY'
p995
g11
(tRp996
g983
F29.90335
sstp997
a(g11
(tRp998
S'workload'
p999
g11
(tRp1000
S'n_contents'
p1001
I10000
sS'name'
p1002
S'STATIONARY'
p1003
sS'n_warmup'
p1004
I720000
sS'rate'
p1005
I100
sS'n_measured'
p1006
I360000
sS'alpha'
p1007
F0.69999999999999996
ssS'cache_policy'
p1008
g11
(tRp1009
g1002
S'LRU'
p1010
ssS'desc'
p1011
S'fan out: 1'
p1012
sS'strategy'
p1013
g11
(tRp1014
S'extra_quota'
p1015
I4
sS'p'
F0.5
sg1002
S'LIRA_DFIB_OPH'
p1016
sS'fan_out'
p1017
I1
ssS'content_placement'
p1018
g11
(tRp1019
g1002
S'UNIFORM'
p1020
ssS'joint_cache_rsn_placement'
p1021
g11
(tRp1022
S'network_cache'
p1023
F0.94999999999999996
sS'network_rsn'
p1024
F60.799999999999997
sg1002
S'CACHE_ALL_RSN_ALL'
p1025
sS'rsn_cache_ratio'
p1026
I64
ssS'warmup_strategy'
p1027
g11
(tRp1028
g1015
I10
sS'p'
F0.10000000000000001
sg1002
g1016
sg1017
I100
ssS'topology'
p1029
g11
(tRp1030
S'ext_delay'
p1031
I5
sS'source_ratio'
p1032
F0.10000000000000001
sg1002
S'ROCKET_FUEL'
p1033
sS'asn'
p1034
I3257
ssg11
(tRp1035
S'SAT_RATE'
p1036
g11
(tRp1037
S'MEAN_CACHE_HIT'
p1038
F0.58274722222222219
sS'MEAN_SERVER_HIT'
p1039
F0.61534444444444447
sS'MEAN_SERVER_CACHE_HITS'
p1040
F0.19980000000000001
sS'MEAN'
p1041
F0.99829166666666669
ssS'CACHE_HIT_RATIO'
p1042
g11
(tRp1043
S'MEAN_OFF_PATH'
p1044
F0.2961515187346544
sS'MEAN_ON_PATH'
p1045
F0.2865957034875678
sg1041
F0.58274722222222219
ssS'OVERHEAD'
p1046
g11
(tRp1047
S'SUCCESS_RATE'
p1048
F0.53900915298561669
sS'QUOTA_USED_FAILURE'
p1049
F1.3107306866830637
sS'FAILURE_RATE'
p1050
F0.46099084701438325
sS'QUOTA_USED_SUCCESS'
p1051
F3.4470587537094071
sg1041
F1.362644517717768
sS'NUM_SUCCESS_FIRST_TIME'
p1052
F0.54319482306627065
ssS'LATENCY'
p1053
g11
(tRp1054
g1041
F35.379097222222221
sstp1055
a(g11
(tRp1056
S'workload'
p1057
g11
(tRp1058
S'n_contents'
p1059
I10000
sS'name'
p1060
S'STATIONARY'
p1061
sS'n_warmup'
p1062
I720000
sS'rate'
p1063
I100
sS'n_measured'
p1064
I360000
sS'alpha'
p1065
F0.69999999999999996
ssS'cache_policy'
p1066
g11
(tRp1067
g1060
S'LRU'
p1068
ssS'desc'
p1069
S'fan out: 2'
p1070
sS'strategy'
p1071
g11
(tRp1072
S'extra_quota'
p1073
I2
sS'p'
F0.5
sg1060
S'LIRA_DFIB_OPH'
p1074
sS'fan_out'
p1075
I2
ssS'content_placement'
p1076
g11
(tRp1077
g1060
S'UNIFORM'
p1078
ssS'joint_cache_rsn_placement'
p1079
g11
(tRp1080
S'network_cache'
p1081
F0.94999999999999996
sS'network_rsn'
p1082
F60.799999999999997
sg1060
S'CACHE_ALL_RSN_ALL'
p1083
sS'rsn_cache_ratio'
p1084
I64
ssS'warmup_strategy'
p1085
g11
(tRp1086
g1073
I10
sS'p'
F0.10000000000000001
sg1060
g1074
sg1075
I100
ssS'topology'
p1087
g11
(tRp1088
S'ext_delay'
p1089
I5
sS'source_ratio'
p1090
F0.10000000000000001
sg1060
S'ROCKET_FUEL'
p1091
sS'asn'
p1092
I3257
ssg11
(tRp1093
S'SAT_RATE'
p1094
g11
(tRp1095
S'MEAN_CACHE_HIT'
p1096
F0.66256111111111116
sS'MEAN_SERVER_HIT'
p1097
F0.56591388888888894
sS'MEAN_SERVER_CACHE_HITS'
p1098
F0.23826388888888889
sS'MEAN'
p1099
F0.99021111111111115
ssS'CACHE_HIT_RATIO'
p1100
g11
(tRp1101
S'MEAN_OFF_PATH'
p1102
F0.40851462178717518
sS'MEAN_ON_PATH'
p1103
F0.25404648932393598
sg1099
F0.66256111111111116
ssS'OVERHEAD'
p1104
g11
(tRp1105
S'SUCCESS_RATE'
p1106
F0.63972963152369933
sS'QUOTA_USED_FAILURE'
p1107
F1.4065929577906653
sS'FAILURE_RATE'
p1108
F0.36027036847630073
sS'QUOTA_USED_SUCCESS'
p1109
F4.8181713395409407
sg1099
F1.4130235976615537
sS'NUM_SUCCESS_FIRST_TIME'
p1110
F0.63903447205626129
ssS'LATENCY'
p1111
g11
(tRp1112
g1099
F32.84697222222222
sstp1113
a(g11
(tRp1114
S'workload'
p1115
g11
(tRp1116
S'n_contents'
p1117
I10000
sS'name'
p1118
S'STATIONARY'
p1119
sS'n_warmup'
p1120
I720000
sS'rate'
p1121
I100
sS'n_measured'
p1122
I360000
sS'alpha'
p1123
F0.69999999999999996
ssS'cache_policy'
p1124
g11
(tRp1125
g1118
S'LRU'
p1126
ssS'desc'
p1127
S'fan out: 2'
p1128
sS'strategy'
p1129
g11
(tRp1130
S'extra_quota'
p1131
I4
sS'p'
F0.5
sg1118
S'LIRA_DFIB_OPH'
p1132
sS'fan_out'
p1133
I2
ssS'content_placement'
p1134
g11
(tRp1135
g1118
S'UNIFORM'
p1136
ssS'joint_cache_rsn_placement'
p1137
g11
(tRp1138
S'network_cache'
p1139
F0.94999999999999996
sS'network_rsn'
p1140
F60.799999999999997
sg1118
S'CACHE_ALL_RSN_ALL'
p1141
sS'rsn_cache_ratio'
p1142
I64
ssS'warmup_strategy'
p1143
g11
(tRp1144
g1131
I10
sS'p'
F0.10000000000000001
sg1118
g1132
sg1133
I100
ssS'topology'
p1145
g11
(tRp1146
S'ext_delay'
p1147
I5
sS'source_ratio'
p1148
F0.10000000000000001
sg1118
S'ROCKET_FUEL'
p1149
sS'asn'
p1150
I3257
ssg11
(tRp1151
S'SAT_RATE'
p1152
g11
(tRp1153
S'MEAN_CACHE_HIT'
p1154
F0.661775
sS'MEAN_SERVER_HIT'
p1155
F0.60430833333333334
sS'MEAN_SERVER_CACHE_HITS'
p1156
F0.26857500000000001
sS'MEAN'
p1157
F0.99750833333333333
ssS'CACHE_HIT_RATIO'
p1158
g11
(tRp1159
S'MEAN_OFF_PATH'
p1160
F0.39953048553061715
sS'MEAN_ON_PATH'
p1161
F0.26224451446938285
sg1157
F0.661775
ssS'OVERHEAD'
p1162
g11
(tRp1163
S'SUCCESS_RATE'
p1164
F0.63816119943182004
sS'QUOTA_USED_FAILURE'
p1165
F1.4094023761432282
sS'FAILURE_RATE'
p1166
F0.36183880056817991
sS'QUOTA_USED_SUCCESS'
p1167
F5.9380693128401587
sg1157
F1.4724883946945584
sS'NUM_SUCCESS_FIRST_TIME'
p1168
F0.6364263164894548
ssS'LATENCY'
p1169
g11
(tRp1170
g1157
F33.501794444444442
sstp1171
a(g11
(tRp1172
S'workload'
p1173
g11
(tRp1174
S'n_contents'
p1175
I10000
sS'name'
p1176
S'STATIONARY'
p1177
sS'n_warmup'
p1178
I720000
sS'rate'
p1179
I100
sS'n_measured'
p1180
I360000
sS'alpha'
p1181
F0.69999999999999996
ssS'cache_policy'
p1182
g11
(tRp1183
g1176
S'LRU'
p1184
ssS'desc'
p1185
S'fan out: 1'
p1186
sS'strategy'
p1187
g11
(tRp1188
S'extra_quota'
p1189
I2
sS'p'
F0.5
sg1176
S'LIRA_DFIB_SC'
p1190
sS'fan_out'
p1191
I1
ssS'content_placement'
p1192
g11
(tRp1193
g1176
S'UNIFORM'
p1194
ssS'joint_cache_rsn_placement'
p1195
g11
(tRp1196
S'network_cache'
p1197
F0.94999999999999996
sS'network_rsn'
p1198
F60.799999999999997
sg1176
S'CACHE_ALL_RSN_ALL'
p1199
sS'rsn_cache_ratio'
p1200
I64
ssS'warmup_strategy'
p1201
g11
(tRp1202
g1189
I10
sS'p'
F0.10000000000000001
sg1176
g1190
sg1191
I100
ssS'topology'
p1203
g11
(tRp1204
S'ext_delay'
p1205
I5
sS'source_ratio'
p1206
F0.10000000000000001
sg1176
S'ROCKET_FUEL'
p1207
sS'asn'
p1208
I3257
ssg11
(tRp1209
S'SAT_RATE'
p1210
g11
(tRp1211
S'MEAN_CACHE_HIT'
p1212
F0.58279166666666671
sS'MEAN_SERVER_HIT'
p1213
F0.6277666666666667
sS'MEAN_SERVER_CACHE_HITS'
p1214
F0.21136944444444444
sS'MEAN'
p1215
F0.9991888888888889
ssS'CACHE_HIT_RATIO'
p1216
g11
(tRp1217
S'MEAN_OFF_PATH'
p1218
F0.2934481563833034
sS'MEAN_ON_PATH'
p1219
F0.2893435102833633
sg1215
F0.58279166666666671
ssS'OVERHEAD'
p1220
g11
(tRp1221
S'SUCCESS_RATE'
p1222
F0.54191714468816221
sS'QUOTA_USED_FAILURE'
p1223
F1
sS'FAILURE_RATE'
p1224
F0.45808285531183779
sS'QUOTA_USED_SUCCESS'
p1225
F1
sg1215
F1.3820209725666375
sS'NUM_SUCCESS_FIRST_TIME'
p1226
F0.54560334517646858
ssS'LATENCY'
p1227
g11
(tRp1228
g1215
F35.301661111111109
sstp1229
a(g11
(tRp1230
S'workload'
p1231
g11
(tRp1232
S'n_contents'
p1233
I10000
sS'name'
p1234
S'STATIONARY'
p1235
sS'n_warmup'
p1236
I720000
sS'rate'
p1237
I100
sS'n_measured'
p1238
I360000
sS'alpha'
p1239
F0.69999999999999996
ssS'cache_policy'
p1240
g11
(tRp1241
g1234
S'LRU'
p1242
ssS'desc'
p1243
S'fan out: 1'
p1244
sS'strategy'
p1245
g11
(tRp1246
S'extra_quota'
p1247
I3
sS'p'
F0.5
sg1234
S'LIRA_DFIB_SC'
p1248
sS'fan_out'
p1249
I1
ssS'content_placement'
p1250
g11
(tRp1251
g1234
S'UNIFORM'
p1252
ssS'joint_cache_rsn_placement'
p1253
g11
(tRp1254
S'network_cache'
p1255
F0.94999999999999996
sS'network_rsn'
p1256
F60.799999999999997
sg1234
S'CACHE_ALL_RSN_ALL'
p1257
sS'rsn_cache_ratio'
p1258
I64
ssS'warmup_strategy'
p1259
g11
(tRp1260
g1247
I10
sS'p'
F0.10000000000000001
sg1234
g1248
sg1249
I100
ssS'topology'
p1261
g11
(tRp1262
S'ext_delay'
p1263
I5
sS'source_ratio'
p1264
F0.10000000000000001
sg1234
S'ROCKET_FUEL'
p1265
sS'asn'
p1266
I3257
ssg11
(tRp1267
S'SAT_RATE'
p1268
g11
(tRp1269
S'MEAN_CACHE_HIT'
p1270
F0.58509166666666668
sS'MEAN_SERVER_HIT'
p1271
F0.62963611111111106
sS'MEAN_SERVER_CACHE_HITS'
p1272
F0.21475
sS'MEAN'
p1273
F0.99997777777777774
ssS'CACHE_HIT_RATIO'
p1274
g11
(tRp1275
S'MEAN_OFF_PATH'
p1276
F0.2946750758057361
sS'MEAN_ON_PATH'
p1277
F0.29041659086093058
sg1273
F0.58509166666666668
ssS'OVERHEAD'
p1278
g11
(tRp1279
S'SUCCESS_RATE'
p1280
F0.54443579279339205
sS'QUOTA_USED_FAILURE'
p1281
F1
sS'FAILURE_RATE'
p1282
F0.45556420720660795
sS'QUOTA_USED_SUCCESS'
p1283
F1
sg1273
F1.3864724771661592
sS'NUM_SUCCESS_FIRST_TIME'
p1284
F0.54696591853699084
ssS'LATENCY'
p1285
g11
(tRp1286
g1273
F36.51231111111111
sstp1287
a(g11
(tRp1288
S'workload'
p1289
g11
(tRp1290
S'n_contents'
p1291
I10000
sS'name'
p1292
S'STATIONARY'
p1293
sS'n_warmup'
p1294
I720000
sS'rate'
p1295
I100
sS'n_measured'
p1296
I360000
sS'alpha'
p1297
F0.69999999999999996
ssS'cache_policy'
p1298
g11
(tRp1299
g1292
S'LRU'
p1300
ssS'desc'
p1301
S'fan out: 2'
p1302
sS'strategy'
p1303
g11
(tRp1304
S'extra_quota'
p1305
I0
sS'p'
F0.5
sg1292
S'LIRA_DFIB_SC'
p1306
sS'fan_out'
p1307
I2
ssS'content_placement'
p1308
g11
(tRp1309
g1292
S'UNIFORM'
p1310
ssS'joint_cache_rsn_placement'
p1311
g11
(tRp1312
S'network_cache'
p1313
F0.94999999999999996
sS'network_rsn'
p1314
F60.799999999999997
sg1292
S'CACHE_ALL_RSN_ALL'
p1315
sS'rsn_cache_ratio'
p1316
I64
ssS'warmup_strategy'
p1317
g11
(tRp1318
g1305
I10
sS'p'
F0.10000000000000001
sg1292
g1306
sg1307
I100
ssS'topology'
p1319
g11
(tRp1320
S'ext_delay'
p1321
I5
sS'source_ratio'
p1322
F0.10000000000000001
sg1292
S'ROCKET_FUEL'
p1323
sS'asn'
p1324
I3257
ssg11
(tRp1325
S'SAT_RATE'
p1326
g11
(tRp1327
S'MEAN_CACHE_HIT'
p1328
F0.67688333333333328
sS'MEAN_SERVER_HIT'
p1329
F0.16890833333333333
sS'MEAN_SERVER_CACHE_HITS'
p1330
F0.0027972222222222222
sS'MEAN'
p1331
F0.84299444444444449
ssS'CACHE_HIT_RATIO'
p1332
g11
(tRp1333
S'MEAN_OFF_PATH'
p1334
F0.51254741612887333
sS'MEAN_ON_PATH'
p1335
F0.16433591720445995
sg1331
F0.67688333333333328
ssS'OVERHEAD'
p1336
g11
(tRp1337
S'SUCCESS_RATE'
p1338
F0.70356439342480637
sS'QUOTA_USED_FAILURE'
p1339
F1
sS'FAILURE_RATE'
p1340
F0.29643560657519358
sS'QUOTA_USED_SUCCESS'
p1341
F1
sg1331
F1.1392127271169574
sS'NUM_SUCCESS_FIRST_TIME'
p1342
F0.70190413364593451
ssS'LATENCY'
p1343
g11
(tRp1344
g1331
F20.535152777777778
sstp1345
a(g11
(tRp1346
S'workload'
p1347
g11
(tRp1348
S'n_contents'
p1349
I10000
sS'name'
p1350
S'STATIONARY'
p1351
sS'n_warmup'
p1352
I720000
sS'rate'
p1353
I100
sS'n_measured'
p1354
I360000
sS'alpha'
p1355
F0.69999999999999996
ssS'cache_policy'
p1356
g11
(tRp1357
g1350
S'LRU'
p1358
ssS'desc'
p1359
S'fan out: 2'
p1360
sS'strategy'
p1361
g11
(tRp1362
S'extra_quota'
p1363
I2
sS'p'
F0.5
sg1350
S'LIRA_DFIB_SC'
p1364
sS'fan_out'
p1365
I2
ssS'content_placement'
p1366
g11
(tRp1367
g1350
S'UNIFORM'
p1368
ssS'joint_cache_rsn_placement'
p1369
g11
(tRp1370
S'network_cache'
p1371
F0.94999999999999996
sS'network_rsn'
p1372
F60.799999999999997
sg1350
S'CACHE_ALL_RSN_ALL'
p1373
sS'rsn_cache_ratio'
p1374
I64
ssS'warmup_strategy'
p1375
g11
(tRp1376
g1363
I10
sS'p'
F0.10000000000000001
sg1350
g1364
sg1365
I100
ssS'topology'
p1377
g11
(tRp1378
S'ext_delay'
p1379
I5
sS'source_ratio'
p1380
F0.10000000000000001
sg1350
S'ROCKET_FUEL'
p1381
sS'asn'
p1382
I3257
ssg11
(tRp1383
S'SAT_RATE'
p1384
g11
(tRp1385
S'MEAN_CACHE_HIT'
p1386
F0.66148333333333331
sS'MEAN_SERVER_HIT'
p1387
F0.62914722222222219
sS'MEAN_SERVER_CACHE_HITS'
p1388
F0.29075555555555554
sS'MEAN'
p1389
F0.99987499999999996
ssS'CACHE_HIT_RATIO'
p1390
g11
(tRp1391
S'MEAN_OFF_PATH'
p1392
F0.40375613126228138
sS'MEAN_ON_PATH'
p1393
F0.25772720207105193
sg1389
F0.66148333333333331
ssS'OVERHEAD'
p1394
g11
(tRp1395
S'SUCCESS_RATE'
p1396
F0.6489853591660415
sS'QUOTA_USED_FAILURE'
p1397
F1
sS'FAILURE_RATE'
p1398
F0.35101464083395845
sS'QUOTA_USED_SUCCESS'
p1399
F1
sg1389
F1.5571613118306455
sS'NUM_SUCCESS_FIRST_TIME'
p1400
F0.64604282624516951
ssS'LATENCY'
p1401
g11
(tRp1402
g1389
F35.254680555555552
sstp1403
a(g11
(tRp1404
S'workload'
p1405
g11
(tRp1406
S'n_contents'
p1407
I10000
sS'name'
p1408
S'STATIONARY'
p1409
sS'n_warmup'
p1410
I720000
sS'rate'
p1411
I100
sS'n_measured'
p1412
I360000
sS'alpha'
p1413
F0.69999999999999996
ssS'cache_policy'
p1414
g11
(tRp1415
g1408
S'LRU'
p1416
ssS'desc'
p1417
S'fan out: 1'
p1418
sS'strategy'
p1419
g11
(tRp1420
S'extra_quota'
p1421
I4
sS'p'
F0.5
sg1408
S'LIRA_DFIB_SC'
p1422
sS'fan_out'
p1423
I1
ssS'content_placement'
p1424
g11
(tRp1425
g1408
S'UNIFORM'
p1426
ssS'joint_cache_rsn_placement'
p1427
g11
(tRp1428
S'network_cache'
p1429
F0.94999999999999996
sS'network_rsn'
p1430
F60.799999999999997
sg1408
S'CACHE_ALL_RSN_ALL'
p1431
sS'rsn_cache_ratio'
p1432
I64
ssS'warmup_strategy'
p1433
g11
(tRp1434
g1421
I10
sS'p'
F0.10000000000000001
sg1408
g1422
sg1423
I100
ssS'topology'
p1435
g11
(tRp1436
S'ext_delay'
p1437
I5
sS'source_ratio'
p1438
F0.10000000000000001
sg1408
S'ROCKET_FUEL'
p1439
sS'asn'
p1440
I3257
ssg11
(tRp1441
S'SAT_RATE'
p1442
g11
(tRp1443
S'MEAN_CACHE_HIT'
p1444
F0.58343055555555556
sS'MEAN_SERVER_HIT'
p1445
F0.63032500000000002
sS'MEAN_SERVER_CACHE_HITS'
p1446
F0.21375833333333333
sS'MEAN'
p1447
F0.9999972222222222
ssS'CACHE_HIT_RATIO'
p1448
g11
(tRp1449
S'MEAN_OFF_PATH'
p1450
F0.28858089675753856
sS'MEAN_ON_PATH'
p1451
F0.294849658798017
sg1447
F0.58343055555555556
ssS'OVERHEAD'
p1452
g11
(tRp1453
S'SUCCESS_RATE'
p1454
F0.53681992458569661
sS'QUOTA_USED_FAILURE'
p1455
F1
sS'FAILURE_RATE'
p1456
F0.46318007541430339
sS'QUOTA_USED_SUCCESS'
p1457
F1
sg1447
F1.3764788235522876
sS'NUM_SUCCESS_FIRST_TIME'
p1458
F0.53898701241427971
ssS'LATENCY'
p1459
g11
(tRp1460
g1447
F36.001316666666668
sstp1461
a(g11
(tRp1462
S'workload'
p1463
g11
(tRp1464
S'n_contents'
p1465
I10000
sS'name'
p1466
S'STATIONARY'
p1467
sS'n_warmup'
p1468
I720000
sS'rate'
p1469
I100
sS'n_measured'
p1470
I360000
sS'alpha'
p1471
F0.69999999999999996
ssS'cache_policy'
p1472
g11
(tRp1473
g1466
S'LRU'
p1474
ssS'desc'
p1475
S'fan out: 2'
p1476
sS'strategy'
p1477
g11
(tRp1478
S'extra_quota'
p1479
I3
sS'p'
F0.5
sg1466
S'LIRA_DFIB_SC'
p1480
sS'fan_out'
p1481
I2
ssS'content_placement'
p1482
g11
(tRp1483
g1466
S'UNIFORM'
p1484
ssS'joint_cache_rsn_placement'
p1485
g11
(tRp1486
S'network_cache'
p1487
F0.94999999999999996
sS'network_rsn'
p1488
F60.799999999999997
sg1466
S'CACHE_ALL_RSN_ALL'
p1489
sS'rsn_cache_ratio'
p1490
I64
ssS'warmup_strategy'
p1491
g11
(tRp1492
g1479
I10
sS'p'
F0.10000000000000001
sg1466
g1480
sg1481
I100
ssS'topology'
p1493
g11
(tRp1494
S'ext_delay'
p1495
I5
sS'source_ratio'
p1496
F0.10000000000000001
sg1466
S'ROCKET_FUEL'
p1497
sS'asn'
p1498
I3257
ssg11
(tRp1499
S'SAT_RATE'
p1500
g11
(tRp1501
S'MEAN_CACHE_HIT'
p1502
F0.6597305555555556
sS'MEAN_SERVER_HIT'
p1503
F0.62906388888888887
sS'MEAN_SERVER_CACHE_HITS'
p1504
F0.28879444444444446
sS'MEAN'
p1505
F1
ssS'CACHE_HIT_RATIO'
p1506
g11
(tRp1507
S'MEAN_OFF_PATH'
p1508
F0.39400085351081759
sS'MEAN_ON_PATH'
p1509
F0.265729702044738
sg1505
F0.6597305555555556
ssS'OVERHEAD'
p1510
g11
(tRp1511
S'SUCCESS_RATE'
p1512
F0.63820918894379119
sS'QUOTA_USED_FAILURE'
p1513
F1
sS'FAILURE_RATE'
p1514
F0.36179081105620875
sS'QUOTA_USED_SUCCESS'
p1515
F1
sg1505
F1.5388805555555556
sS'NUM_SUCCESS_FIRST_TIME'
p1516
F0.63584723103652763
ssS'LATENCY'
p1517
g11
(tRp1518
g1505
F34.19231111111111
sstp1519
a(g11
(tRp1520
S'workload'
p1521
g11
(tRp1522
S'n_contents'
p1523
I10000
sS'name'
p1524
S'STATIONARY'
p1525
sS'n_warmup'
p1526
I720000
sS'rate'
p1527
I100
sS'n_measured'
p1528
I360000
sS'alpha'
p1529
F0.69999999999999996
ssS'cache_policy'
p1530
g11
(tRp1531
g1524
S'LRU'
p1532
ssS'desc'
p1533
S'fan out: 2'
p1534
sS'strategy'
p1535
g11
(tRp1536
S'extra_quota'
p1537
I5
sS'p'
F0.5
sg1524
S'LIRA_DFIB_SC'
p1538
sS'fan_out'
p1539
I2
ssS'content_placement'
p1540
g11
(tRp1541
g1524
S'UNIFORM'
p1542
ssS'joint_cache_rsn_placement'
p1543
g11
(tRp1544
S'network_cache'
p1545
F0.94999999999999996
sS'network_rsn'
p1546
F60.799999999999997
sg1524
S'CACHE_ALL_RSN_ALL'
p1547
sS'rsn_cache_ratio'
p1548
I64
ssS'warmup_strategy'
p1549
g11
(tRp1550
g1537
I10
sS'p'
F0.10000000000000001
sg1524
g1538
sg1539
I100
ssS'topology'
p1551
g11
(tRp1552
S'ext_delay'
p1553
I5
sS'source_ratio'
p1554
F0.10000000000000001
sg1524
S'ROCKET_FUEL'
p1555
sS'asn'
p1556
I3257
ssg11
(tRp1557
S'SAT_RATE'
p1558
g11
(tRp1559
S'MEAN_CACHE_HIT'
p1560
F0.65907222222222217
sS'MEAN_SERVER_HIT'
p1561
F0.6298555555555555
sS'MEAN_SERVER_CACHE_HITS'
p1562
F0.28892777777777778
sS'MEAN'
p1563
F1
ssS'CACHE_HIT_RATIO'
p1564
g11
(tRp1565
S'MEAN_OFF_PATH'
p1566
F0.3942273293478214
sS'MEAN_ON_PATH'
p1567
F0.26484489287440077
sg1563
F0.65907222222222217
ssS'OVERHEAD'
p1568
g11
(tRp1569
S'SUCCESS_RATE'
p1570
F0.64104187303607396
sS'QUOTA_USED_FAILURE'
p1571
F1
sS'FAILURE_RATE'
p1572
F0.35895812696392609
sS'QUOTA_USED_SUCCESS'
p1573
F1
sg1563
F1.5428805555555556
sS'NUM_SUCCESS_FIRST_TIME'
p1574
F0.63821167794677724
ssS'LATENCY'
p1575
g11
(tRp1576
g1563
F35.840161111111108
sstp1577
a(g11
(tRp1578
S'workload'
p1579
g11
(tRp1580
S'n_contents'
p1581
I10000
sS'name'
p1582
S'STATIONARY'
p1583
sS'n_warmup'
p1584
I720000
sS'rate'
p1585
I100
sS'n_measured'
p1586
I360000
sS'alpha'
p1587
F0.69999999999999996
ssS'cache_policy'
p1588
g11
(tRp1589
g1582
S'LRU'
p1590
ssS'desc'
p1591
S'fan out: 2'
p1592
sS'strategy'
p1593
g11
(tRp1594
S'extra_quota'
p1595
I1
sS'p'
F0.5
sg1582
S'LIRA_DFIB_SC'
p1596
sS'fan_out'
p1597
I2
ssS'content_placement'
p1598
g11
(tRp1599
g1582
S'UNIFORM'
p1600
ssS'joint_cache_rsn_placement'
p1601
g11
(tRp1602
S'network_cache'
p1603
F0.94999999999999996
sS'network_rsn'
p1604
F60.799999999999997
sg1582
S'CACHE_ALL_RSN_ALL'
p1605
sS'rsn_cache_ratio'
p1606
I64
ssS'warmup_strategy'
p1607
g11
(tRp1608
g1595
I10
sS'p'
F0.10000000000000001
sg1582
g1596
sg1597
I100
ssS'topology'
p1609
g11
(tRp1610
S'ext_delay'
p1611
I5
sS'source_ratio'
p1612
F0.10000000000000001
sg1582
S'ROCKET_FUEL'
p1613
sS'asn'
p1614
I3257
ssg11
(tRp1615
S'SAT_RATE'
p1616
g11
(tRp1617
S'MEAN_CACHE_HIT'
p1618
F0.65898055555555557
sS'MEAN_SERVER_HIT'
p1619
F0.6040416666666667
sS'MEAN_SERVER_CACHE_HITS'
p1620
F0.27490277777777777
sS'MEAN'
p1621
F0.98811944444444444
ssS'CACHE_HIT_RATIO'
p1622
g11
(tRp1623
S'MEAN_OFF_PATH'
p1624
F0.40423983038918992
sS'MEAN_ON_PATH'
p1625
F0.25474072516636564
sg1621
F0.65898055555555557
ssS'OVERHEAD'
p1626
g11
(tRp1627
S'SUCCESS_RATE'
p1628
F0.64477742767686086
sS'QUOTA_USED_FAILURE'
p1629
F1
sS'FAILURE_RATE'
p1630
F0.35522257232313909
sS'QUOTA_USED_SUCCESS'
p1631
F1
sg1621
F1.5328584319821883
sS'NUM_SUCCESS_FIRST_TIME'
p1632
F0.64289255217388264
ssS'LATENCY'
p1633
g11
(tRp1634
g1621
F34.434661111111112
sstp1635
a(g11
(tRp1636
S'workload'
p1637
g11
(tRp1638
S'n_contents'
p1639
I10000
sS'name'
p1640
S'STATIONARY'
p1641
sS'n_warmup'
p1642
I720000
sS'rate'
p1643
I100
sS'n_measured'
p1644
I360000
sS'alpha'
p1645
F0.69999999999999996
ssS'cache_policy'
p1646
g11
(tRp1647
g1640
S'LRU'
p1648
ssS'desc'
p1649
S'fan out: 3'
p1650
sS'strategy'
p1651
g11
(tRp1652
S'extra_quota'
p1653
I0
sS'p'
F0.5
sg1640
S'LIRA_DFIB_SC'
p1654
sS'fan_out'
p1655
I3
ssS'content_placement'
p1656
g11
(tRp1657
g1640
S'UNIFORM'
p1658
ssS'joint_cache_rsn_placement'
p1659
g11
(tRp1660
S'network_cache'
p1661
F0.94999999999999996
sS'network_rsn'
p1662
F60.799999999999997
sg1640
S'CACHE_ALL_RSN_ALL'
p1663
sS'rsn_cache_ratio'
p1664
I64
ssS'warmup_strategy'
p1665
g11
(tRp1666
g1653
I10
sS'p'
F0.10000000000000001
sg1640
g1654
sg1655
I100
ssS'topology'
p1667
g11
(tRp1668
S'ext_delay'
p1669
I5
sS'source_ratio'
p1670
F0.10000000000000001
sg1640
S'ROCKET_FUEL'
p1671
sS'asn'
p1672
I3257
ssg11
(tRp1673
S'SAT_RATE'
p1674
g11
(tRp1675
S'MEAN_CACHE_HIT'
p1676
F0.67788611111111108
sS'MEAN_SERVER_HIT'
p1677
F0.16821388888888889
sS'MEAN_SERVER_CACHE_HITS'
p1678
F0.0027666666666666668
sS'MEAN'
p1679
F0.84333333333333338
ssS'CACHE_HIT_RATIO'
p1680
g11
(tRp1681
S'MEAN_OFF_PATH'
p1682
F0.50868363340293377
sS'MEAN_ON_PATH'
p1683
F0.16920247770817731
sg1679
F0.67788611111111108
ssS'OVERHEAD'
p1684
g11
(tRp1685
S'SUCCESS_RATE'
p1686
F0.70484547850107993
sS'QUOTA_USED_FAILURE'
p1687
F1
sS'FAILURE_RATE'
p1688
F0.29515452149892007
sS'QUOTA_USED_SUCCESS'
p1689
F1
sg1679
F1.1385671936758894
sS'NUM_SUCCESS_FIRST_TIME'
p1690
F0.70171080195520219
ssS'LATENCY'
p1691
g11
(tRp1692
g1679
F21.151472222222221
sstp1693
a(g11
(tRp1694
S'workload'
p1695
g11
(tRp1696
S'n_contents'
p1697
I10000
sS'name'
p1698
S'STATIONARY'
p1699
sS'n_warmup'
p1700
I720000
sS'rate'
p1701
I100
sS'n_measured'
p1702
I360000
sS'alpha'
p1703
F0.69999999999999996
ssS'cache_policy'
p1704
g11
(tRp1705
g1698
S'LRU'
p1706
ssS'desc'
p1707
S'fan out: 1'
p1708
sS'strategy'
p1709
g11
(tRp1710
S'extra_quota'
p1711
I5
sS'p'
F0.5
sg1698
S'LIRA_DFIB_SC'
p1712
sS'fan_out'
p1713
I1
ssS'content_placement'
p1714
g11
(tRp1715
g1698
S'UNIFORM'
p1716
ssS'joint_cache_rsn_placement'
p1717
g11
(tRp1718
S'network_cache'
p1719
F0.94999999999999996
sS'network_rsn'
p1720
F60.799999999999997
sg1698
S'CACHE_ALL_RSN_ALL'
p1721
sS'rsn_cache_ratio'
p1722
I64
ssS'warmup_strategy'
p1723
g11
(tRp1724
g1711
I10
sS'p'
F0.10000000000000001
sg1698
g1712
sg1713
I100
ssS'topology'
p1725
g11
(tRp1726
S'ext_delay'
p1727
I5
sS'source_ratio'
p1728
F0.10000000000000001
sg1698
S'ROCKET_FUEL'
p1729
sS'asn'
p1730
I3257
ssg11
(tRp1731
S'SAT_RATE'
p1732
g11
(tRp1733
S'MEAN_CACHE_HIT'
p1734
F0.58321666666666672
sS'MEAN_SERVER_HIT'
p1735
F0.62897499999999995
sS'MEAN_SERVER_CACHE_HITS'
p1736
F0.21219166666666667
sS'MEAN'
p1737
F1
ssS'CACHE_HIT_RATIO'
p1738
g11
(tRp1739
S'MEAN_OFF_PATH'
p1740
F0.29358439374044715
sS'MEAN_ON_PATH'
p1741
F0.28963227292621957
sg1737
F0.58321666666666672
ssS'OVERHEAD'
p1742
g11
(tRp1743
S'SUCCESS_RATE'
p1744
F0.54106707904915929
sS'QUOTA_USED_FAILURE'
p1745
F1
sS'FAILURE_RATE'
p1746
F0.45893292095084071
sS'QUOTA_USED_SUCCESS'
p1747
F1
sg1737
F1.3819527777777778
sS'NUM_SUCCESS_FIRST_TIME'
p1748
F0.54440308137830873
ssS'LATENCY'
p1749
g11
(tRp1750
g1737
F35.411608333333334
sstp1751
a(g11
(tRp1752
S'workload'
p1753
g11
(tRp1754
S'n_contents'
p1755
I10000
sS'name'
p1756
S'STATIONARY'
p1757
sS'n_warmup'
p1758
I720000
sS'rate'
p1759
I100
sS'n_measured'
p1760
I360000
sS'alpha'
p1761
F0.69999999999999996
ssS'cache_policy'
p1762
g11
(tRp1763
g1756
S'LRU'
p1764
ssS'desc'
p1765
S'quota_increment: 0.5'
p1766
sS'strategy'
p1767
g11
(tRp1768
S'extra_quota'
p1769
I2
sS'p'
F0.5
sS'quota_increment'
p1770
F0.5
sg1756
S'LIRA_DFIB_OPH'
p1771
sS'fan_out'
p1772
I1
ssS'content_placement'
p1773
g11
(tRp1774
g1756
S'UNIFORM'
p1775
ssS'joint_cache_rsn_placement'
p1776
g11
(tRp1777
S'network_cache'
p1778
F0.94999999999999996
sS'network_rsn'
p1779
F60.799999999999997
sg1756
S'CACHE_ALL_RSN_ALL'
p1780
sS'rsn_cache_ratio'
p1781
I64
ssS'warmup_strategy'
p1782
g11
(tRp1783
g1769
I10
sS'p'
F0.10000000000000001
sg1756
g1771
sg1772
I100
ssS'topology'
p1784
g11
(tRp1785
S'ext_delay'
p1786
I5
sS'source_ratio'
p1787
F0.10000000000000001
sg1756
S'ROCKET_FUEL'
p1788
sS'asn'
p1789
I3257
ssg11
(tRp1790
S'SAT_RATE'
p1791
g11
(tRp1792
S'MEAN_CACHE_HIT'
p1793
F0.58345000000000002
sS'MEAN_SERVER_HIT'
p1794
F0.56777222222222223
sS'MEAN_SERVER_CACHE_HITS'
p1795
F0.16649444444444444
sS'MEAN'
p1796
F0.98472777777777776
ssS'CACHE_HIT_RATIO'
p1797
g11
(tRp1798
S'MEAN_OFF_PATH'
p1799
F0.30571373419554099
sS'MEAN_ON_PATH'
p1800
F0.27773626580445904
sg1796
F0.58345000000000002
ssS'OVERHEAD'
p1801
g11
(tRp1802
S'SUCCESS_RATE'
p1803
F0.54277872877337641
sS'QUOTA_USED_FAILURE'
p1804
F1.4385324354884803
sS'FAILURE_RATE'
p1805
F0.45722127122662359
sS'QUOTA_USED_SUCCESS'
p1806
F4.482917729042204
sg1796
F1.3014313036315732
sS'NUM_SUCCESS_FIRST_TIME'
p1807
F0.54717182212985904
ssS'LATENCY'
p1808
g11
(tRp1809
g1796
F34.492227777777778
sstp1810
a(g11
(tRp1811
S'workload'
p1812
g11
(tRp1813
S'n_contents'
p1814
I10000
sS'name'
p1815
S'STATIONARY'
p1816
sS'n_warmup'
p1817
I720000
sS'rate'
p1818
I100
sS'n_measured'
p1819
I360000
sS'alpha'
p1820
F0.69999999999999996
ssS'cache_policy'
p1821
g11
(tRp1822
g1815
S'LRU'
p1823
ssS'desc'
p1824
S'fan out: 2'
p1825
sS'strategy'
p1826
g11
(tRp1827
S'extra_quota'
p1828
I4
sS'p'
F0.5
sg1815
S'LIRA_DFIB_SC'
p1829
sS'fan_out'
p1830
I2
ssS'content_placement'
p1831
g11
(tRp1832
g1815
S'UNIFORM'
p1833
ssS'joint_cache_rsn_placement'
p1834
g11
(tRp1835
S'network_cache'
p1836
F0.94999999999999996
sS'network_rsn'
p1837
F60.799999999999997
sg1815
S'CACHE_ALL_RSN_ALL'
p1838
sS'rsn_cache_ratio'
p1839
I64
ssS'warmup_strategy'
p1840
g11
(tRp1841
g1828
I10
sS'p'
F0.10000000000000001
sg1815
g1829
sg1830
I100
ssS'topology'
p1842
g11
(tRp1843
S'ext_delay'
p1844
I5
sS'source_ratio'
p1845
F0.10000000000000001
sg1815
S'ROCKET_FUEL'
p1846
sS'asn'
p1847
I3257
ssg11
(tRp1848
S'SAT_RATE'
p1849
g11
(tRp1850
S'MEAN_CACHE_HIT'
p1851
F0.66042777777777772
sS'MEAN_SERVER_HIT'
p1852
F0.62924999999999998
sS'MEAN_SERVER_CACHE_HITS'
p1853
F0.28967777777777776
sS'MEAN'
p1854
F1
ssS'CACHE_HIT_RATIO'
p1855
g11
(tRp1856
S'MEAN_OFF_PATH'
p1857
F0.3849497290451534
sS'MEAN_ON_PATH'
p1858
F0.27547804873262433
sg1854
F0.66042777777777772
ssS'OVERHEAD'
p1859
g11
(tRp1860
S'SUCCESS_RATE'
p1861
F0.63756666335420187
sS'QUOTA_USED_FAILURE'
p1862
F1
sS'FAILURE_RATE'
p1863
F0.36243333664579813
sS'QUOTA_USED_SUCCESS'
p1864
F1
sg1854
F1.5346500000000001
sS'NUM_SUCCESS_FIRST_TIME'
p1865
F0.63241540708416177
ssS'LATENCY'
p1866
g11
(tRp1867
g1854
F34.548036111111109
sstp1868
a(g11
(tRp1869
S'workload'
p1870
g11
(tRp1871
S'n_contents'
p1872
I10000
sS'name'
p1873
S'STATIONARY'
p1874
sS'n_warmup'
p1875
I720000
sS'rate'
p1876
I100
sS'n_measured'
p1877
I360000
sS'alpha'
p1878
F0.69999999999999996
ssS'cache_policy'
p1879
g11
(tRp1880
g1873
S'LRU'
p1881
ssS'desc'
p1882
S'fan out: 3'
p1883
sS'strategy'
p1884
g11
(tRp1885
S'extra_quota'
p1886
I1
sS'p'
F0.5
sg1873
S'LIRA_DFIB_SC'
p1887
sS'fan_out'
p1888
I3
ssS'content_placement'
p1889
g11
(tRp1890
g1873
S'UNIFORM'
p1891
ssS'joint_cache_rsn_placement'
p1892
g11
(tRp1893
S'network_cache'
p1894
F0.94999999999999996
sS'network_rsn'
p1895
F60.799999999999997
sg1873
S'CACHE_ALL_RSN_ALL'
p1896
sS'rsn_cache_ratio'
p1897
I64
ssS'warmup_strategy'
p1898
g11
(tRp1899
g1886
I10
sS'p'
F0.10000000000000001
sg1873
g1887
sg1888
I100
ssS'topology'
p1900
g11
(tRp1901
S'ext_delay'
p1902
I5
sS'source_ratio'
p1903
F0.10000000000000001
sg1873
S'ROCKET_FUEL'
p1904
sS'asn'
p1905
I3257
ssg11
(tRp1906
S'SAT_RATE'
p1907
g11
(tRp1908
S'MEAN_CACHE_HIT'
p1909
F0.66021666666666667
sS'MEAN_SERVER_HIT'
p1910
F0.60157222222222217
sS'MEAN_SERVER_CACHE_HITS'
p1911
F0.27413333333333334
sS'MEAN'
p1912
F0.98765555555555551
ssS'CACHE_HIT_RATIO'
p1913
g11
(tRp1914
S'MEAN_OFF_PATH'
p1915
F0.40094090400753779
sS'MEAN_ON_PATH'
p1916
F0.25927576265912888
sg1912
F0.66021666666666667
ssS'OVERHEAD'
p1917
g11
(tRp1918
S'SUCCESS_RATE'
p1919
F0.64513525631445223
sS'QUOTA_USED_FAILURE'
p1920
F1
sS'FAILURE_RATE'
p1921
F0.35486474368554777
sS'QUOTA_USED_SUCCESS'
p1922
F1
sg1912
F1.5304452744434069
sS'NUM_SUCCESS_FIRST_TIME'
p1923
F0.64313028510252701
ssS'LATENCY'
p1924
g11
(tRp1925
g1912
F33.858902777777779
sstp1926
a(g11
(tRp1927
S'workload'
p1928
g11
(tRp1929
S'n_contents'
p1930
I10000
sS'name'
p1931
S'STATIONARY'
p1932
sS'n_warmup'
p1933
I720000
sS'rate'
p1934
I100
sS'n_measured'
p1935
I360000
sS'alpha'
p1936
F0.69999999999999996
ssS'cache_policy'
p1937
g11
(tRp1938
g1931
S'LRU'
p1939
ssS'desc'
p1940
S'quota_increment: 0.25'
p1941
sS'strategy'
p1942
g11
(tRp1943
S'extra_quota'
p1944
I2
sS'p'
F0.5
sS'quota_increment'
p1945
F0.25
sg1931
S'LIRA_DFIB_OPH'
p1946
sS'fan_out'
p1947
I1
ssS'content_placement'
p1948
g11
(tRp1949
g1931
S'UNIFORM'
p1950
ssS'joint_cache_rsn_placement'
p1951
g11
(tRp1952
S'network_cache'
p1953
F0.94999999999999996
sS'network_rsn'
p1954
F60.799999999999997
sg1931
S'CACHE_ALL_RSN_ALL'
p1955
sS'rsn_cache_ratio'
p1956
I64
ssS'warmup_strategy'
p1957
g11
(tRp1958
g1944
I10
sS'p'
F0.10000000000000001
sg1931
g1946
sg1947
I100
ssS'topology'
p1959
g11
(tRp1960
S'ext_delay'
p1961
I5
sS'source_ratio'
p1962
F0.10000000000000001
sg1931
S'ROCKET_FUEL'
p1963
sS'asn'
p1964
I3257
ssg11
(tRp1965
S'SAT_RATE'
p1966
g11
(tRp1967
S'MEAN_CACHE_HIT'
p1968
F0.58555555555555561
sS'MEAN_SERVER_HIT'
p1969
F0.59417222222222221
sS'MEAN_SERVER_CACHE_HITS'
p1970
F0.18683333333333332
sS'MEAN'
p1971
F0.99289444444444441
ssS'CACHE_HIT_RATIO'
p1972
g11
(tRp1973
S'MEAN_OFF_PATH'
p1974
F0.32231776633969228
sS'MEAN_ON_PATH'
p1975
F0.26323778921586333
sg1971
F0.58555555555555561
ssS'OVERHEAD'
p1976
g11
(tRp1977
S'SUCCESS_RATE'
p1978
F0.56031135846386293
sS'QUOTA_USED_FAILURE'
p1979
F1.2873135529538857
sS'FAILURE_RATE'
p1980
F0.43968864153613707
sS'QUOTA_USED_SUCCESS'
p1981
F3.6315412103885873
sg1971
F1.3545722103166389
sS'NUM_SUCCESS_FIRST_TIME'
p1982
F0.56359973079479031
ssS'LATENCY'
p1983
g11
(tRp1984
g1971
F34.919024999999998
sstp1985
a(g11
(tRp1986
S'workload'
p1987
g11
(tRp1988
S'n_contents'
p1989
I10000
sS'name'
p1990
S'STATIONARY'
p1991
sS'n_warmup'
p1992
I720000
sS'rate'
p1993
I100
sS'n_measured'
p1994
I360000
sS'alpha'
p1995
F0.69999999999999996
ssS'cache_policy'
p1996
g11
(tRp1997
g1990
S'LRU'
p1998
ssS'desc'
p1999
S'fan out: 3'
p2000
sS'strategy'
p2001
g11
(tRp2002
S'extra_quota'
p2003
I2
sS'p'
F0.5
sg1990
S'LIRA_DFIB_SC'
p2004
sS'fan_out'
p2005
I3
ssS'content_placement'
p2006
g11
(tRp2007
g1990
S'UNIFORM'
p2008
ssS'joint_cache_rsn_placement'
p2009
g11
(tRp2010
S'network_cache'
p2011
F0.94999999999999996
sS'network_rsn'
p2012
F60.799999999999997
sg1990
S'CACHE_ALL_RSN_ALL'
p2013
sS'rsn_cache_ratio'
p2014
I64
ssS'warmup_strategy'
p2015
g11
(tRp2016
g2003
I10
sS'p'
F0.10000000000000001
sg1990
g2004
sg2005
I100
ssS'topology'
p2017
g11
(tRp2018
S'ext_delay'
p2019
I5
sS'source_ratio'
p2020
F0.10000000000000001
sg1990
S'ROCKET_FUEL'
p2021
sS'asn'
p2022
I3257
ssg11
(tRp2023
S'SAT_RATE'
p2024
g11
(tRp2025
S'MEAN_CACHE_HIT'
p2026
F0.65846388888888885
sS'MEAN_SERVER_HIT'
p2027
F0.62753611111111107
sS'MEAN_SERVER_CACHE_HITS'
p2028
F0.28613888888888889
sS'MEAN'
p2029
F0.99986111111111109
ssS'CACHE_HIT_RATIO'
p2030
g11
(tRp2031
S'MEAN_OFF_PATH'
p2032
F0.40311041990668739
sS'MEAN_ON_PATH'
p2033
F0.25535346898220146
sg2029
F0.65846388888888885
ssS'OVERHEAD'
p2034
g11
(tRp2035
S'SUCCESS_RATE'
p2036
F0.64389789923705565
sS'QUOTA_USED_FAILURE'
p2037
F1
sS'FAILURE_RATE'
p2038
F0.35610210076294435
sS'QUOTA_USED_SUCCESS'
p2039
F1
sg2029
F1.5529990276427281
sS'NUM_SUCCESS_FIRST_TIME'
p2040
F0.64039863430838795
ssS'LATENCY'
p2041
g11
(tRp2042
g2029
F35.284455555555553
sstp2043
a(g11
(tRp2044
S'workload'
p2045
g11
(tRp2046
S'n_contents'
p2047
I10000
sS'name'
p2048
S'STATIONARY'
p2049
sS'n_warmup'
p2050
I720000
sS'rate'
p2051
I100
sS'n_measured'
p2052
I360000
sS'alpha'
p2053
F0.69999999999999996
ssS'cache_policy'
p2054
g11
(tRp2055
g2048
S'LRU'
p2056
ssS'desc'
p2057
S'fan out: 3'
p2058
sS'strategy'
p2059
g11
(tRp2060
S'extra_quota'
p2061
I3
sS'p'
F0.5
sg2048
S'LIRA_DFIB_SC'
p2062
sS'fan_out'
p2063
I3
ssS'content_placement'
p2064
g11
(tRp2065
g2048
S'UNIFORM'
p2066
ssS'joint_cache_rsn_placement'
p2067
g11
(tRp2068
S'network_cache'
p2069
F0.94999999999999996
sS'network_rsn'
p2070
F60.799999999999997
sg2048
S'CACHE_ALL_RSN_ALL'
p2071
sS'rsn_cache_ratio'
p2072
I64
ssS'warmup_strategy'
p2073
g11
(tRp2074
g2061
I10
sS'p'
F0.10000000000000001
sg2048
g2062
sg2063
I100
ssS'topology'
p2075
g11
(tRp2076
S'ext_delay'
p2077
I5
sS'source_ratio'
p2078
F0.10000000000000001
sg2048
S'ROCKET_FUEL'
p2079
sS'asn'
p2080
I3257
ssg11
(tRp2081
S'SAT_RATE'
p2082
g11
(tRp2083
S'MEAN_CACHE_HIT'
p2084
F0.66033611111111112
sS'MEAN_SERVER_HIT'
p2085
F0.6268111111111111
sS'MEAN_SERVER_CACHE_HITS'
p2086
F0.28715000000000002
sS'MEAN'
p2087
F0.9999972222222222
ssS'CACHE_HIT_RATIO'
p2088
g11
(tRp2089
S'MEAN_OFF_PATH'
p2090
F0.41177841609243526
sS'MEAN_ON_PATH'
p2091
F0.24855769501867586
sg2087
F0.66033611111111112
ssS'OVERHEAD'
p2092
g11
(tRp2093
S'SUCCESS_RATE'
p2094
F0.65204482756423732
sS'QUOTA_USED_FAILURE'
p2095
F1
sS'FAILURE_RATE'
p2096
F0.34795517243576268
sS'QUOTA_USED_SUCCESS'
p2097
F1
sg2087
F1.5685265792404979
sS'NUM_SUCCESS_FIRST_TIME'
p2098
F0.64677097090995295
ssS'LATENCY'
p2099
g11
(tRp2100
g2087
F35.113216666666666
sstp2101
a(g11
(tRp2102
S'workload'
p2103
g11
(tRp2104
S'n_contents'
p2105
I10000
sS'name'
p2106
S'STATIONARY'
p2107
sS'n_warmup'
p2108
I720000
sS'rate'
p2109
I100
sS'n_measured'
p2110
I360000
sS'alpha'
p2111
F0.69999999999999996
ssS'cache_policy'
p2112
g11
(tRp2113
g2106
S'LRU'
p2114
ssS'desc'
p2115
S'quota_increment: 0.75'
p2116
sS'strategy'
p2117
g11
(tRp2118
S'extra_quota'
p2119
I2
sS'p'
F0.5
sS'quota_increment'
p2120
F0.75
sg2106
S'LIRA_DFIB_OPH'
p2121
sS'fan_out'
p2122
I1
ssS'content_placement'
p2123
g11
(tRp2124
g2106
S'UNIFORM'
p2125
ssS'joint_cache_rsn_placement'
p2126
g11
(tRp2127
S'network_cache'
p2128
F0.94999999999999996
sS'network_rsn'
p2129
F60.799999999999997
sg2106
S'CACHE_ALL_RSN_ALL'
p2130
sS'rsn_cache_ratio'
p2131
I64
ssS'warmup_strategy'
p2132
g11
(tRp2133
g2119
I10
sS'p'
F0.10000000000000001
sg2106
g2121
sg2122
I100
ssS'topology'
p2134
g11
(tRp2135
S'ext_delay'
p2136
I5
sS'source_ratio'
p2137
F0.10000000000000001
sg2106
S'ROCKET_FUEL'
p2138
sS'asn'
p2139
I3257
ssg11
(tRp2140
S'SAT_RATE'
p2141
g11
(tRp2142
S'MEAN_CACHE_HIT'
p2143
F0.5797444444444444
sS'MEAN_SERVER_HIT'
p2144
F0.5496361111111111
sS'MEAN_SERVER_CACHE_HITS'
p2145
F0.1522111111111111
sS'MEAN'
p2146
F0.97716944444444442
ssS'CACHE_HIT_RATIO'
p2147
g11
(tRp2148
S'MEAN_OFF_PATH'
p2149
F0.30390553326922082
sS'MEAN_ON_PATH'
p2150
F0.27583891117522358
sg2146
F0.5797444444444444
ssS'OVERHEAD'
p2151
g11
(tRp2152
S'SUCCESS_RATE'
p2153
F0.53870291186369035
sS'QUOTA_USED_FAILURE'
p2154
F1.6120937322321991
sS'FAILURE_RATE'
p2155
F0.46129708813630971
sS'QUOTA_USED_SUCCESS'
p2156
F4.5279178161935016
sg2146
F1.2729794957658316
sS'NUM_SUCCESS_FIRST_TIME'
p2157
F0.54230023701265118
ssS'LATENCY'
p2158
g11
(tRp2159
g2146
F32.883405555555555
sstp2160
a(g11
(tRp2161
S'workload'
p2162
g11
(tRp2163
S'n_contents'
p2164
I10000
sS'name'
p2165
S'STATIONARY'
p2166
sS'n_warmup'
p2167
I720000
sS'rate'
p2168
I100
sS'n_measured'
p2169
I360000
sS'alpha'
p2170
F0.69999999999999996
ssS'cache_policy'
p2171
g11
(tRp2172
g2165
S'LRU'
p2173
ssS'desc'
p2174
S'quota_increment: 1.0'
p2175
sS'strategy'
p2176
g11
(tRp2177
S'extra_quota'
p2178
I2
sS'p'
F0.5
sS'quota_increment'
p2179
F1
sg2165
S'LIRA_DFIB_OPH'
p2180
sS'fan_out'
p2181
I1
ssS'content_placement'
p2182
g11
(tRp2183
g2165
S'UNIFORM'
p2184
ssS'joint_cache_rsn_placement'
p2185
g11
(tRp2186
S'network_cache'
p2187
F0.94999999999999996
sS'network_rsn'
p2188
F60.799999999999997
sg2165
S'CACHE_ALL_RSN_ALL'
p2189
sS'rsn_cache_ratio'
p2190
I64
ssS'warmup_strategy'
p2191
g11
(tRp2192
g2178
I10
sS'p'
F0.10000000000000001
sg2165
g2180
sg2181
I100
ssS'topology'
p2193
g11
(tRp2194
S'ext_delay'
p2195
I5
sS'source_ratio'
p2196
F0.10000000000000001
sg2165
S'ROCKET_FUEL'
p2197
sS'asn'
p2198
I3257
ssg11
(tRp2199
S'SAT_RATE'
p2200
g11
(tRp2201
S'MEAN_CACHE_HIT'
p2202
F0.58000555555555555
sS'MEAN_SERVER_HIT'
p2203
F0.51123055555555552
sS'MEAN_SERVER_CACHE_HITS'
p2204
F0.12821111111111111
sS'MEAN'
p2205
F0.96302500000000002
ssS'CACHE_HIT_RATIO'
p2206
g11
(tRp2207
S'MEAN_OFF_PATH'
p2208
F0.32290598073031346
sS'MEAN_ON_PATH'
p2209
F0.25709957482524209
sg2205
F0.58000555555555555
ssS'OVERHEAD'
p2210
g11
(tRp2211
S'SUCCESS_RATE'
p2212
F0.54980802480660429
sS'QUOTA_USED_FAILURE'
p2213
F1.8171218643893823
sS'FAILURE_RATE'
p2214
F0.45019197519339571
sS'QUOTA_USED_SUCCESS'
p2215
F6.1605348950415699
sg2205
F1.250827110176556
sS'NUM_SUCCESS_FIRST_TIME'
p2216
F0.55514884982726176
ssS'LATENCY'
p2217
g11
(tRp2218
g2205
F32.454555555555558
sstp2219
a(g11
(tRp2220
S'workload'
p2221
g11
(tRp2222
S'n_contents'
p2223
I10000
sS'name'
p2224
S'STATIONARY'
p2225
sS'n_warmup'
p2226
I720000
sS'rate'
p2227
I100
sS'n_measured'
p2228
I360000
sS'alpha'
p2229
F0.69999999999999996
ssS'cache_policy'
p2230
g11
(tRp2231
g2224
S'LRU'
p2232
ssS'desc'
p2233
S'fan out: 3'
p2234
sS'strategy'
p2235
g11
(tRp2236
S'extra_quota'
p2237
I4
sS'p'
F0.5
sg2224
S'LIRA_DFIB_SC'
p2238
sS'fan_out'
p2239
I3
ssS'content_placement'
p2240
g11
(tRp2241
g2224
S'UNIFORM'
p2242
ssS'joint_cache_rsn_placement'
p2243
g11
(tRp2244
S'network_cache'
p2245
F0.94999999999999996
sS'network_rsn'
p2246
F60.799999999999997
sg2224
S'CACHE_ALL_RSN_ALL'
p2247
sS'rsn_cache_ratio'
p2248
I64
ssS'warmup_strategy'
p2249
g11
(tRp2250
g2237
I10
sS'p'
F0.10000000000000001
sg2224
g2238
sg2239
I100
ssS'topology'
p2251
g11
(tRp2252
S'ext_delay'
p2253
I5
sS'source_ratio'
p2254
F0.10000000000000001
sg2224
S'ROCKET_FUEL'
p2255
sS'asn'
p2256
I3257
ssg11
(tRp2257
S'SAT_RATE'
p2258
g11
(tRp2259
S'MEAN_CACHE_HIT'
p2260
F0.65930277777777779
sS'MEAN_SERVER_HIT'
p2261
F0.63105555555555559
sS'MEAN_SERVER_CACHE_HITS'
p2262
F0.29035833333333333
sS'MEAN'
p2263
F1
ssS'CACHE_HIT_RATIO'
p2264
g11
(tRp2265
S'MEAN_OFF_PATH'
p2266
F0.39910533034536055
sS'MEAN_ON_PATH'
p2267
F0.26019744743241724
sg2263
F0.65930277777777779
ssS'OVERHEAD'
p2268
g11
(tRp2269
S'SUCCESS_RATE'
p2270
F0.64284922033013636
sS'QUOTA_USED_FAILURE'
p2271
F1
sS'FAILURE_RATE'
p2272
F0.35715077966986364
sS'QUOTA_USED_SUCCESS'
p2273
F1
sg2263
F1.5473861111111111
sS'NUM_SUCCESS_FIRST_TIME'
p2274
F0.64087687580342478
ssS'LATENCY'
p2275
g11
(tRp2276
g2263
F34.822602777777774
sstp2277
a(g11
(tRp2278
S'workload'
p2279
g11
(tRp2280
S'n_contents'
p2281
I10000
sS'name'
p2282
S'STATIONARY'
p2283
sS'n_warmup'
p2284
I720000
sS'rate'
p2285
I100
sS'n_measured'
p2286
I360000
sS'alpha'
p2287
F0.69999999999999996
ssS'cache_policy'
p2288
g11
(tRp2289
g2282
S'LRU'
p2290
ssS'desc'
p2291
S'fan out: 3'
p2292
sS'strategy'
p2293
g11
(tRp2294
S'extra_quota'
p2295
I5
sS'p'
F0.5
sg2282
S'LIRA_DFIB_SC'
p2296
sS'fan_out'
p2297
I3
ssS'content_placement'
p2298
g11
(tRp2299
g2282
S'UNIFORM'
p2300
ssS'joint_cache_rsn_placement'
p2301
g11
(tRp2302
S'network_cache'
p2303
F0.94999999999999996
sS'network_rsn'
p2304
F60.799999999999997
sg2282
S'CACHE_ALL_RSN_ALL'
p2305
sS'rsn_cache_ratio'
p2306
I64
ssS'warmup_strategy'
p2307
g11
(tRp2308
g2295
I10
sS'p'
F0.10000000000000001
sg2282
g2296
sg2297
I100
ssS'topology'
p2309
g11
(tRp2310
S'ext_delay'
p2311
I5
sS'source_ratio'
p2312
F0.10000000000000001
sg2282
S'ROCKET_FUEL'
p2313
sS'asn'
p2314
I3257
ssg11
(tRp2315
S'SAT_RATE'
p2316
g11
(tRp2317
S'MEAN_CACHE_HIT'
p2318
F0.6588194444444444
sS'MEAN_SERVER_HIT'
p2319
F0.62966944444444439
sS'MEAN_SERVER_CACHE_HITS'
p2320
F0.28848888888888891
sS'MEAN'
p2321
F1
ssS'CACHE_HIT_RATIO'
p2322
g11
(tRp2323
S'MEAN_OFF_PATH'
p2324
F0.38248723741850921
sS'MEAN_ON_PATH'
p2325
F0.27633220702593519
sg2321
F0.6588194444444444
ssS'OVERHEAD'
p2326
g11
(tRp2327
S'SUCCESS_RATE'
p2328
F0.63765951400683329
sS'QUOTA_USED_FAILURE'
p2329
F1
sS'FAILURE_RATE'
p2330
F0.36234048599316676
sS'QUOTA_USED_SUCCESS'
p2331
F1
sg2321
F1.5360555555555555
sS'NUM_SUCCESS_FIRST_TIME'
p2332
F0.63096673222934252
ssS'LATENCY'
p2333
g11
(tRp2334
g2321
F34.460180555555553
sstp2335
a(g11
(tRp2336
S'workload'
p2337
g11
(tRp2338
S'n_contents'
p2339
I10000
sS'name'
p2340
S'STATIONARY'
p2341
sS'n_warmup'
p2342
I720000
sS'rate'
p2343
I100
sS'n_measured'
p2344
I360000
sS'alpha'
p2345
F0.69999999999999996
ssS'cache_policy'
p2346
g11
(tRp2347
g2340
S'LRU'
p2348
ssS'desc'
p2349
S'quota_increment: 0.25'
p2350
sS'strategy'
p2351
g11
(tRp2352
S'extra_quota'
p2353
I2
sS'p'
F0.5
sS'quota_increment'
p2354
F0.25
sg2340
S'LIRA_DFIB_OPH'
p2355
sS'fan_out'
p2356
I2
ssS'content_placement'
p2357
g11
(tRp2358
g2340
S'UNIFORM'
p2359
ssS'joint_cache_rsn_placement'
p2360
g11
(tRp2361
S'network_cache'
p2362
F0.94999999999999996
sS'network_rsn'
p2363
F60.799999999999997
sg2340
S'CACHE_ALL_RSN_ALL'
p2364
sS'rsn_cache_ratio'
p2365
I64
ssS'warmup_strategy'
p2366
g11
(tRp2367
g2353
I10
sS'p'
F0.10000000000000001
sg2340
g2355
sg2356
I100
ssS'topology'
p2368
g11
(tRp2369
S'ext_delay'
p2370
I5
sS'source_ratio'
p2371
F0.10000000000000001
sg2340
S'ROCKET_FUEL'
p2372
sS'asn'
p2373
I3257
ssg11
(tRp2374
S'SAT_RATE'
p2375
g11
(tRp2376
S'MEAN_CACHE_HIT'
p2377
F0.66078333333333328
sS'MEAN_SERVER_HIT'
p2378
F0.57541944444444448
sS'MEAN_SERVER_CACHE_HITS'
p2379
F0.24438333333333334
sS'MEAN'
p2380
F0.99181944444444448
ssS'CACHE_HIT_RATIO'
p2381
g11
(tRp2382
S'MEAN_OFF_PATH'
p2383
F0.41117624985113466
sS'MEAN_ON_PATH'
p2384
F0.24960708348219862
sg2380
F0.66078333333333328
ssS'OVERHEAD'
p2385
g11
(tRp2386
S'SUCCESS_RATE'
p2387
F0.6414730293907287
sS'QUOTA_USED_FAILURE'
p2388
F1.3553022086879638
sS'FAILURE_RATE'
p2389
F0.3585269706092713
sS'QUOTA_USED_SUCCESS'
p2390
F6.5924672620683857
sg2380
F1.4267465796585961
sS'NUM_SUCCESS_FIRST_TIME'
p2391
F0.64082935943556707
ssS'LATENCY'
p2392
g11
(tRp2393
g2380
F32.669055555555559
sstp2394
a(g11
(tRp2395
S'workload'
p2396
g11
(tRp2397
S'n_contents'
p2398
I10000
sS'name'
p2399
S'STATIONARY'
p2400
sS'n_warmup'
p2401
I720000
sS'rate'
p2402
I100
sS'n_measured'
p2403
I360000
sS'alpha'
p2404
F0.69999999999999996
ssS'cache_policy'
p2405
g11
(tRp2406
g2399
S'LRU'
p2407
ssS'desc'
p2408
S'quota_increment: 0.75'
p2409
sS'strategy'
p2410
g11
(tRp2411
S'extra_quota'
p2412
I2
sS'p'
F0.5
sS'quota_increment'
p2413
F0.75
sg2399
S'LIRA_DFIB_OPH'
p2414
sS'fan_out'
p2415
I2
ssS'content_placement'
p2416
g11
(tRp2417
g2399
S'UNIFORM'
p2418
ssS'joint_cache_rsn_placement'
p2419
g11
(tRp2420
S'network_cache'
p2421
F0.94999999999999996
sS'network_rsn'
p2422
F60.799999999999997
sg2399
S'CACHE_ALL_RSN_ALL'
p2423
sS'rsn_cache_ratio'
p2424
I64
ssS'warmup_strategy'
p2425
g11
(tRp2426
g2412
I10
sS'p'
F0.10000000000000001
sg2399
g2414
sg2415
I100
ssS'topology'
p2427
g11
(tRp2428
S'ext_delay'
p2429
I5
sS'source_ratio'
p2430
F0.10000000000000001
sg2399
S'ROCKET_FUEL'
p2431
sS'asn'
p2432
I3257
ssg11
(tRp2433
S'SAT_RATE'
p2434
g11
(tRp2435
S'MEAN_CACHE_HIT'
p2436
F0.6621083333333333
sS'MEAN_SERVER_HIT'
p2437
F0.4936861111111111
sS'MEAN_SERVER_CACHE_HITS'
p2438
F0.18531944444444445
sS'MEAN'
p2439
F0.97047499999999998
ssS'CACHE_HIT_RATIO'
p2440
g11
(tRp2441
S'MEAN_OFF_PATH'
p2442
F0.42760871550592905
sS'MEAN_ON_PATH'
p2443
F0.23449961782740425
sg2439
F0.6621083333333333
ssS'OVERHEAD'
p2444
g11
(tRp2445
S'SUCCESS_RATE'
p2446
F0.64367341701031111
sS'QUOTA_USED_FAILURE'
p2447
F1.8763097420268349
sS'FAILURE_RATE'
p2448
F0.35632658298968894
sS'QUOTA_USED_SUCCESS'
p2449
F7.9659459779132842
sg2439
F1.3206648519768385
sS'NUM_SUCCESS_FIRST_TIME'
p2450
F0.64397835695116568
ssS'LATENCY'
p2451
g11
(tRp2452
g2439
F30.272694444444443
sstp2453
a(g11
(tRp2454
S'workload'
p2455
g11
(tRp2456
S'n_contents'
p2457
I10000
sS'name'
p2458
S'STATIONARY'
p2459
sS'n_warmup'
p2460
I720000
sS'rate'
p2461
I100
sS'n_measured'
p2462
I360000
sS'alpha'
p2463
F0.69999999999999996
ssS'cache_policy'
p2464
g11
(tRp2465
g2458
S'LRU'
p2466
ssS'desc'
p2467
S'quota_increment: 0.5'
p2468
sS'strategy'
p2469
g11
(tRp2470
S'extra_quota'
p2471
I2
sS'p'
F0.5
sS'quota_increment'
p2472
F0.5
sg2458
S'LIRA_DFIB_OPH'
p2473
sS'fan_out'
p2474
I2
ssS'content_placement'
p2475
g11
(tRp2476
g2458
S'UNIFORM'
p2477
ssS'joint_cache_rsn_placement'
p2478
g11
(tRp2479
S'network_cache'
p2480
F0.94999999999999996
sS'network_rsn'
p2481
F60.799999999999997
sg2458
S'CACHE_ALL_RSN_ALL'
p2482
sS'rsn_cache_ratio'
p2483
I64
ssS'warmup_strategy'
p2484
g11
(tRp2485
g2471
I10
sS'p'
F0.10000000000000001
sg2458
g2473
sg2474
I100
ssS'topology'
p2486
g11
(tRp2487
S'ext_delay'
p2488
I5
sS'source_ratio'
p2489
F0.10000000000000001
sg2458
S'ROCKET_FUEL'
p2490
sS'asn'
p2491
I3257
ssg11
(tRp2492
S'SAT_RATE'
p2493
g11
(tRp2494
S'MEAN_CACHE_HIT'
p2495
F0.66213611111111115
sS'MEAN_SERVER_HIT'
p2496
F0.52517777777777774
sS'MEAN_SERVER_CACHE_HITS'
p2497
F0.20725555555555555
sS'MEAN'
p2498
F0.98005833333333336
ssS'CACHE_HIT_RATIO'
p2499
g11
(tRp2500
S'MEAN_OFF_PATH'
p2501
F0.4146170276979082
sS'MEAN_ON_PATH'
p2502
F0.24751908341320294
sg2498
F0.66213611111111115
ssS'OVERHEAD'
p2503
g11
(tRp2504
S'SUCCESS_RATE'
p2505
F0.63834892218635808
sS'QUOTA_USED_FAILURE'
p2506
F1.6178072602046709
sS'FAILURE_RATE'
p2507
F0.36165107781364186
sS'QUOTA_USED_SUCCESS'
p2508
F6.1141777078176833
sg2498
F1.36183787246224
sS'NUM_SUCCESS_FIRST_TIME'
p2509
F0.63737898346107302
ssS'LATENCY'
p2510
g11
(tRp2511
g2498
F31.548008333333332
sstp2512
a(g11
(tRp2513
S'workload'
p2514
g11
(tRp2515
S'n_contents'
p2516
I10000
sS'name'
p2517
S'STATIONARY'
p2518
sS'n_warmup'
p2519
I720000
sS'rate'
p2520
I100
sS'n_measured'
p2521
I360000
sS'alpha'
p2522
F0.69999999999999996
ssS'cache_policy'
p2523
g11
(tRp2524
g2517
S'LRU'
p2525
ssS'desc'
p2526
S'quota_increment: 1.0'
p2527
sS'strategy'
p2528
g11
(tRp2529
S'extra_quota'
p2530
I2
sS'p'
F0.5
sS'quota_increment'
p2531
F1
sg2517
S'LIRA_DFIB_OPH'
p2532
sS'fan_out'
p2533
I2
ssS'content_placement'
p2534
g11
(tRp2535
g2517
S'UNIFORM'
p2536
ssS'joint_cache_rsn_placement'
p2537
g11
(tRp2538
S'network_cache'
p2539
F0.94999999999999996
sS'network_rsn'
p2540
F60.799999999999997
sg2517
S'CACHE_ALL_RSN_ALL'
p2541
sS'rsn_cache_ratio'
p2542
I64
ssS'warmup_strategy'
p2543
g11
(tRp2544
g2530
I10
sS'p'
F0.10000000000000001
sg2517
g2532
sg2533
I100
ssS'topology'
p2545
g11
(tRp2546
S'ext_delay'
p2547
I5
sS'source_ratio'
p2548
F0.10000000000000001
sg2517
S'ROCKET_FUEL'
p2549
sS'asn'
p2550
I3257
ssg11
(tRp2551
S'SAT_RATE'
p2552
g11
(tRp2553
S'MEAN_CACHE_HIT'
p2554
F0.66029444444444441
sS'MEAN_SERVER_HIT'
p2555
F0.44367499999999999
sS'MEAN_SERVER_CACHE_HITS'
p2556
F0.15041944444444444
sS'MEAN'
p2557
F0.95355000000000001
ssS'CACHE_HIT_RATIO'
p2558
g11
(tRp2559
S'MEAN_OFF_PATH'
p2560
F0.44290175100458196
sS'MEAN_ON_PATH'
p2561
F0.21739269343986245
sg2557
F0.66029444444444441
ssS'OVERHEAD'
p2562
g11
(tRp2563
S'SUCCESS_RATE'
p2564
F0.64615984706858021
sS'QUOTA_USED_FAILURE'
p2565
F2.1610107787927078
sS'FAILURE_RATE'
p2566
F0.35384015293141979
sS'QUOTA_USED_SUCCESS'
p2567
F9.6879158712130184
sg2557
F1.2830300805760928
sS'NUM_SUCCESS_FIRST_TIME'
p2568
F0.64746966969603836
ssS'LATENCY'
p2569
g11
(tRp2570
g2557
F29.011022222222223
sstp2571
a(g11
(tRp2572
S'workload'
p2573
g11
(tRp2574
S'n_contents'
p2575
I10000
sS'name'
p2576
S'STATIONARY'
p2577
sS'n_warmup'
p2578
I720000
sS'rate'
p2579
I100
sS'n_measured'
p2580
I360000
sS'alpha'
p2581
F0.69999999999999996
ssS'cache_policy'
p2582
g11
(tRp2583
g2576
S'LRU'
p2584
ssS'desc'
p2585
S'quota_increment: 0.5'
p2586
sS'strategy'
p2587
g11
(tRp2588
S'extra_quota'
p2589
I2
sS'p'
F0.5
sS'quota_increment'
p2590
F0.5
sg2576
S'LIRA_DFIB_OPH'
p2591
sS'fan_out'
p2592
I3
ssS'content_placement'
p2593
g11
(tRp2594
g2576
S'UNIFORM'
p2595
ssS'joint_cache_rsn_placement'
p2596
g11
(tRp2597
S'network_cache'
p2598
F0.94999999999999996
sS'network_rsn'
p2599
F60.799999999999997
sg2576
S'CACHE_ALL_RSN_ALL'
p2600
sS'rsn_cache_ratio'
p2601
I64
ssS'warmup_strategy'
p2602
g11
(tRp2603
g2589
I10
sS'p'
F0.10000000000000001
sg2576
g2591
sg2592
I100
ssS'topology'
p2604
g11
(tRp2605
S'ext_delay'
p2606
I5
sS'source_ratio'
p2607
F0.10000000000000001
sg2576
S'ROCKET_FUEL'
p2608
sS'asn'
p2609
I3257
ssg11
(tRp2610
S'SAT_RATE'
p2611
g11
(tRp2612
S'MEAN_CACHE_HIT'
p2613
F0.66032222222222225
sS'MEAN_SERVER_HIT'
p2614
F0.52610000000000001
sS'MEAN_SERVER_CACHE_HITS'
p2615
F0.20682500000000001
sS'MEAN'
p2616
F0.97959722222222223
ssS'CACHE_HIT_RATIO'
p2617
g11
(tRp2618
S'MEAN_OFF_PATH'
p2619
F0.42524911498623313
sS'MEAN_ON_PATH'
p2620
F0.23507310723598912
sg2616
F0.66032222222222225
ssS'OVERHEAD'
p2621
g11
(tRp2622
S'SUCCESS_RATE'
p2623
F0.64314656268542847
sS'QUOTA_USED_FAILURE'
p2624
F1.6220793371771587
sS'FAILURE_RATE'
p2625
F0.35685343731457148
sS'QUOTA_USED_SUCCESS'
p2626
F6.4349319175916815
sg2616
F1.3712211651614183
sS'NUM_SUCCESS_FIRST_TIME'
p2627
F0.64322053427401482
ssS'LATENCY'
p2628
g11
(tRp2629
g2616
F30.978413888888888
sstp2630
a(g11
(tRp2631
S'workload'
p2632
g11
(tRp2633
S'n_contents'
p2634
I10000
sS'name'
p2635
S'STATIONARY'
p2636
sS'n_warmup'
p2637
I720000
sS'rate'
p2638
I100
sS'n_measured'
p2639
I360000
sS'alpha'
p2640
F0.69999999999999996
ssS'cache_policy'
p2641
g11
(tRp2642
g2635
S'LRU'
p2643
ssS'desc'
p2644
S'quota_increment: 0.75'
p2645
sS'strategy'
p2646
g11
(tRp2647
S'extra_quota'
p2648
I2
sS'p'
F0.5
sS'quota_increment'
p2649
F0.75
sg2635
S'LIRA_DFIB_OPH'
p2650
sS'fan_out'
p2651
I3
ssS'content_placement'
p2652
g11
(tRp2653
g2635
S'UNIFORM'
p2654
ssS'joint_cache_rsn_placement'
p2655
g11
(tRp2656
S'network_cache'
p2657
F0.94999999999999996
sS'network_rsn'
p2658
F60.799999999999997
sg2635
S'CACHE_ALL_RSN_ALL'
p2659
sS'rsn_cache_ratio'
p2660
I64
ssS'warmup_strategy'
p2661
g11
(tRp2662
g2648
I10
sS'p'
F0.10000000000000001
sg2635
g2650
sg2651
I100
ssS'topology'
p2663
g11
(tRp2664
S'ext_delay'
p2665
I5
sS'source_ratio'
p2666
F0.10000000000000001
sg2635
S'ROCKET_FUEL'
p2667
sS'asn'
p2668
I3257
ssg11
(tRp2669
S'SAT_RATE'
p2670
g11
(tRp2671
S'MEAN_CACHE_HIT'
p2672
F0.66154999999999997
sS'MEAN_SERVER_HIT'
p2673
F0.48959444444444444
sS'MEAN_SERVER_CACHE_HITS'
p2674
F0.18139166666666667
sS'MEAN'
p2675
F0.9697527777777778
ssS'CACHE_HIT_RATIO'
p2676
g11
(tRp2677
S'MEAN_OFF_PATH'
p2678
F0.44320869086802506
sS'MEAN_ON_PATH'
p2679
F0.21834130913197491
sg2675
F0.66154999999999997
ssS'OVERHEAD'
p2680
g11
(tRp2681
S'SUCCESS_RATE'
p2682
F0.64976867668104576
sS'QUOTA_USED_FAILURE'
p2683
F1.9084120918563856
sS'FAILURE_RATE'
p2684
F0.35023132331895424
sS'QUOTA_USED_SUCCESS'
p2685
F9.3520221891829554
sg2675
F1.3357642698167631
sS'NUM_SUCCESS_FIRST_TIME'
p2686
F0.65045242451318275
ssS'LATENCY'
p2687
g11
(tRp2688
g2675
F29.877319444444446
sstp2689
a(g11
(tRp2690
S'workload'
p2691
g11
(tRp2692
S'n_contents'
p2693
I10000
sS'name'
p2694
S'STATIONARY'
p2695
sS'n_warmup'
p2696
I720000
sS'rate'
p2697
I100
sS'n_measured'
p2698
I360000
sS'alpha'
p2699
F0.69999999999999996
ssS'cache_policy'
p2700
g11
(tRp2701
g2694
S'LRU'
p2702
ssS'desc'
p2703
S'quota_increment: 0.25'
p2704
sS'strategy'
p2705
g11
(tRp2706
S'extra_quota'
p2707
I2
sS'p'
F0.5
sS'quota_increment'
p2708
F0.25
sg2694
S'LIRA_DFIB_OPH'
p2709
sS'fan_out'
p2710
I3
ssS'content_placement'
p2711
g11
(tRp2712
g2694
S'UNIFORM'
p2713
ssS'joint_cache_rsn_placement'
p2714
g11
(tRp2715
S'network_cache'
p2716
F0.94999999999999996
sS'network_rsn'
p2717
F60.799999999999997
sg2694
S'CACHE_ALL_RSN_ALL'
p2718
sS'rsn_cache_ratio'
p2719
I64
ssS'warmup_strategy'
p2720
g11
(tRp2721
g2707
I10
sS'p'
F0.10000000000000001
sg2694
g2709
sg2710
I100
ssS'topology'
p2722
g11
(tRp2723
S'ext_delay'
p2724
I5
sS'source_ratio'
p2725
F0.10000000000000001
sg2694
S'ROCKET_FUEL'
p2726
sS'asn'
p2727
I3257
ssg11
(tRp2728
S'SAT_RATE'
p2729
g11
(tRp2730
S'MEAN_CACHE_HIT'
p2731
F0.66093055555555558
sS'MEAN_SERVER_HIT'
p2732
F0.57377222222222224
sS'MEAN_SERVER_CACHE_HITS'
p2733
F0.24283611111111111
sS'MEAN'
p2734
F0.99186666666666667
ssS'CACHE_HIT_RATIO'
p2735
g11
(tRp2736
S'MEAN_OFF_PATH'
p2737
F0.41702793969758806
sS'MEAN_ON_PATH'
p2738
F0.24390261585796752
sg2734
F0.66093055555555558
ssS'OVERHEAD'
p2739
g11
(tRp2740
S'SUCCESS_RATE'
p2741
F0.64417973700887199
sS'QUOTA_USED_FAILURE'
p2742
F1.3615343221643534
sS'FAILURE_RATE'
p2743
F0.35582026299112801
sS'QUOTA_USED_SUCCESS'
p2744
F4.6732435457038957
sg2734
F1.4343605771385042
sS'NUM_SUCCESS_FIRST_TIME'
p2745
F0.64233027351132777
ssS'LATENCY'
p2746
g11
(tRp2747
g2734
F32.606230555555555
sstp2748
a(g11
(tRp2749
S'workload'
p2750
g11
(tRp2751
S'n_contents'
p2752
I10000
sS'name'
p2753
S'STATIONARY'
p2754
sS'n_warmup'
p2755
I720000
sS'rate'
p2756
I100
sS'n_measured'
p2757
I360000
sS'alpha'
p2758
F0.69999999999999996
ssS'cache_policy'
p2759
g11
(tRp2760
g2753
S'LRU'
p2761
ssS'desc'
p2762
S'quota_increment: 1.0'
p2763
sS'strategy'
p2764
g11
(tRp2765
S'extra_quota'
p2766
I2
sS'p'
F0.5
sS'quota_increment'
p2767
F1
sg2753
S'LIRA_DFIB_OPH'
p2768
sS'fan_out'
p2769
I3
ssS'content_placement'
p2770
g11
(tRp2771
g2753
S'UNIFORM'
p2772
ssS'joint_cache_rsn_placement'
p2773
g11
(tRp2774
S'network_cache'
p2775
F0.94999999999999996
sS'network_rsn'
p2776
F60.799999999999997
sg2753
S'CACHE_ALL_RSN_ALL'
p2777
sS'rsn_cache_ratio'
p2778
I64
ssS'warmup_strategy'
p2779
g11
(tRp2780
g2766
I10
sS'p'
F0.10000000000000001
sg2753
g2768
sg2769
I100
ssS'topology'
p2781
g11
(tRp2782
S'ext_delay'
p2783
I5
sS'source_ratio'
p2784
F0.10000000000000001
sg2753
S'ROCKET_FUEL'
p2785
sS'asn'
p2786
I3257
ssg11
(tRp2787
S'SAT_RATE'
p2788
g11
(tRp2789
S'MEAN_CACHE_HIT'
p2790
F0.66132777777777774
sS'MEAN_SERVER_HIT'
p2791
F0.44367499999999999
sS'MEAN_SERVER_CACHE_HITS'
p2792
F0.15108333333333332
sS'MEAN'
p2793
F0.95391944444444443
ssS'CACHE_HIT_RATIO'
p2794
g11
(tRp2795
S'MEAN_OFF_PATH'
p2796
F0.45588372075484979
sS'MEAN_ON_PATH'
p2797
F0.20544405702292795
sg2793
F0.66132777777777774
ssS'OVERHEAD'
p2798
g11
(tRp2799
S'SUCCESS_RATE'
p2800
F0.65406254224773552
sS'QUOTA_USED_FAILURE'
p2801
F2.1938855436876006
sS'FAILURE_RATE'
p2802
F0.34593745775226448
sS'QUOTA_USED_SUCCESS'
p2803
F11.317443195546655
sg2793
F1.2848452728654587
sS'NUM_SUCCESS_FIRST_TIME'
p2804
F0.65536900295865452
ssS'LATENCY'
p2805
g11
(tRp2806
g2793
F28.586455555555556
sstp2807
atRp2808
sb.