ccopy_reg
_reconstructor
p1
(cicarus.results.readwrite
ResultSet
p2
c__builtin__
object
p3
NtRp4
(dp5
S'attr'
p6
(dp7
sS'_results'
p8
ccollections
deque
p9
((lp10
(cicarus.util
Tree
p11
(tRp12
S'workload'
p13
g11
(tRp14
S'n_contents'
p15
I10000
sS'name'
p16
S'STATIONARY'
p17
sS'n_warmup'
p18
I720000
sS'rate'
p19
I100
sS'n_measured'
p20
I360000
sS'alpha'
p21
F0.10000000000000001
ssS'cache_policy'
p22
g11
(tRp23
g16
S'LRU'
p24
ssS'desc'
p25
S'strategy zipf: 0.1'
p26
sS'strategy'
p27
g11
(tRp28
g16
S'NRR_PROB'
p29
ssS'content_placement'
p30
g11
(tRp31
g16
S'UNIFORM'
p32
ssS'joint_cache_rsn_placement'
p33
g11
(tRp34
S'network_cache'
p35
F0.29999999999999999
sS'network_rsn'
p36
F38.399999999999999
sg16
S'CACHE_ALL_RSN_ALL'
p37
sS'rsn_cache_ratio'
p38
I128
ssS'warmup_strategy'
p39
g11
(tRp40
g16
g29
ssS'topology'
p41
g11
(tRp42
S'ext_delay'
p43
I0
sS'source_ratio'
p44
F0.10000000000000001
sg16
S'ROCKET_FUEL'
p45
sS'asn'
p46
I3257
ssg11
(tRp47
S'SAT_RATE'
p48
g11
(tRp49
S'MEAN_CACHE_HIT'
p50
F0.31166111111111111
sS'MEAN_SERVER_HIT'
p51
F0.68833888888888883
sS'MEAN_SERVER_CACHE_HITS'
p52
F0
sS'MEAN'
p53
F1
ssS'CACHE_HIT_RATIO'
p54
g11
(tRp55
S'MEAN_OFF_PATH'
p56
F0.2954222222222222
sS'MEAN_ON_PATH'
p57
F0.016238888888888914
sg53
F0.31166111111111111
ssS'OVERHEAD'
p58
g11
(tRp59
S'INTEREST_HOPS'
p60
F6.5347777777777774
sS'SUCCESS_RATE'
p61
F0
sS'QUOTA_USED_FAILURE'
p62
F0
sS'FAILURE_RATE'
p63
F0
sS'QUOTA_USED_SUCCESS'
p64
F0
sS'NUM_SUCCESS_FIRST_TIME'
p65
F0
sg53
F1
ssS'LATENCY'
p66
g11
(tRp67
g53
F76.492727777777773
sstp68
a(g11
(tRp69
S'workload'
p70
g11
(tRp71
S'n_contents'
p72
I10000
sS'name'
p73
S'STATIONARY'
p74
sS'n_warmup'
p75
I720000
sS'rate'
p76
I100
sS'n_measured'
p77
I360000
sS'alpha'
p78
F0.20000000000000001
ssS'cache_policy'
p79
g11
(tRp80
g73
S'LRU'
p81
ssS'desc'
p82
S'strategy zipf: 0.2'
p83
sS'strategy'
p84
g11
(tRp85
g73
S'NRR_PROB'
p86
ssS'content_placement'
p87
g11
(tRp88
g73
S'UNIFORM'
p89
ssS'joint_cache_rsn_placement'
p90
g11
(tRp91
S'network_cache'
p92
F0.29999999999999999
sS'network_rsn'
p93
F38.399999999999999
sg73
S'CACHE_ALL_RSN_ALL'
p94
sS'rsn_cache_ratio'
p95
I128
ssS'warmup_strategy'
p96
g11
(tRp97
g73
g86
ssS'topology'
p98
g11
(tRp99
S'ext_delay'
p100
I0
sS'source_ratio'
p101
F0.10000000000000001
sg73
S'ROCKET_FUEL'
p102
sS'asn'
p103
I3257
ssg11
(tRp104
S'SAT_RATE'
p105
g11
(tRp106
S'MEAN_CACHE_HIT'
p107
F0.3231222222222222
sS'MEAN_SERVER_HIT'
p108
F0.6768777777777778
sS'MEAN_SERVER_CACHE_HITS'
p109
F0
sS'MEAN'
p110
F1
ssS'CACHE_HIT_RATIO'
p111
g11
(tRp112
S'MEAN_OFF_PATH'
p113
F0.30617222222222223
sS'MEAN_ON_PATH'
p114
F0.016949999999999965
sg110
F0.3231222222222222
ssS'OVERHEAD'
p115
g11
(tRp116
S'INTEREST_HOPS'
p117
F6.5202444444444447
sS'SUCCESS_RATE'
p118
F0
sS'QUOTA_USED_FAILURE'
p119
F0
sS'FAILURE_RATE'
p120
F0
sS'QUOTA_USED_SUCCESS'
p121
F0
sS'NUM_SUCCESS_FIRST_TIME'
p122
F0
sg110
F1
ssS'LATENCY'
p123
g11
(tRp124
g110
F75.901133333333334
sstp125
a(g11
(tRp126
S'workload'
p127
g11
(tRp128
S'n_contents'
p129
I10000
sS'name'
p130
S'STATIONARY'
p131
sS'n_warmup'
p132
I720000
sS'rate'
p133
I100
sS'n_measured'
p134
I360000
sS'alpha'
p135
F0.29999999999999999
ssS'cache_policy'
p136
g11
(tRp137
g130
S'LRU'
p138
ssS'desc'
p139
S'strategy zipf: 0.3'
p140
sS'strategy'
p141
g11
(tRp142
g130
S'NRR_PROB'
p143
ssS'content_placement'
p144
g11
(tRp145
g130
S'UNIFORM'
p146
ssS'joint_cache_rsn_placement'
p147
g11
(tRp148
S'network_cache'
p149
F0.29999999999999999
sS'network_rsn'
p150
F38.399999999999999
sg130
S'CACHE_ALL_RSN_ALL'
p151
sS'rsn_cache_ratio'
p152
I128
ssS'warmup_strategy'
p153
g11
(tRp154
g130
g143
ssS'topology'
p155
g11
(tRp156
S'ext_delay'
p157
I0
sS'source_ratio'
p158
F0.10000000000000001
sg130
S'ROCKET_FUEL'
p159
sS'asn'
p160
I3257
ssg11
(tRp161
S'SAT_RATE'
p162
g11
(tRp163
S'MEAN_CACHE_HIT'
p164
F0.3548
sS'MEAN_SERVER_HIT'
p165
F0.6452
sS'MEAN_SERVER_CACHE_HITS'
p166
F0
sS'MEAN'
p167
F1
ssS'CACHE_HIT_RATIO'
p168
g11
(tRp169
S'MEAN_OFF_PATH'
p170
F0.33703611111111109
sS'MEAN_ON_PATH'
p171
F0.017763888888888912
sg167
F0.3548
ssS'OVERHEAD'
p172
g11
(tRp173
S'INTEREST_HOPS'
p174
F6.4706388888888888
sS'SUCCESS_RATE'
p175
F0
sS'QUOTA_USED_FAILURE'
p176
F0
sS'FAILURE_RATE'
p177
F0
sS'QUOTA_USED_SUCCESS'
p178
F0
sS'NUM_SUCCESS_FIRST_TIME'
p179
F0
sg167
F1
ssS'LATENCY'
p180
g11
(tRp181
g167
F74.011305555555552
sstp182
a(g11
(tRp183
S'workload'
p184
g11
(tRp185
S'n_contents'
p186
I10000
sS'name'
p187
S'STATIONARY'
p188
sS'n_warmup'
p189
I720000
sS'rate'
p190
I100
sS'n_measured'
p191
I360000
sS'alpha'
p192
F0.40000000000000002
ssS'cache_policy'
p193
g11
(tRp194
g187
S'LRU'
p195
ssS'desc'
p196
S'strategy zipf: 0.4'
p197
sS'strategy'
p198
g11
(tRp199
g187
S'NRR_PROB'
p200
ssS'content_placement'
p201
g11
(tRp202
g187
S'UNIFORM'
p203
ssS'joint_cache_rsn_placement'
p204
g11
(tRp205
S'network_cache'
p206
F0.29999999999999999
sS'network_rsn'
p207
F38.399999999999999
sg187
S'CACHE_ALL_RSN_ALL'
p208
sS'rsn_cache_ratio'
p209
I128
ssS'warmup_strategy'
p210
g11
(tRp211
g187
g200
ssS'topology'
p212
g11
(tRp213
S'ext_delay'
p214
I0
sS'source_ratio'
p215
F0.10000000000000001
sg187
S'ROCKET_FUEL'
p216
sS'asn'
p217
I3257
ssg11
(tRp218
S'SAT_RATE'
p219
g11
(tRp220
S'MEAN_CACHE_HIT'
p221
F0.39856666666666668
sS'MEAN_SERVER_HIT'
p222
F0.60143333333333338
sS'MEAN_SERVER_CACHE_HITS'
p223
F0
sS'MEAN'
p224
F1
ssS'CACHE_HIT_RATIO'
p225
g11
(tRp226
S'MEAN_OFF_PATH'
p227
F0.37986666666666669
sS'MEAN_ON_PATH'
p228
F0.018699999999999994
sg224
F0.39856666666666668
ssS'OVERHEAD'
p229
g11
(tRp230
S'INTEREST_HOPS'
p231
F6.4160694444444442
sS'SUCCESS_RATE'
p232
F0
sS'QUOTA_USED_FAILURE'
p233
F0
sS'FAILURE_RATE'
p234
F0
sS'QUOTA_USED_SUCCESS'
p235
F0
sS'NUM_SUCCESS_FIRST_TIME'
p236
F0
sg224
F1
ssS'LATENCY'
p237
g11
(tRp238
g224
F71.094444444444449
sstp239
a(g11
(tRp240
S'workload'
p241
g11
(tRp242
S'n_contents'
p243
I10000
sS'name'
p244
S'STATIONARY'
p245
sS'n_warmup'
p246
I720000
sS'rate'
p247
I100
sS'n_measured'
p248
I360000
sS'alpha'
p249
F0.5
ssS'cache_policy'
p250
g11
(tRp251
g244
S'LRU'
p252
ssS'desc'
p253
S'strategy zipf: 0.5'
p254
sS'strategy'
p255
g11
(tRp256
g244
S'NRR_PROB'
p257
ssS'content_placement'
p258
g11
(tRp259
g244
S'UNIFORM'
p260
ssS'joint_cache_rsn_placement'
p261
g11
(tRp262
S'network_cache'
p263
F0.29999999999999999
sS'network_rsn'
p264
F38.399999999999999
sg244
S'CACHE_ALL_RSN_ALL'
p265
sS'rsn_cache_ratio'
p266
I128
ssS'warmup_strategy'
p267
g11
(tRp268
g244
g257
ssS'topology'
p269
g11
(tRp270
S'ext_delay'
p271
I0
sS'source_ratio'
p272
F0.10000000000000001
sg244
S'ROCKET_FUEL'
p273
sS'asn'
p274
I3257
ssg11
(tRp275
S'SAT_RATE'
p276
g11
(tRp277
S'MEAN_CACHE_HIT'
p278
F0.45679444444444445
sS'MEAN_SERVER_HIT'
p279
F0.54320555555555561
sS'MEAN_SERVER_CACHE_HITS'
p280
F0
sS'MEAN'
p281
F1
ssS'CACHE_HIT_RATIO'
p282
g11
(tRp283
S'MEAN_OFF_PATH'
p284
F0.43812777777777778
sS'MEAN_ON_PATH'
p285
F0.018666666666666665
sg281
F0.45679444444444445
ssS'OVERHEAD'
p286
g11
(tRp287
S'INTEREST_HOPS'
p288
F6.3161666666666667
sS'SUCCESS_RATE'
p289
F0
sS'QUOTA_USED_FAILURE'
p290
F0
sS'FAILURE_RATE'
p291
F0
sS'QUOTA_USED_SUCCESS'
p292
F0
sS'NUM_SUCCESS_FIRST_TIME'
p293
F0
sg281
F1
ssS'LATENCY'
p294
g11
(tRp295
g281
F67.350422222222221
sstp296
a(g11
(tRp297
S'workload'
p298
g11
(tRp299
S'n_contents'
p300
I10000
sS'name'
p301
S'STATIONARY'
p302
sS'n_warmup'
p303
I720000
sS'rate'
p304
I100
sS'n_measured'
p305
I360000
sS'alpha'
p306
F0.59999999999999998
ssS'cache_policy'
p307
g11
(tRp308
g301
S'LRU'
p309
ssS'desc'
p310
S'strategy zipf: 0.6'
p311
sS'strategy'
p312
g11
(tRp313
g301
S'NRR_PROB'
p314
ssS'content_placement'
p315
g11
(tRp316
g301
S'UNIFORM'
p317
ssS'joint_cache_rsn_placement'
p318
g11
(tRp319
S'network_cache'
p320
F0.29999999999999999
sS'network_rsn'
p321
F38.399999999999999
sg301
S'CACHE_ALL_RSN_ALL'
p322
sS'rsn_cache_ratio'
p323
I128
ssS'warmup_strategy'
p324
g11
(tRp325
g301
g314
ssS'topology'
p326
g11
(tRp327
S'ext_delay'
p328
I0
sS'source_ratio'
p329
F0.10000000000000001
sg301
S'ROCKET_FUEL'
p330
sS'asn'
p331
I3257
ssg11
(tRp332
S'SAT_RATE'
p333
g11
(tRp334
S'MEAN_CACHE_HIT'
p335
F0.52616666666666667
sS'MEAN_SERVER_HIT'
p336
F0.47383333333333333
sS'MEAN_SERVER_CACHE_HITS'
p337
F0
sS'MEAN'
p338
F1
ssS'CACHE_HIT_RATIO'
p339
g11
(tRp340
S'MEAN_OFF_PATH'
p341
F0.50588333333333335
sS'MEAN_ON_PATH'
p342
F0.02028333333333332
sg338
F0.52616666666666667
ssS'OVERHEAD'
p343
g11
(tRp344
S'INTEREST_HOPS'
p345
F6.1930750000000003
sS'SUCCESS_RATE'
p346
F0
sS'QUOTA_USED_FAILURE'
p347
F0
sS'FAILURE_RATE'
p348
F0
sS'QUOTA_USED_SUCCESS'
p349
F0
sS'NUM_SUCCESS_FIRST_TIME'
p350
F0
sg338
F1
ssS'LATENCY'
p351
g11
(tRp352
g338
F62.690027777777779
sstp353
a(g11
(tRp354
S'workload'
p355
g11
(tRp356
S'n_contents'
p357
I10000
sS'name'
p358
S'STATIONARY'
p359
sS'n_warmup'
p360
I720000
sS'rate'
p361
I100
sS'n_measured'
p362
I360000
sS'alpha'
p363
F0.69999999999999996
ssS'cache_policy'
p364
g11
(tRp365
g358
S'LRU'
p366
ssS'desc'
p367
S'strategy zipf: 0.7'
p368
sS'strategy'
p369
g11
(tRp370
g358
S'NRR_PROB'
p371
ssS'content_placement'
p372
g11
(tRp373
g358
S'UNIFORM'
p374
ssS'joint_cache_rsn_placement'
p375
g11
(tRp376
S'network_cache'
p377
F0.29999999999999999
sS'network_rsn'
p378
F38.399999999999999
sg358
S'CACHE_ALL_RSN_ALL'
p379
sS'rsn_cache_ratio'
p380
I128
ssS'warmup_strategy'
p381
g11
(tRp382
g358
g371
ssS'topology'
p383
g11
(tRp384
S'ext_delay'
p385
I0
sS'source_ratio'
p386
F0.10000000000000001
sg358
S'ROCKET_FUEL'
p387
sS'asn'
p388
I3257
ssg11
(tRp389
S'SAT_RATE'
p390
g11
(tRp391
S'MEAN_CACHE_HIT'
p392
F0.60530833333333334
sS'MEAN_SERVER_HIT'
p393
F0.39469166666666666
sS'MEAN_SERVER_CACHE_HITS'
p394
F0
sS'MEAN'
p395
F1
ssS'CACHE_HIT_RATIO'
p396
g11
(tRp397
S'MEAN_OFF_PATH'
p398
F0.5762666666666667
sS'MEAN_ON_PATH'
p399
F0.029041666666666632
sg395
F0.60530833333333334
ssS'OVERHEAD'
p400
g11
(tRp401
S'INTEREST_HOPS'
p402
F6.0756861111111107
sS'SUCCESS_RATE'
p403
F0
sS'QUOTA_USED_FAILURE'
p404
F0
sS'FAILURE_RATE'
p405
F0
sS'QUOTA_USED_SUCCESS'
p406
F0
sS'NUM_SUCCESS_FIRST_TIME'
p407
F0
sg395
F1
ssS'LATENCY'
p408
g11
(tRp409
g395
F57.095411111111112
sstp410
a(g11
(tRp411
S'workload'
p412
g11
(tRp413
S'n_contents'
p414
I10000
sS'name'
p415
S'STATIONARY'
p416
sS'n_warmup'
p417
I720000
sS'rate'
p418
I100
sS'n_measured'
p419
I360000
sS'alpha'
p420
F0.80000000000000004
ssS'cache_policy'
p421
g11
(tRp422
g415
S'LRU'
p423
ssS'desc'
p424
S'strategy zipf: 0.8'
p425
sS'strategy'
p426
g11
(tRp427
g415
S'NRR_PROB'
p428
ssS'content_placement'
p429
g11
(tRp430
g415
S'UNIFORM'
p431
ssS'joint_cache_rsn_placement'
p432
g11
(tRp433
S'network_cache'
p434
F0.29999999999999999
sS'network_rsn'
p435
F38.399999999999999
sg415
S'CACHE_ALL_RSN_ALL'
p436
sS'rsn_cache_ratio'
p437
I128
ssS'warmup_strategy'
p438
g11
(tRp439
g415
g428
ssS'topology'
p440
g11
(tRp441
S'ext_delay'
p442
I0
sS'source_ratio'
p443
F0.10000000000000001
sg415
S'ROCKET_FUEL'
p444
sS'asn'
p445
I3257
ssg11
(tRp446
S'SAT_RATE'
p447
g11
(tRp448
S'MEAN_CACHE_HIT'
p449
F0.68757222222222225
sS'MEAN_SERVER_HIT'
p450
F0.3124277777777778
sS'MEAN_SERVER_CACHE_HITS'
p451
F0
sS'MEAN'
p452
F1
ssS'CACHE_HIT_RATIO'
p453
g11
(tRp454
S'MEAN_OFF_PATH'
p455
F0.65342222222222224
sS'MEAN_ON_PATH'
p456
F0.034150000000000014
sg452
F0.68757222222222225
ssS'OVERHEAD'
p457
g11
(tRp458
S'INTEREST_HOPS'
p459
F5.8497361111111115
sS'SUCCESS_RATE'
p460
F0
sS'QUOTA_USED_FAILURE'
p461
F0
sS'FAILURE_RATE'
p462
F0
sS'QUOTA_USED_SUCCESS'
p463
F0
sS'NUM_SUCCESS_FIRST_TIME'
p464
F0
sg452
F1
ssS'LATENCY'
p465
g11
(tRp466
g452
F53.207672222222222
sstp467
a(g11
(tRp468
S'workload'
p469
g11
(tRp470
S'n_contents'
p471
I10000
sS'name'
p472
S'STATIONARY'
p473
sS'n_warmup'
p474
I720000
sS'rate'
p475
I100
sS'n_measured'
p476
I360000
sS'alpha'
p477
F0.90000000000000002
ssS'cache_policy'
p478
g11
(tRp479
g472
S'LRU'
p480
ssS'desc'
p481
S'strategy zipf: 0.9'
p482
sS'strategy'
p483
g11
(tRp484
g472
S'NRR_PROB'
p485
ssS'content_placement'
p486
g11
(tRp487
g472
S'UNIFORM'
p488
ssS'joint_cache_rsn_placement'
p489
g11
(tRp490
S'network_cache'
p491
F0.29999999999999999
sS'network_rsn'
p492
F38.399999999999999
sg472
S'CACHE_ALL_RSN_ALL'
p493
sS'rsn_cache_ratio'
p494
I128
ssS'warmup_strategy'
p495
g11
(tRp496
g472
g485
ssS'topology'
p497
g11
(tRp498
S'ext_delay'
p499
I0
sS'source_ratio'
p500
F0.10000000000000001
sg472
S'ROCKET_FUEL'
p501
sS'asn'
p502
I3257
ssg11
(tRp503
S'SAT_RATE'
p504
g11
(tRp505
S'MEAN_CACHE_HIT'
p506
F0.76768888888888887
sS'MEAN_SERVER_HIT'
p507
F0.23231111111111111
sS'MEAN_SERVER_CACHE_HITS'
p508
F0
sS'MEAN'
p509
F1
ssS'CACHE_HIT_RATIO'
p510
g11
(tRp511
S'MEAN_OFF_PATH'
p512
F0.66502777777777777
sS'MEAN_ON_PATH'
p513
F0.10266111111111109
sg509
F0.76768888888888887
ssS'OVERHEAD'
p514
g11
(tRp515
S'INTEREST_HOPS'
p516
F5.6129222222222221
sS'SUCCESS_RATE'
p517
F0
sS'QUOTA_USED_FAILURE'
p518
F0
sS'FAILURE_RATE'
p519
F0
sS'QUOTA_USED_SUCCESS'
p520
F0
sS'NUM_SUCCESS_FIRST_TIME'
p521
F0
sg509
F1
ssS'LATENCY'
p522
g11
(tRp523
g509
F44.376083333333334
sstp524
a(g11
(tRp525
S'workload'
p526
g11
(tRp527
S'n_contents'
p528
I10000
sS'name'
p529
S'STATIONARY'
p530
sS'n_warmup'
p531
I720000
sS'rate'
p532
I100
sS'n_measured'
p533
I360000
sS'alpha'
p534
F1
ssS'cache_policy'
p535
g11
(tRp536
g529
S'LRU'
p537
ssS'desc'
p538
S'strategy zipf: 1.0'
p539
sS'strategy'
p540
g11
(tRp541
g529
S'NRR_PROB'
p542
ssS'content_placement'
p543
g11
(tRp544
g529
S'UNIFORM'
p545
ssS'joint_cache_rsn_placement'
p546
g11
(tRp547
S'network_cache'
p548
F0.29999999999999999
sS'network_rsn'
p549
F38.399999999999999
sg529
S'CACHE_ALL_RSN_ALL'
p550
sS'rsn_cache_ratio'
p551
I128
ssS'warmup_strategy'
p552
g11
(tRp553
g529
g542
ssS'topology'
p554
g11
(tRp555
S'ext_delay'
p556
I0
sS'source_ratio'
p557
F0.10000000000000001
sg529
S'ROCKET_FUEL'
p558
sS'asn'
p559
I3257
ssg11
(tRp560
S'SAT_RATE'
p561
g11
(tRp562
S'MEAN_CACHE_HIT'
p563
F0.84457499999999996
sS'MEAN_SERVER_HIT'
p564
F0.15542500000000001
sS'MEAN_SERVER_CACHE_HITS'
p565
F0
sS'MEAN'
p566
F1
ssS'CACHE_HIT_RATIO'
p567
g11
(tRp568
S'MEAN_OFF_PATH'
p569
F0.76824999999999999
sS'MEAN_ON_PATH'
p570
F0.076324999999999976
sg566
F0.84457499999999996
ssS'OVERHEAD'
p571
g11
(tRp572
S'INTEREST_HOPS'
p573
F5.6054777777777778
sS'SUCCESS_RATE'
p574
F0
sS'QUOTA_USED_FAILURE'
p575
F0
sS'FAILURE_RATE'
p576
F0
sS'QUOTA_USED_SUCCESS'
p577
F0
sS'NUM_SUCCESS_FIRST_TIME'
p578
F0
sg566
F1
ssS'LATENCY'
p579
g11
(tRp580
g566
F41.31366666666667
sstp581
a(g11
(tRp582
S'workload'
p583
g11
(tRp584
S'n_contents'
p585
I10000
sS'name'
p586
S'STATIONARY'
p587
sS'n_warmup'
p588
I720000
sS'rate'
p589
I100
sS'n_measured'
p590
I360000
sS'alpha'
p591
F0.69999999999999996
ssS'cache_policy'
p592
g11
(tRp593
g586
S'LRU'
p594
ssS'desc'
p595
S'RSN size sensitivity -> RSN/cache ratio: 2.0'
p596
sS'strategy'
p597
g11
(tRp598
S'extra_quota'
p599
I2
sS'fan_out'
p600
I1
sg586
S'TFIB_SC'
p601
ssS'content_placement'
p602
g11
(tRp603
g586
S'UNIFORM'
p604
ssS'joint_cache_rsn_placement'
p605
g11
(tRp606
S'network_cache'
p607
F0.29999999999999999
sS'network_rsn'
p608
F0.59999999999999998
sg586
S'CACHE_ALL_RSN_ALL'
p609
sS'rsn_cache_ratio'
p610
F2
ssS'warmup_strategy'
p611
g11
(tRp612
g599
I10000
sg600
I10
sg586
g601
ssS'topology'
p613
g11
(tRp614
S'ext_delay'
p615
I0
sS'source_ratio'
p616
F0.10000000000000001
sg586
S'ROCKET_FUEL'
p617
sS'asn'
p618
I3257
ssg11
(tRp619
S'SAT_RATE'
p620
g11
(tRp621
S'MEAN_CACHE_HIT'
p622
F0.26154444444444447
sS'MEAN_SERVER_HIT'
p623
F0.74433611111111109
sS'MEAN_SERVER_CACHE_HITS'
p624
F0.0058805555555555555
sS'MEAN'
p625
F1
ssS'CACHE_HIT_RATIO'
p626
g11
(tRp627
S'MEAN_OFF_PATH'
p628
F0.006014630630431601
sS'MEAN_ON_PATH'
p629
F0.25552981381401285
sg625
F0.26154444444444447
ssS'OVERHEAD'
p630
g11
(tRp631
S'INTEREST_HOPS'
p632
F6.5700805555555553
sS'SUCCESS_RATE'
p633
F0.27182810368349247
sS'QUOTA_USED_FAILURE'
p634
F1
sS'FAILURE_RATE'
p635
F0.72817189631650747
sS'QUOTA_USED_SUCCESS'
p636
F1
sS'NUM_SUCCESS_FIRST_TIME'
p637
F0.27218596129623268
sg625
F1.0066416666666667
ssS'LATENCY'
p638
g11
(tRp639
g625
F54.570672222222221
sstp640
a(g11
(tRp641
S'workload'
p642
g11
(tRp643
S'n_contents'
p644
I10000
sS'name'
p645
S'STATIONARY'
p646
sS'n_warmup'
p647
I720000
sS'rate'
p648
I100
sS'n_measured'
p649
I360000
sS'alpha'
p650
F0.69999999999999996
ssS'cache_policy'
p651
g11
(tRp652
g645
S'LRU'
p653
ssS'desc'
p654
S'RSN size sensitivity -> RSN/cache ratio: 2.0'
p655
sS'strategy'
p656
g11
(tRp657
S'extra_quota'
p658
I2
sS'fan_out'
p659
I1
sg645
S'TFIB_DC'
p660
ssS'content_placement'
p661
g11
(tRp662
g645
S'UNIFORM'
p663
ssS'joint_cache_rsn_placement'
p664
g11
(tRp665
S'network_cache'
p666
F0.29999999999999999
sS'network_rsn'
p667
F0.59999999999999998
sg645
S'CACHE_ALL_RSN_ALL'
p668
sS'rsn_cache_ratio'
p669
F2
ssS'warmup_strategy'
p670
g11
(tRp671
g658
I10000
sg659
I10
sg645
g660
ssS'topology'
p672
g11
(tRp673
S'ext_delay'
p674
I0
sS'source_ratio'
p675
F0.10000000000000001
sg645
S'ROCKET_FUEL'
p676
sS'asn'
p677
I3257
ssg11
(tRp678
S'SAT_RATE'
p679
g11
(tRp680
S'MEAN_CACHE_HIT'
p681
F0.26026388888888891
sS'MEAN_SERVER_HIT'
p682
F0.74339999999999995
sS'MEAN_SERVER_CACHE_HITS'
p683
F0.004886111111111111
sS'MEAN'
p684
F0.99877777777777776
ssS'CACHE_HIT_RATIO'
p685
g11
(tRp686
S'MEAN_OFF_PATH'
p687
F0.0054688516241880444
sS'MEAN_ON_PATH'
p688
F0.25479503726470087
sg684
F0.26026388888888891
ssS'OVERHEAD'
p689
g11
(tRp690
S'INTEREST_HOPS'
p691
F6.6611580821003447
sS'SUCCESS_RATE'
p692
F0.25590315234328181
sS'QUOTA_USED_FAILURE'
p693
F1.394373313667848
sS'FAILURE_RATE'
p694
F0.74409684765671824
sS'QUOTA_USED_SUCCESS'
p695
F1.4947096384660421
sS'NUM_SUCCESS_FIRST_TIME'
p696
F0.2551982591876209
sg684
F1.0053843586605851
ssS'LATENCY'
p697
g11
(tRp698
g684
F54.830344444444442
sstp699
a(g11
(tRp700
S'workload'
p701
g11
(tRp702
S'n_contents'
p703
I10000
sS'name'
p704
S'STATIONARY'
p705
sS'n_warmup'
p706
I720000
sS'rate'
p707
I100
sS'n_measured'
p708
I360000
sS'alpha'
p709
F0.69999999999999996
ssS'cache_policy'
p710
g11
(tRp711
g704
S'LRU'
p712
ssS'desc'
p713
S'RSN size sensitivity -> RSN/cache ratio: 4.0'
p714
sS'strategy'
p715
g11
(tRp716
S'extra_quota'
p717
I2
sS'fan_out'
p718
I1
sg704
S'TFIB_DC'
p719
ssS'content_placement'
p720
g11
(tRp721
g704
S'UNIFORM'
p722
ssS'joint_cache_rsn_placement'
p723
g11
(tRp724
S'network_cache'
p725
F0.29999999999999999
sS'network_rsn'
p726
F1.2
sg704
S'CACHE_ALL_RSN_ALL'
p727
sS'rsn_cache_ratio'
p728
F4
ssS'warmup_strategy'
p729
g11
(tRp730
g717
I10000
sg718
I10
sg704
g719
ssS'topology'
p731
g11
(tRp732
S'ext_delay'
p733
I0
sS'source_ratio'
p734
F0.10000000000000001
sg704
S'ROCKET_FUEL'
p735
sS'asn'
p736
I3257
ssg11
(tRp737
S'SAT_RATE'
p738
g11
(tRp739
S'MEAN_CACHE_HIT'
p740
F0.2688861111111111
sS'MEAN_SERVER_HIT'
p741
F0.73898055555555553
sS'MEAN_SERVER_CACHE_HITS'
p742
F0.011016666666666666
sS'MEAN'
p743
F0.99685000000000001
ssS'CACHE_HIT_RATIO'
p744
g11
(tRp745
S'MEAN_OFF_PATH'
p746
F0.012339043965251135
sS'MEAN_ON_PATH'
p747
F0.25654706714585995
sg743
F0.2688861111111111
ssS'OVERHEAD'
p748
g11
(tRp749
S'INTEREST_HOPS'
p750
F6.6305779873267463
sS'SUCCESS_RATE'
p751
F0.28030216321391782
sS'QUOTA_USED_FAILURE'
p752
F1.4634542713941812
sS'FAILURE_RATE'
p753
F0.71969783678608223
sS'QUOTA_USED_SUCCESS'
p754
F1.5330766839073744
sS'NUM_SUCCESS_FIRST_TIME'
p755
F0.2800347222222222
sg743
F1.0123583733204038
ssS'LATENCY'
p756
g11
(tRp757
g743
F54.620402777777777
sstp758
a(g11
(tRp759
S'workload'
p760
g11
(tRp761
S'n_contents'
p762
I10000
sS'name'
p763
S'STATIONARY'
p764
sS'n_warmup'
p765
I720000
sS'rate'
p766
I100
sS'n_measured'
p767
I360000
sS'alpha'
p768
F0.69999999999999996
ssS'cache_policy'
p769
g11
(tRp770
g763
S'LRU'
p771
ssS'desc'
p772
S'RSN size sensitivity -> RSN/cache ratio: 4.0'
p773
sS'strategy'
p774
g11
(tRp775
S'extra_quota'
p776
I2
sS'fan_out'
p777
I1
sg763
S'TFIB_SC'
p778
ssS'content_placement'
p779
g11
(tRp780
g763
S'UNIFORM'
p781
ssS'joint_cache_rsn_placement'
p782
g11
(tRp783
S'network_cache'
p784
F0.29999999999999999
sS'network_rsn'
p785
F1.2
sg763
S'CACHE_ALL_RSN_ALL'
p786
sS'rsn_cache_ratio'
p787
F4
ssS'warmup_strategy'
p788
g11
(tRp789
g776
I10000
sg777
I10
sg763
g778
ssS'topology'
p790
g11
(tRp791
S'ext_delay'
p792
I0
sS'source_ratio'
p793
F0.10000000000000001
sg763
S'ROCKET_FUEL'
p794
sS'asn'
p795
I3257
ssg11
(tRp796
S'SAT_RATE'
p797
g11
(tRp798
S'MEAN_CACHE_HIT'
p799
F0.27003888888888888
sS'MEAN_SERVER_HIT'
p800
F0.74157222222222219
sS'MEAN_SERVER_CACHE_HITS'
p801
F0.01161111111111111
sS'MEAN'
p802
F1
ssS'CACHE_HIT_RATIO'
p803
g11
(tRp804
S'MEAN_OFF_PATH'
p805
F0.011513537261793619
sS'MEAN_ON_PATH'
p806
F0.25852535162709528
sg802
F0.27003888888888888
ssS'OVERHEAD'
p807
g11
(tRp808
S'INTEREST_HOPS'
p809
F6.5945194444444448
sS'SUCCESS_RATE'
p810
F0.26319927426670697
sS'QUOTA_USED_FAILURE'
p811
F1
sS'FAILURE_RATE'
p812
F0.73680072573329303
sS'QUOTA_USED_SUCCESS'
p813
F1
sS'NUM_SUCCESS_FIRST_TIME'
p814
F0.26330292082542406
sg802
F1.0120888888888888
ssS'LATENCY'
p815
g11
(tRp816
g802
F54.500213888888887
sstp817
a(g11
(tRp818
S'workload'
p819
g11
(tRp820
S'n_contents'
p821
I10000
sS'name'
p822
S'STATIONARY'
p823
sS'n_warmup'
p824
I720000
sS'rate'
p825
I100
sS'n_measured'
p826
I360000
sS'alpha'
p827
F0.69999999999999996
ssS'cache_policy'
p828
g11
(tRp829
g822
S'LRU'
p830
ssS'desc'
p831
S'RSN size sensitivity -> RSN/cache ratio: 8.0'
p832
sS'strategy'
p833
g11
(tRp834
S'extra_quota'
p835
I2
sS'fan_out'
p836
I1
sg822
S'TFIB_SC'
p837
ssS'content_placement'
p838
g11
(tRp839
g822
S'UNIFORM'
p840
ssS'joint_cache_rsn_placement'
p841
g11
(tRp842
S'network_cache'
p843
F0.29999999999999999
sS'network_rsn'
p844
F2.3999999999999999
sg822
S'CACHE_ALL_RSN_ALL'
p845
sS'rsn_cache_ratio'
p846
F8
ssS'warmup_strategy'
p847
g11
(tRp848
g835
I10000
sg836
I10
sg822
g837
ssS'topology'
p849
g11
(tRp850
S'ext_delay'
p851
I0
sS'source_ratio'
p852
F0.10000000000000001
sg822
S'ROCKET_FUEL'
p853
sS'asn'
p854
I3257
ssg11
(tRp855
S'SAT_RATE'
p856
g11
(tRp857
S'MEAN_CACHE_HIT'
p858
F0.28318055555555555
sS'MEAN_SERVER_HIT'
p859
F0.74258333333333337
sS'MEAN_SERVER_CACHE_HITS'
p860
F0.025769444444444446
sS'MEAN'
p861
F0.99999444444444441
ssS'CACHE_HIT_RATIO'
p862
g11
(tRp863
S'MEAN_OFF_PATH'
p864
F0.025945433619930947
sS'MEAN_ON_PATH'
p865
F0.25723512193562459
sg861
F0.28318055555555555
ssS'OVERHEAD'
p866
g11
(tRp867
S'INTEREST_HOPS'
p868
F6.5495058305879477
sS'SUCCESS_RATE'
p869
F0.30703764320785598
sS'QUOTA_USED_FAILURE'
p870
F1
sS'FAILURE_RATE'
p871
F0.69296235679214402
sS'QUOTA_USED_SUCCESS'
p872
F1
sS'NUM_SUCCESS_FIRST_TIME'
p873
F0.30683750303619139
sg861
F1.0286584925471809
ssS'LATENCY'
p874
g11
(tRp875
g861
F54.262541666666664
sstp876
a(g11
(tRp877
S'workload'
p878
g11
(tRp879
S'n_contents'
p880
I10000
sS'name'
p881
S'STATIONARY'
p882
sS'n_warmup'
p883
I720000
sS'rate'
p884
I100
sS'n_measured'
p885
I360000
sS'alpha'
p886
F0.69999999999999996
ssS'cache_policy'
p887
g11
(tRp888
g881
S'LRU'
p889
ssS'desc'
p890
S'RSN size sensitivity -> RSN/cache ratio: 8.0'
p891
sS'strategy'
p892
g11
(tRp893
S'extra_quota'
p894
I2
sS'fan_out'
p895
I1
sg881
S'TFIB_DC'
p896
ssS'content_placement'
p897
g11
(tRp898
g881
S'UNIFORM'
p899
ssS'joint_cache_rsn_placement'
p900
g11
(tRp901
S'network_cache'
p902
F0.29999999999999999
sS'network_rsn'
p903
F2.3999999999999999
sg881
S'CACHE_ALL_RSN_ALL'
p904
sS'rsn_cache_ratio'
p905
F8
ssS'warmup_strategy'
p906
g11
(tRp907
g894
I10000
sg895
I10
sg881
g896
ssS'topology'
p908
g11
(tRp909
S'ext_delay'
p910
I0
sS'source_ratio'
p911
F0.10000000000000001
sg881
S'ROCKET_FUEL'
p912
sS'asn'
p913
I3257
ssg11
(tRp914
S'SAT_RATE'
p915
g11
(tRp916
S'MEAN_CACHE_HIT'
p917
F0.28157500000000002
sS'MEAN_SERVER_HIT'
p918
F0.73342777777777779
sS'MEAN_SERVER_CACHE_HITS'
p919
F0.021497222222222223
sS'MEAN'
p920
F0.99350555555555553
ssS'CACHE_HIT_RATIO'
p921
g11
(tRp922
S'MEAN_OFF_PATH'
p923
F0.025238026168510761
sS'MEAN_ON_PATH'
p924
F0.25633697383148923
sg920
F0.28157500000000002
ssS'OVERHEAD'
p925
g11
(tRp926
S'INTEREST_HOPS'
p927
F6.5870123188932563
sS'SUCCESS_RATE'
p928
F0.30640506018177355
sS'QUOTA_USED_FAILURE'
p929
F1.5078138401849353
sS'FAILURE_RATE'
p930
F0.69359493981822651
sS'QUOTA_USED_SUCCESS'
p931
F1.5824256328915722
sS'NUM_SUCCESS_FIRST_TIME'
p932
F0.30579986854048641
sg920
F1.0245567043745212
ssS'LATENCY'
p933
g11
(tRp934
g920
F54.416119444444448
sstp935
a(g11
(tRp936
S'workload'
p937
g11
(tRp938
S'n_contents'
p939
I10000
sS'name'
p940
S'STATIONARY'
p941
sS'n_warmup'
p942
I720000
sS'rate'
p943
I100
sS'n_measured'
p944
I360000
sS'alpha'
p945
F0.69999999999999996
ssS'cache_policy'
p946
g11
(tRp947
g940
S'LRU'
p948
ssS'desc'
p949
S'RSN size sensitivity -> RSN/cache ratio: 16.0'
p950
sS'strategy'
p951
g11
(tRp952
S'extra_quota'
p953
I2
sS'fan_out'
p954
I1
sg940
S'TFIB_SC'
p955
ssS'content_placement'
p956
g11
(tRp957
g940
S'UNIFORM'
p958
ssS'joint_cache_rsn_placement'
p959
g11
(tRp960
S'network_cache'
p961
F0.29999999999999999
sS'network_rsn'
p962
F4.7999999999999998
sg940
S'CACHE_ALL_RSN_ALL'
p963
sS'rsn_cache_ratio'
p964
F16
ssS'warmup_strategy'
p965
g11
(tRp966
g953
I10000
sg954
I10
sg940
g955
ssS'topology'
p967
g11
(tRp968
S'ext_delay'
p969
I0
sS'source_ratio'
p970
F0.10000000000000001
sg940
S'ROCKET_FUEL'
p971
sS'asn'
p972
I3257
ssg11
(tRp973
S'SAT_RATE'
p974
g11
(tRp975
S'MEAN_CACHE_HIT'
p976
F0.31587500000000002
sS'MEAN_SERVER_HIT'
p977
F0.73786944444444447
sS'MEAN_SERVER_CACHE_HITS'
p978
F0.053761111111111114
sS'MEAN'
p979
F0.99998333333333334
ssS'CACHE_HIT_RATIO'
p980
g11
(tRp981
S'MEAN_OFF_PATH'
p982
F0.056634014150595234
sS'MEAN_ON_PATH'
p983
F0.2592409858494048
sg979
F0.31587500000000002
ssS'OVERHEAD'
p984
g11
(tRp985
S'INTEREST_HOPS'
p986
F6.5647871908976256
sS'SUCCESS_RATE'
p987
F0.36755298526751101
sS'QUOTA_USED_FAILURE'
p988
F1
sS'FAILURE_RATE'
p989
F0.63244701473248899
sS'QUOTA_USED_SUCCESS'
p990
F1
sS'NUM_SUCCESS_FIRST_TIME'
p991
F0.36740551481567507
sg979
F1.0631816085823653
ssS'LATENCY'
p992
g11
(tRp993
g979
F53.77417777777778
sstp994
a(g11
(tRp995
S'workload'
p996
g11
(tRp997
S'n_contents'
p998
I10000
sS'name'
p999
S'STATIONARY'
p1000
sS'n_warmup'
p1001
I720000
sS'rate'
p1002
I100
sS'n_measured'
p1003
I360000
sS'alpha'
p1004
F0.69999999999999996
ssS'cache_policy'
p1005
g11
(tRp1006
g999
S'LRU'
p1007
ssS'desc'
p1008
S'RSN size sensitivity -> RSN/cache ratio: 16.0'
p1009
sS'strategy'
p1010
g11
(tRp1011
S'extra_quota'
p1012
I2
sS'fan_out'
p1013
I1
sg999
S'TFIB_DC'
p1014
ssS'content_placement'
p1015
g11
(tRp1016
g999
S'UNIFORM'
p1017
ssS'joint_cache_rsn_placement'
p1018
g11
(tRp1019
S'network_cache'
p1020
F0.29999999999999999
sS'network_rsn'
p1021
F4.7999999999999998
sg999
S'CACHE_ALL_RSN_ALL'
p1022
sS'rsn_cache_ratio'
p1023
F16
ssS'warmup_strategy'
p1024
g11
(tRp1025
g1012
I10000
sg1013
I10
sg999
g1014
ssS'topology'
p1026
g11
(tRp1027
S'ext_delay'
p1028
I0
sS'source_ratio'
p1029
F0.10000000000000001
sg999
S'ROCKET_FUEL'
p1030
sS'asn'
p1031
I3257
ssg11
(tRp1032
S'SAT_RATE'
p1033
g11
(tRp1034
S'MEAN_CACHE_HIT'
p1035
F0.30921666666666664
sS'MEAN_SERVER_HIT'
p1036
F0.71899444444444449
sS'MEAN_SERVER_CACHE_HITS'
p1037
F0.044233333333333333
sS'MEAN'
p1038
F0.98397777777777773
ssS'CACHE_HIT_RATIO'
p1039
g11
(tRp1040
S'MEAN_OFF_PATH'
p1041
F0.056727433838705842
sS'MEAN_ON_PATH'
p1042
F0.25248923282796082
sg1038
F0.30921666666666664
ssS'OVERHEAD'
p1043
g11
(tRp1044
S'INTEREST_HOPS'
p1045
F6.6268688317261004
sS'SUCCESS_RATE'
p1046
F0.3636838496947537
sS'QUOTA_USED_FAILURE'
p1047
F1.7061742750146367
sS'FAILURE_RATE'
p1048
F0.63631615030524635
sS'QUOTA_USED_SUCCESS'
p1049
F1.9957978059257222
sS'NUM_SUCCESS_FIRST_TIME'
p1050
F0.36351292453146478
sg1038
F1.0510964565595429
ssS'LATENCY'
p1051
g11
(tRp1052
g1038
F54.11804166666667
sstp1053
a(g11
(tRp1054
S'workload'
p1055
g11
(tRp1056
S'n_contents'
p1057
I10000
sS'name'
p1058
S'STATIONARY'
p1059
sS'n_warmup'
p1060
I720000
sS'rate'
p1061
I100
sS'n_measured'
p1062
I360000
sS'alpha'
p1063
F0.69999999999999996
ssS'cache_policy'
p1064
g11
(tRp1065
g1058
S'LRU'
p1066
ssS'desc'
p1067
S'RSN size sensitivity -> RSN/cache ratio: 32.0'
p1068
sS'strategy'
p1069
g11
(tRp1070
S'extra_quota'
p1071
I2
sS'fan_out'
p1072
I1
sg1058
S'TFIB_DC'
p1073
ssS'content_placement'
p1074
g11
(tRp1075
g1058
S'UNIFORM'
p1076
ssS'joint_cache_rsn_placement'
p1077
g11
(tRp1078
S'network_cache'
p1079
F0.29999999999999999
sS'network_rsn'
p1080
F9.5999999999999996
sg1058
S'CACHE_ALL_RSN_ALL'
p1081
sS'rsn_cache_ratio'
p1082
F32
ssS'warmup_strategy'
p1083
g11
(tRp1084
g1071
I10000
sg1072
I10
sg1058
g1073
ssS'topology'
p1085
g11
(tRp1086
S'ext_delay'
p1087
I0
sS'source_ratio'
p1088
F0.10000000000000001
sg1058
S'ROCKET_FUEL'
p1089
sS'asn'
p1090
I3257
ssg11
(tRp1091
S'SAT_RATE'
p1092
g11
(tRp1093
S'MEAN_CACHE_HIT'
p1094
F0.36698055555555553
sS'MEAN_SERVER_HIT'
p1095
F0.68132222222222227
sS'MEAN_SERVER_CACHE_HITS'
p1096
F0.083211111111111111
sS'MEAN'
p1097
F0.96509166666666668
ssS'CACHE_HIT_RATIO'
p1098
g11
(tRp1099
S'MEAN_OFF_PATH'
p1100
F0.11845602283055415
sS'MEAN_ON_PATH'
p1101
F0.24852453272500138
sg1097
F0.36698055555555553
ssS'OVERHEAD'
p1102
g11
(tRp1103
S'INTEREST_HOPS'
p1104
F6.5124124651371629
sS'SUCCESS_RATE'
p1105
F0.43994000987415116
sS'QUOTA_USED_FAILURE'
p1106
F1.9462572908426499
sS'FAILURE_RATE'
p1107
F0.56005999012584884
sS'QUOTA_USED_SUCCESS'
p1108
F2.3152172791061996
sS'NUM_SUCCESS_FIRST_TIME'
p1109
F0.43948737714395836
sg1097
F1.09852834935081
ssS'LATENCY'
p1110
g11
(tRp1111
g1097
F52.573233333333334
sstp1112
a(g11
(tRp1113
S'workload'
p1114
g11
(tRp1115
S'n_contents'
p1116
I10000
sS'name'
p1117
S'STATIONARY'
p1118
sS'n_warmup'
p1119
I720000
sS'rate'
p1120
I100
sS'n_measured'
p1121
I360000
sS'alpha'
p1122
F0.69999999999999996
ssS'cache_policy'
p1123
g11
(tRp1124
g1117
S'LRU'
p1125
ssS'desc'
p1126
S'RSN size sensitivity -> RSN/cache ratio: 32.0'
p1127
sS'strategy'
p1128
g11
(tRp1129
S'extra_quota'
p1130
I2
sS'fan_out'
p1131
I1
sg1117
S'TFIB_SC'
p1132
ssS'content_placement'
p1133
g11
(tRp1134
g1117
S'UNIFORM'
p1135
ssS'joint_cache_rsn_placement'
p1136
g11
(tRp1137
S'network_cache'
p1138
F0.29999999999999999
sS'network_rsn'
p1139
F9.5999999999999996
sg1117
S'CACHE_ALL_RSN_ALL'
p1140
sS'rsn_cache_ratio'
p1141
F32
ssS'warmup_strategy'
p1142
g11
(tRp1143
g1130
I10000
sg1131
I10
sg1117
g1132
ssS'topology'
p1144
g11
(tRp1145
S'ext_delay'
p1146
I0
sS'source_ratio'
p1147
F0.10000000000000001
sg1117
S'ROCKET_FUEL'
p1148
sS'asn'
p1149
I3257
ssg11
(tRp1150
S'SAT_RATE'
p1151
g11
(tRp1152
S'MEAN_CACHE_HIT'
p1153
F0.37406388888888886
sS'MEAN_SERVER_HIT'
p1154
F0.7431861111111111
sS'MEAN_SERVER_CACHE_HITS'
p1155
F0.11726944444444444
sS'MEAN'
p1156
F0.99998055555555554
ssS'CACHE_HIT_RATIO'
p1157
g11
(tRp1158
S'MEAN_OFF_PATH'
p1159
F0.11614082195867831
sS'MEAN_ON_PATH'
p1160
F0.25792306693021055
sg1156
F0.37406388888888886
ssS'OVERHEAD'
p1161
g11
(tRp1162
S'INTEREST_HOPS'
p1163
F6.596347706760965
sS'SUCCESS_RATE'
p1164
F0.4504817793233355
sS'QUOTA_USED_FAILURE'
p1165
F1
sS'FAILURE_RATE'
p1166
F0.54951822067666445
sS'QUOTA_USED_SUCCESS'
p1167
F1
sS'NUM_SUCCESS_FIRST_TIME'
p1168
F0.44820091083593661
sg1156
F1.1381249079843219
ssS'LATENCY'
p1169
g11
(tRp1170
g1156
F53.395136111111114
sstp1171
a(g11
(tRp1172
S'workload'
p1173
g11
(tRp1174
S'n_contents'
p1175
I10000
sS'name'
p1176
S'STATIONARY'
p1177
sS'n_warmup'
p1178
I720000
sS'rate'
p1179
I100
sS'n_measured'
p1180
I360000
sS'alpha'
p1181
F0.69999999999999996
ssS'cache_policy'
p1182
g11
(tRp1183
g1176
S'LRU'
p1184
ssS'desc'
p1185
S'RSN size sensitivity -> RSN/cache ratio: 64.0'
p1186
sS'strategy'
p1187
g11
(tRp1188
S'extra_quota'
p1189
I2
sS'fan_out'
p1190
I1
sg1176
S'TFIB_SC'
p1191
ssS'content_placement'
p1192
g11
(tRp1193
g1176
S'UNIFORM'
p1194
ssS'joint_cache_rsn_placement'
p1195
g11
(tRp1196
S'network_cache'
p1197
F0.29999999999999999
sS'network_rsn'
p1198
F19.199999999999999
sg1176
S'CACHE_ALL_RSN_ALL'
p1199
sS'rsn_cache_ratio'
p1200
F64
ssS'warmup_strategy'
p1201
g11
(tRp1202
g1189
I10000
sg1190
I10
sg1176
g1191
ssS'topology'
p1203
g11
(tRp1204
S'ext_delay'
p1205
I0
sS'source_ratio'
p1206
F0.10000000000000001
sg1176
S'ROCKET_FUEL'
p1207
sS'asn'
p1208
I3257
ssg11
(tRp1209
S'SAT_RATE'
p1210
g11
(tRp1211
S'MEAN_CACHE_HIT'
p1212
F0.47323333333333334
sS'MEAN_SERVER_HIT'
p1213
F0.74284166666666662
sS'MEAN_SERVER_CACHE_HITS'
p1214
F0.21613888888888888
sS'MEAN'
p1215
F0.99993611111111114
ssS'CACHE_HIT_RATIO'
p1216
g11
(tRp1217
S'MEAN_OFF_PATH'
p1218
F0.19624383547250146
sS'MEAN_ON_PATH'
p1219
F0.27698949786083188
sg1215
F0.47323333333333334
ssS'OVERHEAD'
p1220
g11
(tRp1221
S'INTEREST_HOPS'
p1222
F6.6029301872064048
sS'SUCCESS_RATE'
p1223
F0.52454644022983843
sS'QUOTA_USED_FAILURE'
p1224
F1
sS'FAILURE_RATE'
p1225
F0.47545355977016157
sS'QUOTA_USED_SUCCESS'
p1226
F1
sS'NUM_SUCCESS_FIRST_TIME'
p1227
F0.52480742953190562
sg1215
F1.2511577128538767
ssS'LATENCY'
p1228
g11
(tRp1229
g1215
F52.602541666666667
sstp1230
a(g11
(tRp1231
S'workload'
p1232
g11
(tRp1233
S'n_contents'
p1234
I10000
sS'name'
p1235
S'STATIONARY'
p1236
sS'n_warmup'
p1237
I720000
sS'rate'
p1238
I100
sS'n_measured'
p1239
I360000
sS'alpha'
p1240
F0.69999999999999996
ssS'cache_policy'
p1241
g11
(tRp1242
g1235
S'LRU'
p1243
ssS'desc'
p1244
S'RSN size sensitivity -> RSN/cache ratio: 64.0'
p1245
sS'strategy'
p1246
g11
(tRp1247
S'extra_quota'
p1248
I2
sS'fan_out'
p1249
I1
sg1235
S'TFIB_DC'
p1250
ssS'content_placement'
p1251
g11
(tRp1252
g1235
S'UNIFORM'
p1253
ssS'joint_cache_rsn_placement'
p1254
g11
(tRp1255
S'network_cache'
p1256
F0.29999999999999999
sS'network_rsn'
p1257
F19.199999999999999
sg1235
S'CACHE_ALL_RSN_ALL'
p1258
sS'rsn_cache_ratio'
p1259
F64
ssS'warmup_strategy'
p1260
g11
(tRp1261
g1248
I10000
sg1249
I10
sg1235
g1250
ssS'topology'
p1262
g11
(tRp1263
S'ext_delay'
p1264
I0
sS'source_ratio'
p1265
F0.10000000000000001
sg1235
S'ROCKET_FUEL'
p1266
sS'asn'
p1267
I3257
ssg11
(tRp1268
S'SAT_RATE'
p1269
g11
(tRp1270
S'MEAN_CACHE_HIT'
p1271
F0.46928611111111113
sS'MEAN_SERVER_HIT'
p1272
F0.57215555555555553
sS'MEAN_SERVER_CACHE_HITS'
p1273
F0.10828333333333333
sS'MEAN'
p1274
F0.93315833333333331
ssS'CACHE_HIT_RATIO'
p1275
g11
(tRp1276
S'MEAN_OFF_PATH'
p1277
F0.2483843176792854
sS'MEAN_ON_PATH'
p1278
F0.22090179343182573
sg1274
F0.46928611111111113
ssS'OVERHEAD'
p1279
g11
(tRp1280
S'INTEREST_HOPS'
p1281
F6.5529965439948565
sS'SUCCESS_RATE'
p1282
F0.5570498666590199
sS'QUOTA_USED_FAILURE'
p1283
F2.6856342561668294
sS'FAILURE_RATE'
p1284
F0.4429501333409801
sS'QUOTA_USED_SUCCESS'
p1285
F4.494839869107385
sS'NUM_SUCCESS_FIRST_TIME'
p1286
F0.55940376245629886
sg1274
F1.1610897281335488
ssS'LATENCY'
p1287
g11
(tRp1288
g1274
F47.226391666666665
sstp1289
a(g11
(tRp1290
S'workload'
p1291
g11
(tRp1292
S'n_contents'
p1293
I10000
sS'name'
p1294
S'STATIONARY'
p1295
sS'n_warmup'
p1296
I720000
sS'rate'
p1297
I100
sS'n_measured'
p1298
I360000
sS'alpha'
p1299
F0.69999999999999996
ssS'cache_policy'
p1300
g11
(tRp1301
g1294
S'LRU'
p1302
ssS'desc'
p1303
S'RSN size sensitivity -> RSN/cache ratio: 128.0'
p1304
sS'strategy'
p1305
g11
(tRp1306
S'extra_quota'
p1307
I2
sS'fan_out'
p1308
I1
sg1294
S'TFIB_SC'
p1309
ssS'content_placement'
p1310
g11
(tRp1311
g1294
S'UNIFORM'
p1312
ssS'joint_cache_rsn_placement'
p1313
g11
(tRp1314
S'network_cache'
p1315
F0.29999999999999999
sS'network_rsn'
p1316
F38.399999999999999
sg1294
S'CACHE_ALL_RSN_ALL'
p1317
sS'rsn_cache_ratio'
p1318
F128
ssS'warmup_strategy'
p1319
g11
(tRp1320
g1307
I10000
sg1308
I10
sg1294
g1309
ssS'topology'
p1321
g11
(tRp1322
S'ext_delay'
p1323
I0
sS'source_ratio'
p1324
F0.10000000000000001
sg1294
S'ROCKET_FUEL'
p1325
sS'asn'
p1326
I3257
ssg11
(tRp1327
S'SAT_RATE'
p1328
g11
(tRp1329
S'MEAN_CACHE_HIT'
p1330
F0.54324722222222221
sS'MEAN_SERVER_HIT'
p1331
F0.74884166666666663
sS'MEAN_SERVER_CACHE_HITS'
p1332
F0.2923027777777778
sS'MEAN'
p1333
F0.99978611111111115
ssS'CACHE_HIT_RATIO'
p1334
g11
(tRp1335
S'MEAN_OFF_PATH'
p1336
F0.25544123211337372
sS'MEAN_ON_PATH'
p1337
F0.2878059901088485
sg1333
F0.54324722222222221
ssS'OVERHEAD'
p1338
g11
(tRp1339
S'INTEREST_HOPS'
p1340
F6.6462493366636757
sS'SUCCESS_RATE'
p1341
F0.53472357263035075
sS'QUOTA_USED_FAILURE'
p1342
F1
sS'FAILURE_RATE'
p1343
F0.46527642736964919
sS'QUOTA_USED_SUCCESS'
p1344
F1
sS'NUM_SUCCESS_FIRST_TIME'
p1345
F0.53369205003028897
sg1333
F1.3509889615278823
ssS'LATENCY'
p1346
g11
(tRp1347
g1333
F52.243738888888892
sstp1348
a(g11
(tRp1349
S'workload'
p1350
g11
(tRp1351
S'n_contents'
p1352
I10000
sS'name'
p1353
S'STATIONARY'
p1354
sS'n_warmup'
p1355
I720000
sS'rate'
p1356
I100
sS'n_measured'
p1357
I360000
sS'alpha'
p1358
F0.69999999999999996
ssS'cache_policy'
p1359
g11
(tRp1360
g1353
S'LRU'
p1361
ssS'desc'
p1362
S'RSN size sensitivity -> RSN/cache ratio: 256.0'
p1363
sS'strategy'
p1364
g11
(tRp1365
S'extra_quota'
p1366
I2
sS'fan_out'
p1367
I1
sg1353
S'TFIB_SC'
p1368
ssS'content_placement'
p1369
g11
(tRp1370
g1353
S'UNIFORM'
p1371
ssS'joint_cache_rsn_placement'
p1372
g11
(tRp1373
S'network_cache'
p1374
F0.29999999999999999
sS'network_rsn'
p1375
F76.799999999999997
sg1353
S'CACHE_ALL_RSN_ALL'
p1376
sS'rsn_cache_ratio'
p1377
F256
ssS'warmup_strategy'
p1378
g11
(tRp1379
g1366
I10000
sg1367
I10
sg1353
g1368
ssS'topology'
p1380
g11
(tRp1381
S'ext_delay'
p1382
I0
sS'source_ratio'
p1383
F0.10000000000000001
sg1353
S'ROCKET_FUEL'
p1384
sS'asn'
p1385
I3257
ssg11
(tRp1386
S'SAT_RATE'
p1387
g11
(tRp1388
S'MEAN_CACHE_HIT'
p1389
F0.5330611111111111
sS'MEAN_SERVER_HIT'
p1390
F0.74742222222222221
sS'MEAN_SERVER_CACHE_HITS'
p1391
F0.28105555555555556
sS'MEAN'
p1392
F0.9994277777777778
ssS'CACHE_HIT_RATIO'
p1393
g11
(tRp1394
S'MEAN_OFF_PATH'
p1395
F0.26363092061591326
sS'MEAN_ON_PATH'
p1396
F0.26943019049519784
sg1392
F0.5330611111111111
ssS'OVERHEAD'
p1397
g11
(tRp1398
S'INTEREST_HOPS'
p1399
F6.6534294624146035
sS'SUCCESS_RATE'
p1400
F0.48205580007625592
sS'QUOTA_USED_FAILURE'
p1401
F1
sS'FAILURE_RATE'
p1402
F0.51794419992374408
sS'QUOTA_USED_SUCCESS'
p1403
F1
sS'NUM_SUCCESS_FIRST_TIME'
p1404
F0.47818470401504909
sg1392
F1.3610454871398634
ssS'LATENCY'
p1405
g11
(tRp1406
g1392
F52.144199999999998
sstp1407
a(g11
(tRp1408
S'workload'
p1409
g11
(tRp1410
S'n_contents'
p1411
I10000
sS'name'
p1412
S'STATIONARY'
p1413
sS'n_warmup'
p1414
I720000
sS'rate'
p1415
I100
sS'n_measured'
p1416
I360000
sS'alpha'
p1417
F0.69999999999999996
ssS'cache_policy'
p1418
g11
(tRp1419
g1412
S'LRU'
p1420
ssS'desc'
p1421
S'RSN size sensitivity -> RSN/cache ratio: 128.0'
p1422
sS'strategy'
p1423
g11
(tRp1424
S'extra_quota'
p1425
I2
sS'fan_out'
p1426
I1
sg1412
S'TFIB_DC'
p1427
ssS'content_placement'
p1428
g11
(tRp1429
g1412
S'UNIFORM'
p1430
ssS'joint_cache_rsn_placement'
p1431
g11
(tRp1432
S'network_cache'
p1433
F0.29999999999999999
sS'network_rsn'
p1434
F38.399999999999999
sg1412
S'CACHE_ALL_RSN_ALL'
p1435
sS'rsn_cache_ratio'
p1436
F128
ssS'warmup_strategy'
p1437
g11
(tRp1438
g1425
I10000
sg1426
I10
sg1412
g1427
ssS'topology'
p1439
g11
(tRp1440
S'ext_delay'
p1441
I0
sS'source_ratio'
p1442
F0.10000000000000001
sg1412
S'ROCKET_FUEL'
p1443
sS'asn'
p1444
I3257
ssg11
(tRp1445
S'SAT_RATE'
p1446
g11
(tRp1447
S'MEAN_CACHE_HIT'
p1448
F0.55530000000000002
sS'MEAN_SERVER_HIT'
p1449
F0.47121111111111114
sS'MEAN_SERVER_CACHE_HITS'
p1450
F0.11373611111111111
sS'MEAN'
p1451
F0.912775
ssS'CACHE_HIT_RATIO'
p1452
g11
(tRp1453
S'MEAN_OFF_PATH'
p1454
F0.34099322408157079
sS'MEAN_ON_PATH'
p1455
F0.21430677591842923
sg1451
F0.55530000000000002
ssS'OVERHEAD'
p1456
g11
(tRp1457
S'INTEREST_HOPS'
p1458
F6.5306680787220897
sS'SUCCESS_RATE'
p1459
F0.5730254289813238
sS'QUOTA_USED_FAILURE'
p1460
F3.0360807033652049
sS'FAILURE_RATE'
p1461
F0.42697457101867625
sS'QUOTA_USED_SUCCESS'
p1462
F6.5405725821287692
sS'NUM_SUCCESS_FIRST_TIME'
p1463
F0.5760298846312133
sg1451
F1.1670972827062773
ssS'LATENCY'
p1464
g11
(tRp1465
g1451
F42.012261111111108
sstp1466
a(g11
(tRp1467
S'workload'
p1468
g11
(tRp1469
S'n_contents'
p1470
I10000
sS'name'
p1471
S'STATIONARY'
p1472
sS'n_warmup'
p1473
I720000
sS'rate'
p1474
I100
sS'n_measured'
p1475
I360000
sS'alpha'
p1476
F0.69999999999999996
ssS'cache_policy'
p1477
g11
(tRp1478
g1471
S'LRU'
p1479
ssS'desc'
p1480
S'RSN size sensitivity -> RSN/cache ratio: 512.0'
p1481
sS'strategy'
p1482
g11
(tRp1483
S'extra_quota'
p1484
I2
sS'fan_out'
p1485
I1
sg1471
S'TFIB_SC'
p1486
ssS'content_placement'
p1487
g11
(tRp1488
g1471
S'UNIFORM'
p1489
ssS'joint_cache_rsn_placement'
p1490
g11
(tRp1491
S'network_cache'
p1492
F0.29999999999999999
sS'network_rsn'
p1493
F153.59999999999999
sg1471
S'CACHE_ALL_RSN_ALL'
p1494
sS'rsn_cache_ratio'
p1495
F512
ssS'warmup_strategy'
p1496
g11
(tRp1497
g1484
I10000
sg1485
I10
sg1471
g1486
ssS'topology'
p1498
g11
(tRp1499
S'ext_delay'
p1500
I0
sS'source_ratio'
p1501
F0.10000000000000001
sg1471
S'ROCKET_FUEL'
p1502
sS'asn'
p1503
I3257
ssg11
(tRp1504
S'SAT_RATE'
p1505
g11
(tRp1506
S'MEAN_CACHE_HIT'
p1507
F0.52116388888888887
sS'MEAN_SERVER_HIT'
p1508
F0.74586666666666668
sS'MEAN_SERVER_CACHE_HITS'
p1509
F0.26780277777777778
sS'MEAN'
p1510
F0.99922777777777783
ssS'CACHE_HIT_RATIO'
p1511
g11
(tRp1512
S'MEAN_OFF_PATH'
p1513
F0.25841260515071329
sS'MEAN_ON_PATH'
p1514
F0.26275128373817558
sg1510
F0.52116388888888887
ssS'OVERHEAD'
p1515
g11
(tRp1516
S'INTEREST_HOPS'
p1517
F6.6813038957861908
sS'SUCCESS_RATE'
p1518
F0.47414604501560059
sS'QUOTA_USED_FAILURE'
p1519
F1
sS'FAILURE_RATE'
p1520
F0.52585395498439946
sS'QUOTA_USED_SUCCESS'
p1521
F1
sS'NUM_SUCCESS_FIRST_TIME'
p1522
F0.46540445189767282
sg1510
F1.3544765124179228
ssS'LATENCY'
p1523
g11
(tRp1524
g1510
F52.186630555555553
sstp1525
a(g11
(tRp1526
S'workload'
p1527
g11
(tRp1528
S'n_contents'
p1529
I10000
sS'name'
p1530
S'STATIONARY'
p1531
sS'n_warmup'
p1532
I720000
sS'rate'
p1533
I100
sS'n_measured'
p1534
I360000
sS'alpha'
p1535
F0.20000000000000001
ssS'cache_policy'
p1536
g11
(tRp1537
g1530
S'LRU'
p1538
ssS'desc'
p1539
S'strategy zipf: 0.2'
p1540
sS'strategy'
p1541
g11
(tRp1542
S'extra_quota'
p1543
I1
sS'fan_out'
p1544
I1
sg1530
S'TFIB_DC'
p1545
ssS'content_placement'
p1546
g11
(tRp1547
g1530
S'UNIFORM'
p1548
ssS'joint_cache_rsn_placement'
p1549
g11
(tRp1550
S'network_cache'
p1551
F0.29999999999999999
sS'network_rsn'
p1552
F38.399999999999999
sg1530
S'CACHE_ALL_RSN_ALL'
p1553
sS'rsn_cache_ratio'
p1554
I128
ssS'warmup_strategy'
p1555
g11
(tRp1556
g1543
I10000
sg1544
I10
sg1530
g1545
ssS'topology'
p1557
g11
(tRp1558
S'ext_delay'
p1559
I0
sS'source_ratio'
p1560
F0.10000000000000001
sg1530
S'ROCKET_FUEL'
p1561
sS'asn'
p1562
I3257
ssg11
(tRp1563
S'SAT_RATE'
p1564
g11
(tRp1565
S'MEAN_CACHE_HIT'
p1566
F0.28987499999999999
sS'MEAN_SERVER_HIT'
p1567
F0.66362500000000002
sS'MEAN_SERVER_CACHE_HITS'
p1568
F0.12393333333333334
sS'MEAN'
p1569
F0.82956666666666667
ssS'CACHE_HIT_RATIO'
p1570
g11
(tRp1571
S'MEAN_OFF_PATH'
p1572
F0.28274777136864182
sS'MEAN_ON_PATH'
p1573
F0.0071272286313581734
sg1569
F0.28987499999999999
ssS'OVERHEAD'
p1574
g11
(tRp1575
S'INTEREST_HOPS'
p1576
F7.0233388248215265
sS'SUCCESS_RATE'
p1577
F0.37844063289867286
sS'QUOTA_USED_FAILURE'
p1578
F1.774715928834846
sS'FAILURE_RATE'
p1579
F0.6215593671013272
sS'QUOTA_USED_SUCCESS'
p1580
F2.2274684500147734
sS'NUM_SUCCESS_FIRST_TIME'
p1581
F0.37906824992749655
sg1569
F1.1534134286977136
ssS'LATENCY'
p1582
g11
(tRp1583
g1569
F64.073902777777775
sstp1584
a(g11
(tRp1585
S'workload'
p1586
g11
(tRp1587
S'n_contents'
p1588
I10000
sS'name'
p1589
S'STATIONARY'
p1590
sS'n_warmup'
p1591
I720000
sS'rate'
p1592
I100
sS'n_measured'
p1593
I360000
sS'alpha'
p1594
F0.10000000000000001
ssS'cache_policy'
p1595
g11
(tRp1596
g1589
S'LRU'
p1597
ssS'desc'
p1598
S'strategy zipf: 0.1'
p1599
sS'strategy'
p1600
g11
(tRp1601
S'extra_quota'
p1602
I1
sS'fan_out'
p1603
I1
sg1589
S'TFIB_DC'
p1604
ssS'content_placement'
p1605
g11
(tRp1606
g1589
S'UNIFORM'
p1607
ssS'joint_cache_rsn_placement'
p1608
g11
(tRp1609
S'network_cache'
p1610
F0.29999999999999999
sS'network_rsn'
p1611
F38.399999999999999
sg1589
S'CACHE_ALL_RSN_ALL'
p1612
sS'rsn_cache_ratio'
p1613
I128
ssS'warmup_strategy'
p1614
g11
(tRp1615
g1602
I10000
sg1603
I10
sg1589
g1604
ssS'topology'
p1616
g11
(tRp1617
S'ext_delay'
p1618
I0
sS'source_ratio'
p1619
F0.10000000000000001
sg1589
S'ROCKET_FUEL'
p1620
sS'asn'
p1621
I3257
ssg11
(tRp1622
S'SAT_RATE'
p1623
g11
(tRp1624
S'MEAN_CACHE_HIT'
p1625
F0.27691944444444444
sS'MEAN_SERVER_HIT'
p1626
F0.67851111111111106
sS'MEAN_SERVER_CACHE_HITS'
p1627
F0.12549166666666667
sS'MEAN'
p1628
F0.82993888888888889
ssS'CACHE_HIT_RATIO'
p1629
g11
(tRp1630
S'MEAN_OFF_PATH'
p1631
F0.27035222630867412
sS'MEAN_ON_PATH'
p1632
F0.0065672181357703252
sg1628
F0.27691944444444444
ssS'OVERHEAD'
p1633
g11
(tRp1634
S'INTEREST_HOPS'
p1635
F7.0362007912229148
sS'SUCCESS_RATE'
p1636
F0.36078594352473969
sS'QUOTA_USED_FAILURE'
p1637
F1.7119762105678276
sS'FAILURE_RATE'
p1638
F0.63921405647526031
sS'QUOTA_USED_SUCCESS'
p1639
F2.1151796078957807
sS'NUM_SUCCESS_FIRST_TIME'
p1640
F0.36128255547975441
sg1628
F1.1547570436913026
ssS'LATENCY'
p1641
g11
(tRp1642
g1628
F65.525391666666664
sstp1643
a(g11
(tRp1644
S'workload'
p1645
g11
(tRp1646
S'n_contents'
p1647
I10000
sS'name'
p1648
S'STATIONARY'
p1649
sS'n_warmup'
p1650
I720000
sS'rate'
p1651
I100
sS'n_measured'
p1652
I360000
sS'alpha'
p1653
F0.69999999999999996
ssS'cache_policy'
p1654
g11
(tRp1655
g1648
S'LRU'
p1656
ssS'desc'
p1657
S'RSN size sensitivity -> RSN/cache ratio: 256.0'
p1658
sS'strategy'
p1659
g11
(tRp1660
S'extra_quota'
p1661
I2
sS'fan_out'
p1662
I1
sg1648
S'TFIB_DC'
p1663
ssS'content_placement'
p1664
g11
(tRp1665
g1648
S'UNIFORM'
p1666
ssS'joint_cache_rsn_placement'
p1667
g11
(tRp1668
S'network_cache'
p1669
F0.29999999999999999
sS'network_rsn'
p1670
F76.799999999999997
sg1648
S'CACHE_ALL_RSN_ALL'
p1671
sS'rsn_cache_ratio'
p1672
F256
ssS'warmup_strategy'
p1673
g11
(tRp1674
g1661
I10000
sg1662
I10
sg1648
g1663
ssS'topology'
p1675
g11
(tRp1676
S'ext_delay'
p1677
I0
sS'source_ratio'
p1678
F0.10000000000000001
sg1648
S'ROCKET_FUEL'
p1679
sS'asn'
p1680
I3257
ssg11
(tRp1681
S'SAT_RATE'
p1682
g11
(tRp1683
S'MEAN_CACHE_HIT'
p1684
F0.55199444444444445
sS'MEAN_SERVER_HIT'
p1685
F0.46721388888888887
sS'MEAN_SERVER_CACHE_HITS'
p1686
F0.10729166666666666
sS'MEAN'
p1687
F0.91191666666666671
ssS'CACHE_HIT_RATIO'
p1688
g11
(tRp1689
S'MEAN_OFF_PATH'
p1690
F0.35570636250902798
sS'MEAN_ON_PATH'
p1691
F0.19628808193541647
sg1687
F0.55199444444444445
ssS'OVERHEAD'
p1692
g11
(tRp1693
S'INTEREST_HOPS'
p1694
F6.5742605623077157
sS'SUCCESS_RATE'
p1695
F0.52859093559176407
sS'QUOTA_USED_FAILURE'
p1696
F2.8329060259791716
sS'FAILURE_RATE'
p1697
F0.47140906440823593
sS'QUOTA_USED_SUCCESS'
p1698
F7.7033701291306604
sS'NUM_SUCCESS_FIRST_TIME'
p1699
F0.53059501925503894
sg1687
F1.1740046909744433
ssS'LATENCY'
p1700
g11
(tRp1701
g1687
F41.867111111111114
sstp1702
a(g11
(tRp1703
S'workload'
p1704
g11
(tRp1705
S'n_contents'
p1706
I10000
sS'name'
p1707
S'STATIONARY'
p1708
sS'n_warmup'
p1709
I720000
sS'rate'
p1710
I100
sS'n_measured'
p1711
I360000
sS'alpha'
p1712
F0.69999999999999996
ssS'cache_policy'
p1713
g11
(tRp1714
g1707
S'LRU'
p1715
ssS'desc'
p1716
S'RSN size sensitivity -> RSN/cache ratio: 512.0'
p1717
sS'strategy'
p1718
g11
(tRp1719
S'extra_quota'
p1720
I2
sS'fan_out'
p1721
I1
sg1707
S'TFIB_DC'
p1722
ssS'content_placement'
p1723
g11
(tRp1724
g1707
S'UNIFORM'
p1725
ssS'joint_cache_rsn_placement'
p1726
g11
(tRp1727
S'network_cache'
p1728
F0.29999999999999999
sS'network_rsn'
p1729
F153.59999999999999
sg1707
S'CACHE_ALL_RSN_ALL'
p1730
sS'rsn_cache_ratio'
p1731
F512
ssS'warmup_strategy'
p1732
g11
(tRp1733
g1720
I10000
sg1721
I10
sg1707
g1722
ssS'topology'
p1734
g11
(tRp1735
S'ext_delay'
p1736
I0
sS'source_ratio'
p1737
F0.10000000000000001
sg1707
S'ROCKET_FUEL'
p1738
sS'asn'
p1739
I3257
ssg11
(tRp1740
S'SAT_RATE'
p1741
g11
(tRp1742
S'MEAN_CACHE_HIT'
p1743
F0.54890000000000005
sS'MEAN_SERVER_HIT'
p1744
F0.47303055555555557
sS'MEAN_SERVER_CACHE_HITS'
p1745
F0.10748611111111112
sS'MEAN'
p1746
F0.91444444444444439
ssS'CACHE_HIT_RATIO'
p1747
g11
(tRp1748
S'MEAN_OFF_PATH'
p1749
F0.34049660908683183
sS'MEAN_ON_PATH'
p1750
F0.20840339091316823
sg1746
F0.54890000000000005
ssS'OVERHEAD'
p1751
g11
(tRp1752
S'INTEREST_HOPS'
p1753
F6.5670534629404616
sS'SUCCESS_RATE'
p1754
F0.51527908067542216
sS'QUOTA_USED_FAILURE'
p1755
F2.6947604475908458
sS'FAILURE_RATE'
p1756
F0.48472091932457784
sS'QUOTA_USED_SUCCESS'
p1757
F7.4054755830616168
sS'NUM_SUCCESS_FIRST_TIME'
p1758
F0.51987188031055276
sg1746
F1.1637424058323207
ssS'LATENCY'
p1759
g11
(tRp1760
g1746
F41.947791666666667
sstp1761
a(g11
(tRp1762
S'workload'
p1763
g11
(tRp1764
S'n_contents'
p1765
I10000
sS'name'
p1766
S'STATIONARY'
p1767
sS'n_warmup'
p1768
I720000
sS'rate'
p1769
I100
sS'n_measured'
p1770
I360000
sS'alpha'
p1771
F1
ssS'cache_policy'
p1772
g11
(tRp1773
g1766
S'LRU'
p1774
ssS'desc'
p1775
S'strategy zipf: 1.0'
p1776
sS'strategy'
p1777
g11
(tRp1778
S'extra_quota'
p1779
I1
sS'fan_out'
p1780
I1
sg1766
S'TFIB_DC'
p1781
ssS'content_placement'
p1782
g11
(tRp1783
g1766
S'UNIFORM'
p1784
ssS'joint_cache_rsn_placement'
p1785
g11
(tRp1786
S'network_cache'
p1787
F0.29999999999999999
sS'network_rsn'
p1788
F38.399999999999999
sg1766
S'CACHE_ALL_RSN_ALL'
p1789
sS'rsn_cache_ratio'
p1790
I128
ssS'warmup_strategy'
p1791
g11
(tRp1792
g1779
I10000
sg1780
I10
sg1766
g1781
ssS'topology'
p1793
g11
(tRp1794
S'ext_delay'
p1795
I0
sS'source_ratio'
p1796
F0.10000000000000001
sg1766
S'ROCKET_FUEL'
p1797
sS'asn'
p1798
I3257
ssg11
(tRp1799
S'SAT_RATE'
p1800
g11
(tRp1801
S'MEAN_CACHE_HIT'
p1802
F0.80833611111111114
sS'MEAN_SERVER_HIT'
p1803
F0.15955277777777777
sS'MEAN_SERVER_CACHE_HITS'
p1804
F0.023591666666666667
sS'MEAN'
p1805
F0.94429722222222223
ssS'CACHE_HIT_RATIO'
p1806
g11
(tRp1807
S'MEAN_OFF_PATH'
p1808
F0.30500516588221788
sS'MEAN_ON_PATH'
p1809
F0.50333094522889321
sg1805
F0.80833611111111114
ssS'OVERHEAD'
p1810
g11
(tRp1811
S'INTEREST_HOPS'
p1812
F5.6377288224340854
sS'SUCCESS_RATE'
p1813
F0.75710613993336506
sS'QUOTA_USED_FAILURE'
p1814
F6.0654849255807042
sS'FAILURE_RATE'
p1815
F0.24289386006663494
sS'QUOTA_USED_SUCCESS'
p1816
F46.10583995110904
sS'NUM_SUCCESS_FIRST_TIME'
p1817
F0.76162326877051645
sg1805
F1.0948765542864034
ssS'LATENCY'
p1818
g11
(tRp1819
g1805
F16.910666666666668
sstp1820
a(g11
(tRp1821
S'workload'
p1822
g11
(tRp1823
S'n_contents'
p1824
I10000
sS'name'
p1825
S'STATIONARY'
p1826
sS'n_warmup'
p1827
I720000
sS'rate'
p1828
I100
sS'n_measured'
p1829
I360000
sS'alpha'
p1830
F0.90000000000000002
ssS'cache_policy'
p1831
g11
(tRp1832
g1825
S'LRU'
p1833
ssS'desc'
p1834
S'strategy zipf: 0.9'
p1835
sS'strategy'
p1836
g11
(tRp1837
S'extra_quota'
p1838
I1
sS'fan_out'
p1839
I1
sg1825
S'TFIB_DC'
p1840
ssS'content_placement'
p1841
g11
(tRp1842
g1825
S'UNIFORM'
p1843
ssS'joint_cache_rsn_placement'
p1844
g11
(tRp1845
S'network_cache'
p1846
F0.29999999999999999
sS'network_rsn'
p1847
F38.399999999999999
sg1825
S'CACHE_ALL_RSN_ALL'
p1848
sS'rsn_cache_ratio'
p1849
I128
ssS'warmup_strategy'
p1850
g11
(tRp1851
g1838
I10000
sg1839
I10
sg1825
g1840
ssS'topology'
p1852
g11
(tRp1853
S'ext_delay'
p1854
I0
sS'source_ratio'
p1855
F0.10000000000000001
sg1825
S'ROCKET_FUEL'
p1856
sS'asn'
p1857
I3257
ssg11
(tRp1858
S'SAT_RATE'
p1859
g11
(tRp1860
S'MEAN_CACHE_HIT'
p1861
F0.72810555555555556
sS'MEAN_SERVER_HIT'
p1862
F0.2273111111111111
sS'MEAN_SERVER_CACHE_HITS'
p1863
F0.034280555555555557
sS'MEAN'
p1864
F0.92113611111111116
ssS'CACHE_HIT_RATIO'
p1865
g11
(tRp1866
S'MEAN_OFF_PATH'
p1867
F0.3428608809419974
sS'MEAN_ON_PATH'
p1868
F0.38524467461355816
sg1864
F0.72810555555555556
ssS'OVERHEAD'
p1869
g11
(tRp1870
S'INTEREST_HOPS'
p1871
F5.8769092515583115
sS'SUCCESS_RATE'
p1872
F0.6951684909845729
sS'QUOTA_USED_FAILURE'
p1873
F4.7352285561876224
sS'FAILURE_RATE'
p1874
F0.3048315090154271
sS'QUOTA_USED_SUCCESS'
p1875
F17.987423370317273
sS'NUM_SUCCESS_FIRST_TIME'
p1876
F0.69901228285258266
sg1864
F1.0928382522790394
ssS'LATENCY'
p1877
g11
(tRp1878
g1864
F23.944488888888888
sstp1879
a(g11
(tRp1880
S'workload'
p1881
g11
(tRp1882
S'n_contents'
p1883
I10000
sS'name'
p1884
S'STATIONARY'
p1885
sS'n_warmup'
p1886
I720000
sS'rate'
p1887
I100
sS'n_measured'
p1888
I360000
sS'alpha'
p1889
F0.80000000000000004
ssS'cache_policy'
p1890
g11
(tRp1891
g1884
S'LRU'
p1892
ssS'desc'
p1893
S'strategy zipf: 0.8'
p1894
sS'strategy'
p1895
g11
(tRp1896
S'extra_quota'
p1897
I1
sS'fan_out'
p1898
I1
sg1884
S'TFIB_DC'
p1899
ssS'content_placement'
p1900
g11
(tRp1901
g1884
S'UNIFORM'
p1902
ssS'joint_cache_rsn_placement'
p1903
g11
(tRp1904
S'network_cache'
p1905
F0.29999999999999999
sS'network_rsn'
p1906
F38.399999999999999
sg1884
S'CACHE_ALL_RSN_ALL'
p1907
sS'rsn_cache_ratio'
p1908
I128
ssS'warmup_strategy'
p1909
g11
(tRp1910
g1897
I10000
sg1898
I10
sg1884
g1899
ssS'topology'
p1911
g11
(tRp1912
S'ext_delay'
p1913
I0
sS'source_ratio'
p1914
F0.10000000000000001
sg1884
S'ROCKET_FUEL'
p1915
sS'asn'
p1916
I3257
ssg11
(tRp1917
S'SAT_RATE'
p1918
g11
(tRp1919
S'MEAN_CACHE_HIT'
p1920
F0.6453861111111111
sS'MEAN_SERVER_HIT'
p1921
F0.29899999999999999
sS'MEAN_SERVER_CACHE_HITS'
p1922
F0.046608333333333335
sS'MEAN'
p1923
F0.89777777777777779
ssS'CACHE_HIT_RATIO'
p1924
g11
(tRp1925
S'MEAN_OFF_PATH'
p1926
F0.37394956747328512
sS'MEAN_ON_PATH'
p1927
F0.27143654363782599
sg1923
F0.6453861111111111
ssS'OVERHEAD'
p1928
g11
(tRp1929
S'INTEREST_HOPS'
p1930
F6.2984746287128717
sS'SUCCESS_RATE'
p1931
F0.64923123377603753
sS'QUOTA_USED_FAILURE'
p1932
F3.8831093009022495
sS'FAILURE_RATE'
p1933
F0.35076876622396252
sS'QUOTA_USED_SUCCESS'
p1934
F12.039127540765547
sS'NUM_SUCCESS_FIRST_TIME'
p1935
F0.65326300579494878
sg1923
F1.1099845297029702
ssS'LATENCY'
p1936
g11
(tRp1937
g1923
F31.489908333333332
sstp1938
a(g11
(tRp1939
S'workload'
p1940
g11
(tRp1941
S'n_contents'
p1942
I10000
sS'name'
p1943
S'STATIONARY'
p1944
sS'n_warmup'
p1945
I720000
sS'rate'
p1946
I100
sS'n_measured'
p1947
I360000
sS'alpha'
p1948
F0.69999999999999996
ssS'cache_policy'
p1949
g11
(tRp1950
g1943
S'LRU'
p1951
ssS'desc'
p1952
S'strategy zipf: 0.7'
p1953
sS'strategy'
p1954
g11
(tRp1955
S'extra_quota'
p1956
I1
sS'fan_out'
p1957
I1
sg1943
S'TFIB_DC'
p1958
ssS'content_placement'
p1959
g11
(tRp1960
g1943
S'UNIFORM'
p1961
ssS'joint_cache_rsn_placement'
p1962
g11
(tRp1963
S'network_cache'
p1964
F0.29999999999999999
sS'network_rsn'
p1965
F38.399999999999999
sg1943
S'CACHE_ALL_RSN_ALL'
p1966
sS'rsn_cache_ratio'
p1967
I128
ssS'warmup_strategy'
p1968
g11
(tRp1969
g1956
I10000
sg1957
I10
sg1943
g1958
ssS'topology'
p1970
g11
(tRp1971
S'ext_delay'
p1972
I0
sS'source_ratio'
p1973
F0.10000000000000001
sg1943
S'ROCKET_FUEL'
p1974
sS'asn'
p1975
I3257
ssg11
(tRp1976
S'SAT_RATE'
p1977
g11
(tRp1978
S'MEAN_CACHE_HIT'
p1979
F0.5561194444444445
sS'MEAN_SERVER_HIT'
p1980
F0.38022222222222224
sS'MEAN_SERVER_CACHE_HITS'
p1981
F0.062605555555555553
sS'MEAN'
p1982
F0.87373611111111116
ssS'CACHE_HIT_RATIO'
p1983
g11
(tRp1984
S'MEAN_OFF_PATH'
p1985
F0.36435536648243905
sS'MEAN_ON_PATH'
p1986
F0.19176407796200545
sg1982
F0.5561194444444445
ssS'OVERHEAD'
p1987
g11
(tRp1988
S'INTEREST_HOPS'
p1989
F6.5400085838274329
sS'SUCCESS_RATE'
p1990
F0.5792074248137421
sS'QUOTA_USED_FAILURE'
p1991
F3.0816392868351716
sS'FAILURE_RATE'
p1992
F0.4207925751862579
sS'QUOTA_USED_SUCCESS'
p1993
F6.3162661823308603
sS'NUM_SUCCESS_FIRST_TIME'
p1994
F0.58194203475639239
sg1982
F1.1045255845745441
ssS'LATENCY'
p1995
g11
(tRp1996
g1982
F39.766091666666668
sstp1997
a(g11
(tRp1998
S'workload'
p1999
g11
(tRp2000
S'n_contents'
p2001
I10000
sS'name'
p2002
S'STATIONARY'
p2003
sS'n_warmup'
p2004
I720000
sS'rate'
p2005
I100
sS'n_measured'
p2006
I360000
sS'alpha'
p2007
F0.59999999999999998
ssS'cache_policy'
p2008
g11
(tRp2009
g2002
S'LRU'
p2010
ssS'desc'
p2011
S'strategy zipf: 0.6'
p2012
sS'strategy'
p2013
g11
(tRp2014
S'extra_quota'
p2015
I1
sS'fan_out'
p2016
I1
sg2002
S'TFIB_DC'
p2017
ssS'content_placement'
p2018
g11
(tRp2019
g2002
S'UNIFORM'
p2020
ssS'joint_cache_rsn_placement'
p2021
g11
(tRp2022
S'network_cache'
p2023
F0.29999999999999999
sS'network_rsn'
p2024
F38.399999999999999
sg2002
S'CACHE_ALL_RSN_ALL'
p2025
sS'rsn_cache_ratio'
p2026
I128
ssS'warmup_strategy'
p2027
g11
(tRp2028
g2015
I10000
sg2016
I10
sg2002
g2017
ssS'topology'
p2029
g11
(tRp2030
S'ext_delay'
p2031
I0
sS'source_ratio'
p2032
F0.10000000000000001
sg2002
S'ROCKET_FUEL'
p2033
sS'asn'
p2034
I3257
ssg11
(tRp2035
S'SAT_RATE'
p2036
g11
(tRp2037
S'MEAN_CACHE_HIT'
p2038
F0.47578888888888887
sS'MEAN_SERVER_HIT'
p2039
F0.46019444444444446
sS'MEAN_SERVER_CACHE_HITS'
p2040
F0.080697222222222226
sS'MEAN'
p2041
F0.85528611111111108
ssS'CACHE_HIT_RATIO'
p2042
g11
(tRp2043
S'MEAN_OFF_PATH'
p2044
F0.36017082450423499
sS'MEAN_ON_PATH'
p2045
F0.11561806438465388
sg2041
F0.47578888888888887
ssS'OVERHEAD'
p2046
g11
(tRp2047
S'INTEREST_HOPS'
p2048
F6.7350561702873959
sS'SUCCESS_RATE'
p2049
F0.53018963240943962
sS'QUOTA_USED_FAILURE'
p2050
F2.6139615469460162
sS'FAILURE_RATE'
p2051
F0.46981036759056038
sS'QUOTA_USED_SUCCESS'
p2052
F4.6207667045278136
sS'NUM_SUCCESS_FIRST_TIME'
p2053
F0.53245139146895959
sg2041
F1.119677300968162
ssS'LATENCY'
p2054
g11
(tRp2055
g2041
F46.982316666666669
sstp2056
a(g11
(tRp2057
S'workload'
p2058
g11
(tRp2059
S'n_contents'
p2060
I10000
sS'name'
p2061
S'STATIONARY'
p2062
sS'n_warmup'
p2063
I720000
sS'rate'
p2064
I100
sS'n_measured'
p2065
I360000
sS'alpha'
p2066
F0.5
ssS'cache_policy'
p2067
g11
(tRp2068
g2061
S'LRU'
p2069
ssS'desc'
p2070
S'strategy zipf: 0.5'
p2071
sS'strategy'
p2072
g11
(tRp2073
S'extra_quota'
p2074
I1
sS'fan_out'
p2075
I1
sg2061
S'TFIB_DC'
p2076
ssS'content_placement'
p2077
g11
(tRp2078
g2061
S'UNIFORM'
p2079
ssS'joint_cache_rsn_placement'
p2080
g11
(tRp2081
S'network_cache'
p2082
F0.29999999999999999
sS'network_rsn'
p2083
F38.399999999999999
sg2061
S'CACHE_ALL_RSN_ALL'
p2084
sS'rsn_cache_ratio'
p2085
I128
ssS'warmup_strategy'
p2086
g11
(tRp2087
g2074
I10000
sg2075
I10
sg2061
g2076
ssS'topology'
p2088
g11
(tRp2089
S'ext_delay'
p2090
I0
sS'source_ratio'
p2091
F0.10000000000000001
sg2061
S'ROCKET_FUEL'
p2092
sS'asn'
p2093
I3257
ssg11
(tRp2094
S'SAT_RATE'
p2095
g11
(tRp2096
S'MEAN_CACHE_HIT'
p2097
F0.41292499999999999
sS'MEAN_SERVER_HIT'
p2098
F0.52313611111111114
sS'MEAN_SERVER_CACHE_HITS'
p2099
F0.09599166666666667
sS'MEAN'
p2100
F0.84006944444444442
ssS'CACHE_HIT_RATIO'
p2101
g11
(tRp2102
S'MEAN_OFF_PATH'
p2103
F0.35255592286828374
sS'MEAN_ON_PATH'
p2104
F0.060369077131716242
sg2100
F0.41292499999999999
ssS'OVERHEAD'
p2105
g11
(tRp2106
S'INTEREST_HOPS'
p2107
F6.8929354385384807
sS'SUCCESS_RATE'
p2108
F0.49075978672087378
sS'QUOTA_USED_FAILURE'
p2109
F2.3566824376407345
sS'FAILURE_RATE'
p2110
F0.50924021327912627
sS'QUOTA_USED_SUCCESS'
p2111
F3.6899885853925882
sS'NUM_SUCCESS_FIRST_TIME'
p2112
F0.49213297004557915
sg2100
F1.1332627924278746
ssS'LATENCY'
p2113
g11
(tRp2114
g2100
F53.003927777777776
sstp2115
a(g11
(tRp2116
S'workload'
p2117
g11
(tRp2118
S'n_contents'
p2119
I10000
sS'name'
p2120
S'STATIONARY'
p2121
sS'n_warmup'
p2122
I720000
sS'rate'
p2123
I100
sS'n_measured'
p2124
I360000
sS'alpha'
p2125
F0.20000000000000001
ssS'cache_policy'
p2126
g11
(tRp2127
g2120
S'LRU'
p2128
ssS'desc'
p2129
S'strategy zipf: 0.2'
p2130
sS'strategy'
p2131
g11
(tRp2132
S'extra_quota'
p2133
I1
sS'fan_out'
p2134
I1
sg2120
S'TFIB_SC'
p2135
ssS'content_placement'
p2136
g11
(tRp2137
g2120
S'UNIFORM'
p2138
ssS'joint_cache_rsn_placement'
p2139
g11
(tRp2140
S'network_cache'
p2141
F0.29999999999999999
sS'network_rsn'
p2142
F38.399999999999999
sg2120
S'CACHE_ALL_RSN_ALL'
p2143
sS'rsn_cache_ratio'
p2144
I128
ssS'warmup_strategy'
p2145
g11
(tRp2146
g2133
I10000
sg2134
I10
sg2120
g2135
ssS'topology'
p2147
g11
(tRp2148
S'ext_delay'
p2149
I0
sS'source_ratio'
p2150
F0.10000000000000001
sg2120
S'ROCKET_FUEL'
p2151
sS'asn'
p2152
I3257
ssg11
(tRp2153
S'SAT_RATE'
p2154
g11
(tRp2155
S'MEAN_CACHE_HIT'
p2156
F0.2878722222222222
sS'MEAN_SERVER_HIT'
p2157
F0.94511111111111112
sS'MEAN_SERVER_CACHE_HITS'
p2158
F0.25369999999999998
sS'MEAN'
p2159
F0.97928333333333328
ssS'CACHE_HIT_RATIO'
p2160
g11
(tRp2161
S'MEAN_OFF_PATH'
p2162
F0.21714495555044899
sS'MEAN_ON_PATH'
p2163
F0.070727266671773203
sg2159
F0.2878722222222222
ssS'OVERHEAD'
p2164
g11
(tRp2165
S'INTEREST_HOPS'
p2166
F7.0014040880235546
sS'SUCCESS_RATE'
p2167
F0.35106198588833443
sS'QUOTA_USED_FAILURE'
p2168
F1
sS'FAILURE_RATE'
p2169
F0.64893801411166563
sS'QUOTA_USED_SUCCESS'
p2170
F1
sS'NUM_SUCCESS_FIRST_TIME'
p2171
F0.35096627567643074
sg2159
F1.263236720731147
ssS'LATENCY'
p2172
g11
(tRp2173
g2159
F69.223425000000006
sstp2174
a(g11
(tRp2175
S'workload'
p2176
g11
(tRp2177
S'n_contents'
p2178
I10000
sS'name'
p2179
S'STATIONARY'
p2180
sS'n_warmup'
p2181
I720000
sS'rate'
p2182
I100
sS'n_measured'
p2183
I360000
sS'alpha'
p2184
F0.29999999999999999
ssS'cache_policy'
p2185
g11
(tRp2186
g2179
S'LRU'
p2187
ssS'desc'
p2188
S'strategy zipf: 0.3'
p2189
sS'strategy'
p2190
g11
(tRp2191
S'extra_quota'
p2192
I1
sS'fan_out'
p2193
I1
sg2179
S'TFIB_DC'
p2194
ssS'content_placement'
p2195
g11
(tRp2196
g2179
S'UNIFORM'
p2197
ssS'joint_cache_rsn_placement'
p2198
g11
(tRp2199
S'network_cache'
p2200
F0.29999999999999999
sS'network_rsn'
p2201
F38.399999999999999
sg2179
S'CACHE_ALL_RSN_ALL'
p2202
sS'rsn_cache_ratio'
p2203
I128
ssS'warmup_strategy'
p2204
g11
(tRp2205
g2192
I10000
sg2193
I10
sg2179
g2194
ssS'topology'
p2206
g11
(tRp2207
S'ext_delay'
p2208
I0
sS'source_ratio'
p2209
F0.10000000000000001
sg2179
S'ROCKET_FUEL'
p2210
sS'asn'
p2211
I3257
ssg11
(tRp2212
S'SAT_RATE'
p2213
g11
(tRp2214
S'MEAN_CACHE_HIT'
p2215
F0.31570833333333331
sS'MEAN_SERVER_HIT'
p2216
F0.63452500000000001
sS'MEAN_SERVER_CACHE_HITS'
p2217
F0.12024722222222223
sS'MEAN'
p2218
F0.82998611111111109
ssS'CACHE_HIT_RATIO'
p2219
g11
(tRp2220
S'MEAN_OFF_PATH'
p2221
F0.30336408601396148
sS'MEAN_ON_PATH'
p2222
F0.012344247319371837
sg2218
F0.31570833333333331
ssS'OVERHEAD'
p2223
g11
(tRp2224
S'INTEREST_HOPS'
p2225
F6.9922823340417342
sS'SUCCESS_RATE'
p2226
F0.40628480386090832
sS'QUOTA_USED_FAILURE'
p2227
F1.8823040820433543
sS'FAILURE_RATE'
p2228
F0.59371519613909174
sS'QUOTA_USED_SUCCESS'
p2229
F2.4915542637466261
sS'NUM_SUCCESS_FIRST_TIME'
p2230
F0.40716708271665181
sg2218
F1.1513679947790292
ssS'LATENCY'
p2231
g11
(tRp2232
g2218
F62.132655555555559
sstp2233
a(g11
(tRp2234
S'workload'
p2235
g11
(tRp2236
S'n_contents'
p2237
I10000
sS'name'
p2238
S'STATIONARY'
p2239
sS'n_warmup'
p2240
I720000
sS'rate'
p2241
I100
sS'n_measured'
p2242
I360000
sS'alpha'
p2243
F0.10000000000000001
ssS'cache_policy'
p2244
g11
(tRp2245
g2238
S'LRU'
p2246
ssS'desc'
p2247
S'strategy zipf: 0.1'
p2248
sS'strategy'
p2249
g11
(tRp2250
S'extra_quota'
p2251
I1
sS'fan_out'
p2252
I1
sg2238
S'TFIB_SC'
p2253
ssS'content_placement'
p2254
g11
(tRp2255
g2238
S'UNIFORM'
p2256
ssS'joint_cache_rsn_placement'
p2257
g11
(tRp2258
S'network_cache'
p2259
F0.29999999999999999
sS'network_rsn'
p2260
F38.399999999999999
sg2238
S'CACHE_ALL_RSN_ALL'
p2261
sS'rsn_cache_ratio'
p2262
I128
ssS'warmup_strategy'
p2263
g11
(tRp2264
g2251
I10000
sg2252
I10
sg2238
g2253
ssS'topology'
p2265
g11
(tRp2266
S'ext_delay'
p2267
I0
sS'source_ratio'
p2268
F0.10000000000000001
sg2238
S'ROCKET_FUEL'
p2269
sS'asn'
p2270
I3257
ssg11
(tRp2271
S'SAT_RATE'
p2272
g11
(tRp2273
S'MEAN_CACHE_HIT'
p2274
F0.27266111111111113
sS'MEAN_SERVER_HIT'
p2275
F0.94662500000000005
sS'MEAN_SERVER_CACHE_HITS'
p2276
F0.24082777777777778
sS'MEAN'
p2277
F0.97845833333333332
ssS'CACHE_HIT_RATIO'
p2278
g11
(tRp2279
S'MEAN_OFF_PATH'
p2280
F0.20830267255657339
sS'MEAN_ON_PATH'
p2281
F0.064358438554537739
sg2277
F0.27266111111111113
ssS'OVERHEAD'
p2282
g11
(tRp2283
S'INTEREST_HOPS'
p2284
F7.0049198711124356
sS'SUCCESS_RATE'
p2285
F0.33223429084704431
sS'QUOTA_USED_FAILURE'
p2286
F1
sS'FAILURE_RATE'
p2287
F0.66776570915295574
sS'QUOTA_USED_SUCCESS'
p2288
F1
sS'NUM_SUCCESS_FIRST_TIME'
p2289
F0.33185171210263181
sg2277
F1.2493264631151613
ssS'LATENCY'
p2290
g11
(tRp2291
g2277
F69.385127777777782
sstp2292
a(g11
(tRp2293
S'workload'
p2294
g11
(tRp2295
S'n_contents'
p2296
I10000
sS'name'
p2297
S'STATIONARY'
p2298
sS'n_warmup'
p2299
I720000
sS'rate'
p2300
I100
sS'n_measured'
p2301
I360000
sS'alpha'
p2302
F0.40000000000000002
ssS'cache_policy'
p2303
g11
(tRp2304
g2297
S'LRU'
p2305
ssS'desc'
p2306
S'strategy zipf: 0.4'
p2307
sS'strategy'
p2308
g11
(tRp2309
S'extra_quota'
p2310
I1
sS'fan_out'
p2311
I1
sg2297
S'TFIB_DC'
p2312
ssS'content_placement'
p2313
g11
(tRp2314
g2297
S'UNIFORM'
p2315
ssS'joint_cache_rsn_placement'
p2316
g11
(tRp2317
S'network_cache'
p2318
F0.29999999999999999
sS'network_rsn'
p2319
F38.399999999999999
sg2297
S'CACHE_ALL_RSN_ALL'
p2320
sS'rsn_cache_ratio'
p2321
I128
ssS'warmup_strategy'
p2322
g11
(tRp2323
g2310
I10000
sg2311
I10
sg2297
g2312
ssS'topology'
p2324
g11
(tRp2325
S'ext_delay'
p2326
I0
sS'source_ratio'
p2327
F0.10000000000000001
sg2297
S'ROCKET_FUEL'
p2328
sS'asn'
p2329
I3257
ssg11
(tRp2330
S'SAT_RATE'
p2331
g11
(tRp2332
S'MEAN_CACHE_HIT'
p2333
F0.35388888888888886
sS'MEAN_SERVER_HIT'
p2334
F0.58719166666666667
sS'MEAN_SERVER_CACHE_HITS'
p2335
F0.10913055555555555
sS'MEAN'
p2336
F0.83194999999999997
ssS'CACHE_HIT_RATIO'
p2337
g11
(tRp2338
S'MEAN_OFF_PATH'
p2339
F0.32717118914722731
sS'MEAN_ON_PATH'
p2340
F0.026717699741661549
sg2336
F0.35388888888888886
ssS'OVERHEAD'
p2341
g11
(tRp2342
S'INTEREST_HOPS'
p2343
F6.9675795153287794
sS'SUCCESS_RATE'
p2344
F0.44475061782981851
sS'QUOTA_USED_FAILURE'
p2345
F2.0795802205860565
sS'FAILURE_RATE'
p2346
F0.55524938217018149
sS'QUOTA_USED_SUCCESS'
p2347
F2.9100468632533687
sS'NUM_SUCCESS_FIRST_TIME'
p2348
F0.4459994316379946
sg2336
F1.1423462948494501
ssS'LATENCY'
p2349
g11
(tRp2350
g2336
F58.355477777777779
sstp2351
a(g11
(tRp2352
S'workload'
p2353
g11
(tRp2354
S'n_contents'
p2355
I10000
sS'name'
p2356
S'STATIONARY'
p2357
sS'n_warmup'
p2358
I720000
sS'rate'
p2359
I100
sS'n_measured'
p2360
I360000
sS'alpha'
p2361
F0.29999999999999999
ssS'cache_policy'
p2362
g11
(tRp2363
g2356
S'LRU'
p2364
ssS'desc'
p2365
S'strategy zipf: 0.3'
p2366
sS'strategy'
p2367
g11
(tRp2368
S'extra_quota'
p2369
I1
sS'fan_out'
p2370
I1
sg2356
S'TFIB_SC'
p2371
ssS'content_placement'
p2372
g11
(tRp2373
g2356
S'UNIFORM'
p2374
ssS'joint_cache_rsn_placement'
p2375
g11
(tRp2376
S'network_cache'
p2377
F0.29999999999999999
sS'network_rsn'
p2378
F38.399999999999999
sg2356
S'CACHE_ALL_RSN_ALL'
p2379
sS'rsn_cache_ratio'
p2380
I128
ssS'warmup_strategy'
p2381
g11
(tRp2382
g2369
I10000
sg2370
I10
sg2356
g2371
ssS'topology'
p2383
g11
(tRp2384
S'ext_delay'
p2385
I0
sS'source_ratio'
p2386
F0.10000000000000001
sg2356
S'ROCKET_FUEL'
p2387
sS'asn'
p2388
I3257
ssg11
(tRp2389
S'SAT_RATE'
p2390
g11
(tRp2391
S'MEAN_CACHE_HIT'
p2392
F0.31179444444444443
sS'MEAN_SERVER_HIT'
p2393
F0.93553888888888892
sS'MEAN_SERVER_CACHE_HITS'
p2394
F0.26763888888888887
sS'MEAN'
p2395
F0.97969444444444442
ssS'CACHE_HIT_RATIO'
p2396
g11
(tRp2397
S'MEAN_OFF_PATH'
p2398
F0.22741626581150901
sS'MEAN_ON_PATH'
p2399
F0.084378178632935424
sg2395
F0.31179444444444443
ssS'OVERHEAD'
p2400
g11
(tRp2401
S'INTEREST_HOPS'
p2402
F7.0069522810400064
sS'SUCCESS_RATE'
p2403
F0.37456276121053073
sS'QUOTA_USED_FAILURE'
p2404
F1
sS'FAILURE_RATE'
p2405
F0.62543723878946933
sS'QUOTA_USED_SUCCESS'
p2406
F1
sS'NUM_SUCCESS_FIRST_TIME'
p2407
F0.37474347837631772
sg2395
F1.2795372706909751
ssS'LATENCY'
p2408
g11
(tRp2409
g2395
F68.250019444444447
sstp2410
a(g11
(tRp2411
S'workload'
p2412
g11
(tRp2413
S'n_contents'
p2414
I10000
sS'name'
p2415
S'STATIONARY'
p2416
sS'n_warmup'
p2417
I720000
sS'rate'
p2418
I100
sS'n_measured'
p2419
I360000
sS'alpha'
p2420
F0.40000000000000002
ssS'cache_policy'
p2421
g11
(tRp2422
g2415
S'LRU'
p2423
ssS'desc'
p2424
S'strategy zipf: 0.4'
p2425
sS'strategy'
p2426
g11
(tRp2427
S'extra_quota'
p2428
I1
sS'fan_out'
p2429
I1
sg2415
S'TFIB_SC'
p2430
ssS'content_placement'
p2431
g11
(tRp2432
g2415
S'UNIFORM'
p2433
ssS'joint_cache_rsn_placement'
p2434
g11
(tRp2435
S'network_cache'
p2436
F0.29999999999999999
sS'network_rsn'
p2437
F38.399999999999999
sg2415
S'CACHE_ALL_RSN_ALL'
p2438
sS'rsn_cache_ratio'
p2439
I128
ssS'warmup_strategy'
p2440
g11
(tRp2441
g2428
I10000
sg2429
I10
sg2415
g2430
ssS'topology'
p2442
g11
(tRp2443
S'ext_delay'
p2444
I0
sS'source_ratio'
p2445
F0.10000000000000001
sg2415
S'ROCKET_FUEL'
p2446
sS'asn'
p2447
I3257
ssg11
(tRp2448
S'SAT_RATE'
p2449
g11
(tRp2450
S'MEAN_CACHE_HIT'
p2451
F0.34907777777777776
sS'MEAN_SERVER_HIT'
p2452
F0.91423611111111114
sS'MEAN_SERVER_CACHE_HITS'
p2453
F0.28186388888888891
sS'MEAN'
p2454
F0.98145000000000004
ssS'CACHE_HIT_RATIO'
p2455
g11
(tRp2456
S'MEAN_OFF_PATH'
p2457
F0.23889769631458707
sS'MEAN_ON_PATH'
p2458
F0.11018008146319069
sg2454
F0.34907777777777776
ssS'OVERHEAD'
p2459
g11
(tRp2460
S'INTEREST_HOPS'
p2461
F6.9660677795325512
sS'SUCCESS_RATE'
p2462
F0.40604695996409201
sS'QUOTA_USED_FAILURE'
p2463
F1
sS'FAILURE_RATE'
p2464
F0.59395304003590799
sS'QUOTA_USED_SUCCESS'
p2465
F1
sS'NUM_SUCCESS_FIRST_TIME'
p2466
F0.406360396832116
sg2454
F1.2982774919195521
ssS'LATENCY'
p2467
g11
(tRp2468
g2454
F66.127911111111118
sstp2469
a(g11
(tRp2470
S'workload'
p2471
g11
(tRp2472
S'n_contents'
p2473
I10000
sS'name'
p2474
S'STATIONARY'
p2475
sS'n_warmup'
p2476
I720000
sS'rate'
p2477
I100
sS'n_measured'
p2478
I360000
sS'alpha'
p2479
F0.80000000000000004
ssS'cache_policy'
p2480
g11
(tRp2481
g2474
S'LRU'
p2482
ssS'desc'
p2483
S'strategy zipf: 0.8'
p2484
sS'strategy'
p2485
g11
(tRp2486
S'extra_quota'
p2487
I1
sS'fan_out'
p2488
I1
sg2474
S'TFIB_SC'
p2489
ssS'content_placement'
p2490
g11
(tRp2491
g2474
S'UNIFORM'
p2492
ssS'joint_cache_rsn_placement'
p2493
g11
(tRp2494
S'network_cache'
p2495
F0.29999999999999999
sS'network_rsn'
p2496
F38.399999999999999
sg2474
S'CACHE_ALL_RSN_ALL'
p2497
sS'rsn_cache_ratio'
p2498
I128
ssS'warmup_strategy'
p2499
g11
(tRp2500
g2487
I10000
sg2488
I10
sg2474
g2489
ssS'topology'
p2501
g11
(tRp2502
S'ext_delay'
p2503
I0
sS'source_ratio'
p2504
F0.10000000000000001
sg2474
S'ROCKET_FUEL'
p2505
sS'asn'
p2506
I3257
ssg11
(tRp2507
S'SAT_RATE'
p2508
g11
(tRp2509
S'MEAN_CACHE_HIT'
p2510
F0.62955555555555553
sS'MEAN_SERVER_HIT'
p2511
F0.61031944444444441
sS'MEAN_SERVER_CACHE_HITS'
p2512
F0.24998055555555557
sS'MEAN'
p2513
F0.98989444444444441
ssS'CACHE_HIT_RATIO'
p2514
g11
(tRp2515
S'MEAN_OFF_PATH'
p2516
F0.28786055942019245
sS'MEAN_ON_PATH'
p2517
F0.34169499613536308
sg2513
F0.62955555555555553
ssS'OVERHEAD'
p2518
g11
(tRp2519
S'INTEREST_HOPS'
p2520
F6.413237101598936
sS'SUCCESS_RATE'
p2521
F0.61249182326686635
sS'QUOTA_USED_FAILURE'
p2522
F1
sS'FAILURE_RATE'
p2523
F0.3875081767331337
sS'QUOTA_USED_SUCCESS'
p2524
F1
sS'NUM_SUCCESS_FIRST_TIME'
p2525
F0.61168093304956828
sg2513
F1.36910501119648
ssS'LATENCY'
p2526
g11
(tRp2527
g2513
F43.079538888888891
sstp2528
a(g11
(tRp2529
S'workload'
p2530
g11
(tRp2531
S'n_contents'
p2532
I10000
sS'name'
p2533
S'STATIONARY'
p2534
sS'n_warmup'
p2535
I720000
sS'rate'
p2536
I100
sS'n_measured'
p2537
I360000
sS'alpha'
p2538
F1
ssS'cache_policy'
p2539
g11
(tRp2540
g2533
S'LRU'
p2541
ssS'desc'
p2542
S'strategy zipf: 1.0'
p2543
sS'strategy'
p2544
g11
(tRp2545
S'extra_quota'
p2546
I1
sS'fan_out'
p2547
I1
sg2533
S'TFIB_SC'
p2548
ssS'content_placement'
p2549
g11
(tRp2550
g2533
S'UNIFORM'
p2551
ssS'joint_cache_rsn_placement'
p2552
g11
(tRp2553
S'network_cache'
p2554
F0.29999999999999999
sS'network_rsn'
p2555
F38.399999999999999
sg2533
S'CACHE_ALL_RSN_ALL'
p2556
sS'rsn_cache_ratio'
p2557
I128
ssS'warmup_strategy'
p2558
g11
(tRp2559
g2546
I10000
sg2547
I10
sg2533
g2548
ssS'topology'
p2560
g11
(tRp2561
S'ext_delay'
p2562
I0
sS'source_ratio'
p2563
F0.10000000000000001
sg2533
S'ROCKET_FUEL'
p2564
sS'asn'
p2565
I3257
ssg11
(tRp2566
S'SAT_RATE'
p2567
g11
(tRp2568
S'MEAN_CACHE_HIT'
p2569
F0.80146388888888886
sS'MEAN_SERVER_HIT'
p2570
F0.37122777777777777
sS'MEAN_SERVER_CACHE_HITS'
p2571
F0.17753888888888888
sS'MEAN'
p2572
F0.99515277777777778
ssS'CACHE_HIT_RATIO'
p2573
g11
(tRp2574
S'MEAN_OFF_PATH'
p2575
F0.27631351425613915
sS'MEAN_ON_PATH'
p2576
F0.52515037463274972
sg2572
F0.80146388888888886
ssS'OVERHEAD'
p2577
g11
(tRp2578
S'INTEREST_HOPS'
p2579
F5.6877922150423581
sS'SUCCESS_RATE'
p2580
F0.73525314869535319
sS'QUOTA_USED_FAILURE'
p2581
F1
sS'FAILURE_RATE'
p2582
F0.26474685130464681
sS'QUOTA_USED_SUCCESS'
p2583
F1
sS'NUM_SUCCESS_FIRST_TIME'
p2584
F0.73644010029943763
sg2572
F1.341259717240513
ssS'LATENCY'
p2585
g11
(tRp2586
g2572
F25.797975000000001
sstp2587
a(g11
(tRp2588
S'workload'
p2589
g11
(tRp2590
S'n_contents'
p2591
I10000
sS'name'
p2592
S'STATIONARY'
p2593
sS'n_warmup'
p2594
I720000
sS'rate'
p2595
I100
sS'n_measured'
p2596
I360000
sS'alpha'
p2597
F0.5
ssS'cache_policy'
p2598
g11
(tRp2599
g2592
S'LRU'
p2600
ssS'desc'
p2601
S'strategy zipf: 0.5'
p2602
sS'strategy'
p2603
g11
(tRp2604
S'extra_quota'
p2605
I1
sS'fan_out'
p2606
I1
sg2592
S'TFIB_SC'
p2607
ssS'content_placement'
p2608
g11
(tRp2609
g2592
S'UNIFORM'
p2610
ssS'joint_cache_rsn_placement'
p2611
g11
(tRp2612
S'network_cache'
p2613
F0.29999999999999999
sS'network_rsn'
p2614
F38.399999999999999
sg2592
S'CACHE_ALL_RSN_ALL'
p2615
sS'rsn_cache_ratio'
p2616
I128
ssS'warmup_strategy'
p2617
g11
(tRp2618
g2605
I10000
sg2606
I10
sg2592
g2607
ssS'topology'
p2619
g11
(tRp2620
S'ext_delay'
p2621
I0
sS'source_ratio'
p2622
F0.10000000000000001
sg2592
S'ROCKET_FUEL'
p2623
sS'asn'
p2624
I3257
ssg11
(tRp2625
S'SAT_RATE'
p2626
g11
(tRp2627
S'MEAN_CACHE_HIT'
p2628
F0.40247777777777777
sS'MEAN_SERVER_HIT'
p2629
F0.86927500000000002
sS'MEAN_SERVER_CACHE_HITS'
p2630
F0.28846666666666665
sS'MEAN'
p2631
F0.98328611111111108
ssS'CACHE_HIT_RATIO'
p2632
g11
(tRp2633
S'MEAN_OFF_PATH'
p2634
F0.2486157555954053
sS'MEAN_ON_PATH'
p2635
F0.15386202218237247
sg2631
F0.40247777777777777
ssS'OVERHEAD'
p2636
g11
(tRp2637
S'INTEREST_HOPS'
p2638
F6.8966165041824041
sS'SUCCESS_RATE'
p2639
F0.4439678080631691
sS'QUOTA_USED_FAILURE'
p2640
F1
sS'FAILURE_RATE'
p2641
F0.55603219193683096
sS'QUOTA_USED_SUCCESS'
p2642
F1
sS'NUM_SUCCESS_FIRST_TIME'
p2643
F0.44414739367745321
sg2631
F1.315376727130964
ssS'LATENCY'
p2644
g11
(tRp2645
g2631
F62.64160833333333
sstp2646
a(g11
(tRp2647
S'workload'
p2648
g11
(tRp2649
S'n_contents'
p2650
I10000
sS'name'
p2651
S'STATIONARY'
p2652
sS'n_warmup'
p2653
I720000
sS'rate'
p2654
I100
sS'n_measured'
p2655
I360000
sS'alpha'
p2656
F0.59999999999999998
ssS'cache_policy'
p2657
g11
(tRp2658
g2651
S'LRU'
p2659
ssS'desc'
p2660
S'strategy zipf: 0.6'
p2661
sS'strategy'
p2662
g11
(tRp2663
S'extra_quota'
p2664
I1
sS'fan_out'
p2665
I1
sg2651
S'TFIB_SC'
p2666
ssS'content_placement'
p2667
g11
(tRp2668
g2651
S'UNIFORM'
p2669
ssS'joint_cache_rsn_placement'
p2670
g11
(tRp2671
S'network_cache'
p2672
F0.29999999999999999
sS'network_rsn'
p2673
F38.399999999999999
sg2651
S'CACHE_ALL_RSN_ALL'
p2674
sS'rsn_cache_ratio'
p2675
I128
ssS'warmup_strategy'
p2676
g11
(tRp2677
g2664
I10000
sg2665
I10
sg2651
g2666
ssS'topology'
p2678
g11
(tRp2679
S'ext_delay'
p2680
I0
sS'source_ratio'
p2681
F0.10000000000000001
sg2651
S'ROCKET_FUEL'
p2682
sS'asn'
p2683
I3257
ssg11
(tRp2684
S'SAT_RATE'
p2685
g11
(tRp2686
S'MEAN_CACHE_HIT'
p2687
F0.46763611111111109
sS'MEAN_SERVER_HIT'
p2688
F0.80314166666666664
sS'MEAN_SERVER_CACHE_HITS'
p2689
F0.28521666666666667
sS'MEAN'
p2690
F0.98556111111111111
ssS'CACHE_HIT_RATIO'
p2691
g11
(tRp2692
S'MEAN_OFF_PATH'
p2693
F0.25899274285214652
sS'MEAN_ON_PATH'
p2694
F0.20864336825896457
sg2690
F0.46763611111111109
ssS'OVERHEAD'
p2695
g11
(tRp2696
S'INTEREST_HOPS'
p2697
F6.7413092372647281
sS'SUCCESS_RATE'
p2698
F0.48951405224465749
sS'QUOTA_USED_FAILURE'
p2699
F1
sS'FAILURE_RATE'
p2700
F0.51048594775534251
sS'QUOTA_USED_SUCCESS'
p2701
F1
sS'NUM_SUCCESS_FIRST_TIME'
p2702
F0.48902405446672176
sg2690
F1.3309113251898241
ssS'LATENCY'
p2703
g11
(tRp2704
g2690
F57.645158333333335
sstp2705
a(g11
(tRp2706
S'workload'
p2707
g11
(tRp2708
S'n_contents'
p2709
I10000
sS'name'
p2710
S'STATIONARY'
p2711
sS'n_warmup'
p2712
I720000
sS'rate'
p2713
I100
sS'n_measured'
p2714
I360000
sS'alpha'
p2715
F0.69999999999999996
ssS'cache_policy'
p2716
g11
(tRp2717
g2710
S'LRU'
p2718
ssS'desc'
p2719
S'strategy zipf: 0.7'
p2720
sS'strategy'
p2721
g11
(tRp2722
S'extra_quota'
p2723
I1
sS'fan_out'
p2724
I1
sg2710
S'TFIB_SC'
p2725
ssS'content_placement'
p2726
g11
(tRp2727
g2710
S'UNIFORM'
p2728
ssS'joint_cache_rsn_placement'
p2729
g11
(tRp2730
S'network_cache'
p2731
F0.29999999999999999
sS'network_rsn'
p2732
F38.399999999999999
sg2710
S'CACHE_ALL_RSN_ALL'
p2733
sS'rsn_cache_ratio'
p2734
I128
ssS'warmup_strategy'
p2735
g11
(tRp2736
g2723
I10000
sg2724
I10
sg2710
g2725
ssS'topology'
p2737
g11
(tRp2738
S'ext_delay'
p2739
I0
sS'source_ratio'
p2740
F0.10000000000000001
sg2710
S'ROCKET_FUEL'
p2741
sS'asn'
p2742
I3257
ssg11
(tRp2743
S'SAT_RATE'
p2744
g11
(tRp2745
S'MEAN_CACHE_HIT'
p2746
F0.54476111111111114
sS'MEAN_SERVER_HIT'
p2747
F0.72175555555555559
sS'MEAN_SERVER_CACHE_HITS'
p2748
F0.27894722222222224
sS'MEAN'
p2749
F0.9875694444444445
ssS'CACHE_HIT_RATIO'
p2750
g11
(tRp2751
S'MEAN_OFF_PATH'
p2752
F0.2746224333583363
sS'MEAN_ON_PATH'
p2753
F0.27013867775277484
sg2749
F0.54476111111111114
ssS'OVERHEAD'
p2754
g11
(tRp2755
S'INTEREST_HOPS'
p2756
F6.5942170030236973
sS'SUCCESS_RATE'
p2757
F0.54990946790491213
sS'QUOTA_USED_FAILURE'
p2758
F1
sS'FAILURE_RATE'
p2759
F0.45009053209508793
sS'QUOTA_USED_SUCCESS'
p2760
F1
sS'NUM_SUCCESS_FIRST_TIME'
p2761
F0.54862070629312354
sg2749
F1.354697981857816
ssS'LATENCY'
p2762
g11
(tRp2763
g2749
F51.497258333333335
sstp2764
a(g11
(tRp2765
S'workload'
p2766
g11
(tRp2767
S'n_contents'
p2768
I10000
sS'name'
p2769
S'STATIONARY'
p2770
sS'n_warmup'
p2771
I720000
sS'rate'
p2772
I100
sS'n_measured'
p2773
I360000
sS'alpha'
p2774
F0.90000000000000002
ssS'cache_policy'
p2775
g11
(tRp2776
g2769
S'LRU'
p2777
ssS'desc'
p2778
S'strategy zipf: 0.9'
p2779
sS'strategy'
p2780
g11
(tRp2781
S'extra_quota'
p2782
I1
sS'fan_out'
p2783
I1
sg2769
S'TFIB_SC'
p2784
ssS'content_placement'
p2785
g11
(tRp2786
g2769
S'UNIFORM'
p2787
ssS'joint_cache_rsn_placement'
p2788
g11
(tRp2789
S'network_cache'
p2790
F0.29999999999999999
sS'network_rsn'
p2791
F38.399999999999999
sg2769
S'CACHE_ALL_RSN_ALL'
p2792
sS'rsn_cache_ratio'
p2793
I128
ssS'warmup_strategy'
p2794
g11
(tRp2795
g2782
I10000
sg2783
I10
sg2769
g2784
ssS'topology'
p2796
g11
(tRp2797
S'ext_delay'
p2798
I0
sS'source_ratio'
p2799
F0.10000000000000001
sg2769
S'ROCKET_FUEL'
p2800
sS'asn'
p2801
I3257
ssg11
(tRp2802
S'SAT_RATE'
p2803
g11
(tRp2804
S'MEAN_CACHE_HIT'
p2805
F0.72058055555555556
sS'MEAN_SERVER_HIT'
p2806
F0.49231944444444442
sS'MEAN_SERVER_CACHE_HITS'
p2807
F0.2199861111111111
sS'MEAN'
p2808
F0.99291388888888887
ssS'CACHE_HIT_RATIO'
p2809
g11
(tRp2810
S'MEAN_OFF_PATH'
p2811
F0.26649169575214593
sS'MEAN_ON_PATH'
p2812
F0.45408885980340963
sg2808
F0.72058055555555556
ssS'OVERHEAD'
p2813
g11
(tRp2814
S'INTEREST_HOPS'
p2815
F6.0406071915154333
sS'SUCCESS_RATE'
p2816
F0.6599086805920017
sS'QUOTA_USED_FAILURE'
p2817
F1
sS'FAILURE_RATE'
p2818
F0.3400913194079983
sS'QUOTA_USED_SUCCESS'
p2819
F1
sS'NUM_SUCCESS_FIRST_TIME'
p2820
F0.65994915086344474
sg2808
F1.3375082878956159
ssS'LATENCY'
p2821
g11
(tRp2822
g2808
F34.738308333333336
sstp2823
atRp2824
sb.