ccopy_reg
_reconstructor
p1
(cicarus.results.readwrite
ResultSet
p2
c__builtin__
object
p3
NtRp4
(dp5
S'attr'
p6
(dp7
sS'_results'
p8
ccollections
deque
p9
((lp10
(cicarus.util
Tree
p11
(tRp12
S'workload'
p13
g11
(tRp14
S'n_contents'
p15
I10000
sS'name'
p16
S'STATIONARY'
p17
sS'n_warmup'
p18
I720000
sS'rate'
p19
I100
sS'n_measured'
p20
I360000
sS'alpha'
p21
F0.69999999999999996
ssS'cache_policy'
p22
g11
(tRp23
g16
S'LRU'
p24
ssS'desc'
p25
S'extra_quota: 1'
p26
sS'strategy'
p27
g11
(tRp28
S'extra_quota'
p29
I1
sS'fan_out'
p30
I1
sg16
S'TFIB_SC'
p31
ssS'content_placement'
p32
g11
(tRp33
g16
S'UNIFORM'
p34
ssS'joint_cache_rsn_placement'
p35
g11
(tRp36
S'network_cache'
p37
F0.29999999999999999
sS'network_rsn'
p38
F38.399999999999999
sg16
S'CACHE_ALL_RSN_ALL'
p39
sS'rsn_cache_ratio'
p40
I128
ssS'warmup_strategy'
p41
g11
(tRp42
g29
I1000000
sg30
I10
sg16
g31
ssS'topology'
p43
g11
(tRp44
S'ext_delay'
p45
I0
sS'source_ratio'
p46
F0.10000000000000001
sg16
S'ROCKET_FUEL'
p47
sS'asn'
p48
I3257
ssg11
(tRp49
S'SAT_RATE'
p50
g11
(tRp51
S'MEAN_CACHE_HIT'
p52
F0.54308333333333336
sS'MEAN_SERVER_HIT'
p53
F0.76856111111111114
sS'MEAN_SERVER_CACHE_HITS'
p54
F0.32483055555555557
sS'MEAN'
p55
F0.98681388888888888
ssS'CACHE_HIT_RATIO'
p56
g11
(tRp57
S'MEAN_OFF_PATH'
p58
F0.27747187584711303
sS'MEAN_ON_PATH'
p59
F0.26561145748622034
sg55
F0.54308333333333336
ssS'OVERHEAD'
p60
g11
(tRp61
S'INTEREST_HOPS'
p62
F6.5242010623414863
sS'SUCCESS_RATE'
p63
F0.53602738775415792
sS'QUOTA_USED_FAILURE'
p64
F1
sS'FAILURE_RATE'
p65
F0.46397261224584213
sS'QUOTA_USED_SUCCESS'
p66
F1
sS'NUM_SUCCESS_FIRST_TIME'
p67
F0.53495903364746267
sg55
F1.3726527291817381
ssS'LATENCY'
p68
g11
(tRp69
g55
F24.570186111111113
sstp70
a(g11
(tRp71
S'workload'
p72
g11
(tRp73
S'n_contents'
p74
I10000
sS'name'
p75
S'STATIONARY'
p76
sS'n_warmup'
p77
I720000
sS'rate'
p78
I100
sS'n_measured'
p79
I360000
sS'alpha'
p80
F0.69999999999999996
ssS'cache_policy'
p81
g11
(tRp82
g75
S'LRU'
p83
ssS'desc'
p84
S'extra_quota: 1'
p85
sS'strategy'
p86
g11
(tRp87
S'extra_quota'
p88
I1
sS'fan_out'
p89
I1
sg75
S'TFIB_DC'
p90
ssS'content_placement'
p91
g11
(tRp92
g75
S'UNIFORM'
p93
ssS'joint_cache_rsn_placement'
p94
g11
(tRp95
S'network_cache'
p96
F0.29999999999999999
sS'network_rsn'
p97
F38.399999999999999
sg75
S'CACHE_ALL_RSN_ALL'
p98
sS'rsn_cache_ratio'
p99
I128
ssS'warmup_strategy'
p100
g11
(tRp101
g88
I1000000
sg89
I10
sg75
g90
ssS'topology'
p102
g11
(tRp103
S'ext_delay'
p104
I0
sS'source_ratio'
p105
F0.10000000000000001
sg75
S'ROCKET_FUEL'
p106
sS'asn'
p107
I3257
ssg11
(tRp108
S'SAT_RATE'
p109
g11
(tRp110
S'MEAN_CACHE_HIT'
p111
F0.55242777777777774
sS'MEAN_SERVER_HIT'
p112
F0.38508333333333333
sS'MEAN_SERVER_CACHE_HITS'
p113
F0.080833333333333326
sS'MEAN'
p114
F0.85667777777777776
ssS'CACHE_HIT_RATIO'
p115
g11
(tRp116
S'MEAN_OFF_PATH'
p117
F0.40301448279131508
sS'MEAN_ON_PATH'
p118
F0.14941329498646266
sg114
F0.55242777777777774
ssS'OVERHEAD'
p119
g11
(tRp120
S'INTEREST_HOPS'
p121
F6.4572022412160672
sS'SUCCESS_RATE'
p122
F0.59140879901909849
sS'QUOTA_USED_FAILURE'
p123
F2.9864886156485051
sS'FAILURE_RATE'
p124
F0.40859120098090151
sS'QUOTA_USED_SUCCESS'
p125
F6.929127924588844
sS'NUM_SUCCESS_FIRST_TIME'
p126
F0.59360833013419145
sg114
F1.1240775087223254
ssS'LATENCY'
p127
g11
(tRp128
g114
F14.806519444444444
sstp129
a(g11
(tRp130
S'workload'
p131
g11
(tRp132
S'n_contents'
p133
I10000
sS'name'
p134
S'STATIONARY'
p135
sS'n_warmup'
p136
I720000
sS'rate'
p137
I100
sS'n_measured'
p138
I360000
sS'alpha'
p139
F0.69999999999999996
ssS'cache_policy'
p140
g11
(tRp141
g134
S'LRU'
p142
ssS'desc'
p143
S'extra_quota: 4'
p144
sS'strategy'
p145
g11
(tRp146
S'extra_quota'
p147
I4
sS'fan_out'
p148
I1
sg134
S'TFIB_DC'
p149
ssS'content_placement'
p150
g11
(tRp151
g134
S'UNIFORM'
p152
ssS'joint_cache_rsn_placement'
p153
g11
(tRp154
S'network_cache'
p155
F0.29999999999999999
sS'network_rsn'
p156
F38.399999999999999
sg134
S'CACHE_ALL_RSN_ALL'
p157
sS'rsn_cache_ratio'
p158
I128
ssS'warmup_strategy'
p159
g11
(tRp160
g147
I1000000
sg148
I10
sg134
g149
ssS'topology'
p161
g11
(tRp162
S'ext_delay'
p163
I0
sS'source_ratio'
p164
F0.10000000000000001
sg134
S'ROCKET_FUEL'
p165
sS'asn'
p166
I3257
ssg11
(tRp167
S'SAT_RATE'
p168
g11
(tRp169
S'MEAN_CACHE_HIT'
p170
F0.54791111111111113
sS'MEAN_SERVER_HIT'
p171
F0.63998333333333335
sS'MEAN_SERVER_CACHE_HITS'
p172
F0.23316666666666666
sS'MEAN'
p173
F0.95472777777777773
ssS'CACHE_HIT_RATIO'
p174
g11
(tRp175
S'MEAN_OFF_PATH'
p176
F0.31712741031049335
sS'MEAN_ON_PATH'
p177
F0.23078370080061777
sg173
F0.54791111111111113
ssS'OVERHEAD'
p178
g11
(tRp179
S'INTEREST_HOPS'
p180
F6.5161127953867011
sS'SUCCESS_RATE'
p181
F0.55340778089593257
sS'QUOTA_USED_FAILURE'
p182
F2.7742617284304325
sS'FAILURE_RATE'
p183
F0.44659221910406743
sS'QUOTA_USED_SUCCESS'
p184
F5.7181862322434833
sS'NUM_SUCCESS_FIRST_TIME'
p185
F0.55362796565335937
sg173
F1.2799430902351456
ssS'LATENCY'
p186
g11
(tRp187
g173
F21.681933333333333
sstp188
a(g11
(tRp189
S'workload'
p190
g11
(tRp191
S'n_contents'
p192
I10000
sS'name'
p193
S'STATIONARY'
p194
sS'n_warmup'
p195
I720000
sS'rate'
p196
I100
sS'n_measured'
p197
I360000
sS'alpha'
p198
F0.69999999999999996
ssS'cache_policy'
p199
g11
(tRp200
g193
S'LRU'
p201
ssS'desc'
p202
S'extra_quota: 2'
p203
sS'strategy'
p204
g11
(tRp205
S'extra_quota'
p206
I2
sS'fan_out'
p207
I1
sg193
S'TFIB_DC'
p208
ssS'content_placement'
p209
g11
(tRp210
g193
S'UNIFORM'
p211
ssS'joint_cache_rsn_placement'
p212
g11
(tRp213
S'network_cache'
p214
F0.29999999999999999
sS'network_rsn'
p215
F38.399999999999999
sg193
S'CACHE_ALL_RSN_ALL'
p216
sS'rsn_cache_ratio'
p217
I128
ssS'warmup_strategy'
p218
g11
(tRp219
g206
I1000000
sg207
I10
sg193
g208
ssS'topology'
p220
g11
(tRp221
S'ext_delay'
p222
I0
sS'source_ratio'
p223
F0.10000000000000001
sg193
S'ROCKET_FUEL'
p224
sS'asn'
p225
I3257
ssg11
(tRp226
S'SAT_RATE'
p227
g11
(tRp228
S'MEAN_CACHE_HIT'
p229
F0.5494444444444444
sS'MEAN_SERVER_HIT'
p230
F0.50610833333333338
sS'MEAN_SERVER_CACHE_HITS'
p231
F0.1497111111111111
sS'MEAN'
p232
F0.90584166666666666
ssS'CACHE_HIT_RATIO'
p233
g11
(tRp234
S'MEAN_OFF_PATH'
p235
F0.35981673635983252
sS'MEAN_ON_PATH'
p236
F0.18962770808461188
sg232
F0.5494444444444444
ssS'OVERHEAD'
p237
g11
(tRp238
S'INTEREST_HOPS'
p239
F6.4674995323563413
sS'SUCCESS_RATE'
p240
F0.57463273247042013
sS'QUOTA_USED_FAILURE'
p241
F2.8476965067953093
sS'FAILURE_RATE'
p242
F0.42536726752957993
sS'QUOTA_USED_SUCCESS'
p243
F6.3748135903925718
sS'NUM_SUCCESS_FIRST_TIME'
p244
F0.57681322360507747
sg232
F1.1983698402038621
ssS'LATENCY'
p245
g11
(tRp246
g232
F18.161169444444443
sstp247
a(g11
(tRp248
S'workload'
p249
g11
(tRp250
S'n_contents'
p251
I10000
sS'name'
p252
S'STATIONARY'
p253
sS'n_warmup'
p254
I720000
sS'rate'
p255
I100
sS'n_measured'
p256
I360000
sS'alpha'
p257
F0.69999999999999996
ssS'cache_policy'
p258
g11
(tRp259
g252
S'LRU'
p260
ssS'desc'
p261
S'extra_quota: 3'
p262
sS'strategy'
p263
g11
(tRp264
S'extra_quota'
p265
I3
sS'fan_out'
p266
I1
sg252
S'TFIB_DC'
p267
ssS'content_placement'
p268
g11
(tRp269
g252
S'UNIFORM'
p270
ssS'joint_cache_rsn_placement'
p271
g11
(tRp272
S'network_cache'
p273
F0.29999999999999999
sS'network_rsn'
p274
F38.399999999999999
sg252
S'CACHE_ALL_RSN_ALL'
p275
sS'rsn_cache_ratio'
p276
I128
ssS'warmup_strategy'
p277
g11
(tRp278
g265
I1000000
sg266
I10
sg252
g267
ssS'topology'
p279
g11
(tRp280
S'ext_delay'
p281
I0
sS'source_ratio'
p282
F0.10000000000000001
sg252
S'ROCKET_FUEL'
p283
sS'asn'
p284
I3257
ssg11
(tRp285
S'SAT_RATE'
p286
g11
(tRp287
S'MEAN_CACHE_HIT'
p288
F0.54857222222222224
sS'MEAN_SERVER_HIT'
p289
F0.58556944444444448
sS'MEAN_SERVER_CACHE_HITS'
p290
F0.19727222222222221
sS'MEAN'
p291
F0.93686944444444442
ssS'CACHE_HIT_RATIO'
p292
g11
(tRp293
S'MEAN_OFF_PATH'
p294
F0.32983582787766569
sS'MEAN_ON_PATH'
p295
F0.21873639434455655
sg291
F0.54857222222222224
ssS'OVERHEAD'
p296
g11
(tRp297
S'INTEREST_HOPS'
p298
F6.496594746688884
sS'SUCCESS_RATE'
p299
F0.5584870812457019
sS'QUOTA_USED_FAILURE'
p300
F2.7670296657102647
sS'FAILURE_RATE'
p301
F0.44151291875429804
sS'QUOTA_USED_SUCCESS'
p302
F6.0199422105261275
sS'NUM_SUCCESS_FIRST_TIME'
p303
F0.56043369118196873
sg291
F1.2441286435617438
ssS'LATENCY'
p304
g11
(tRp305
g291
F20.081752777777776
sstp306
a(g11
(tRp307
S'workload'
p308
g11
(tRp309
S'n_contents'
p310
I10000
sS'name'
p311
S'STATIONARY'
p312
sS'n_warmup'
p313
I720000
sS'rate'
p314
I100
sS'n_measured'
p315
I360000
sS'alpha'
p316
F0.69999999999999996
ssS'cache_policy'
p317
g11
(tRp318
g311
S'LRU'
p319
ssS'desc'
p320
S'extra_quota: 2'
p321
sS'strategy'
p322
g11
(tRp323
S'extra_quota'
p324
I2
sS'fan_out'
p325
I1
sg311
S'TFIB_SC'
p326
ssS'content_placement'
p327
g11
(tRp328
g311
S'UNIFORM'
p329
ssS'joint_cache_rsn_placement'
p330
g11
(tRp331
S'network_cache'
p332
F0.29999999999999999
sS'network_rsn'
p333
F38.399999999999999
sg311
S'CACHE_ALL_RSN_ALL'
p334
sS'rsn_cache_ratio'
p335
I128
ssS'warmup_strategy'
p336
g11
(tRp337
g324
I1000000
sg325
I10
sg311
g326
ssS'topology'
p338
g11
(tRp339
S'ext_delay'
p340
I0
sS'source_ratio'
p341
F0.10000000000000001
sg311
S'ROCKET_FUEL'
p342
sS'asn'
p343
I3257
ssg11
(tRp344
S'SAT_RATE'
p345
g11
(tRp346
S'MEAN_CACHE_HIT'
p347
F0.54332499999999995
sS'MEAN_SERVER_HIT'
p348
F0.80818333333333336
sS'MEAN_SERVER_CACHE_HITS'
p349
F0.35166111111111109
sS'MEAN'
p350
F0.99984722222222222
ssS'CACHE_HIT_RATIO'
p351
g11
(tRp352
S'MEAN_OFF_PATH'
p353
F0.27342495935611033
sS'MEAN_ON_PATH'
p354
F0.26990004064388962
sg350
F0.54332499999999995
ssS'OVERHEAD'
p355
g11
(tRp356
S'INTEREST_HOPS'
p357
F6.5716456680881805
sS'SUCCESS_RATE'
p358
F0.53545352085068854
sS'QUOTA_USED_FAILURE'
p359
F1
sS'FAILURE_RATE'
p360
F0.46454647914931152
sS'QUOTA_USED_SUCCESS'
p361
F1
sS'NUM_SUCCESS_FIRST_TIME'
p362
F0.53071458753557788
sg350
F1.3938240564530693
ssS'LATENCY'
p363
g11
(tRp364
g350
F26.036647222222221
sstp365
a(g11
(tRp366
S'workload'
p367
g11
(tRp368
S'n_contents'
p369
I10000
sS'name'
p370
S'STATIONARY'
p371
sS'n_warmup'
p372
I720000
sS'rate'
p373
I100
sS'n_measured'
p374
I360000
sS'alpha'
p375
F0.69999999999999996
ssS'cache_policy'
p376
g11
(tRp377
g370
S'LRU'
p378
ssS'desc'
p379
S'extra_quota: 3'
p380
sS'strategy'
p381
g11
(tRp382
S'extra_quota'
p383
I3
sS'fan_out'
p384
I1
sg370
S'TFIB_SC'
p385
ssS'content_placement'
p386
g11
(tRp387
g370
S'UNIFORM'
p388
ssS'joint_cache_rsn_placement'
p389
g11
(tRp390
S'network_cache'
p391
F0.29999999999999999
sS'network_rsn'
p392
F38.399999999999999
sg370
S'CACHE_ALL_RSN_ALL'
p393
sS'rsn_cache_ratio'
p394
I128
ssS'warmup_strategy'
p395
g11
(tRp396
g383
I1000000
sg384
I10
sg370
g385
ssS'topology'
p397
g11
(tRp398
S'ext_delay'
p399
I0
sS'source_ratio'
p400
F0.10000000000000001
sg370
S'ROCKET_FUEL'
p401
sS'asn'
p402
I3257
ssg11
(tRp403
S'SAT_RATE'
p404
g11
(tRp405
S'MEAN_CACHE_HIT'
p406
F0.53732777777777774
sS'MEAN_SERVER_HIT'
p407
F0.80474166666666669
sS'MEAN_SERVER_CACHE_HITS'
p408
F0.34206944444444443
sS'MEAN'
p409
F1
ssS'CACHE_HIT_RATIO'
p410
g11
(tRp411
S'MEAN_OFF_PATH'
p412
F0.27775098572892198
sS'MEAN_ON_PATH'
p413
F0.25957679204885575
sg409
F0.53732777777777774
ssS'OVERHEAD'
p414
g11
(tRp415
S'INTEREST_HOPS'
p416
F6.5599388888888885
sS'SUCCESS_RATE'
p417
F0.53581662958863885
sS'QUOTA_USED_FAILURE'
p418
F1
sS'FAILURE_RATE'
p419
F0.46418337041136115
sS'QUOTA_USED_SUCCESS'
p420
F1
sS'NUM_SUCCESS_FIRST_TIME'
p421
F0.53147863146679297
sg409
F1.3994111111111112
ssS'LATENCY'
p422
g11
(tRp423
g409
F25.925322222222221
sstp424
a(g11
(tRp425
S'workload'
p426
g11
(tRp427
S'n_contents'
p428
I10000
sS'name'
p429
S'STATIONARY'
p430
sS'n_warmup'
p431
I720000
sS'rate'
p432
I100
sS'n_measured'
p433
I360000
sS'alpha'
p434
F0.69999999999999996
ssS'cache_policy'
p435
g11
(tRp436
g429
S'LRU'
p437
ssS'desc'
p438
S'extra_quota: 4'
p439
sS'strategy'
p440
g11
(tRp441
S'extra_quota'
p442
I4
sS'fan_out'
p443
I1
sg429
S'TFIB_SC'
p444
ssS'content_placement'
p445
g11
(tRp446
g429
S'UNIFORM'
p447
ssS'joint_cache_rsn_placement'
p448
g11
(tRp449
S'network_cache'
p450
F0.29999999999999999
sS'network_rsn'
p451
F38.399999999999999
sg429
S'CACHE_ALL_RSN_ALL'
p452
sS'rsn_cache_ratio'
p453
I128
ssS'warmup_strategy'
p454
g11
(tRp455
g442
I1000000
sg443
I10
sg429
g444
ssS'topology'
p456
g11
(tRp457
S'ext_delay'
p458
I0
sS'source_ratio'
p459
F0.10000000000000001
sg429
S'ROCKET_FUEL'
p460
sS'asn'
p461
I3257
ssg11
(tRp462
S'SAT_RATE'
p463
g11
(tRp464
S'MEAN_CACHE_HIT'
p465
F0.53968055555555561
sS'MEAN_SERVER_HIT'
p466
F0.80252500000000004
sS'MEAN_SERVER_CACHE_HITS'
p467
F0.34220555555555554
sS'MEAN'
p468
F1
ssS'CACHE_HIT_RATIO'
p469
g11
(tRp470
S'MEAN_OFF_PATH'
p471
F0.26990815283302361
sS'MEAN_ON_PATH'
p472
F0.269772402722532
sg468
F0.53968055555555561
ssS'OVERHEAD'
p473
g11
(tRp474
S'INTEREST_HOPS'
p475
F6.5418666666666665
sS'SUCCESS_RATE'
p476
F0.52769389155799584
sS'QUOTA_USED_FAILURE'
p477
F1
sS'FAILURE_RATE'
p478
F0.4723061084420041
sS'QUOTA_USED_SUCCESS'
p479
F1
sS'NUM_SUCCESS_FIRST_TIME'
p480
F0.52503436246573798
sg468
F1.384425
ssS'LATENCY'
p481
g11
(tRp482
g468
F25.678047222222222
sstp483
atRp484
sb.