ccopy_reg
_reconstructor
p1
(cicarus.results.readwrite
ResultSet
p2
c__builtin__
object
p3
NtRp4
(dp5
S'attr'
p6
(dp7
sS'_results'
p8
ccollections
deque
p9
((lp10
(cicarus.util
Tree
p11
(tRp12
S'workload'
p13
g11
(tRp14
S'n_contents'
p15
I10000
sS'name'
p16
S'STATIONARY'
p17
sS'n_warmup'
p18
I720000
sS'rate'
p19
I100
sS'n_measured'
p20
I360000
sS'alpha'
p21
F0.69999999999999996
ssS'cache_policy'
p22
g11
(tRp23
g16
S'LRU'
p24
ssS'desc'
p25
S'RSN size sensitivity -> RSN/cache ratio: 2.0'
p26
sS'strategy'
p27
g11
(tRp28
S'extra_quota'
p29
I2
sS'fan_out'
p30
I1
sg16
S'TFIB_DC'
p31
ssS'content_placement'
p32
g11
(tRp33
g16
S'UNIFORM'
p34
ssS'joint_cache_rsn_placement'
p35
g11
(tRp36
S'network_cache'
p37
F0.29999999999999999
sS'network_rsn'
p38
F0.59999999999999998
sg16
S'CACHE_ALL_RSN_ALL'
p39
sS'rsn_cache_ratio'
p40
F2
ssS'warmup_strategy'
p41
g11
(tRp42
g29
I10000
sg30
I10
sg16
g31
ssS'topology'
p43
g11
(tRp44
S'ext_delay'
p45
I0
sS'source_ratio'
p46
F0.10000000000000001
sg16
S'ROCKET_FUEL'
p47
sS'asn'
p48
I3257
ssg11
(tRp49
S'SAT_RATE'
p50
g11
(tRp51
S'MEAN_CACHE_HIT'
p52
F0.19878888888888888
sS'MEAN_SERVER_HIT'
p53
F0.80334722222222221
sS'MEAN_SERVER_CACHE_HITS'
p54
F0.002488888888888889
sS'MEAN'
p55
F0.99964722222222224
ssS'CACHE_HIT_RATIO'
p56
g11
(tRp57
S'MEAN_OFF_PATH'
p58
F0.0027081040776785145
sS'MEAN_ON_PATH'
p59
F0.19608078481121036
sg55
F0.19878888888888888
ssS'OVERHEAD'
p60
g11
(tRp61
S'INTEREST_HOPS'
p62
F6.4840513181038864
sS'SUCCESS_RATE'
p63
F0.092558983666061703
sS'QUOTA_USED_FAILURE'
p64
F1.1066309523809523
sS'FAILURE_RATE'
p65
F0.90744101633393826
sS'QUOTA_USED_SUCCESS'
p66
F1.1323529411764706
sS'NUM_SUCCESS_FIRST_TIME'
p67
F0.092781705507549966
sg55
F1.0029315897552749
ssS'LATENCY'
p68
g11
(tRp69
g55
F37.586497222222221
sstp70
a(g11
(tRp71
S'workload'
p72
g11
(tRp73
S'n_contents'
p74
I10000
sS'name'
p75
S'STATIONARY'
p76
sS'n_warmup'
p77
I720000
sS'rate'
p78
I100
sS'n_measured'
p79
I360000
sS'alpha'
p80
F0.69999999999999996
ssS'cache_policy'
p81
g11
(tRp82
g75
S'LRU'
p83
ssS'desc'
p84
S'RSN size sensitivity -> RSN/cache ratio: 4.0'
p85
sS'strategy'
p86
g11
(tRp87
S'extra_quota'
p88
I2
sS'fan_out'
p89
I1
sg75
S'TFIB_DC'
p90
ssS'content_placement'
p91
g11
(tRp92
g75
S'UNIFORM'
p93
ssS'joint_cache_rsn_placement'
p94
g11
(tRp95
S'network_cache'
p96
F0.29999999999999999
sS'network_rsn'
p97
F1.2
sg75
S'CACHE_ALL_RSN_ALL'
p98
sS'rsn_cache_ratio'
p99
F4
ssS'warmup_strategy'
p100
g11
(tRp101
g88
I10000
sg89
I10
sg75
g90
ssS'topology'
p102
g11
(tRp103
S'ext_delay'
p104
I0
sS'source_ratio'
p105
F0.10000000000000001
sg75
S'ROCKET_FUEL'
p106
sS'asn'
p107
I3257
ssg11
(tRp108
S'SAT_RATE'
p109
g11
(tRp110
S'MEAN_CACHE_HIT'
p111
F0.20403611111111111
sS'MEAN_SERVER_HIT'
p112
F0.8005944444444445
sS'MEAN_SERVER_CACHE_HITS'
p113
F0.0053777777777777782
sS'MEAN'
p114
F0.99925277777777777
ssS'CACHE_HIT_RATIO'
p115
g11
(tRp116
S'MEAN_OFF_PATH'
p117
F0.0056073681038081996
sS'MEAN_ON_PATH'
p118
F0.1984287430073029
sg114
F0.20403611111111111
ssS'OVERHEAD'
p119
g11
(tRp120
S'INTEREST_HOPS'
p121
F6.4536500885383798
sS'SUCCESS_RATE'
p122
F0.10408888489046826
sS'QUOTA_USED_FAILURE'
p123
F1.1214446201737209
sS'FAILURE_RATE'
p124
F0.8959111151095317
sS'QUOTA_USED_SUCCESS'
p125
F1.1369922212618842
sS'NUM_SUCCESS_FIRST_TIME'
p126
F0.10421427918456898
sg114
F1.0063380692795449
ssS'LATENCY'
p127
g11
(tRp128
g114
F36.809194444444444
sstp129
a(g11
(tRp130
S'workload'
p131
g11
(tRp132
S'n_contents'
p133
I10000
sS'name'
p134
S'STATIONARY'
p135
sS'n_warmup'
p136
I720000
sS'rate'
p137
I100
sS'n_measured'
p138
I360000
sS'alpha'
p139
F0.69999999999999996
ssS'cache_policy'
p140
g11
(tRp141
g134
S'LRU'
p142
ssS'desc'
p143
S'RSN size sensitivity -> RSN/cache ratio: 2.0'
p144
sS'strategy'
p145
g11
(tRp146
S'extra_quota'
p147
I2
sS'fan_out'
p148
I1
sg134
S'TFIB_SC'
p149
ssS'content_placement'
p150
g11
(tRp151
g134
S'UNIFORM'
p152
ssS'joint_cache_rsn_placement'
p153
g11
(tRp154
S'network_cache'
p155
F0.29999999999999999
sS'network_rsn'
p156
F0.59999999999999998
sg134
S'CACHE_ALL_RSN_ALL'
p157
sS'rsn_cache_ratio'
p158
F2
ssS'warmup_strategy'
p159
g11
(tRp160
g147
I10000
sg148
I10
sg134
g149
ssS'topology'
p161
g11
(tRp162
S'ext_delay'
p163
I0
sS'source_ratio'
p164
F0.10000000000000001
sg134
S'ROCKET_FUEL'
p165
sS'asn'
p166
I3257
ssg11
(tRp167
S'SAT_RATE'
p168
g11
(tRp169
S'MEAN_CACHE_HIT'
p170
F0.19495000000000001
sS'MEAN_SERVER_HIT'
p171
F0.80766666666666664
sS'MEAN_SERVER_CACHE_HITS'
p172
F0.0026166666666666669
sS'MEAN'
p173
F1
ssS'CACHE_HIT_RATIO'
p174
g11
(tRp175
S'MEAN_OFF_PATH'
p176
F0.0032055011608513278
sS'MEAN_ON_PATH'
p177
F0.19174449883914868
sg173
F0.19495000000000001
ssS'OVERHEAD'
p178
g11
(tRp179
S'INTEREST_HOPS'
p180
F6.4704305555555557
sS'SUCCESS_RATE'
p181
F0.10671011949527869
sS'QUOTA_USED_FAILURE'
p182
F1
sS'FAILURE_RATE'
p183
F0.89328988050472136
sS'QUOTA_USED_SUCCESS'
p184
F1
sS'NUM_SUCCESS_FIRST_TIME'
p185
F0.10689597032540887
sg173
F1.0035472222222221
ssS'LATENCY'
p186
g11
(tRp187
g173
F38.628183333333332
sstp188
a(g11
(tRp189
S'workload'
p190
g11
(tRp191
S'n_contents'
p192
I10000
sS'name'
p193
S'STATIONARY'
p194
sS'n_warmup'
p195
I720000
sS'rate'
p196
I100
sS'n_measured'
p197
I360000
sS'alpha'
p198
F0.69999999999999996
ssS'cache_policy'
p199
g11
(tRp200
g193
S'LRU'
p201
ssS'desc'
p202
S'RSN size sensitivity -> RSN/cache ratio: 4.0'
p203
sS'strategy'
p204
g11
(tRp205
S'extra_quota'
p206
I2
sS'fan_out'
p207
I1
sg193
S'TFIB_SC'
p208
ssS'content_placement'
p209
g11
(tRp210
g193
S'UNIFORM'
p211
ssS'joint_cache_rsn_placement'
p212
g11
(tRp213
S'network_cache'
p214
F0.29999999999999999
sS'network_rsn'
p215
F1.2
sg193
S'CACHE_ALL_RSN_ALL'
p216
sS'rsn_cache_ratio'
p217
F4
ssS'warmup_strategy'
p218
g11
(tRp219
g206
I10000
sg207
I10
sg193
g208
ssS'topology'
p220
g11
(tRp221
S'ext_delay'
p222
I0
sS'source_ratio'
p223
F0.10000000000000001
sg193
S'ROCKET_FUEL'
p224
sS'asn'
p225
I3257
ssg11
(tRp226
S'SAT_RATE'
p227
g11
(tRp228
S'MEAN_CACHE_HIT'
p229
F0.20097499999999999
sS'MEAN_SERVER_HIT'
p230
F0.80453888888888891
sS'MEAN_SERVER_CACHE_HITS'
p231
F0.0055138888888888885
sS'MEAN'
p232
F1
ssS'CACHE_HIT_RATIO'
p233
g11
(tRp234
S'MEAN_OFF_PATH'
p235
F0.0055140406370429718
sS'MEAN_ON_PATH'
p236
F0.19546095936295702
sg232
F0.20097499999999999
ssS'OVERHEAD'
p237
g11
(tRp238
S'INTEREST_HOPS'
p239
F6.4812138888888891
sS'SUCCESS_RATE'
p240
F0.10484262570079018
sS'QUOTA_USED_FAILURE'
p241
F1
sS'FAILURE_RATE'
p242
F0.89515737429920983
sS'QUOTA_USED_SUCCESS'
p243
F1
sS'NUM_SUCCESS_FIRST_TIME'
p244
F0.10495600646435625
sg232
F1.0065972222222221
ssS'LATENCY'
p245
g11
(tRp246
g232
F37.157802777777775
sstp247
a(g11
(tRp248
S'workload'
p249
g11
(tRp250
S'n_contents'
p251
I10000
sS'name'
p252
S'STATIONARY'
p253
sS'n_warmup'
p254
I720000
sS'rate'
p255
I100
sS'n_measured'
p256
I360000
sS'alpha'
p257
F0.69999999999999996
ssS'cache_policy'
p258
g11
(tRp259
g252
S'LRU'
p260
ssS'desc'
p261
S'RSN size sensitivity -> RSN/cache ratio: 8.0'
p262
sS'strategy'
p263
g11
(tRp264
S'extra_quota'
p265
I2
sS'fan_out'
p266
I1
sg252
S'TFIB_DC'
p267
ssS'content_placement'
p268
g11
(tRp269
g252
S'UNIFORM'
p270
ssS'joint_cache_rsn_placement'
p271
g11
(tRp272
S'network_cache'
p273
F0.29999999999999999
sS'network_rsn'
p274
F2.3999999999999999
sg252
S'CACHE_ALL_RSN_ALL'
p275
sS'rsn_cache_ratio'
p276
F8
ssS'warmup_strategy'
p277
g11
(tRp278
g265
I10000
sg266
I10
sg252
g267
ssS'topology'
p279
g11
(tRp280
S'ext_delay'
p281
I0
sS'source_ratio'
p282
F0.10000000000000001
sg252
S'ROCKET_FUEL'
p283
sS'asn'
p284
I3257
ssg11
(tRp285
S'SAT_RATE'
p286
g11
(tRp287
S'MEAN_CACHE_HIT'
p288
F0.20800833333333332
sS'MEAN_SERVER_HIT'
p289
F0.80228888888888894
sS'MEAN_SERVER_CACHE_HITS'
p290
F0.012155555555555555
sS'MEAN'
p291
F0.9981416666666667
ssS'CACHE_HIT_RATIO'
p292
g11
(tRp293
S'MEAN_OFF_PATH'
p294
F0.013106704022743582
sS'MEAN_ON_PATH'
p295
F0.19490162931058974
sg291
F0.20800833333333332
ssS'OVERHEAD'
p296
g11
(tRp297
S'INTEREST_HOPS'
p298
F6.4459008546437682
sS'SUCCESS_RATE'
p299
F0.12294256748846902
sS'QUOTA_USED_FAILURE'
p300
F1.1385736452215696
sS'FAILURE_RATE'
p301
F0.87705743251153101
sS'QUOTA_USED_SUCCESS'
p302
F1.1658136545419919
sS'NUM_SUCCESS_FIRST_TIME'
p303
F0.1228626320845341
sg291
F1.0142987941480139
ssS'LATENCY'
p304
g11
(tRp305
g291
F37.033533333333331
sstp306
a(g11
(tRp307
S'workload'
p308
g11
(tRp309
S'n_contents'
p310
I10000
sS'name'
p311
S'STATIONARY'
p312
sS'n_warmup'
p313
I720000
sS'rate'
p314
I100
sS'n_measured'
p315
I360000
sS'alpha'
p316
F0.69999999999999996
ssS'cache_policy'
p317
g11
(tRp318
g311
S'LRU'
p319
ssS'desc'
p320
S'RSN size sensitivity -> RSN/cache ratio: 8.0'
p321
sS'strategy'
p322
g11
(tRp323
S'extra_quota'
p324
I2
sS'fan_out'
p325
I1
sg311
S'TFIB_SC'
p326
ssS'content_placement'
p327
g11
(tRp328
g311
S'UNIFORM'
p329
ssS'joint_cache_rsn_placement'
p330
g11
(tRp331
S'network_cache'
p332
F0.29999999999999999
sS'network_rsn'
p333
F2.3999999999999999
sg311
S'CACHE_ALL_RSN_ALL'
p334
sS'rsn_cache_ratio'
p335
F8
ssS'warmup_strategy'
p336
g11
(tRp337
g324
I10000
sg325
I10
sg311
g326
ssS'topology'
p338
g11
(tRp339
S'ext_delay'
p340
I0
sS'source_ratio'
p341
F0.10000000000000001
sg311
S'ROCKET_FUEL'
p342
sS'asn'
p343
I3257
ssg11
(tRp344
S'SAT_RATE'
p345
g11
(tRp346
S'MEAN_CACHE_HIT'
p347
F0.21176944444444445
sS'MEAN_SERVER_HIT'
p348
F0.8003555555555556
sS'MEAN_SERVER_CACHE_HITS'
p349
F0.012133333333333333
sS'MEAN'
p350
F0.99999166666666661
ssS'CACHE_HIT_RATIO'
p351
g11
(tRp352
S'MEAN_OFF_PATH'
p353
F0.012737227779836153
sS'MEAN_ON_PATH'
p354
F0.1990322166646083
sg350
F0.21176944444444445
ssS'OVERHEAD'
p355
g11
(tRp356
S'INTEREST_HOPS'
p357
F6.4951096814695681
sS'SUCCESS_RATE'
p358
F0.12195352352163234
sS'QUOTA_USED_FAILURE'
p359
F1
sS'FAILURE_RATE'
p360
F0.87804647647836764
sS'QUOTA_USED_SUCCESS'
p361
F1
sS'NUM_SUCCESS_FIRST_TIME'
p362
F0.12228839821809026
sg350
F1.0143445639824777
ssS'LATENCY'
p363
g11
(tRp364
g350
F37.38055277777778
sstp365
a(g11
(tRp366
S'workload'
p367
g11
(tRp368
S'n_contents'
p369
I10000
sS'name'
p370
S'STATIONARY'
p371
sS'n_warmup'
p372
I720000
sS'rate'
p373
I100
sS'n_measured'
p374
I360000
sS'alpha'
p375
F0.69999999999999996
ssS'cache_policy'
p376
g11
(tRp377
g370
S'LRU'
p378
ssS'desc'
p379
S'RSN size sensitivity -> RSN/cache ratio: 16.0'
p380
sS'strategy'
p381
g11
(tRp382
S'extra_quota'
p383
I2
sS'fan_out'
p384
I1
sg370
S'TFIB_SC'
p385
ssS'content_placement'
p386
g11
(tRp387
g370
S'UNIFORM'
p388
ssS'joint_cache_rsn_placement'
p389
g11
(tRp390
S'network_cache'
p391
F0.29999999999999999
sS'network_rsn'
p392
F4.7999999999999998
sg370
S'CACHE_ALL_RSN_ALL'
p393
sS'rsn_cache_ratio'
p394
F16
ssS'warmup_strategy'
p395
g11
(tRp396
g383
I10000
sg384
I10
sg370
g385
ssS'topology'
p397
g11
(tRp398
S'ext_delay'
p399
I0
sS'source_ratio'
p400
F0.10000000000000001
sg370
S'ROCKET_FUEL'
p401
sS'asn'
p402
I3257
ssg11
(tRp403
S'SAT_RATE'
p404
g11
(tRp405
S'MEAN_CACHE_HIT'
p406
F0.226025
sS'MEAN_SERVER_HIT'
p407
F0.80793888888888887
sS'MEAN_SERVER_CACHE_HITS'
p408
F0.034002777777777778
sS'MEAN'
p409
F0.99996111111111108
ssS'CACHE_HIT_RATIO'
p410
g11
(tRp411
S'MEAN_OFF_PATH'
p412
F0.033353303226257097
sS'MEAN_ON_PATH'
p413
F0.19267169677374291
sg409
F0.226025
ssS'OVERHEAD'
p414
g11
(tRp415
S'INTEREST_HOPS'
p416
F6.5502158417271783
sS'SUCCESS_RATE'
p417
F0.17507983929123314
sS'QUOTA_USED_FAILURE'
p418
F1
sS'FAILURE_RATE'
p419
F0.82492016070876684
sS'QUOTA_USED_SUCCESS'
p420
F1
sS'NUM_SUCCESS_FIRST_TIME'
p421
F0.17525622059627097
sg409
F1.0377403565694221
ssS'LATENCY'
p422
g11
(tRp423
g409
F36.642113888888886
sstp424
a(g11
(tRp425
S'workload'
p426
g11
(tRp427
S'n_contents'
p428
I10000
sS'name'
p429
S'STATIONARY'
p430
sS'n_warmup'
p431
I720000
sS'rate'
p432
I100
sS'n_measured'
p433
I360000
sS'alpha'
p434
F0.69999999999999996
ssS'cache_policy'
p435
g11
(tRp436
g429
S'LRU'
p437
ssS'desc'
p438
S'RSN size sensitivity -> RSN/cache ratio: 16.0'
p439
sS'strategy'
p440
g11
(tRp441
S'extra_quota'
p442
I2
sS'fan_out'
p443
I1
sg429
S'TFIB_DC'
p444
ssS'content_placement'
p445
g11
(tRp446
g429
S'UNIFORM'
p447
ssS'joint_cache_rsn_placement'
p448
g11
(tRp449
S'network_cache'
p450
F0.29999999999999999
sS'network_rsn'
p451
F4.7999999999999998
sg429
S'CACHE_ALL_RSN_ALL'
p452
sS'rsn_cache_ratio'
p453
F16
ssS'warmup_strategy'
p454
g11
(tRp455
g442
I10000
sg443
I10
sg429
g444
ssS'topology'
p456
g11
(tRp457
S'ext_delay'
p458
I0
sS'source_ratio'
p459
F0.10000000000000001
sg429
S'ROCKET_FUEL'
p460
sS'asn'
p461
I3257
ssg11
(tRp462
S'SAT_RATE'
p463
g11
(tRp464
S'MEAN_CACHE_HIT'
p465
F0.22548055555555555
sS'MEAN_SERVER_HIT'
p466
F0.80053055555555552
sS'MEAN_SERVER_CACHE_HITS'
p467
F0.032352777777777779
sS'MEAN'
p468
F0.99365833333333331
ssS'CACHE_HIT_RATIO'
p469
g11
(tRp470
S'MEAN_OFF_PATH'
p471
F0.033869028925396089
sS'MEAN_ON_PATH'
p472
F0.19161152663015946
sg468
F0.22548055555555555
ssS'OVERHEAD'
p473
g11
(tRp474
S'INTEREST_HOPS'
p475
F6.4874076434723538
sS'SUCCESS_RATE'
p476
F0.17274472168905949
sS'QUOTA_USED_FAILURE'
p477
F1.2197662256698649
sS'FAILURE_RATE'
p478
F0.82725527831094048
sS'QUOTA_USED_SUCCESS'
p479
F1.2548409048572058
sS'NUM_SUCCESS_FIRST_TIME'
p480
F0.17271168824156688
sg468
F1.0349773703793781
ssS'LATENCY'
p481
g11
(tRp482
g468
F35.624508333333331
sstp483
a(g11
(tRp484
S'workload'
p485
g11
(tRp486
S'n_contents'
p487
I10000
sS'name'
p488
S'STATIONARY'
p489
sS'n_warmup'
p490
I720000
sS'rate'
p491
I100
sS'n_measured'
p492
I360000
sS'alpha'
p493
F0.69999999999999996
ssS'cache_policy'
p494
g11
(tRp495
g488
S'LRU'
p496
ssS'desc'
p497
S'RSN size sensitivity -> RSN/cache ratio: 32.0'
p498
sS'strategy'
p499
g11
(tRp500
S'extra_quota'
p501
I2
sS'fan_out'
p502
I1
sg488
S'TFIB_DC'
p503
ssS'content_placement'
p504
g11
(tRp505
g488
S'UNIFORM'
p506
ssS'joint_cache_rsn_placement'
p507
g11
(tRp508
S'network_cache'
p509
F0.29999999999999999
sS'network_rsn'
p510
F9.5999999999999996
sg488
S'CACHE_ALL_RSN_ALL'
p511
sS'rsn_cache_ratio'
p512
F32
ssS'warmup_strategy'
p513
g11
(tRp514
g501
I10000
sg502
I10
sg488
g503
ssS'topology'
p515
g11
(tRp516
S'ext_delay'
p517
I0
sS'source_ratio'
p518
F0.10000000000000001
sg488
S'ROCKET_FUEL'
p519
sS'asn'
p520
I3257
ssg11
(tRp521
S'SAT_RATE'
p522
g11
(tRp523
S'MEAN_CACHE_HIT'
p524
F0.28266388888888888
sS'MEAN_SERVER_HIT'
p525
F0.77453611111111109
sS'MEAN_SERVER_CACHE_HITS'
p526
F0.081158333333333332
sS'MEAN'
p527
F0.9760416666666667
ssS'CACHE_HIT_RATIO'
p528
g11
(tRp529
S'MEAN_OFF_PATH'
p530
F0.099634254004288061
sS'MEAN_ON_PATH'
p531
F0.18302963488460083
sg527
F0.28266388888888888
ssS'OVERHEAD'
p532
g11
(tRp533
S'INTEREST_HOPS'
p534
F6.5176406972607612
sS'SUCCESS_RATE'
p535
F0.30733903029749121
sS'QUOTA_USED_FAILURE'
p536
F1.4642727323065161
sS'FAILURE_RATE'
p537
F0.69266096970250879
sS'QUOTA_USED_SUCCESS'
p538
F1.8830937648908042
sS'NUM_SUCCESS_FIRST_TIME'
p539
F0.30934580916404558
sg527
F1.0982483102098897
ssS'LATENCY'
p540
g11
(tRp541
g527
F33.203744444444446
sstp542
a(g11
(tRp543
S'workload'
p544
g11
(tRp545
S'n_contents'
p546
I10000
sS'name'
p547
S'STATIONARY'
p548
sS'n_warmup'
p549
I720000
sS'rate'
p550
I100
sS'n_measured'
p551
I360000
sS'alpha'
p552
F0.69999999999999996
ssS'cache_policy'
p553
g11
(tRp554
g547
S'LRU'
p555
ssS'desc'
p556
S'RSN size sensitivity -> RSN/cache ratio: 32.0'
p557
sS'strategy'
p558
g11
(tRp559
S'extra_quota'
p560
I2
sS'fan_out'
p561
I1
sg547
S'TFIB_SC'
p562
ssS'content_placement'
p563
g11
(tRp564
g547
S'UNIFORM'
p565
ssS'joint_cache_rsn_placement'
p566
g11
(tRp567
S'network_cache'
p568
F0.29999999999999999
sS'network_rsn'
p569
F9.5999999999999996
sg547
S'CACHE_ALL_RSN_ALL'
p570
sS'rsn_cache_ratio'
p571
F32
ssS'warmup_strategy'
p572
g11
(tRp573
g560
I10000
sg561
I10
sg547
g562
ssS'topology'
p574
g11
(tRp575
S'ext_delay'
p576
I0
sS'source_ratio'
p577
F0.10000000000000001
sg547
S'ROCKET_FUEL'
p578
sS'asn'
p579
I3257
ssg11
(tRp580
S'SAT_RATE'
p581
g11
(tRp582
S'MEAN_CACHE_HIT'
p583
F0.28579166666666667
sS'MEAN_SERVER_HIT'
p584
F0.81195833333333334
sS'MEAN_SERVER_CACHE_HITS'
p585
F0.097786111111111115
sS'MEAN'
p586
F0.99996388888888887
ssS'CACHE_HIT_RATIO'
p587
g11
(tRp588
S'MEAN_OFF_PATH'
p589
F0.094944204053746303
sS'MEAN_ON_PATH'
p590
F0.19084746261292035
sg586
F0.28579166666666667
ssS'OVERHEAD'
p591
g11
(tRp592
S'INTEREST_HOPS'
p593
F6.5205660204396274
sS'SUCCESS_RATE'
p594
F0.30099540118600993
sS'QUOTA_USED_FAILURE'
p595
F1
sS'FAILURE_RATE'
p596
F0.69900459881399013
sS'QUOTA_USED_SUCCESS'
p597
F1
sS'NUM_SUCCESS_FIRST_TIME'
p598
F0.30041651247569029
sg586
F1.1104762116409759
ssS'LATENCY'
p599
g11
(tRp600
g586
F34.802280555555555
sstp601
a(g11
(tRp602
S'workload'
p603
g11
(tRp604
S'n_contents'
p605
I10000
sS'name'
p606
S'STATIONARY'
p607
sS'n_warmup'
p608
I720000
sS'rate'
p609
I100
sS'n_measured'
p610
I360000
sS'alpha'
p611
F0.69999999999999996
ssS'cache_policy'
p612
g11
(tRp613
g606
S'LRU'
p614
ssS'desc'
p615
S'RSN size sensitivity -> RSN/cache ratio: 64.0'
p616
sS'strategy'
p617
g11
(tRp618
S'extra_quota'
p619
I2
sS'fan_out'
p620
I1
sg606
S'TFIB_SC'
p621
ssS'content_placement'
p622
g11
(tRp623
g606
S'UNIFORM'
p624
ssS'joint_cache_rsn_placement'
p625
g11
(tRp626
S'network_cache'
p627
F0.29999999999999999
sS'network_rsn'
p628
F19.199999999999999
sg606
S'CACHE_ALL_RSN_ALL'
p629
sS'rsn_cache_ratio'
p630
F64
ssS'warmup_strategy'
p631
g11
(tRp632
g619
I10000
sg620
I10
sg606
g621
ssS'topology'
p633
g11
(tRp634
S'ext_delay'
p635
I0
sS'source_ratio'
p636
F0.10000000000000001
sg606
S'ROCKET_FUEL'
p637
sS'asn'
p638
I3257
ssg11
(tRp639
S'SAT_RATE'
p640
g11
(tRp641
S'MEAN_CACHE_HIT'
p642
F0.40781666666666666
sS'MEAN_SERVER_HIT'
p643
F0.81422499999999998
sS'MEAN_SERVER_CACHE_HITS'
p644
F0.22212777777777779
sS'MEAN'
p645
F0.99991388888888888
ssS'CACHE_HIT_RATIO'
p646
g11
(tRp647
S'MEAN_OFF_PATH'
p648
F0.19789968972689148
sS'MEAN_ON_PATH'
p649
F0.20991697693977518
sg645
F0.40781666666666666
ssS'OVERHEAD'
p650
g11
(tRp651
S'INTEREST_HOPS'
p652
F6.5316985629318083
sS'SUCCESS_RATE'
p653
F0.44831422891673506
sS'QUOTA_USED_FAILURE'
p654
F1
sS'FAILURE_RATE'
p655
F0.55168577108326489
sS'QUOTA_USED_SUCCESS'
p656
F1
sS'NUM_SUCCESS_FIRST_TIME'
p657
F0.45069479496080511
sg645
F1.2516827837952713
ssS'LATENCY'
p658
g11
(tRp659
g645
F30.025124999999999
sstp660
a(g11
(tRp661
S'workload'
p662
g11
(tRp663
S'n_contents'
p664
I10000
sS'name'
p665
S'STATIONARY'
p666
sS'n_warmup'
p667
I720000
sS'rate'
p668
I100
sS'n_measured'
p669
I360000
sS'alpha'
p670
F0.69999999999999996
ssS'cache_policy'
p671
g11
(tRp672
g665
S'LRU'
p673
ssS'desc'
p674
S'RSN size sensitivity -> RSN/cache ratio: 64.0'
p675
sS'strategy'
p676
g11
(tRp677
S'extra_quota'
p678
I2
sS'fan_out'
p679
I1
sg665
S'TFIB_DC'
p680
ssS'content_placement'
p681
g11
(tRp682
g665
S'UNIFORM'
p683
ssS'joint_cache_rsn_placement'
p684
g11
(tRp685
S'network_cache'
p686
F0.29999999999999999
sS'network_rsn'
p687
F19.199999999999999
sg665
S'CACHE_ALL_RSN_ALL'
p688
sS'rsn_cache_ratio'
p689
F64
ssS'warmup_strategy'
p690
g11
(tRp691
g678
I10000
sg679
I10
sg665
g680
ssS'topology'
p692
g11
(tRp693
S'ext_delay'
p694
I0
sS'source_ratio'
p695
F0.10000000000000001
sg665
S'ROCKET_FUEL'
p696
sS'asn'
p697
I3257
ssg11
(tRp698
S'SAT_RATE'
p699
g11
(tRp700
S'MEAN_CACHE_HIT'
p701
F0.40162777777777775
sS'MEAN_SERVER_HIT'
p702
F0.67499444444444445
sS'MEAN_SERVER_CACHE_HITS'
p703
F0.13825833333333334
sS'MEAN'
p704
F0.93836388888888889
ssS'CACHE_HIT_RATIO'
p705
g11
(tRp706
S'MEAN_OFF_PATH'
p707
F0.23859086030383092
sS'MEAN_ON_PATH'
p708
F0.16303691747394683
sg704
F0.40162777777777775
ssS'OVERHEAD'
p709
g11
(tRp710
S'INTEREST_HOPS'
p711
F6.5483687624144862
sS'SUCCESS_RATE'
p712
F0.47591997901997557
sS'QUOTA_USED_FAILURE'
p713
F2.0703050130608216
sS'FAILURE_RATE'
p714
F0.52408002098002449
sS'QUOTA_USED_SUCCESS'
p715
F4.1404239946795913
sS'NUM_SUCCESS_FIRST_TIME'
p716
F0.47856818791115879
sg704
F1.1799260533256761
ssS'LATENCY'
p717
g11
(tRp718
g704
F26.440919444444443
sstp719
a(g11
(tRp720
S'workload'
p721
g11
(tRp722
S'n_contents'
p723
I10000
sS'name'
p724
S'STATIONARY'
p725
sS'n_warmup'
p726
I720000
sS'rate'
p727
I100
sS'n_measured'
p728
I360000
sS'alpha'
p729
F0.69999999999999996
ssS'cache_policy'
p730
g11
(tRp731
g724
S'LRU'
p732
ssS'desc'
p733
S'RSN size sensitivity -> RSN/cache ratio: 128.0'
p734
sS'strategy'
p735
g11
(tRp736
S'extra_quota'
p737
I2
sS'fan_out'
p738
I1
sg724
S'TFIB_DC'
p739
ssS'content_placement'
p740
g11
(tRp741
g724
S'UNIFORM'
p742
ssS'joint_cache_rsn_placement'
p743
g11
(tRp744
S'network_cache'
p745
F0.29999999999999999
sS'network_rsn'
p746
F38.399999999999999
sg724
S'CACHE_ALL_RSN_ALL'
p747
sS'rsn_cache_ratio'
p748
F128
ssS'warmup_strategy'
p749
g11
(tRp750
g737
I10000
sg738
I10
sg724
g739
ssS'topology'
p751
g11
(tRp752
S'ext_delay'
p753
I0
sS'source_ratio'
p754
F0.10000000000000001
sg724
S'ROCKET_FUEL'
p755
sS'asn'
p756
I3257
ssg11
(tRp757
S'SAT_RATE'
p758
g11
(tRp759
S'MEAN_CACHE_HIT'
p760
F0.54897222222222219
sS'MEAN_SERVER_HIT'
p761
F0.50553333333333328
sS'MEAN_SERVER_CACHE_HITS'
p762
F0.14733333333333334
sS'MEAN'
p763
F0.90717222222222227
ssS'CACHE_HIT_RATIO'
p764
g11
(tRp765
S'MEAN_OFF_PATH'
p766
F0.36302953991075332
sS'MEAN_ON_PATH'
p767
F0.18594268231146888
sg763
F0.54897222222222219
ssS'OVERHEAD'
p768
g11
(tRp769
S'INTEREST_HOPS'
p770
F6.4701636954884227
sS'SUCCESS_RATE'
p771
F0.57064673455446646
sS'QUOTA_USED_FAILURE'
p772
F2.8453612137121085
sS'FAILURE_RATE'
p773
F0.42935326544553354
sS'QUOTA_USED_SUCCESS'
p774
F6.7613411850518146
sS'NUM_SUCCESS_FIRST_TIME'
p775
F0.5727108921693419
sg763
F1.2018390480798085
ssS'LATENCY'
p776
g11
(tRp777
g763
F18.438622222222222
sstp778
a(g11
(tRp779
S'workload'
p780
g11
(tRp781
S'n_contents'
p782
I10000
sS'name'
p783
S'STATIONARY'
p784
sS'n_warmup'
p785
I720000
sS'rate'
p786
I100
sS'n_measured'
p787
I360000
sS'alpha'
p788
F0.69999999999999996
ssS'cache_policy'
p789
g11
(tRp790
g783
S'LRU'
p791
ssS'desc'
p792
S'RSN size sensitivity -> RSN/cache ratio: 128.0'
p793
sS'strategy'
p794
g11
(tRp795
S'extra_quota'
p796
I2
sS'fan_out'
p797
I1
sg783
S'TFIB_SC'
p798
ssS'content_placement'
p799
g11
(tRp800
g783
S'UNIFORM'
p801
ssS'joint_cache_rsn_placement'
p802
g11
(tRp803
S'network_cache'
p804
F0.29999999999999999
sS'network_rsn'
p805
F38.399999999999999
sg783
S'CACHE_ALL_RSN_ALL'
p806
sS'rsn_cache_ratio'
p807
F128
ssS'warmup_strategy'
p808
g11
(tRp809
g796
I10000
sg797
I10
sg783
g798
ssS'topology'
p810
g11
(tRp811
S'ext_delay'
p812
I0
sS'source_ratio'
p813
F0.10000000000000001
sg783
S'ROCKET_FUEL'
p814
sS'asn'
p815
I3257
ssg11
(tRp816
S'SAT_RATE'
p817
g11
(tRp818
S'MEAN_CACHE_HIT'
p819
F0.54208888888888884
sS'MEAN_SERVER_HIT'
p820
F0.81333055555555556
sS'MEAN_SERVER_CACHE_HITS'
p821
F0.3555638888888889
sS'MEAN'
p822
F0.99985555555555561
ssS'CACHE_HIT_RATIO'
p823
g11
(tRp824
S'MEAN_OFF_PATH'
p825
F0.26985291555914426
sS'MEAN_ON_PATH'
p826
F0.27223597332974458
sg822
F0.54208888888888884
ssS'OVERHEAD'
p827
g11
(tRp828
S'INTEREST_HOPS'
p829
F6.5695378221298633
sS'SUCCESS_RATE'
p830
F0.5319297473469341
sS'QUOTA_USED_FAILURE'
p831
F1
sS'FAILURE_RATE'
p832
F0.46807025265306584
sS'QUOTA_USED_SUCCESS'
p833
F1
sS'NUM_SUCCESS_FIRST_TIME'
p834
F0.52888000000000002
sg822
F1.3884838921177503
ssS'LATENCY'
p835
g11
(tRp836
g822
F25.966530555555554
sstp837
a(g11
(tRp838
S'workload'
p839
g11
(tRp840
S'n_contents'
p841
I10000
sS'name'
p842
S'STATIONARY'
p843
sS'n_warmup'
p844
I720000
sS'rate'
p845
I100
sS'n_measured'
p846
I360000
sS'alpha'
p847
F0.69999999999999996
ssS'cache_policy'
p848
g11
(tRp849
g842
S'LRU'
p850
ssS'desc'
p851
S'RSN size sensitivity -> RSN/cache ratio: 256.0'
p852
sS'strategy'
p853
g11
(tRp854
S'extra_quota'
p855
I2
sS'fan_out'
p856
I1
sg842
S'TFIB_DC'
p857
ssS'content_placement'
p858
g11
(tRp859
g842
S'UNIFORM'
p860
ssS'joint_cache_rsn_placement'
p861
g11
(tRp862
S'network_cache'
p863
F0.29999999999999999
sS'network_rsn'
p864
F76.799999999999997
sg842
S'CACHE_ALL_RSN_ALL'
p865
sS'rsn_cache_ratio'
p866
F256
ssS'warmup_strategy'
p867
g11
(tRp868
g855
I10000
sg856
I10
sg842
g857
ssS'topology'
p869
g11
(tRp870
S'ext_delay'
p871
I0
sS'source_ratio'
p872
F0.10000000000000001
sg842
S'ROCKET_FUEL'
p873
sS'asn'
p874
I3257
ssg11
(tRp875
S'SAT_RATE'
p876
g11
(tRp877
S'MEAN_CACHE_HIT'
p878
F0.59069722222222221
sS'MEAN_SERVER_HIT'
p879
F0.43240833333333334
sS'MEAN_SERVER_CACHE_HITS'
p880
F0.13113055555555556
sS'MEAN'
p881
F0.89197499999999996
ssS'CACHE_HIT_RATIO'
p882
g11
(tRp883
S'MEAN_OFF_PATH'
p884
F0.39791430231484748
sS'MEAN_ON_PATH'
p885
F0.19278291990737473
sg881
F0.59069722222222221
ssS'OVERHEAD'
p886
g11
(tRp887
S'INTEREST_HOPS'
p888
F6.4512738585722698
sS'SUCCESS_RATE'
p889
F0.58372987199694504
sS'QUOTA_USED_FAILURE'
p890
F3.2773964279948213
sS'FAILURE_RATE'
p891
F0.41627012800305502
sS'QUOTA_USED_SUCCESS'
p892
F9.0433509309977644
sS'NUM_SUCCESS_FIRST_TIME'
p893
F0.58091909070603132
sg881
F1.1822734194717714
ssS'LATENCY'
p894
g11
(tRp895
g881
F16.043305555555555
sstp896
a(g11
(tRp897
S'workload'
p898
g11
(tRp899
S'n_contents'
p900
I10000
sS'name'
p901
S'STATIONARY'
p902
sS'n_warmup'
p903
I720000
sS'rate'
p904
I100
sS'n_measured'
p905
I360000
sS'alpha'
p906
F0.69999999999999996
ssS'cache_policy'
p907
g11
(tRp908
g901
S'LRU'
p909
ssS'desc'
p910
S'RSN size sensitivity -> RSN/cache ratio: 256.0'
p911
sS'strategy'
p912
g11
(tRp913
S'extra_quota'
p914
I2
sS'fan_out'
p915
I1
sg901
S'TFIB_SC'
p916
ssS'content_placement'
p917
g11
(tRp918
g901
S'UNIFORM'
p919
ssS'joint_cache_rsn_placement'
p920
g11
(tRp921
S'network_cache'
p922
F0.29999999999999999
sS'network_rsn'
p923
F76.799999999999997
sg901
S'CACHE_ALL_RSN_ALL'
p924
sS'rsn_cache_ratio'
p925
F256
ssS'warmup_strategy'
p926
g11
(tRp927
g914
I10000
sg915
I10
sg901
g916
ssS'topology'
p928
g11
(tRp929
S'ext_delay'
p930
I0
sS'source_ratio'
p931
F0.10000000000000001
sg901
S'ROCKET_FUEL'
p932
sS'asn'
p933
I3257
ssg11
(tRp934
S'SAT_RATE'
p935
g11
(tRp936
S'MEAN_CACHE_HIT'
p937
F0.58253888888888894
sS'MEAN_SERVER_HIT'
p938
F0.80430833333333329
sS'MEAN_SERVER_CACHE_HITS'
p939
F0.3871027777777778
sS'MEAN'
p940
F0.99974444444444444
ssS'CACHE_HIT_RATIO'
p941
g11
(tRp942
S'MEAN_OFF_PATH'
p943
F0.29035482158773396
sS'MEAN_ON_PATH'
p944
F0.29218406730115498
sg940
F0.58253888888888894
ssS'OVERHEAD'
p945
g11
(tRp946
S'INTEREST_HOPS'
p947
F6.5692899296486882
sS'SUCCESS_RATE'
p948
F0.53776931876991796
sS'QUOTA_USED_FAILURE'
p949
F1
sS'FAILURE_RATE'
p950
F0.46223068123008199
sS'QUOTA_USED_SUCCESS'
p951
F1
sS'NUM_SUCCESS_FIRST_TIME'
p952
F0.52690737290487188
sg940
F1.4366143570023451
ssS'LATENCY'
p953
g11
(tRp954
g940
F24.958936111111111
sstp955
a(g11
(tRp956
S'workload'
p957
g11
(tRp958
S'n_contents'
p959
I10000
sS'name'
p960
S'STATIONARY'
p961
sS'n_warmup'
p962
I720000
sS'rate'
p963
I100
sS'n_measured'
p964
I360000
sS'alpha'
p965
F0.69999999999999996
ssS'cache_policy'
p966
g11
(tRp967
g960
S'LRU'
p968
ssS'desc'
p969
S'RSN size sensitivity -> RSN/cache ratio: 512.0'
p970
sS'strategy'
p971
g11
(tRp972
S'extra_quota'
p973
I2
sS'fan_out'
p974
I1
sg960
S'TFIB_SC'
p975
ssS'content_placement'
p976
g11
(tRp977
g960
S'UNIFORM'
p978
ssS'joint_cache_rsn_placement'
p979
g11
(tRp980
S'network_cache'
p981
F0.29999999999999999
sS'network_rsn'
p982
F153.59999999999999
sg960
S'CACHE_ALL_RSN_ALL'
p983
sS'rsn_cache_ratio'
p984
F512
ssS'warmup_strategy'
p985
g11
(tRp986
g973
I10000
sg974
I10
sg960
g975
ssS'topology'
p987
g11
(tRp988
S'ext_delay'
p989
I0
sS'source_ratio'
p990
F0.10000000000000001
sg960
S'ROCKET_FUEL'
p991
sS'asn'
p992
I3257
ssg11
(tRp993
S'SAT_RATE'
p994
g11
(tRp995
S'MEAN_CACHE_HIT'
p996
F0.56491111111111114
sS'MEAN_SERVER_HIT'
p997
F0.79926944444444448
sS'MEAN_SERVER_CACHE_HITS'
p998
F0.36456388888888891
sS'MEAN'
p999
F0.99961666666666671
ssS'CACHE_HIT_RATIO'
p1000
g11
(tRp1001
S'MEAN_OFF_PATH'
p1002
F0.29669011718471611
sS'MEAN_ON_PATH'
p1003
F0.26822099392639503
sg999
F0.56491111111111114
ssS'OVERHEAD'
p1004
g11
(tRp1005
S'INTEREST_HOPS'
p1006
F6.6032201232694758
sS'SUCCESS_RATE'
p1007
F0.5364479300969317
sS'QUOTA_USED_FAILURE'
p1008
F1
sS'FAILURE_RATE'
p1009
F0.4635520699030683
sS'QUOTA_USED_SUCCESS'
p1010
F1
sS'NUM_SUCCESS_FIRST_TIME'
p1011
F0.5226890577064589
sg999
F1.4438368041082414
ssS'LATENCY'
p1012
g11
(tRp1013
g999
F24.986394444444443
sstp1014
a(g11
(tRp1015
S'workload'
p1016
g11
(tRp1017
S'n_contents'
p1018
I10000
sS'name'
p1019
S'STATIONARY'
p1020
sS'n_warmup'
p1021
I720000
sS'rate'
p1022
I100
sS'n_measured'
p1023
I360000
sS'alpha'
p1024
F0.69999999999999996
ssS'cache_policy'
p1025
g11
(tRp1026
g1019
S'LRU'
p1027
ssS'desc'
p1028
S'RSN size sensitivity -> RSN/cache ratio: 512.0'
p1029
sS'strategy'
p1030
g11
(tRp1031
S'extra_quota'
p1032
I2
sS'fan_out'
p1033
I1
sg1019
S'TFIB_DC'
p1034
ssS'content_placement'
p1035
g11
(tRp1036
g1019
S'UNIFORM'
p1037
ssS'joint_cache_rsn_placement'
p1038
g11
(tRp1039
S'network_cache'
p1040
F0.29999999999999999
sS'network_rsn'
p1041
F153.59999999999999
sg1019
S'CACHE_ALL_RSN_ALL'
p1042
sS'rsn_cache_ratio'
p1043
F512
ssS'warmup_strategy'
p1044
g11
(tRp1045
g1032
I10000
sg1033
I10
sg1019
g1034
ssS'topology'
p1046
g11
(tRp1047
S'ext_delay'
p1048
I0
sS'source_ratio'
p1049
F0.10000000000000001
sg1019
S'ROCKET_FUEL'
p1050
sS'asn'
p1051
I3257
ssg11
(tRp1052
S'SAT_RATE'
p1053
g11
(tRp1054
S'MEAN_CACHE_HIT'
p1055
F0.58518611111111107
sS'MEAN_SERVER_HIT'
p1056
F0.44166944444444445
sS'MEAN_SERVER_CACHE_HITS'
p1057
F0.13075000000000001
sS'MEAN'
p1058
F0.8961055555555556
ssS'CACHE_HIT_RATIO'
p1059
g11
(tRp1060
S'MEAN_OFF_PATH'
p1061
F0.41000302974560959
sS'MEAN_ON_PATH'
p1062
F0.17518308136550148
sg1058
F0.58518611111111107
ssS'OVERHEAD'
p1063
g11
(tRp1064
S'INTEREST_HOPS'
p1065
F6.4839955610388165
sS'SUCCESS_RATE'
p1066
F0.5905670082408262
sS'QUOTA_USED_FAILURE'
p1067
F3.1961777647623038
sS'FAILURE_RATE'
p1068
F0.4094329917591738
sS'QUOTA_USED_SUCCESS'
p1069
F8.1292672790222404
sS'NUM_SUCCESS_FIRST_TIME'
p1070
F0.58878644750444842
sg1058
F1.1961605465625949
ssS'LATENCY'
p1071
g11
(tRp1072
g1058
F16.121861111111112
sstp1073
atRp1074
sb.