ccopy_reg
_reconstructor
p1
(cicarus.results.readwrite
ResultSet
p2
c__builtin__
object
p3
NtRp4
(dp5
S'attr'
p6
(dp7
sS'_results'
p8
ccollections
deque
p9
((lp10
(cicarus.util
Tree
p11
(tRp12
S'workload'
p13
g11
(tRp14
S'n_contents'
p15
I10000
sS'name'
p16
S'STATIONARY'
p17
sS'n_warmup'
p18
I720000
sS'rate'
p19
I100
sS'n_measured'
p20
I360000
sS'alpha'
p21
F1
ssS'cache_policy'
p22
g11
(tRp23
g16
S'LRU'
p24
ssS'desc'
p25
S'strategy network_cache: 1.0'
p26
sS'strategy'
p27
g11
(tRp28
g16
S'NDN_PROB'
p29
ssS'content_placement'
p30
g11
(tRp31
g16
S'UNIFORM'
p32
ssS'joint_cache_rsn_placement'
p33
g11
(tRp34
S'network_cache'
p35
F0.69999999999999996
sS'network_rsn'
p36
F89.599999999999994
sg16
S'CACHE_ALL_RSN_ALL'
p37
sS'rsn_cache_ratio'
p38
I128
ssS'warmup_strategy'
p39
g11
(tRp40
g16
g29
ssS'topology'
p41
g11
(tRp42
S'ext_delay'
p43
I0
sS'source_ratio'
p44
F0.10000000000000001
sg16
S'ROCKET_FUEL'
p45
sS'asn'
p46
I3257
ssg11
(tRp47
S'SAT_RATE'
p48
g11
(tRp49
S'MEAN_CACHE_HIT'
p50
F0.65698333333333336
sS'MEAN_SERVER_HIT'
p51
F0.34301666666666669
sS'MEAN_SERVER_CACHE_HITS'
p52
F0
sS'MEAN'
p53
F1
ssS'CACHE_HIT_RATIO'
p54
g11
(tRp55
S'MEAN_OFF_PATH'
p56
F0
sS'MEAN_ON_PATH'
p57
F0.65698333333333336
sg53
F0.65698333333333336
ssS'OVERHEAD'
p58
g11
(tRp59
S'SUCCESS_RATE'
p60
F0
sS'QUOTA_USED_FAILURE'
p61
F0
sS'FAILURE_RATE'
p62
F0
sS'QUOTA_USED_SUCCESS'
p63
F0
sg53
F1
sS'NUM_SUCCESS_FIRST_TIME'
p64
F0
ssS'LATENCY'
p65
g11
(tRp66
g53
F45.262391717438284
sstp67
a(g11
(tRp68
S'workload'
p69
g11
(tRp70
S'n_contents'
p71
I10000
sS'name'
p72
S'STATIONARY'
p73
sS'n_warmup'
p74
I720000
sS'rate'
p75
I100
sS'n_measured'
p76
I360000
sS'alpha'
p77
F0.80000000000000004
ssS'cache_policy'
p78
g11
(tRp79
g72
S'LRU'
p80
ssS'desc'
p81
S'strategy network_cache: 0.8'
p82
sS'strategy'
p83
g11
(tRp84
g72
S'NDN_PROB'
p85
ssS'content_placement'
p86
g11
(tRp87
g72
S'UNIFORM'
p88
ssS'joint_cache_rsn_placement'
p89
g11
(tRp90
S'network_cache'
p91
F0.69999999999999996
sS'network_rsn'
p92
F89.599999999999994
sg72
S'CACHE_ALL_RSN_ALL'
p93
sS'rsn_cache_ratio'
p94
I128
ssS'warmup_strategy'
p95
g11
(tRp96
g72
g85
ssS'topology'
p97
g11
(tRp98
S'ext_delay'
p99
I0
sS'source_ratio'
p100
F0.10000000000000001
sg72
S'ROCKET_FUEL'
p101
sS'asn'
p102
I3257
ssg11
(tRp103
S'SAT_RATE'
p104
g11
(tRp105
S'MEAN_CACHE_HIT'
p106
F0.44196666666666667
sS'MEAN_SERVER_HIT'
p107
F0.55803333333333338
sS'MEAN_SERVER_CACHE_HITS'
p108
F0
sS'MEAN'
p109
F1
ssS'CACHE_HIT_RATIO'
p110
g11
(tRp111
S'MEAN_OFF_PATH'
p112
F0
sS'MEAN_ON_PATH'
p113
F0.44196666666666667
sg109
F0.44196666666666667
ssS'OVERHEAD'
p114
g11
(tRp115
S'SUCCESS_RATE'
p116
F0
sS'QUOTA_USED_FAILURE'
p117
F0
sS'FAILURE_RATE'
p118
F0
sS'QUOTA_USED_SUCCESS'
p119
F0
sg109
F1
sS'NUM_SUCCESS_FIRST_TIME'
p120
F0
ssS'LATENCY'
p121
g11
(tRp122
g109
F68.943886855513526
sstp123
a(g11
(tRp124
S'workload'
p125
g11
(tRp126
S'n_contents'
p127
I10000
sS'name'
p128
S'STATIONARY'
p129
sS'n_warmup'
p130
I720000
sS'rate'
p131
I100
sS'n_measured'
p132
I360000
sS'alpha'
p133
F0.40000000000000002
ssS'cache_policy'
p134
g11
(tRp135
g128
S'LRU'
p136
ssS'desc'
p137
S'strategy network_cache: 0.4'
p138
sS'strategy'
p139
g11
(tRp140
g128
S'NDN_PROB'
p141
ssS'content_placement'
p142
g11
(tRp143
g128
S'UNIFORM'
p144
ssS'joint_cache_rsn_placement'
p145
g11
(tRp146
S'network_cache'
p147
F0.69999999999999996
sS'network_rsn'
p148
F89.599999999999994
sg128
S'CACHE_ALL_RSN_ALL'
p149
sS'rsn_cache_ratio'
p150
I128
ssS'warmup_strategy'
p151
g11
(tRp152
g128
g141
ssS'topology'
p153
g11
(tRp154
S'ext_delay'
p155
I0
sS'source_ratio'
p156
F0.10000000000000001
sg128
S'ROCKET_FUEL'
p157
sS'asn'
p158
I3257
ssg11
(tRp159
S'SAT_RATE'
p160
g11
(tRp161
S'MEAN_CACHE_HIT'
p162
F0.12655
sS'MEAN_SERVER_HIT'
p163
F0.87344999999999995
sS'MEAN_SERVER_CACHE_HITS'
p164
F0
sS'MEAN'
p165
F1
ssS'CACHE_HIT_RATIO'
p166
g11
(tRp167
S'MEAN_OFF_PATH'
p168
F0
sS'MEAN_ON_PATH'
p169
F0.12655
sg165
F0.12655
ssS'OVERHEAD'
p170
g11
(tRp171
S'SUCCESS_RATE'
p172
F0
sS'QUOTA_USED_FAILURE'
p173
F0
sS'FAILURE_RATE'
p174
F0
sS'QUOTA_USED_SUCCESS'
p175
F0
sg165
F1
sS'NUM_SUCCESS_FIRST_TIME'
p176
F0
ssS'LATENCY'
p177
g11
(tRp178
g165
F97.605085495447952
sstp179
a(g11
(tRp180
S'workload'
p181
g11
(tRp182
S'n_contents'
p183
I10000
sS'name'
p184
S'STATIONARY'
p185
sS'n_warmup'
p186
I720000
sS'rate'
p187
I100
sS'n_measured'
p188
I360000
sS'alpha'
p189
F0.29999999999999999
ssS'cache_policy'
p190
g11
(tRp191
g184
S'LRU'
p192
ssS'desc'
p193
S'strategy network_cache: 0.3'
p194
sS'strategy'
p195
g11
(tRp196
g184
S'NDN_PROB'
p197
ssS'content_placement'
p198
g11
(tRp199
g184
S'UNIFORM'
p200
ssS'joint_cache_rsn_placement'
p201
g11
(tRp202
S'network_cache'
p203
F0.69999999999999996
sS'network_rsn'
p204
F89.599999999999994
sg184
S'CACHE_ALL_RSN_ALL'
p205
sS'rsn_cache_ratio'
p206
I128
ssS'warmup_strategy'
p207
g11
(tRp208
g184
g197
ssS'topology'
p209
g11
(tRp210
S'ext_delay'
p211
I0
sS'source_ratio'
p212
F0.10000000000000001
sg184
S'ROCKET_FUEL'
p213
sS'asn'
p214
I3257
ssg11
(tRp215
S'SAT_RATE'
p216
g11
(tRp217
S'MEAN_CACHE_HIT'
p218
F0.093616666666666667
sS'MEAN_SERVER_HIT'
p219
F0.90638333333333332
sS'MEAN_SERVER_CACHE_HITS'
p220
F0
sS'MEAN'
p221
F1
ssS'CACHE_HIT_RATIO'
p222
g11
(tRp223
S'MEAN_OFF_PATH'
p224
F0
sS'MEAN_ON_PATH'
p225
F0.093616666666666667
sg221
F0.093616666666666667
ssS'OVERHEAD'
p226
g11
(tRp227
S'SUCCESS_RATE'
p228
F0
sS'QUOTA_USED_FAILURE'
p229
F0
sS'FAILURE_RATE'
p230
F0
sS'QUOTA_USED_SUCCESS'
p231
F0
sg221
F1
sS'NUM_SUCCESS_FIRST_TIME'
p232
F0
ssS'LATENCY'
p233
g11
(tRp234
g221
F100.60926519638406
sstp235
a(g11
(tRp236
S'workload'
p237
g11
(tRp238
S'n_contents'
p239
I10000
sS'name'
p240
S'STATIONARY'
p241
sS'n_warmup'
p242
I720000
sS'rate'
p243
I100
sS'n_measured'
p244
I360000
sS'alpha'
p245
F0.90000000000000002
ssS'cache_policy'
p246
g11
(tRp247
g240
S'LRU'
p248
ssS'desc'
p249
S'strategy network_cache: 0.9'
p250
sS'strategy'
p251
g11
(tRp252
g240
S'NDN_PROB'
p253
ssS'content_placement'
p254
g11
(tRp255
g240
S'UNIFORM'
p256
ssS'joint_cache_rsn_placement'
p257
g11
(tRp258
S'network_cache'
p259
F0.69999999999999996
sS'network_rsn'
p260
F89.599999999999994
sg240
S'CACHE_ALL_RSN_ALL'
p261
sS'rsn_cache_ratio'
p262
I128
ssS'warmup_strategy'
p263
g11
(tRp264
g240
g253
ssS'topology'
p265
g11
(tRp266
S'ext_delay'
p267
I0
sS'source_ratio'
p268
F0.10000000000000001
sg240
S'ROCKET_FUEL'
p269
sS'asn'
p270
I3257
ssg11
(tRp271
S'SAT_RATE'
p272
g11
(tRp273
S'MEAN_CACHE_HIT'
p274
F0.54460555555555556
sS'MEAN_SERVER_HIT'
p275
F0.45539444444444444
sS'MEAN_SERVER_CACHE_HITS'
p276
F0
sS'MEAN'
p277
F1
ssS'CACHE_HIT_RATIO'
p278
g11
(tRp279
S'MEAN_OFF_PATH'
p280
F0
sS'MEAN_ON_PATH'
p281
F0.54460555555555556
sg277
F0.54460555555555556
ssS'OVERHEAD'
p282
g11
(tRp283
S'SUCCESS_RATE'
p284
F0
sS'QUOTA_USED_FAILURE'
p285
F0
sS'FAILURE_RATE'
p286
F0
sS'QUOTA_USED_SUCCESS'
p287
F0
sg277
F1
sS'NUM_SUCCESS_FIRST_TIME'
p288
F0
ssS'LATENCY'
p289
g11
(tRp290
g277
F57.635074326444304
sstp291
a(g11
(tRp292
S'workload'
p293
g11
(tRp294
S'n_contents'
p295
I10000
sS'name'
p296
S'STATIONARY'
p297
sS'n_warmup'
p298
I720000
sS'rate'
p299
I100
sS'n_measured'
p300
I360000
sS'alpha'
p301
F0.10000000000000001
ssS'cache_policy'
p302
g11
(tRp303
g296
S'LRU'
p304
ssS'desc'
p305
S'strategy network_cache: 0.1'
p306
sS'strategy'
p307
g11
(tRp308
g296
S'NDN_PROB'
p309
ssS'content_placement'
p310
g11
(tRp311
g296
S'UNIFORM'
p312
ssS'joint_cache_rsn_placement'
p313
g11
(tRp314
S'network_cache'
p315
F0.69999999999999996
sS'network_rsn'
p316
F89.599999999999994
sg296
S'CACHE_ALL_RSN_ALL'
p317
sS'rsn_cache_ratio'
p318
I128
ssS'warmup_strategy'
p319
g11
(tRp320
g296
g309
ssS'topology'
p321
g11
(tRp322
S'ext_delay'
p323
I0
sS'source_ratio'
p324
F0.10000000000000001
sg296
S'ROCKET_FUEL'
p325
sS'asn'
p326
I3257
ssg11
(tRp327
S'SAT_RATE'
p328
g11
(tRp329
S'MEAN_CACHE_HIT'
p330
F0.061802777777777776
sS'MEAN_SERVER_HIT'
p331
F0.93819722222222224
sS'MEAN_SERVER_CACHE_HITS'
p332
F0
sS'MEAN'
p333
F1
ssS'CACHE_HIT_RATIO'
p334
g11
(tRp335
S'MEAN_OFF_PATH'
p336
F0
sS'MEAN_ON_PATH'
p337
F0.061802777777777776
sg333
F0.061802777777777776
ssS'OVERHEAD'
p338
g11
(tRp339
S'SUCCESS_RATE'
p340
F0
sS'QUOTA_USED_FAILURE'
p341
F0
sS'FAILURE_RATE'
p342
F0
sS'QUOTA_USED_SUCCESS'
p343
F0
sg333
F1
sS'NUM_SUCCESS_FIRST_TIME'
p344
F0
ssS'LATENCY'
p345
g11
(tRp346
g333
F101.9743245035415
sstp347
a(g11
(tRp348
S'workload'
p349
g11
(tRp350
S'n_contents'
p351
I10000
sS'name'
p352
S'STATIONARY'
p353
sS'n_warmup'
p354
I720000
sS'rate'
p355
I100
sS'n_measured'
p356
I360000
sS'alpha'
p357
F0.5
ssS'cache_policy'
p358
g11
(tRp359
g352
S'LRU'
p360
ssS'desc'
p361
S'strategy network_cache: 0.5'
p362
sS'strategy'
p363
g11
(tRp364
g352
S'NDN_PROB'
p365
ssS'content_placement'
p366
g11
(tRp367
g352
S'UNIFORM'
p368
ssS'joint_cache_rsn_placement'
p369
g11
(tRp370
S'network_cache'
p371
F0.69999999999999996
sS'network_rsn'
p372
F89.599999999999994
sg352
S'CACHE_ALL_RSN_ALL'
p373
sS'rsn_cache_ratio'
p374
I128
ssS'warmup_strategy'
p375
g11
(tRp376
g352
g365
ssS'topology'
p377
g11
(tRp378
S'ext_delay'
p379
I0
sS'source_ratio'
p380
F0.10000000000000001
sg352
S'ROCKET_FUEL'
p381
sS'asn'
p382
I3257
ssg11
(tRp383
S'SAT_RATE'
p384
g11
(tRp385
S'MEAN_CACHE_HIT'
p386
F0.18311944444444445
sS'MEAN_SERVER_HIT'
p387
F0.81688055555555561
sS'MEAN_SERVER_CACHE_HITS'
p388
F0
sS'MEAN'
p389
F1
ssS'CACHE_HIT_RATIO'
p390
g11
(tRp391
S'MEAN_OFF_PATH'
p392
F0
sS'MEAN_ON_PATH'
p393
F0.18311944444444445
sg389
F0.18311944444444445
ssS'OVERHEAD'
p394
g11
(tRp395
S'SUCCESS_RATE'
p396
F0
sS'QUOTA_USED_FAILURE'
p397
F0
sS'FAILURE_RATE'
p398
F0
sS'QUOTA_USED_SUCCESS'
p399
F0
sg389
F1
sS'NUM_SUCCESS_FIRST_TIME'
p400
F0
ssS'LATENCY'
p401
g11
(tRp402
g389
F93.249690378515879
sstp403
a(g11
(tRp404
S'workload'
p405
g11
(tRp406
S'n_contents'
p407
I10000
sS'name'
p408
S'STATIONARY'
p409
sS'n_warmup'
p410
I720000
sS'rate'
p411
I100
sS'n_measured'
p412
I360000
sS'alpha'
p413
F0.59999999999999998
ssS'cache_policy'
p414
g11
(tRp415
g408
S'LRU'
p416
ssS'desc'
p417
S'strategy network_cache: 0.6'
p418
sS'strategy'
p419
g11
(tRp420
g408
S'NDN_PROB'
p421
ssS'content_placement'
p422
g11
(tRp423
g408
S'UNIFORM'
p424
ssS'joint_cache_rsn_placement'
p425
g11
(tRp426
S'network_cache'
p427
F0.69999999999999996
sS'network_rsn'
p428
F89.599999999999994
sg408
S'CACHE_ALL_RSN_ALL'
p429
sS'rsn_cache_ratio'
p430
I128
ssS'warmup_strategy'
p431
g11
(tRp432
g408
g421
ssS'topology'
p433
g11
(tRp434
S'ext_delay'
p435
I0
sS'source_ratio'
p436
F0.10000000000000001
sg408
S'ROCKET_FUEL'
p437
sS'asn'
p438
I3257
ssg11
(tRp439
S'SAT_RATE'
p440
g11
(tRp441
S'MEAN_CACHE_HIT'
p442
F0.25172777777777777
sS'MEAN_SERVER_HIT'
p443
F0.74827222222222223
sS'MEAN_SERVER_CACHE_HITS'
p444
F0
sS'MEAN'
p445
F1
ssS'CACHE_HIT_RATIO'
p446
g11
(tRp447
S'MEAN_OFF_PATH'
p448
F0
sS'MEAN_ON_PATH'
p449
F0.25172777777777777
sg445
F0.25172777777777777
ssS'OVERHEAD'
p450
g11
(tRp451
S'SUCCESS_RATE'
p452
F0
sS'QUOTA_USED_FAILURE'
p453
F0
sS'FAILURE_RATE'
p454
F0
sS'QUOTA_USED_SUCCESS'
p455
F0
sg445
F1
sS'NUM_SUCCESS_FIRST_TIME'
p456
F0
ssS'LATENCY'
p457
g11
(tRp458
g445
F86.699266548148387
sstp459
a(g11
(tRp460
S'workload'
p461
g11
(tRp462
S'n_contents'
p463
I10000
sS'name'
p464
S'STATIONARY'
p465
sS'n_warmup'
p466
I720000
sS'rate'
p467
I100
sS'n_measured'
p468
I360000
sS'alpha'
p469
F0.20000000000000001
ssS'cache_policy'
p470
g11
(tRp471
g464
S'LRU'
p472
ssS'desc'
p473
S'strategy network_cache: 0.2'
p474
sS'strategy'
p475
g11
(tRp476
g464
S'NDN_PROB'
p477
ssS'content_placement'
p478
g11
(tRp479
g464
S'UNIFORM'
p480
ssS'joint_cache_rsn_placement'
p481
g11
(tRp482
S'network_cache'
p483
F0.69999999999999996
sS'network_rsn'
p484
F89.599999999999994
sg464
S'CACHE_ALL_RSN_ALL'
p485
sS'rsn_cache_ratio'
p486
I128
ssS'warmup_strategy'
p487
g11
(tRp488
g464
g477
ssS'topology'
p489
g11
(tRp490
S'ext_delay'
p491
I0
sS'source_ratio'
p492
F0.10000000000000001
sg464
S'ROCKET_FUEL'
p493
sS'asn'
p494
I3257
ssg11
(tRp495
S'SAT_RATE'
p496
g11
(tRp497
S'MEAN_CACHE_HIT'
p498
F0.069558333333333333
sS'MEAN_SERVER_HIT'
p499
F0.93044166666666661
sS'MEAN_SERVER_CACHE_HITS'
p500
F0
sS'MEAN'
p501
F1
ssS'CACHE_HIT_RATIO'
p502
g11
(tRp503
S'MEAN_OFF_PATH'
p504
F0
sS'MEAN_ON_PATH'
p505
F0.069558333333333333
sg501
F0.069558333333333333
ssS'OVERHEAD'
p506
g11
(tRp507
S'SUCCESS_RATE'
p508
F0
sS'QUOTA_USED_FAILURE'
p509
F0
sS'FAILURE_RATE'
p510
F0
sS'QUOTA_USED_SUCCESS'
p511
F0
sg501
F1
sS'NUM_SUCCESS_FIRST_TIME'
p512
F0
ssS'LATENCY'
p513
g11
(tRp514
g501
F102.27452575947876
sstp515
a(g11
(tRp516
S'workload'
p517
g11
(tRp518
S'n_contents'
p519
I10000
sS'name'
p520
S'STATIONARY'
p521
sS'n_warmup'
p522
I720000
sS'rate'
p523
I100
sS'n_measured'
p524
I360000
sS'alpha'
p525
F0.69999999999999996
ssS'cache_policy'
p526
g11
(tRp527
g520
S'LRU'
p528
ssS'desc'
p529
S'strategy network_cache: 0.7'
p530
sS'strategy'
p531
g11
(tRp532
g520
S'NDN_PROB'
p533
ssS'content_placement'
p534
g11
(tRp535
g520
S'UNIFORM'
p536
ssS'joint_cache_rsn_placement'
p537
g11
(tRp538
S'network_cache'
p539
F0.69999999999999996
sS'network_rsn'
p540
F89.599999999999994
sg520
S'CACHE_ALL_RSN_ALL'
p541
sS'rsn_cache_ratio'
p542
I128
ssS'warmup_strategy'
p543
g11
(tRp544
g520
g533
ssS'topology'
p545
g11
(tRp546
S'ext_delay'
p547
I0
sS'source_ratio'
p548
F0.10000000000000001
sg520
S'ROCKET_FUEL'
p549
sS'asn'
p550
I3257
ssg11
(tRp551
S'SAT_RATE'
p552
g11
(tRp553
S'MEAN_CACHE_HIT'
p554
F0.33663055555555554
sS'MEAN_SERVER_HIT'
p555
F0.66336944444444446
sS'MEAN_SERVER_CACHE_HITS'
p556
F0
sS'MEAN'
p557
F1
ssS'CACHE_HIT_RATIO'
p558
g11
(tRp559
S'MEAN_OFF_PATH'
p560
F0
sS'MEAN_ON_PATH'
p561
F0.33663055555555554
sg557
F0.33663055555555554
ssS'OVERHEAD'
p562
g11
(tRp563
S'SUCCESS_RATE'
p564
F0
sS'QUOTA_USED_FAILURE'
p565
F0
sS'FAILURE_RATE'
p566
F0
sS'QUOTA_USED_SUCCESS'
p567
F0
sg557
F1
sS'NUM_SUCCESS_FIRST_TIME'
p568
F0
ssS'LATENCY'
p569
g11
(tRp570
g557
F79.500738393390108
sstp571
a(g11
(tRp572
S'workload'
p573
g11
(tRp574
S'n_contents'
p575
I10000
sS'name'
p576
S'STATIONARY'
p577
sS'n_warmup'
p578
I720000
sS'rate'
p579
I100
sS'n_measured'
p580
I360000
sS'alpha'
p581
F1
ssS'cache_policy'
p582
g11
(tRp583
g576
S'LRU'
p584
ssS'desc'
p585
S'strategy network_cache: 1.0'
p586
sS'strategy'
p587
g11
(tRp588
g576
S'TFIB_BC'
p589
ssS'content_placement'
p590
g11
(tRp591
g576
S'UNIFORM'
p592
ssS'joint_cache_rsn_placement'
p593
g11
(tRp594
S'network_cache'
p595
F0.69999999999999996
sS'network_rsn'
p596
F89.599999999999994
sg576
S'CACHE_ALL_RSN_ALL'
p597
sS'rsn_cache_ratio'
p598
I128
ssS'warmup_strategy'
p599
g11
(tRp600
g576
g589
ssS'topology'
p601
g11
(tRp602
S'ext_delay'
p603
I0
sS'source_ratio'
p604
F0.10000000000000001
sg576
S'ROCKET_FUEL'
p605
sS'asn'
p606
I3257
ssg11
(tRp607
S'SAT_RATE'
p608
g11
(tRp609
S'MEAN_CACHE_HIT'
p610
F0.94086944444444442
sS'MEAN_SERVER_HIT'
p611
F0.059130555555555554
sS'MEAN_SERVER_CACHE_HITS'
p612
F0
sS'MEAN'
p613
F1
ssS'CACHE_HIT_RATIO'
p614
g11
(tRp615
S'MEAN_OFF_PATH'
p616
F0.88459444444444446
sS'MEAN_ON_PATH'
p617
F0.056274999999999964
sg613
F0.94086944444444442
ssS'OVERHEAD'
p618
g11
(tRp619
S'SUCCESS_RATE'
p620
F0.93182230493278795
sS'QUOTA_USED_FAILURE'
p621
F0
sS'FAILURE_RATE'
p622
F0.068177695067212093
sS'QUOTA_USED_SUCCESS'
p623
F0
sg613
F1
sS'NUM_SUCCESS_FIRST_TIME'
p624
F0.93247167273696885
ssS'LATENCY'
p625
g11
(tRp626
g613
F31.26735011579796
sstp627
a(g11
(tRp628
S'workload'
p629
g11
(tRp630
S'n_contents'
p631
I10000
sS'name'
p632
S'STATIONARY'
p633
sS'n_warmup'
p634
I720000
sS'rate'
p635
I100
sS'n_measured'
p636
I360000
sS'alpha'
p637
F0.69999999999999996
ssS'cache_policy'
p638
g11
(tRp639
g632
S'LRU'
p640
ssS'desc'
p641
S'strategy network_cache: 0.7'
p642
sS'strategy'
p643
g11
(tRp644
g632
S'TFIB_BC'
p645
ssS'content_placement'
p646
g11
(tRp647
g632
S'UNIFORM'
p648
ssS'joint_cache_rsn_placement'
p649
g11
(tRp650
S'network_cache'
p651
F0.69999999999999996
sS'network_rsn'
p652
F89.599999999999994
sg632
S'CACHE_ALL_RSN_ALL'
p653
sS'rsn_cache_ratio'
p654
I128
ssS'warmup_strategy'
p655
g11
(tRp656
g632
g645
ssS'topology'
p657
g11
(tRp658
S'ext_delay'
p659
I0
sS'source_ratio'
p660
F0.10000000000000001
sg632
S'ROCKET_FUEL'
p661
sS'asn'
p662
I3257
ssg11
(tRp663
S'SAT_RATE'
p664
g11
(tRp665
S'MEAN_CACHE_HIT'
p666
F0.85367222222222228
sS'MEAN_SERVER_HIT'
p667
F0.14632777777777778
sS'MEAN_SERVER_CACHE_HITS'
p668
F0
sS'MEAN'
p669
F1
ssS'CACHE_HIT_RATIO'
p670
g11
(tRp671
S'MEAN_OFF_PATH'
p672
F0.82580277777777777
sS'MEAN_ON_PATH'
p673
F0.027869444444444502
sg669
F0.85367222222222228
ssS'OVERHEAD'
p674
g11
(tRp675
S'SUCCESS_RATE'
p676
F0.84209303840673921
sS'QUOTA_USED_FAILURE'
p677
F0
sS'FAILURE_RATE'
p678
F0.15790696159326076
sS'QUOTA_USED_SUCCESS'
p679
F0
sg669
F1
sS'NUM_SUCCESS_FIRST_TIME'
p680
F0.84371623849976685
ssS'LATENCY'
p681
g11
(tRp682
g669
F43.232494560333684
sstp683
a(g11
(tRp684
S'workload'
p685
g11
(tRp686
S'n_contents'
p687
I10000
sS'name'
p688
S'STATIONARY'
p689
sS'n_warmup'
p690
I720000
sS'rate'
p691
I100
sS'n_measured'
p692
I360000
sS'alpha'
p693
F0.90000000000000002
ssS'cache_policy'
p694
g11
(tRp695
g688
S'LRU'
p696
ssS'desc'
p697
S'strategy network_cache: 0.9'
p698
sS'strategy'
p699
g11
(tRp700
g688
S'TFIB_BC'
p701
ssS'content_placement'
p702
g11
(tRp703
g688
S'UNIFORM'
p704
ssS'joint_cache_rsn_placement'
p705
g11
(tRp706
S'network_cache'
p707
F0.69999999999999996
sS'network_rsn'
p708
F89.599999999999994
sg688
S'CACHE_ALL_RSN_ALL'
p709
sS'rsn_cache_ratio'
p710
I128
ssS'warmup_strategy'
p711
g11
(tRp712
g688
g701
ssS'topology'
p713
g11
(tRp714
S'ext_delay'
p715
I0
sS'source_ratio'
p716
F0.10000000000000001
sg688
S'ROCKET_FUEL'
p717
sS'asn'
p718
I3257
ssg11
(tRp719
S'SAT_RATE'
p720
g11
(tRp721
S'MEAN_CACHE_HIT'
p722
F0.9157305555555556
sS'MEAN_SERVER_HIT'
p723
F0.084269444444444438
sS'MEAN_SERVER_CACHE_HITS'
p724
F0
sS'MEAN'
p725
F1
ssS'CACHE_HIT_RATIO'
p726
g11
(tRp727
S'MEAN_OFF_PATH'
p728
F0.88470277777777773
sS'MEAN_ON_PATH'
p729
F0.031027777777777876
sg725
F0.9157305555555556
ssS'OVERHEAD'
p730
g11
(tRp731
S'SUCCESS_RATE'
p732
F0.90639843134129994
sS'QUOTA_USED_FAILURE'
p733
F0
sS'FAILURE_RATE'
p734
F0.093601568658700049
sS'QUOTA_USED_SUCCESS'
p735
F0
sg725
F1
sS'NUM_SUCCESS_FIRST_TIME'
p736
F0.9072457485733515
ssS'LATENCY'
p737
g11
(tRp738
g725
F36.813981446488135
sstp739
a(g11
(tRp740
S'workload'
p741
g11
(tRp742
S'n_contents'
p743
I10000
sS'name'
p744
S'STATIONARY'
p745
sS'n_warmup'
p746
I720000
sS'rate'
p747
I100
sS'n_measured'
p748
I360000
sS'alpha'
p749
F0.29999999999999999
ssS'cache_policy'
p750
g11
(tRp751
g744
S'LRU'
p752
ssS'desc'
p753
S'strategy network_cache: 0.3'
p754
sS'strategy'
p755
g11
(tRp756
g744
S'TFIB_BC'
p757
ssS'content_placement'
p758
g11
(tRp759
g744
S'UNIFORM'
p760
ssS'joint_cache_rsn_placement'
p761
g11
(tRp762
S'network_cache'
p763
F0.69999999999999996
sS'network_rsn'
p764
F89.599999999999994
sg744
S'CACHE_ALL_RSN_ALL'
p765
sS'rsn_cache_ratio'
p766
I128
ssS'warmup_strategy'
p767
g11
(tRp768
g744
g757
ssS'topology'
p769
g11
(tRp770
S'ext_delay'
p771
I0
sS'source_ratio'
p772
F0.10000000000000001
sg744
S'ROCKET_FUEL'
p773
sS'asn'
p774
I3257
ssg11
(tRp775
S'SAT_RATE'
p776
g11
(tRp777
S'MEAN_CACHE_HIT'
p778
F0.72922500000000001
sS'MEAN_SERVER_HIT'
p779
F0.27077499999999999
sS'MEAN_SERVER_CACHE_HITS'
p780
F0
sS'MEAN'
p781
F1
ssS'CACHE_HIT_RATIO'
p782
g11
(tRp783
S'MEAN_OFF_PATH'
p784
F0.69886111111111116
sS'MEAN_ON_PATH'
p785
F0.030363888888888857
sg781
F0.72922500000000001
ssS'OVERHEAD'
p786
g11
(tRp787
S'SUCCESS_RATE'
p788
F0.71376330541748934
sS'QUOTA_USED_FAILURE'
p789
F0
sS'FAILURE_RATE'
p790
F0.28623669458251061
sS'QUOTA_USED_SUCCESS'
p791
F0
sg781
F1
sS'NUM_SUCCESS_FIRST_TIME'
p792
F0.71615801589069572
ssS'LATENCY'
p793
g11
(tRp794
g781
F55.760901245707593
sstp795
a(g11
(tRp796
S'workload'
p797
g11
(tRp798
S'n_contents'
p799
I10000
sS'name'
p800
S'STATIONARY'
p801
sS'n_warmup'
p802
I720000
sS'rate'
p803
I100
sS'n_measured'
p804
I360000
sS'alpha'
p805
F0.10000000000000001
ssS'cache_policy'
p806
g11
(tRp807
g800
S'LRU'
p808
ssS'desc'
p809
S'strategy network_cache: 0.1'
p810
sS'strategy'
p811
g11
(tRp812
g800
S'TFIB_BC'
p813
ssS'content_placement'
p814
g11
(tRp815
g800
S'UNIFORM'
p816
ssS'joint_cache_rsn_placement'
p817
g11
(tRp818
S'network_cache'
p819
F0.69999999999999996
sS'network_rsn'
p820
F89.599999999999994
sg800
S'CACHE_ALL_RSN_ALL'
p821
sS'rsn_cache_ratio'
p822
I128
ssS'warmup_strategy'
p823
g11
(tRp824
g800
g813
ssS'topology'
p825
g11
(tRp826
S'ext_delay'
p827
I0
sS'source_ratio'
p828
F0.10000000000000001
sg800
S'ROCKET_FUEL'
p829
sS'asn'
p830
I3257
ssg11
(tRp831
S'SAT_RATE'
p832
g11
(tRp833
S'MEAN_CACHE_HIT'
p834
F0.69296666666666662
sS'MEAN_SERVER_HIT'
p835
F0.30703333333333332
sS'MEAN_SERVER_CACHE_HITS'
p836
F0
sS'MEAN'
p837
F1
ssS'CACHE_HIT_RATIO'
p838
g11
(tRp839
S'MEAN_OFF_PATH'
p840
F0.66060555555555556
sS'MEAN_ON_PATH'
p841
F0.032361111111111063
sg837
F0.69296666666666662
ssS'OVERHEAD'
p842
g11
(tRp843
S'SUCCESS_RATE'
p844
F0.67548399191074548
sS'QUOTA_USED_FAILURE'
p845
F0
sS'FAILURE_RATE'
p846
F0.32451600808925446
sS'QUOTA_USED_SUCCESS'
p847
F0
sg837
F1
sS'NUM_SUCCESS_FIRST_TIME'
p848
F0.67807109910611074
ssS'LATENCY'
p849
g11
(tRp850
g837
F59.024415241795531
sstp851
a(g11
(tRp852
S'workload'
p853
g11
(tRp854
S'n_contents'
p855
I10000
sS'name'
p856
S'STATIONARY'
p857
sS'n_warmup'
p858
I720000
sS'rate'
p859
I100
sS'n_measured'
p860
I360000
sS'alpha'
p861
F0.40000000000000002
ssS'cache_policy'
p862
g11
(tRp863
g856
S'LRU'
p864
ssS'desc'
p865
S'strategy network_cache: 0.4'
p866
sS'strategy'
p867
g11
(tRp868
g856
S'TFIB_BC'
p869
ssS'content_placement'
p870
g11
(tRp871
g856
S'UNIFORM'
p872
ssS'joint_cache_rsn_placement'
p873
g11
(tRp874
S'network_cache'
p875
F0.69999999999999996
sS'network_rsn'
p876
F89.599999999999994
sg856
S'CACHE_ALL_RSN_ALL'
p877
sS'rsn_cache_ratio'
p878
I128
ssS'warmup_strategy'
p879
g11
(tRp880
g856
g869
ssS'topology'
p881
g11
(tRp882
S'ext_delay'
p883
I0
sS'source_ratio'
p884
F0.10000000000000001
sg856
S'ROCKET_FUEL'
p885
sS'asn'
p886
I3257
ssg11
(tRp887
S'SAT_RATE'
p888
g11
(tRp889
S'MEAN_CACHE_HIT'
p890
F0.75569722222222224
sS'MEAN_SERVER_HIT'
p891
F0.24430277777777779
sS'MEAN_SERVER_CACHE_HITS'
p892
F0
sS'MEAN'
p893
F1
ssS'CACHE_HIT_RATIO'
p894
g11
(tRp895
S'MEAN_OFF_PATH'
p896
F0.72605833333333336
sS'MEAN_ON_PATH'
p897
F0.029638888888888881
sg893
F0.75569722222222224
ssS'OVERHEAD'
p898
g11
(tRp899
S'SUCCESS_RATE'
p900
F0.74111899651536328
sS'QUOTA_USED_FAILURE'
p901
F0
sS'FAILURE_RATE'
p902
F0.25888100348463672
sS'QUOTA_USED_SUCCESS'
p903
F0
sg893
F1
sS'NUM_SUCCESS_FIRST_TIME'
p904
F0.74350743841268208
ssS'LATENCY'
p905
g11
(tRp906
g893
F53.069780091285708
sstp907
a(g11
(tRp908
S'workload'
p909
g11
(tRp910
S'n_contents'
p911
I10000
sS'name'
p912
S'STATIONARY'
p913
sS'n_warmup'
p914
I720000
sS'rate'
p915
I100
sS'n_measured'
p916
I360000
sS'alpha'
p917
F0.59999999999999998
ssS'cache_policy'
p918
g11
(tRp919
g912
S'LRU'
p920
ssS'desc'
p921
S'strategy network_cache: 0.6'
p922
sS'strategy'
p923
g11
(tRp924
g912
S'TFIB_BC'
p925
ssS'content_placement'
p926
g11
(tRp927
g912
S'UNIFORM'
p928
ssS'joint_cache_rsn_placement'
p929
g11
(tRp930
S'network_cache'
p931
F0.69999999999999996
sS'network_rsn'
p932
F89.599999999999994
sg912
S'CACHE_ALL_RSN_ALL'
p933
sS'rsn_cache_ratio'
p934
I128
ssS'warmup_strategy'
p935
g11
(tRp936
g912
g925
ssS'topology'
p937
g11
(tRp938
S'ext_delay'
p939
I0
sS'source_ratio'
p940
F0.10000000000000001
sg912
S'ROCKET_FUEL'
p941
sS'asn'
p942
I3257
ssg11
(tRp943
S'SAT_RATE'
p944
g11
(tRp945
S'MEAN_CACHE_HIT'
p946
F0.82185833333333336
sS'MEAN_SERVER_HIT'
p947
F0.17814166666666667
sS'MEAN_SERVER_CACHE_HITS'
p948
F0
sS'MEAN'
p949
F1
ssS'CACHE_HIT_RATIO'
p950
g11
(tRp951
S'MEAN_OFF_PATH'
p952
F0.7942555555555556
sS'MEAN_ON_PATH'
p953
F0.027602777777777754
sg949
F0.82185833333333336
ssS'OVERHEAD'
p954
g11
(tRp955
S'SUCCESS_RATE'
p956
F0.80955535737036566
sS'QUOTA_USED_FAILURE'
p957
F0
sS'FAILURE_RATE'
p958
F0.19044464262963434
sS'QUOTA_USED_SUCCESS'
p959
F0
sg949
F1
sS'NUM_SUCCESS_FIRST_TIME'
p960
F0.8114343571089313
ssS'LATENCY'
p961
g11
(tRp962
g949
F46.350544518363542
sstp963
a(g11
(tRp964
S'workload'
p965
g11
(tRp966
S'n_contents'
p967
I10000
sS'name'
p968
S'STATIONARY'
p969
sS'n_warmup'
p970
I720000
sS'rate'
p971
I100
sS'n_measured'
p972
I360000
sS'alpha'
p973
F0.20000000000000001
ssS'cache_policy'
p974
g11
(tRp975
g968
S'LRU'
p976
ssS'desc'
p977
S'strategy network_cache: 0.2'
p978
sS'strategy'
p979
g11
(tRp980
g968
S'TFIB_BC'
p981
ssS'content_placement'
p982
g11
(tRp983
g968
S'UNIFORM'
p984
ssS'joint_cache_rsn_placement'
p985
g11
(tRp986
S'network_cache'
p987
F0.69999999999999996
sS'network_rsn'
p988
F89.599999999999994
sg968
S'CACHE_ALL_RSN_ALL'
p989
sS'rsn_cache_ratio'
p990
I128
ssS'warmup_strategy'
p991
g11
(tRp992
g968
g981
ssS'topology'
p993
g11
(tRp994
S'ext_delay'
p995
I0
sS'source_ratio'
p996
F0.10000000000000001
sg968
S'ROCKET_FUEL'
p997
sS'asn'
p998
I3257
ssg11
(tRp999
S'SAT_RATE'
p1000
g11
(tRp1001
S'MEAN_CACHE_HIT'
p1002
F0.70831944444444439
sS'MEAN_SERVER_HIT'
p1003
F0.29168055555555555
sS'MEAN_SERVER_CACHE_HITS'
p1004
F0
sS'MEAN'
p1005
F1
ssS'CACHE_HIT_RATIO'
p1006
g11
(tRp1007
S'MEAN_OFF_PATH'
p1008
F0.67689166666666667
sS'MEAN_ON_PATH'
p1009
F0.031427777777777721
sg1005
F0.70831944444444439
ssS'OVERHEAD'
p1010
g11
(tRp1011
S'SUCCESS_RATE'
p1012
F0.69195056988874815
sS'QUOTA_USED_FAILURE'
p1013
F0
sS'FAILURE_RATE'
p1014
F0.3080494301112518
sS'QUOTA_USED_SUCCESS'
p1015
F0
sg1005
F1
sS'NUM_SUCCESS_FIRST_TIME'
p1016
F0.69435225443869864
ssS'LATENCY'
p1017
g11
(tRp1018
g1005
F57.583976970274009
sstp1019
a(g11
(tRp1020
S'workload'
p1021
g11
(tRp1022
S'n_contents'
p1023
I10000
sS'name'
p1024
S'STATIONARY'
p1025
sS'n_warmup'
p1026
I720000
sS'rate'
p1027
I100
sS'n_measured'
p1028
I360000
sS'alpha'
p1029
F0.80000000000000004
ssS'cache_policy'
p1030
g11
(tRp1031
g1024
S'LRU'
p1032
ssS'desc'
p1033
S'strategy network_cache: 0.8'
p1034
sS'strategy'
p1035
g11
(tRp1036
g1024
S'TFIB_BC'
p1037
ssS'content_placement'
p1038
g11
(tRp1039
g1024
S'UNIFORM'
p1040
ssS'joint_cache_rsn_placement'
p1041
g11
(tRp1042
S'network_cache'
p1043
F0.69999999999999996
sS'network_rsn'
p1044
F89.599999999999994
sg1024
S'CACHE_ALL_RSN_ALL'
p1045
sS'rsn_cache_ratio'
p1046
I128
ssS'warmup_strategy'
p1047
g11
(tRp1048
g1024
g1037
ssS'topology'
p1049
g11
(tRp1050
S'ext_delay'
p1051
I0
sS'source_ratio'
p1052
F0.10000000000000001
sg1024
S'ROCKET_FUEL'
p1053
sS'asn'
p1054
I3257
ssg11
(tRp1055
S'SAT_RATE'
p1056
g11
(tRp1057
S'MEAN_CACHE_HIT'
p1058
F0.8861
sS'MEAN_SERVER_HIT'
p1059
F0.1139
sS'MEAN_SERVER_CACHE_HITS'
p1060
F0
sS'MEAN'
p1061
F1
ssS'CACHE_HIT_RATIO'
p1062
g11
(tRp1063
S'MEAN_OFF_PATH'
p1064
F0.85541111111111112
sS'MEAN_ON_PATH'
p1065
F0.030688888888888877
sg1061
F0.8861
ssS'OVERHEAD'
p1066
g11
(tRp1067
S'SUCCESS_RATE'
p1068
F0.87475038418820539
sS'QUOTA_USED_FAILURE'
p1069
F0
sS'FAILURE_RATE'
p1070
F0.12524961581179464
sS'QUOTA_USED_SUCCESS'
p1071
F0
sg1061
F1
sS'NUM_SUCCESS_FIRST_TIME'
p1072
F0.87600642746029844
ssS'LATENCY'
p1073
g11
(tRp1074
g1061
F39.994301772082395
sstp1075
a(g11
(tRp1076
S'workload'
p1077
g11
(tRp1078
S'n_contents'
p1079
I10000
sS'name'
p1080
S'STATIONARY'
p1081
sS'n_warmup'
p1082
I720000
sS'rate'
p1083
I100
sS'n_measured'
p1084
I360000
sS'alpha'
p1085
F0.5
ssS'cache_policy'
p1086
g11
(tRp1087
g1080
S'LRU'
p1088
ssS'desc'
p1089
S'strategy network_cache: 0.5'
p1090
sS'strategy'
p1091
g11
(tRp1092
g1080
S'TFIB_BC'
p1093
ssS'content_placement'
p1094
g11
(tRp1095
g1080
S'UNIFORM'
p1096
ssS'joint_cache_rsn_placement'
p1097
g11
(tRp1098
S'network_cache'
p1099
F0.69999999999999996
sS'network_rsn'
p1100
F89.599999999999994
sg1080
S'CACHE_ALL_RSN_ALL'
p1101
sS'rsn_cache_ratio'
p1102
I128
ssS'warmup_strategy'
p1103
g11
(tRp1104
g1080
g1093
ssS'topology'
p1105
g11
(tRp1106
S'ext_delay'
p1107
I0
sS'source_ratio'
p1108
F0.10000000000000001
sg1080
S'ROCKET_FUEL'
p1109
sS'asn'
p1110
I3257
ssg11
(tRp1111
S'SAT_RATE'
p1112
g11
(tRp1113
S'MEAN_CACHE_HIT'
p1114
F0.7878694444444444
sS'MEAN_SERVER_HIT'
p1115
F0.21213055555555554
sS'MEAN_SERVER_CACHE_HITS'
p1116
F0
sS'MEAN'
p1117
F1
ssS'CACHE_HIT_RATIO'
p1118
g11
(tRp1119
S'MEAN_OFF_PATH'
p1120
F0.75921111111111106
sS'MEAN_ON_PATH'
p1121
F0.028658333333333341
sg1117
F0.7878694444444444
ssS'OVERHEAD'
p1122
g11
(tRp1123
S'SUCCESS_RATE'
p1124
F0.77440449711988257
sS'QUOTA_USED_FAILURE'
p1125
F0
sS'FAILURE_RATE'
p1126
F0.22559550288011743
sS'QUOTA_USED_SUCCESS'
p1127
F0
sg1117
F1
sS'NUM_SUCCESS_FIRST_TIME'
p1128
F0.77657076418019333
ssS'LATENCY'
p1129
g11
(tRp1130
g1117
F49.984816106629147
sstp1131
a(g11
(tRp1132
S'workload'
p1133
g11
(tRp1134
S'n_contents'
p1135
I10000
sS'name'
p1136
S'STATIONARY'
p1137
sS'n_warmup'
p1138
I720000
sS'rate'
p1139
I100
sS'n_measured'
p1140
I360000
sS'alpha'
p1141
F0.40000000000000002
ssS'cache_policy'
p1142
g11
(tRp1143
g1136
S'LRU'
p1144
ssS'desc'
p1145
S'strategy network_cache: 0.4'
p1146
sS'strategy'
p1147
g11
(tRp1148
g1136
S'NRR_PROB'
p1149
ssS'content_placement'
p1150
g11
(tRp1151
g1136
S'UNIFORM'
p1152
ssS'joint_cache_rsn_placement'
p1153
g11
(tRp1154
S'network_cache'
p1155
F0.69999999999999996
sS'network_rsn'
p1156
F89.599999999999994
sg1136
S'CACHE_ALL_RSN_ALL'
p1157
sS'rsn_cache_ratio'
p1158
I128
ssS'warmup_strategy'
p1159
g11
(tRp1160
g1136
g1149
ssS'topology'
p1161
g11
(tRp1162
S'ext_delay'
p1163
I0
sS'source_ratio'
p1164
F0.10000000000000001
sg1136
S'ROCKET_FUEL'
p1165
sS'asn'
p1166
I3257
ssg11
(tRp1167
S'SAT_RATE'
p1168
g11
(tRp1169
S'MEAN_CACHE_HIT'
p1170
F0.62036666666666662
sS'MEAN_SERVER_HIT'
p1171
F0.37963333333333332
sS'MEAN_SERVER_CACHE_HITS'
p1172
F0
sS'MEAN'
p1173
F1
ssS'CACHE_HIT_RATIO'
p1174
g11
(tRp1175
S'MEAN_OFF_PATH'
p1176
F0.57132222222222218
sS'MEAN_ON_PATH'
p1177
F0.049044444444444446
sg1173
F0.62036666666666662
ssS'OVERHEAD'
p1178
g11
(tRp1179
S'SUCCESS_RATE'
p1180
F0
sS'QUOTA_USED_FAILURE'
p1181
F0
sS'FAILURE_RATE'
p1182
F0
sS'QUOTA_USED_SUCCESS'
p1183
F0
sg1173
F1
sS'NUM_SUCCESS_FIRST_TIME'
p1184
F0
ssS'LATENCY'
p1185
g11
(tRp1186
g1173
F54.584475564023585
sstp1187
a(g11
(tRp1188
S'workload'
p1189
g11
(tRp1190
S'n_contents'
p1191
I10000
sS'name'
p1192
S'STATIONARY'
p1193
sS'n_warmup'
p1194
I720000
sS'rate'
p1195
I100
sS'n_measured'
p1196
I360000
sS'alpha'
p1197
F0.20000000000000001
ssS'cache_policy'
p1198
g11
(tRp1199
g1192
S'LRU'
p1200
ssS'desc'
p1201
S'strategy network_cache: 0.2'
p1202
sS'strategy'
p1203
g11
(tRp1204
g1192
S'NRR_PROB'
p1205
ssS'content_placement'
p1206
g11
(tRp1207
g1192
S'UNIFORM'
p1208
ssS'joint_cache_rsn_placement'
p1209
g11
(tRp1210
S'network_cache'
p1211
F0.69999999999999996
sS'network_rsn'
p1212
F89.599999999999994
sg1192
S'CACHE_ALL_RSN_ALL'
p1213
sS'rsn_cache_ratio'
p1214
I128
ssS'warmup_strategy'
p1215
g11
(tRp1216
g1192
g1205
ssS'topology'
p1217
g11
(tRp1218
S'ext_delay'
p1219
I0
sS'source_ratio'
p1220
F0.10000000000000001
sg1192
S'ROCKET_FUEL'
p1221
sS'asn'
p1222
I3257
ssg11
(tRp1223
S'SAT_RATE'
p1224
g11
(tRp1225
S'MEAN_CACHE_HIT'
p1226
F0.55902777777777779
sS'MEAN_SERVER_HIT'
p1227
F0.44097222222222221
sS'MEAN_SERVER_CACHE_HITS'
p1228
F0
sS'MEAN'
p1229
F1
ssS'CACHE_HIT_RATIO'
p1230
g11
(tRp1231
S'MEAN_OFF_PATH'
p1232
F0.5173416666666667
sS'MEAN_ON_PATH'
p1233
F0.04168611111111109
sg1229
F0.55902777777777779
ssS'OVERHEAD'
p1234
g11
(tRp1235
S'SUCCESS_RATE'
p1236
F0
sS'QUOTA_USED_FAILURE'
p1237
F0
sS'FAILURE_RATE'
p1238
F0
sS'QUOTA_USED_SUCCESS'
p1239
F0
sg1229
F1
sS'NUM_SUCCESS_FIRST_TIME'
p1240
F0
ssS'LATENCY'
p1241
g11
(tRp1242
g1229
F59.25005120649103
sstp1243
a(g11
(tRp1244
S'workload'
p1245
g11
(tRp1246
S'n_contents'
p1247
I10000
sS'name'
p1248
S'STATIONARY'
p1249
sS'n_warmup'
p1250
I720000
sS'rate'
p1251
I100
sS'n_measured'
p1252
I360000
sS'alpha'
p1253
F0.29999999999999999
ssS'cache_policy'
p1254
g11
(tRp1255
g1248
S'LRU'
p1256
ssS'desc'
p1257
S'strategy network_cache: 0.3'
p1258
sS'strategy'
p1259
g11
(tRp1260
g1248
S'NRR_PROB'
p1261
ssS'content_placement'
p1262
g11
(tRp1263
g1248
S'UNIFORM'
p1264
ssS'joint_cache_rsn_placement'
p1265
g11
(tRp1266
S'network_cache'
p1267
F0.69999999999999996
sS'network_rsn'
p1268
F89.599999999999994
sg1248
S'CACHE_ALL_RSN_ALL'
p1269
sS'rsn_cache_ratio'
p1270
I128
ssS'warmup_strategy'
p1271
g11
(tRp1272
g1248
g1261
ssS'topology'
p1273
g11
(tRp1274
S'ext_delay'
p1275
I0
sS'source_ratio'
p1276
F0.10000000000000001
sg1248
S'ROCKET_FUEL'
p1277
sS'asn'
p1278
I3257
ssg11
(tRp1279
S'SAT_RATE'
p1280
g11
(tRp1281
S'MEAN_CACHE_HIT'
p1282
F0.5858944444444445
sS'MEAN_SERVER_HIT'
p1283
F0.41410555555555556
sS'MEAN_SERVER_CACHE_HITS'
p1284
F0
sS'MEAN'
p1285
F1
ssS'CACHE_HIT_RATIO'
p1286
g11
(tRp1287
S'MEAN_OFF_PATH'
p1288
F0.54278333333333328
sS'MEAN_ON_PATH'
p1289
F0.043111111111111211
sg1285
F0.5858944444444445
ssS'OVERHEAD'
p1290
g11
(tRp1291
S'SUCCESS_RATE'
p1292
F0
sS'QUOTA_USED_FAILURE'
p1293
F0
sS'FAILURE_RATE'
p1294
F0
sS'QUOTA_USED_SUCCESS'
p1295
F0
sg1285
F1
sS'NUM_SUCCESS_FIRST_TIME'
p1296
F0
ssS'LATENCY'
p1297
g11
(tRp1298
g1285
F57.081372889614869
sstp1299
a(g11
(tRp1300
S'workload'
p1301
g11
(tRp1302
S'n_contents'
p1303
I10000
sS'name'
p1304
S'STATIONARY'
p1305
sS'n_warmup'
p1306
I720000
sS'rate'
p1307
I100
sS'n_measured'
p1308
I360000
sS'alpha'
p1309
F0.10000000000000001
ssS'cache_policy'
p1310
g11
(tRp1311
g1304
S'LRU'
p1312
ssS'desc'
p1313
S'strategy network_cache: 0.1'
p1314
sS'strategy'
p1315
g11
(tRp1316
g1304
S'NRR_PROB'
p1317
ssS'content_placement'
p1318
g11
(tRp1319
g1304
S'UNIFORM'
p1320
ssS'joint_cache_rsn_placement'
p1321
g11
(tRp1322
S'network_cache'
p1323
F0.69999999999999996
sS'network_rsn'
p1324
F89.599999999999994
sg1304
S'CACHE_ALL_RSN_ALL'
p1325
sS'rsn_cache_ratio'
p1326
I128
ssS'warmup_strategy'
p1327
g11
(tRp1328
g1304
g1317
ssS'topology'
p1329
g11
(tRp1330
S'ext_delay'
p1331
I0
sS'source_ratio'
p1332
F0.10000000000000001
sg1304
S'ROCKET_FUEL'
p1333
sS'asn'
p1334
I3257
ssg11
(tRp1335
S'SAT_RATE'
p1336
g11
(tRp1337
S'MEAN_CACHE_HIT'
p1338
F0.53723611111111114
sS'MEAN_SERVER_HIT'
p1339
F0.46276388888888886
sS'MEAN_SERVER_CACHE_HITS'
p1340
F0
sS'MEAN'
p1341
F1
ssS'CACHE_HIT_RATIO'
p1342
g11
(tRp1343
S'MEAN_OFF_PATH'
p1344
F0.4980222222222222
sS'MEAN_ON_PATH'
p1345
F0.039213888888888937
sg1341
F0.53723611111111114
ssS'OVERHEAD'
p1346
g11
(tRp1347
S'SUCCESS_RATE'
p1348
F0
sS'QUOTA_USED_FAILURE'
p1349
F0
sS'FAILURE_RATE'
p1350
F0
sS'QUOTA_USED_SUCCESS'
p1351
F0
sg1341
F1
sS'NUM_SUCCESS_FIRST_TIME'
p1352
F0
ssS'LATENCY'
p1353
g11
(tRp1354
g1341
F60.740299940991939
sstp1355
a(g11
(tRp1356
S'workload'
p1357
g11
(tRp1358
S'n_contents'
p1359
I10000
sS'name'
p1360
S'STATIONARY'
p1361
sS'n_warmup'
p1362
I720000
sS'rate'
p1363
I100
sS'n_measured'
p1364
I360000
sS'alpha'
p1365
F0.5
ssS'cache_policy'
p1366
g11
(tRp1367
g1360
S'LRU'
p1368
ssS'desc'
p1369
S'strategy network_cache: 0.5'
p1370
sS'strategy'
p1371
g11
(tRp1372
g1360
S'NRR_PROB'
p1373
ssS'content_placement'
p1374
g11
(tRp1375
g1360
S'UNIFORM'
p1376
ssS'joint_cache_rsn_placement'
p1377
g11
(tRp1378
S'network_cache'
p1379
F0.69999999999999996
sS'network_rsn'
p1380
F89.599999999999994
sg1360
S'CACHE_ALL_RSN_ALL'
p1381
sS'rsn_cache_ratio'
p1382
I128
ssS'warmup_strategy'
p1383
g11
(tRp1384
g1360
g1373
ssS'topology'
p1385
g11
(tRp1386
S'ext_delay'
p1387
I0
sS'source_ratio'
p1388
F0.10000000000000001
sg1360
S'ROCKET_FUEL'
p1389
sS'asn'
p1390
I3257
ssg11
(tRp1391
S'SAT_RATE'
p1392
g11
(tRp1393
S'MEAN_CACHE_HIT'
p1394
F0.65276111111111113
sS'MEAN_SERVER_HIT'
p1395
F0.34723888888888887
sS'MEAN_SERVER_CACHE_HITS'
p1396
F0
sS'MEAN'
p1397
F1
ssS'CACHE_HIT_RATIO'
p1398
g11
(tRp1399
S'MEAN_OFF_PATH'
p1400
F0.59115555555555555
sS'MEAN_ON_PATH'
p1401
F0.06160555555555558
sg1397
F0.65276111111111113
ssS'OVERHEAD'
p1402
g11
(tRp1403
S'SUCCESS_RATE'
p1404
F0
sS'QUOTA_USED_FAILURE'
p1405
F0
sS'FAILURE_RATE'
p1406
F0
sS'QUOTA_USED_SUCCESS'
p1407
F0
sg1397
F1
sS'NUM_SUCCESS_FIRST_TIME'
p1408
F0
ssS'LATENCY'
p1409
g11
(tRp1410
g1397
F51.573507643805755
sstp1411
a(g11
(tRp1412
S'workload'
p1413
g11
(tRp1414
S'n_contents'
p1415
I10000
sS'name'
p1416
S'STATIONARY'
p1417
sS'n_warmup'
p1418
I720000
sS'rate'
p1419
I100
sS'n_measured'
p1420
I360000
sS'alpha'
p1421
F0.90000000000000002
ssS'cache_policy'
p1422
g11
(tRp1423
g1416
S'LRU'
p1424
ssS'desc'
p1425
S'strategy network_cache: 0.9'
p1426
sS'strategy'
p1427
g11
(tRp1428
g1416
S'NRR_PROB'
p1429
ssS'content_placement'
p1430
g11
(tRp1431
g1416
S'UNIFORM'
p1432
ssS'joint_cache_rsn_placement'
p1433
g11
(tRp1434
S'network_cache'
p1435
F0.69999999999999996
sS'network_rsn'
p1436
F89.599999999999994
sg1416
S'CACHE_ALL_RSN_ALL'
p1437
sS'rsn_cache_ratio'
p1438
I128
ssS'warmup_strategy'
p1439
g11
(tRp1440
g1416
g1429
ssS'topology'
p1441
g11
(tRp1442
S'ext_delay'
p1443
I0
sS'source_ratio'
p1444
F0.10000000000000001
sg1416
S'ROCKET_FUEL'
p1445
sS'asn'
p1446
I3257
ssg11
(tRp1447
S'SAT_RATE'
p1448
g11
(tRp1449
S'MEAN_CACHE_HIT'
p1450
F0.85285277777777779
sS'MEAN_SERVER_HIT'
p1451
F0.14714722222222223
sS'MEAN_SERVER_CACHE_HITS'
p1452
F0
sS'MEAN'
p1453
F1
ssS'CACHE_HIT_RATIO'
p1454
g11
(tRp1455
S'MEAN_OFF_PATH'
p1456
F0.66440833333333338
sS'MEAN_ON_PATH'
p1457
F0.18844444444444441
sg1453
F0.85285277777777779
ssS'OVERHEAD'
p1458
g11
(tRp1459
S'SUCCESS_RATE'
p1460
F0
sS'QUOTA_USED_FAILURE'
p1461
F0
sS'FAILURE_RATE'
p1462
F0
sS'QUOTA_USED_SUCCESS'
p1463
F0
sg1453
F1
sS'NUM_SUCCESS_FIRST_TIME'
p1464
F0
ssS'LATENCY'
p1465
g11
(tRp1466
g1453
F33.974703403633953
sstp1467
a(g11
(tRp1468
S'workload'
p1469
g11
(tRp1470
S'n_contents'
p1471
I10000
sS'name'
p1472
S'STATIONARY'
p1473
sS'n_warmup'
p1474
I720000
sS'rate'
p1475
I100
sS'n_measured'
p1476
I360000
sS'alpha'
p1477
F0.59999999999999998
ssS'cache_policy'
p1478
g11
(tRp1479
g1472
S'LRU'
p1480
ssS'desc'
p1481
S'strategy network_cache: 0.6'
p1482
sS'strategy'
p1483
g11
(tRp1484
g1472
S'NRR_PROB'
p1485
ssS'content_placement'
p1486
g11
(tRp1487
g1472
S'UNIFORM'
p1488
ssS'joint_cache_rsn_placement'
p1489
g11
(tRp1490
S'network_cache'
p1491
F0.69999999999999996
sS'network_rsn'
p1492
F89.599999999999994
sg1472
S'CACHE_ALL_RSN_ALL'
p1493
sS'rsn_cache_ratio'
p1494
I128
ssS'warmup_strategy'
p1495
g11
(tRp1496
g1472
g1485
ssS'topology'
p1497
g11
(tRp1498
S'ext_delay'
p1499
I0
sS'source_ratio'
p1500
F0.10000000000000001
sg1472
S'ROCKET_FUEL'
p1501
sS'asn'
p1502
I3257
ssg11
(tRp1503
S'SAT_RATE'
p1504
g11
(tRp1505
S'MEAN_CACHE_HIT'
p1506
F0.6988805555555555
sS'MEAN_SERVER_HIT'
p1507
F0.30111944444444444
sS'MEAN_SERVER_CACHE_HITS'
p1508
F0
sS'MEAN'
p1509
F1
ssS'CACHE_HIT_RATIO'
p1510
g11
(tRp1511
S'MEAN_OFF_PATH'
p1512
F0.62067222222222218
sS'MEAN_ON_PATH'
p1513
F0.078208333333333324
sg1509
F0.6988805555555555
ssS'OVERHEAD'
p1514
g11
(tRp1515
S'SUCCESS_RATE'
p1516
F0
sS'QUOTA_USED_FAILURE'
p1517
F0
sS'FAILURE_RATE'
p1518
F0
sS'QUOTA_USED_SUCCESS'
p1519
F0
sg1509
F1
sS'NUM_SUCCESS_FIRST_TIME'
p1520
F0
ssS'LATENCY'
p1521
g11
(tRp1522
g1509
F47.602280339987857
sstp1523
a(g11
(tRp1524
S'workload'
p1525
g11
(tRp1526
S'n_contents'
p1527
I10000
sS'name'
p1528
S'STATIONARY'
p1529
sS'n_warmup'
p1530
I720000
sS'rate'
p1531
I100
sS'n_measured'
p1532
I360000
sS'alpha'
p1533
F0.80000000000000004
ssS'cache_policy'
p1534
g11
(tRp1535
g1528
S'LRU'
p1536
ssS'desc'
p1537
S'strategy network_cache: 0.8'
p1538
sS'strategy'
p1539
g11
(tRp1540
g1528
S'NRR_PROB'
p1541
ssS'content_placement'
p1542
g11
(tRp1543
g1528
S'UNIFORM'
p1544
ssS'joint_cache_rsn_placement'
p1545
g11
(tRp1546
S'network_cache'
p1547
F0.69999999999999996
sS'network_rsn'
p1548
F89.599999999999994
sg1528
S'CACHE_ALL_RSN_ALL'
p1549
sS'rsn_cache_ratio'
p1550
I128
ssS'warmup_strategy'
p1551
g11
(tRp1552
g1528
g1541
ssS'topology'
p1553
g11
(tRp1554
S'ext_delay'
p1555
I0
sS'source_ratio'
p1556
F0.10000000000000001
sg1528
S'ROCKET_FUEL'
p1557
sS'asn'
p1558
I3257
ssg11
(tRp1559
S'SAT_RATE'
p1560
g11
(tRp1561
S'MEAN_CACHE_HIT'
p1562
F0.8011194444444445
sS'MEAN_SERVER_HIT'
p1563
F0.19888055555555556
sS'MEAN_SERVER_CACHE_HITS'
p1564
F0
sS'MEAN'
p1565
F1
ssS'CACHE_HIT_RATIO'
p1566
g11
(tRp1567
S'MEAN_OFF_PATH'
p1568
F0.68771666666666664
sS'MEAN_ON_PATH'
p1569
F0.11340277777777785
sg1565
F0.8011194444444445
ssS'OVERHEAD'
p1570
g11
(tRp1571
S'SUCCESS_RATE'
p1572
F0
sS'QUOTA_USED_FAILURE'
p1573
F0
sS'FAILURE_RATE'
p1574
F0
sS'QUOTA_USED_SUCCESS'
p1575
F0
sg1565
F1
sS'NUM_SUCCESS_FIRST_TIME'
p1576
F0
ssS'LATENCY'
p1577
g11
(tRp1578
g1565
F39.184909713950702
sstp1579
a(g11
(tRp1580
S'workload'
p1581
g11
(tRp1582
S'n_contents'
p1583
I10000
sS'name'
p1584
S'STATIONARY'
p1585
sS'n_warmup'
p1586
I720000
sS'rate'
p1587
I100
sS'n_measured'
p1588
I360000
sS'alpha'
p1589
F0.69999999999999996
ssS'cache_policy'
p1590
g11
(tRp1591
g1584
S'LRU'
p1592
ssS'desc'
p1593
S'strategy network_cache: 0.7'
p1594
sS'strategy'
p1595
g11
(tRp1596
g1584
S'NRR_PROB'
p1597
ssS'content_placement'
p1598
g11
(tRp1599
g1584
S'UNIFORM'
p1600
ssS'joint_cache_rsn_placement'
p1601
g11
(tRp1602
S'network_cache'
p1603
F0.69999999999999996
sS'network_rsn'
p1604
F89.599999999999994
sg1584
S'CACHE_ALL_RSN_ALL'
p1605
sS'rsn_cache_ratio'
p1606
I128
ssS'warmup_strategy'
p1607
g11
(tRp1608
g1584
g1597
ssS'topology'
p1609
g11
(tRp1610
S'ext_delay'
p1611
I0
sS'source_ratio'
p1612
F0.10000000000000001
sg1584
S'ROCKET_FUEL'
p1613
sS'asn'
p1614
I3257
ssg11
(tRp1615
S'SAT_RATE'
p1616
g11
(tRp1617
S'MEAN_CACHE_HIT'
p1618
F0.74975000000000003
sS'MEAN_SERVER_HIT'
p1619
F0.25024999999999997
sS'MEAN_SERVER_CACHE_HITS'
p1620
F0
sS'MEAN'
p1621
F1
ssS'CACHE_HIT_RATIO'
p1622
g11
(tRp1623
S'MEAN_OFF_PATH'
p1624
F0.62678888888888884
sS'MEAN_ON_PATH'
p1625
F0.12296111111111119
sg1621
F0.74975000000000003
ssS'OVERHEAD'
p1626
g11
(tRp1627
S'SUCCESS_RATE'
p1628
F0
sS'QUOTA_USED_FAILURE'
p1629
F0
sS'FAILURE_RATE'
p1630
F0
sS'QUOTA_USED_SUCCESS'
p1631
F0
sg1621
F1
sS'NUM_SUCCESS_FIRST_TIME'
p1632
F0
ssS'LATENCY'
p1633
g11
(tRp1634
g1621
F43.780279931973794
sstp1635
a(g11
(tRp1636
S'workload'
p1637
g11
(tRp1638
S'n_contents'
p1639
I10000
sS'name'
p1640
S'STATIONARY'
p1641
sS'n_warmup'
p1642
I720000
sS'rate'
p1643
I100
sS'n_measured'
p1644
I360000
sS'alpha'
p1645
F1
ssS'cache_policy'
p1646
g11
(tRp1647
g1640
S'LRU'
p1648
ssS'desc'
p1649
S'strategy network_cache: 1.0'
p1650
sS'strategy'
p1651
g11
(tRp1652
g1640
S'NRR_PROB'
p1653
ssS'content_placement'
p1654
g11
(tRp1655
g1640
S'UNIFORM'
p1656
ssS'joint_cache_rsn_placement'
p1657
g11
(tRp1658
S'network_cache'
p1659
F0.69999999999999996
sS'network_rsn'
p1660
F89.599999999999994
sg1640
S'CACHE_ALL_RSN_ALL'
p1661
sS'rsn_cache_ratio'
p1662
I128
ssS'warmup_strategy'
p1663
g11
(tRp1664
g1640
g1653
ssS'topology'
p1665
g11
(tRp1666
S'ext_delay'
p1667
I0
sS'source_ratio'
p1668
F0.10000000000000001
sg1640
S'ROCKET_FUEL'
p1669
sS'asn'
p1670
I3257
ssg11
(tRp1671
S'SAT_RATE'
p1672
g11
(tRp1673
S'MEAN_CACHE_HIT'
p1674
F0.89453055555555561
sS'MEAN_SERVER_HIT'
p1675
F0.10546944444444445
sS'MEAN_SERVER_CACHE_HITS'
p1676
F0
sS'MEAN'
p1677
F1
ssS'CACHE_HIT_RATIO'
p1678
g11
(tRp1679
S'MEAN_OFF_PATH'
p1680
F0.7348055555555556
sS'MEAN_ON_PATH'
p1681
F0.15972500000000001
sg1677
F0.89453055555555561
ssS'OVERHEAD'
p1682
g11
(tRp1683
S'SUCCESS_RATE'
p1684
F0
sS'QUOTA_USED_FAILURE'
p1685
F0
sS'FAILURE_RATE'
p1686
F0
sS'QUOTA_USED_SUCCESS'
p1687
F0
sg1677
F1
sS'NUM_SUCCESS_FIRST_TIME'
p1688
F0
ssS'LATENCY'
p1689
g11
(tRp1690
g1677
F30.443505363472841
sstp1691
a(g11
(tRp1692
S'workload'
p1693
g11
(tRp1694
S'n_contents'
p1695
I10000
sS'name'
p1696
S'STATIONARY'
p1697
sS'n_warmup'
p1698
I720000
sS'rate'
p1699
I100
sS'n_measured'
p1700
I360000
sS'alpha'
p1701
F1
ssS'cache_policy'
p1702
g11
(tRp1703
g1696
S'LRU'
p1704
ssS'desc'
p1705
S'strategy zipf: 1.0'
p1706
sS'strategy'
p1707
g11
(tRp1708
S'extra_quota'
p1709
I2
sS'fan_out'
p1710
I2
sg1696
S'TFIB_SC'
p1711
ssS'content_placement'
p1712
g11
(tRp1713
g1696
S'UNIFORM'
p1714
ssS'joint_cache_rsn_placement'
p1715
g11
(tRp1716
S'network_cache'
p1717
F0.69999999999999996
sS'network_rsn'
p1718
F89.599999999999994
sg1696
S'CACHE_ALL_RSN_ALL'
p1719
sS'rsn_cache_ratio'
p1720
I128
ssS'warmup_strategy'
p1721
g11
(tRp1722
g1709
I10000
sg1710
I10
sg1696
g1711
ssS'topology'
p1723
g11
(tRp1724
S'ext_delay'
p1725
I0
sS'source_ratio'
p1726
F0.10000000000000001
sg1696
S'ROCKET_FUEL'
p1727
sS'asn'
p1728
I3257
ssg11
(tRp1729
S'SAT_RATE'
p1730
g11
(tRp1731
S'MEAN_CACHE_HIT'
p1732
F0.92347777777777773
sS'MEAN_SERVER_HIT'
p1733
F0.39021388888888892
sS'MEAN_SERVER_CACHE_HITS'
p1734
F0.31370833333333331
sS'MEAN'
p1735
F0.99998333333333334
ssS'CACHE_HIT_RATIO'
p1736
g11
(tRp1737
S'MEAN_OFF_PATH'
p1738
F0.39092971672280619
sS'MEAN_ON_PATH'
p1739
F0.53254806105497154
sg1735
F0.92347777777777773
ssS'OVERHEAD'
p1740
g11
(tRp1741
S'SUCCESS_RATE'
p1742
F0.90277203914430459
sS'QUOTA_USED_FAILURE'
p1743
F1
sS'FAILURE_RATE'
p1744
F0.097227960855695392
sS'QUOTA_USED_SUCCESS'
p1745
F1
sg1735
F1.6656583165274976
sS'NUM_SUCCESS_FIRST_TIME'
p1746
F0.89118352292812153
ssS'LATENCY'
p1747
g11
(tRp1748
g1735
F7.469783333333333
sstp1749
a(g11
(tRp1750
S'workload'
p1751
g11
(tRp1752
S'n_contents'
p1753
I10000
sS'name'
p1754
S'STATIONARY'
p1755
sS'n_warmup'
p1756
I720000
sS'rate'
p1757
I100
sS'n_measured'
p1758
I360000
sS'alpha'
p1759
F0.90000000000000002
ssS'cache_policy'
p1760
g11
(tRp1761
g1754
S'LRU'
p1762
ssS'desc'
p1763
S'strategy zipf: 0.9'
p1764
sS'strategy'
p1765
g11
(tRp1766
S'extra_quota'
p1767
I2
sS'fan_out'
p1768
I2
sg1754
S'TFIB_SC'
p1769
ssS'content_placement'
p1770
g11
(tRp1771
g1754
S'UNIFORM'
p1772
ssS'joint_cache_rsn_placement'
p1773
g11
(tRp1774
S'network_cache'
p1775
F0.69999999999999996
sS'network_rsn'
p1776
F89.599999999999994
sg1754
S'CACHE_ALL_RSN_ALL'
p1777
sS'rsn_cache_ratio'
p1778
I128
ssS'warmup_strategy'
p1779
g11
(tRp1780
g1767
I10000
sg1768
I10
sg1754
g1769
ssS'topology'
p1781
g11
(tRp1782
S'ext_delay'
p1783
I0
sS'source_ratio'
p1784
F0.10000000000000001
sg1754
S'ROCKET_FUEL'
p1785
sS'asn'
p1786
I3257
ssg11
(tRp1787
S'SAT_RATE'
p1788
g11
(tRp1789
S'MEAN_CACHE_HIT'
p1790
F0.89583888888888885
sS'MEAN_SERVER_HIT'
p1791
F0.50017500000000004
sS'MEAN_SERVER_CACHE_HITS'
p1792
F0.39605000000000001
sS'MEAN'
p1793
F0.99996388888888887
ssS'CACHE_HIT_RATIO'
p1794
g11
(tRp1795
S'MEAN_OFF_PATH'
p1796
F0.36380965646234814
sS'MEAN_ON_PATH'
p1797
F0.53202923242654077
sg1793
F0.89583888888888885
ssS'OVERHEAD'
p1798
g11
(tRp1799
S'SUCCESS_RATE'
p1800
F0.8601592556142077
sS'QUOTA_USED_FAILURE'
p1801
F1
sS'FAILURE_RATE'
p1802
F0.13984074438579225
sS'QUOTA_USED_SUCCESS'
p1803
F1
sg1793
F1.6059857717084227
sS'NUM_SUCCESS_FIRST_TIME'
p1804
F0.84345199684519967
ssS'LATENCY'
p1805
g11
(tRp1806
g1793
F9.8563888888888886
sstp1807
a(g11
(tRp1808
S'workload'
p1809
g11
(tRp1810
S'n_contents'
p1811
I10000
sS'name'
p1812
S'STATIONARY'
p1813
sS'n_warmup'
p1814
I720000
sS'rate'
p1815
I100
sS'n_measured'
p1816
I360000
sS'alpha'
p1817
F1
ssS'cache_policy'
p1818
g11
(tRp1819
g1812
S'LRU'
p1820
ssS'desc'
p1821
S'strategy zipf: 1.0'
p1822
sS'strategy'
p1823
g11
(tRp1824
S'extra_quota'
p1825
I2
sS'fan_out'
p1826
I2
sg1812
S'TFIB_DC'
p1827
ssS'content_placement'
p1828
g11
(tRp1829
g1812
S'UNIFORM'
p1830
ssS'joint_cache_rsn_placement'
p1831
g11
(tRp1832
S'network_cache'
p1833
F0.69999999999999996
sS'network_rsn'
p1834
F89.599999999999994
sg1812
S'CACHE_ALL_RSN_ALL'
p1835
sS'rsn_cache_ratio'
p1836
I128
ssS'warmup_strategy'
p1837
g11
(tRp1838
g1825
I10000
sg1826
I10
sg1812
g1827
ssS'topology'
p1839
g11
(tRp1840
S'ext_delay'
p1841
I0
sS'source_ratio'
p1842
F0.10000000000000001
sg1812
S'ROCKET_FUEL'
p1843
sS'asn'
p1844
I3257
ssg11
(tRp1845
S'SAT_RATE'
p1846
g11
(tRp1847
S'MEAN_CACHE_HIT'
p1848
F0.92290555555555553
sS'MEAN_SERVER_HIT'
p1849
F0.092336111111111105
sS'MEAN_SERVER_CACHE_HITS'
p1850
F0.044511111111111112
sS'MEAN'
p1851
F0.97073055555555554
ssS'CACHE_HIT_RATIO'
p1852
g11
(tRp1853
S'MEAN_OFF_PATH'
p1854
F0.46437492988806717
sS'MEAN_ON_PATH'
p1855
F0.45853062566748837
sg1851
F0.92290555555555553
ssS'OVERHEAD'
p1856
g11
(tRp1857
S'SUCCESS_RATE'
p1858
F0.90189182932655609
sS'QUOTA_USED_FAILURE'
p1859
F7.5383045536081283
sS'FAILURE_RATE'
p1860
F0.098108170673443962
sS'QUOTA_USED_SUCCESS'
p1861
F123.35405393982211
sg1851
F1.1580653745890124
sS'NUM_SUCCESS_FIRST_TIME'
p1862
F0.90093147409954966
ssS'LATENCY'
p1863
g11
(tRp1864
g1851
F2.7458833333333335
sstp1865
a(g11
(tRp1866
S'workload'
p1867
g11
(tRp1868
S'n_contents'
p1869
I10000
sS'name'
p1870
S'STATIONARY'
p1871
sS'n_warmup'
p1872
I720000
sS'rate'
p1873
I100
sS'n_measured'
p1874
I360000
sS'alpha'
p1875
F0.80000000000000004
ssS'cache_policy'
p1876
g11
(tRp1877
g1870
S'LRU'
p1878
ssS'desc'
p1879
S'strategy zipf: 0.8'
p1880
sS'strategy'
p1881
g11
(tRp1882
S'extra_quota'
p1883
I2
sS'fan_out'
p1884
I2
sg1870
S'TFIB_SC'
p1885
ssS'content_placement'
p1886
g11
(tRp1887
g1870
S'UNIFORM'
p1888
ssS'joint_cache_rsn_placement'
p1889
g11
(tRp1890
S'network_cache'
p1891
F0.69999999999999996
sS'network_rsn'
p1892
F89.599999999999994
sg1870
S'CACHE_ALL_RSN_ALL'
p1893
sS'rsn_cache_ratio'
p1894
I128
ssS'warmup_strategy'
p1895
g11
(tRp1896
g1883
I10000
sg1884
I10
sg1870
g1885
ssS'topology'
p1897
g11
(tRp1898
S'ext_delay'
p1899
I0
sS'source_ratio'
p1900
F0.10000000000000001
sg1870
S'ROCKET_FUEL'
p1901
sS'asn'
p1902
I3257
ssg11
(tRp1903
S'SAT_RATE'
p1904
g11
(tRp1905
S'MEAN_CACHE_HIT'
p1906
F0.85968333333333335
sS'MEAN_SERVER_HIT'
p1907
F0.61104722222222219
sS'MEAN_SERVER_CACHE_HITS'
p1908
F0.4707722222222222
sS'MEAN'
p1909
F0.99995833333333328
ssS'CACHE_HIT_RATIO'
p1910
g11
(tRp1911
S'MEAN_OFF_PATH'
p1912
F0.39838477853976578
sS'MEAN_ON_PATH'
p1913
F0.46129855479356757
sg1909
F0.85968333333333335
ssS'OVERHEAD'
p1914
g11
(tRp1915
S'SUCCESS_RATE'
p1916
F0.83544723478684502
sS'QUOTA_USED_FAILURE'
p1917
F1
sS'FAILURE_RATE'
p1918
F0.16455276521315501
sS'QUOTA_USED_SUCCESS'
p1919
F1
sg1909
F1.6775893440004446
sS'NUM_SUCCESS_FIRST_TIME'
p1920
F0.81986463905018425
ssS'LATENCY'
p1921
g11
(tRp1922
g1909
F12.747886111111111
sstp1923
a(g11
(tRp1924
S'workload'
p1925
g11
(tRp1926
S'n_contents'
p1927
I10000
sS'name'
p1928
S'STATIONARY'
p1929
sS'n_warmup'
p1930
I720000
sS'rate'
p1931
I100
sS'n_measured'
p1932
I360000
sS'alpha'
p1933
F0.69999999999999996
ssS'cache_policy'
p1934
g11
(tRp1935
g1928
S'LRU'
p1936
ssS'desc'
p1937
S'strategy zipf: 0.7'
p1938
sS'strategy'
p1939
g11
(tRp1940
S'extra_quota'
p1941
I2
sS'fan_out'
p1942
I2
sg1928
S'TFIB_SC'
p1943
ssS'content_placement'
p1944
g11
(tRp1945
g1928
S'UNIFORM'
p1946
ssS'joint_cache_rsn_placement'
p1947
g11
(tRp1948
S'network_cache'
p1949
F0.69999999999999996
sS'network_rsn'
p1950
F89.599999999999994
sg1928
S'CACHE_ALL_RSN_ALL'
p1951
sS'rsn_cache_ratio'
p1952
I128
ssS'warmup_strategy'
p1953
g11
(tRp1954
g1941
I10000
sg1942
I10
sg1928
g1943
ssS'topology'
p1955
g11
(tRp1956
S'ext_delay'
p1957
I0
sS'source_ratio'
p1958
F0.10000000000000001
sg1928
S'ROCKET_FUEL'
p1959
sS'asn'
p1960
I3257
ssg11
(tRp1961
S'SAT_RATE'
p1962
g11
(tRp1963
S'MEAN_CACHE_HIT'
p1964
F0.8237888888888889
sS'MEAN_SERVER_HIT'
p1965
F0.71163055555555554
sS'MEAN_SERVER_CACHE_HITS'
p1966
F0.53547777777777783
sS'MEAN'
p1967
F0.99994166666666662
ssS'CACHE_HIT_RATIO'
p1968
g11
(tRp1969
S'MEAN_OFF_PATH'
p1970
F0.39674645545643517
sS'MEAN_ON_PATH'
p1971
F0.42704243343245374
sg1967
F0.8237888888888889
ssS'OVERHEAD'
p1972
g11
(tRp1973
S'SUCCESS_RATE'
p1974
F0.80589115249553123
sS'QUOTA_USED_FAILURE'
p1975
F1
sS'FAILURE_RATE'
p1976
F0.19410884750446875
sS'QUOTA_USED_SUCCESS'
p1977
F1
sg1967
F1.6980212734631743
sS'NUM_SUCCESS_FIRST_TIME'
p1978
F0.7886206566070687
ssS'LATENCY'
p1979
g11
(tRp1980
g1967
F15.312250000000001
sstp1981
a(g11
(tRp1982
S'workload'
p1983
g11
(tRp1984
S'n_contents'
p1985
I10000
sS'name'
p1986
S'STATIONARY'
p1987
sS'n_warmup'
p1988
I720000
sS'rate'
p1989
I100
sS'n_measured'
p1990
I360000
sS'alpha'
p1991
F0.40000000000000002
ssS'cache_policy'
p1992
g11
(tRp1993
g1986
S'LRU'
p1994
ssS'desc'
p1995
S'strategy zipf: 0.4'
p1996
sS'strategy'
p1997
g11
(tRp1998
S'extra_quota'
p1999
I2
sS'fan_out'
p2000
I2
sg1986
S'TFIB_SC'
p2001
ssS'content_placement'
p2002
g11
(tRp2003
g1986
S'UNIFORM'
p2004
ssS'joint_cache_rsn_placement'
p2005
g11
(tRp2006
S'network_cache'
p2007
F0.69999999999999996
sS'network_rsn'
p2008
F89.599999999999994
sg1986
S'CACHE_ALL_RSN_ALL'
p2009
sS'rsn_cache_ratio'
p2010
I128
ssS'warmup_strategy'
p2011
g11
(tRp2012
g1999
I10000
sg2000
I10
sg1986
g2001
ssS'topology'
p2013
g11
(tRp2014
S'ext_delay'
p2015
I0
sS'source_ratio'
p2016
F0.10000000000000001
sg1986
S'ROCKET_FUEL'
p2017
sS'asn'
p2018
I3257
ssg11
(tRp2019
S'SAT_RATE'
p2020
g11
(tRp2021
S'MEAN_CACHE_HIT'
p2022
F0.72480833333333339
sS'MEAN_SERVER_HIT'
p2023
F0.90962777777777781
sS'MEAN_SERVER_CACHE_HITS'
p2024
F0.63451111111111114
sS'MEAN'
p2025
F0.99992499999999995
ssS'CACHE_HIT_RATIO'
p2026
g11
(tRp2027
S'MEAN_OFF_PATH'
p2028
F0.40189191991121642
sS'MEAN_ON_PATH'
p2029
F0.32291641342211697
sg2025
F0.72480833333333339
ssS'OVERHEAD'
p2030
g11
(tRp2031
S'SUCCESS_RATE'
p2032
F0.73283464610574978
sS'QUOTA_USED_FAILURE'
p2033
F1
sS'FAILURE_RATE'
p2034
F0.26716535389425022
sS'QUOTA_USED_SUCCESS'
p2035
F1
sg2025
F1.7290519011148058
sS'NUM_SUCCESS_FIRST_TIME'
p2036
F0.71543253600682899
ssS'LATENCY'
p2037
g11
(tRp2038
g2025
F21.213780555555555
sstp2039
a(g11
(tRp2040
S'workload'
p2041
g11
(tRp2042
S'n_contents'
p2043
I10000
sS'name'
p2044
S'STATIONARY'
p2045
sS'n_warmup'
p2046
I720000
sS'rate'
p2047
I100
sS'n_measured'
p2048
I360000
sS'alpha'
p2049
F0.59999999999999998
ssS'cache_policy'
p2050
g11
(tRp2051
g2044
S'LRU'
p2052
ssS'desc'
p2053
S'strategy zipf: 0.6'
p2054
sS'strategy'
p2055
g11
(tRp2056
S'extra_quota'
p2057
I2
sS'fan_out'
p2058
I2
sg2044
S'TFIB_SC'
p2059
ssS'content_placement'
p2060
g11
(tRp2061
g2044
S'UNIFORM'
p2062
ssS'joint_cache_rsn_placement'
p2063
g11
(tRp2064
S'network_cache'
p2065
F0.69999999999999996
sS'network_rsn'
p2066
F89.599999999999994
sg2044
S'CACHE_ALL_RSN_ALL'
p2067
sS'rsn_cache_ratio'
p2068
I128
ssS'warmup_strategy'
p2069
g11
(tRp2070
g2057
I10000
sg2058
I10
sg2044
g2059
ssS'topology'
p2071
g11
(tRp2072
S'ext_delay'
p2073
I0
sS'source_ratio'
p2074
F0.10000000000000001
sg2044
S'ROCKET_FUEL'
p2075
sS'asn'
p2076
I3257
ssg11
(tRp2077
S'SAT_RATE'
p2078
g11
(tRp2079
S'MEAN_CACHE_HIT'
p2080
F0.79229166666666662
sS'MEAN_SERVER_HIT'
p2081
F0.79878333333333329
sS'MEAN_SERVER_CACHE_HITS'
p2082
F0.59113888888888888
sS'MEAN'
p2083
F0.99993611111111114
ssS'CACHE_HIT_RATIO'
p2084
g11
(tRp2085
S'MEAN_OFF_PATH'
p2086
F0.4046093923221023
sS'MEAN_ON_PATH'
p2087
F0.38768227434456431
sg2083
F0.79229166666666662
ssS'OVERHEAD'
p2088
g11
(tRp2089
S'SUCCESS_RATE'
p2090
F0.78531233996702399
sS'QUOTA_USED_FAILURE'
p2091
F1
sS'FAILURE_RATE'
p2092
F0.21468766003297604
sS'QUOTA_USED_SUCCESS'
p2093
F1
sg2083
F1.7290882473046889
sS'NUM_SUCCESS_FIRST_TIME'
p2094
F0.76819767327285504
ssS'LATENCY'
p2095
g11
(tRp2096
g2083
F17.331008333333333
sstp2097
a(g11
(tRp2098
S'workload'
p2099
g11
(tRp2100
S'n_contents'
p2101
I10000
sS'name'
p2102
S'STATIONARY'
p2103
sS'n_warmup'
p2104
I720000
sS'rate'
p2105
I100
sS'n_measured'
p2106
I360000
sS'alpha'
p2107
F0.90000000000000002
ssS'cache_policy'
p2108
g11
(tRp2109
g2102
S'LRU'
p2110
ssS'desc'
p2111
S'strategy zipf: 0.9'
p2112
sS'strategy'
p2113
g11
(tRp2114
S'extra_quota'
p2115
I2
sS'fan_out'
p2116
I2
sg2102
S'TFIB_DC'
p2117
ssS'content_placement'
p2118
g11
(tRp2119
g2102
S'UNIFORM'
p2120
ssS'joint_cache_rsn_placement'
p2121
g11
(tRp2122
S'network_cache'
p2123
F0.69999999999999996
sS'network_rsn'
p2124
F89.599999999999994
sg2102
S'CACHE_ALL_RSN_ALL'
p2125
sS'rsn_cache_ratio'
p2126
I128
ssS'warmup_strategy'
p2127
g11
(tRp2128
g2115
I10000
sg2116
I10
sg2102
g2117
ssS'topology'
p2129
g11
(tRp2130
S'ext_delay'
p2131
I0
sS'source_ratio'
p2132
F0.10000000000000001
sg2102
S'ROCKET_FUEL'
p2133
sS'asn'
p2134
I3257
ssg11
(tRp2135
S'SAT_RATE'
p2136
g11
(tRp2137
S'MEAN_CACHE_HIT'
p2138
F0.89551666666666663
sS'MEAN_SERVER_HIT'
p2139
F0.11041111111111111
sS'MEAN_SERVER_CACHE_HITS'
p2140
F0.04898333333333333
sS'MEAN'
p2141
F0.95694444444444449
ssS'CACHE_HIT_RATIO'
p2142
g11
(tRp2143
S'MEAN_OFF_PATH'
p2144
F0.53203786443692114
sS'MEAN_ON_PATH'
p2145
F0.36347880222974549
sg2141
F0.89551666666666663
ssS'OVERHEAD'
p2146
g11
(tRp2147
S'SUCCESS_RATE'
p2148
F0.88723540954001634
sS'QUOTA_USED_FAILURE'
p2149
F8.0657088429809605
sS'FAILURE_RATE'
p2150
F0.11276459045998367
sS'QUOTA_USED_SUCCESS'
p2151
F46.02138345089773
sg2141
F1.1385428156748911
sS'NUM_SUCCESS_FIRST_TIME'
p2152
F0.88625167935512761
ssS'LATENCY'
p2153
g11
(tRp2154
g2141
F3.393877777777778
sstp2155
a(g11
(tRp2156
S'workload'
p2157
g11
(tRp2158
S'n_contents'
p2159
I10000
sS'name'
p2160
S'STATIONARY'
p2161
sS'n_warmup'
p2162
I720000
sS'rate'
p2163
I100
sS'n_measured'
p2164
I360000
sS'alpha'
p2165
F0.20000000000000001
ssS'cache_policy'
p2166
g11
(tRp2167
g2160
S'LRU'
p2168
ssS'desc'
p2169
S'strategy zipf: 0.2'
p2170
sS'strategy'
p2171
g11
(tRp2172
S'extra_quota'
p2173
I2
sS'fan_out'
p2174
I2
sg2160
S'TFIB_SC'
p2175
ssS'content_placement'
p2176
g11
(tRp2177
g2160
S'UNIFORM'
p2178
ssS'joint_cache_rsn_placement'
p2179
g11
(tRp2180
S'network_cache'
p2181
F0.69999999999999996
sS'network_rsn'
p2182
F89.599999999999994
sg2160
S'CACHE_ALL_RSN_ALL'
p2183
sS'rsn_cache_ratio'
p2184
I128
ssS'warmup_strategy'
p2185
g11
(tRp2186
g2173
I10000
sg2174
I10
sg2160
g2175
ssS'topology'
p2187
g11
(tRp2188
S'ext_delay'
p2189
I0
sS'source_ratio'
p2190
F0.10000000000000001
sg2160
S'ROCKET_FUEL'
p2191
sS'asn'
p2192
I3257
ssg11
(tRp2193
S'SAT_RATE'
p2194
g11
(tRp2195
S'MEAN_CACHE_HIT'
p2196
F0.68086111111111114
sS'MEAN_SERVER_HIT'
p2197
F0.95973888888888892
sS'MEAN_SERVER_CACHE_HITS'
p2198
F0.64069166666666666
sS'MEAN'
p2199
F0.99990833333333329
ssS'CACHE_HIT_RATIO'
p2200
g11
(tRp2201
S'MEAN_OFF_PATH'
p2202
F0.39544136968859633
sS'MEAN_ON_PATH'
p2203
F0.28541974142251481
sg2199
F0.68086111111111114
ssS'OVERHEAD'
p2204
g11
(tRp2205
S'SUCCESS_RATE'
p2206
F0.69238091046139283
sS'QUOTA_USED_FAILURE'
p2207
F1
sS'FAILURE_RATE'
p2208
F0.30761908953860712
sS'QUOTA_USED_SUCCESS'
p2209
F1
sg2199
F1.6966749729836346
sS'NUM_SUCCESS_FIRST_TIME'
p2210
F0.67994185706430821
ssS'LATENCY'
p2211
g11
(tRp2212
g2199
F23.644005555555555
sstp2213
a(g11
(tRp2214
S'workload'
p2215
g11
(tRp2216
S'n_contents'
p2217
I10000
sS'name'
p2218
S'STATIONARY'
p2219
sS'n_warmup'
p2220
I720000
sS'rate'
p2221
I100
sS'n_measured'
p2222
I360000
sS'alpha'
p2223
F0.5
ssS'cache_policy'
p2224
g11
(tRp2225
g2218
S'LRU'
p2226
ssS'desc'
p2227
S'strategy zipf: 0.5'
p2228
sS'strategy'
p2229
g11
(tRp2230
S'extra_quota'
p2231
I2
sS'fan_out'
p2232
I2
sg2218
S'TFIB_SC'
p2233
ssS'content_placement'
p2234
g11
(tRp2235
g2218
S'UNIFORM'
p2236
ssS'joint_cache_rsn_placement'
p2237
g11
(tRp2238
S'network_cache'
p2239
F0.69999999999999996
sS'network_rsn'
p2240
F89.599999999999994
sg2218
S'CACHE_ALL_RSN_ALL'
p2241
sS'rsn_cache_ratio'
p2242
I128
ssS'warmup_strategy'
p2243
g11
(tRp2244
g2231
I10000
sg2232
I10
sg2218
g2233
ssS'topology'
p2245
g11
(tRp2246
S'ext_delay'
p2247
I0
sS'source_ratio'
p2248
F0.10000000000000001
sg2218
S'ROCKET_FUEL'
p2249
sS'asn'
p2250
I3257
ssg11
(tRp2251
S'SAT_RATE'
p2252
g11
(tRp2253
S'MEAN_CACHE_HIT'
p2254
F0.75621111111111106
sS'MEAN_SERVER_HIT'
p2255
F0.87246944444444441
sS'MEAN_SERVER_CACHE_HITS'
p2256
F0.62875277777777783
sS'MEAN'
p2257
F0.99992777777777775
ssS'CACHE_HIT_RATIO'
p2258
g11
(tRp2259
S'MEAN_OFF_PATH'
p2260
F0.40934294120155201
sS'MEAN_ON_PATH'
p2261
F0.34686816990955904
sg2257
F0.75621111111111106
ssS'OVERHEAD'
p2262
g11
(tRp2263
S'SUCCESS_RATE'
p2264
F0.76169828466293454
sS'QUOTA_USED_FAILURE'
p2265
F1
sS'FAILURE_RATE'
p2266
F0.23830171533706543
sS'QUOTA_USED_SUCCESS'
p2267
F1
sg2257
F1.7479123492252218
sS'NUM_SUCCESS_FIRST_TIME'
p2268
F0.74408809342943072
ssS'LATENCY'
p2269
g11
(tRp2270
g2257
F19.924072222222222
sstp2271
a(g11
(tRp2272
S'workload'
p2273
g11
(tRp2274
S'n_contents'
p2275
I10000
sS'name'
p2276
S'STATIONARY'
p2277
sS'n_warmup'
p2278
I720000
sS'rate'
p2279
I100
sS'n_measured'
p2280
I360000
sS'alpha'
p2281
F0.29999999999999999
ssS'cache_policy'
p2282
g11
(tRp2283
g2276
S'LRU'
p2284
ssS'desc'
p2285
S'strategy zipf: 0.3'
p2286
sS'strategy'
p2287
g11
(tRp2288
S'extra_quota'
p2289
I2
sS'fan_out'
p2290
I2
sg2276
S'TFIB_SC'
p2291
ssS'content_placement'
p2292
g11
(tRp2293
g2276
S'UNIFORM'
p2294
ssS'joint_cache_rsn_placement'
p2295
g11
(tRp2296
S'network_cache'
p2297
F0.69999999999999996
sS'network_rsn'
p2298
F89.599999999999994
sg2276
S'CACHE_ALL_RSN_ALL'
p2299
sS'rsn_cache_ratio'
p2300
I128
ssS'warmup_strategy'
p2301
g11
(tRp2302
g2289
I10000
sg2290
I10
sg2276
g2291
ssS'topology'
p2303
g11
(tRp2304
S'ext_delay'
p2305
I0
sS'source_ratio'
p2306
F0.10000000000000001
sg2276
S'ROCKET_FUEL'
p2307
sS'asn'
p2308
I3257
ssg11
(tRp2309
S'SAT_RATE'
p2310
g11
(tRp2311
S'MEAN_CACHE_HIT'
p2312
F0.70036666666666669
sS'MEAN_SERVER_HIT'
p2313
F0.94229722222222223
sS'MEAN_SERVER_CACHE_HITS'
p2314
F0.64273611111111106
sS'MEAN'
p2315
F0.99992777777777775
ssS'CACHE_HIT_RATIO'
p2316
g11
(tRp2317
S'MEAN_OFF_PATH'
p2318
F0.39888122105184837
sS'MEAN_ON_PATH'
p2319
F0.30148544561481833
sg2315
F0.70036666666666669
ssS'OVERHEAD'
p2320
g11
(tRp2321
S'SUCCESS_RATE'
p2322
F0.70974334613886869
sS'QUOTA_USED_FAILURE'
p2323
F1
sS'FAILURE_RATE'
p2324
F0.29025665386113131
sS'QUOTA_USED_SUCCESS'
p2325
F1
sg2315
F1.710406862717863
sS'NUM_SUCCESS_FIRST_TIME'
p2326
F0.69625674463758769
ssS'LATENCY'
p2327
g11
(tRp2328
g2315
F22.648700000000002
sstp2329
a(g11
(tRp2330
S'workload'
p2331
g11
(tRp2332
S'n_contents'
p2333
I10000
sS'name'
p2334
S'STATIONARY'
p2335
sS'n_warmup'
p2336
I720000
sS'rate'
p2337
I100
sS'n_measured'
p2338
I360000
sS'alpha'
p2339
F0.10000000000000001
ssS'cache_policy'
p2340
g11
(tRp2341
g2334
S'LRU'
p2342
ssS'desc'
p2343
S'strategy zipf: 0.1'
p2344
sS'strategy'
p2345
g11
(tRp2346
S'extra_quota'
p2347
I2
sS'fan_out'
p2348
I2
sg2334
S'TFIB_SC'
p2349
ssS'content_placement'
p2350
g11
(tRp2351
g2334
S'UNIFORM'
p2352
ssS'joint_cache_rsn_placement'
p2353
g11
(tRp2354
S'network_cache'
p2355
F0.69999999999999996
sS'network_rsn'
p2356
F89.599999999999994
sg2334
S'CACHE_ALL_RSN_ALL'
p2357
sS'rsn_cache_ratio'
p2358
I128
ssS'warmup_strategy'
p2359
g11
(tRp2360
g2347
I10000
sg2348
I10
sg2334
g2349
ssS'topology'
p2361
g11
(tRp2362
S'ext_delay'
p2363
I0
sS'source_ratio'
p2364
F0.10000000000000001
sg2334
S'ROCKET_FUEL'
p2365
sS'asn'
p2366
I3257
ssg11
(tRp2367
S'SAT_RATE'
p2368
g11
(tRp2369
S'MEAN_CACHE_HIT'
p2370
F0.66478333333333328
sS'MEAN_SERVER_HIT'
p2371
F0.96745555555555551
sS'MEAN_SERVER_CACHE_HITS'
p2372
F0.63235833333333336
sS'MEAN'
p2373
F0.99988055555555555
ssS'CACHE_HIT_RATIO'
p2374
g11
(tRp2375
S'MEAN_OFF_PATH'
p2376
F0.39061718226158343
sS'MEAN_ON_PATH'
p2377
F0.27416615107174985
sg2373
F0.66478333333333328
ssS'OVERHEAD'
p2378
g11
(tRp2379
S'SUCCESS_RATE'
p2380
F0.67475702653007619
sS'QUOTA_USED_FAILURE'
p2381
F1
sS'FAILURE_RATE'
p2382
F0.32524297346992381
sS'QUOTA_USED_SUCCESS'
p2383
F1
sg2373
F1.6764641332159118
sS'NUM_SUCCESS_FIRST_TIME'
p2384
F0.66501101985320454
ssS'LATENCY'
p2385
g11
(tRp2386
g2373
F24.442916666666665
sstp2387
a(g11
(tRp2388
S'workload'
p2389
g11
(tRp2390
S'n_contents'
p2391
I10000
sS'name'
p2392
S'STATIONARY'
p2393
sS'n_warmup'
p2394
I720000
sS'rate'
p2395
I100
sS'n_measured'
p2396
I360000
sS'alpha'
p2397
F0.80000000000000004
ssS'cache_policy'
p2398
g11
(tRp2399
g2392
S'LRU'
p2400
ssS'desc'
p2401
S'strategy zipf: 0.8'
p2402
sS'strategy'
p2403
g11
(tRp2404
S'extra_quota'
p2405
I2
sS'fan_out'
p2406
I2
sg2392
S'TFIB_DC'
p2407
ssS'content_placement'
p2408
g11
(tRp2409
g2392
S'UNIFORM'
p2410
ssS'joint_cache_rsn_placement'
p2411
g11
(tRp2412
S'network_cache'
p2413
F0.69999999999999996
sS'network_rsn'
p2414
F89.599999999999994
sg2392
S'CACHE_ALL_RSN_ALL'
p2415
sS'rsn_cache_ratio'
p2416
I128
ssS'warmup_strategy'
p2417
g11
(tRp2418
g2405
I10000
sg2406
I10
sg2392
g2407
ssS'topology'
p2419
g11
(tRp2420
S'ext_delay'
p2421
I0
sS'source_ratio'
p2422
F0.10000000000000001
sg2392
S'ROCKET_FUEL'
p2423
sS'asn'
p2424
I3257
ssg11
(tRp2425
S'SAT_RATE'
p2426
g11
(tRp2427
S'MEAN_CACHE_HIT'
p2428
F0.86657777777777778
sS'MEAN_SERVER_HIT'
p2429
F0.13154444444444444
sS'MEAN_SERVER_CACHE_HITS'
p2430
F0.055836111111111114
sS'MEAN'
p2431
F0.94228611111111116
ssS'CACHE_HIT_RATIO'
p2432
g11
(tRp2433
S'MEAN_OFF_PATH'
p2434
F0.61056873462390493
sS'MEAN_ON_PATH'
p2435
F0.25600904315387285
sg2431
F0.86657777777777778
ssS'OVERHEAD'
p2436
g11
(tRp2437
S'SUCCESS_RATE'
p2438
F0.87854062420171608
sS'QUOTA_USED_FAILURE'
p2439
F8.6692378131319483
sS'FAILURE_RATE'
p2440
F0.12145937579828398
sS'QUOTA_USED_SUCCESS'
p2441
F43.547415658626832
sg2431
F1.1528168785725024
sS'NUM_SUCCESS_FIRST_TIME'
p2442
F0.87768691136002486
ssS'LATENCY'
p2443
g11
(tRp2444
g2431
F4.1658472222222223
sstp2445
a(g11
(tRp2446
S'workload'
p2447
g11
(tRp2448
S'n_contents'
p2449
I10000
sS'name'
p2450
S'STATIONARY'
p2451
sS'n_warmup'
p2452
I720000
sS'rate'
p2453
I100
sS'n_measured'
p2454
I360000
sS'alpha'
p2455
F0.69999999999999996
ssS'cache_policy'
p2456
g11
(tRp2457
g2450
S'LRU'
p2458
ssS'desc'
p2459
S'strategy zipf: 0.7'
p2460
sS'strategy'
p2461
g11
(tRp2462
S'extra_quota'
p2463
I2
sS'fan_out'
p2464
I2
sg2450
S'TFIB_DC'
p2465
ssS'content_placement'
p2466
g11
(tRp2467
g2450
S'UNIFORM'
p2468
ssS'joint_cache_rsn_placement'
p2469
g11
(tRp2470
S'network_cache'
p2471
F0.69999999999999996
sS'network_rsn'
p2472
F89.599999999999994
sg2450
S'CACHE_ALL_RSN_ALL'
p2473
sS'rsn_cache_ratio'
p2474
I128
ssS'warmup_strategy'
p2475
g11
(tRp2476
g2463
I10000
sg2464
I10
sg2450
g2465
ssS'topology'
p2477
g11
(tRp2478
S'ext_delay'
p2479
I0
sS'source_ratio'
p2480
F0.10000000000000001
sg2450
S'ROCKET_FUEL'
p2481
sS'asn'
p2482
I3257
ssg11
(tRp2483
S'SAT_RATE'
p2484
g11
(tRp2485
S'MEAN_CACHE_HIT'
p2486
F0.82914444444444446
sS'MEAN_SERVER_HIT'
p2487
F0.15796666666666667
sS'MEAN_SERVER_CACHE_HITS'
p2488
F0.063430555555555559
sS'MEAN'
p2489
F0.9236805555555555
ssS'CACHE_HIT_RATIO'
p2490
g11
(tRp2491
S'MEAN_OFF_PATH'
p2492
F0.64812021611886539
sS'MEAN_ON_PATH'
p2493
F0.18102422832557907
sg2489
F0.82914444444444446
ssS'OVERHEAD'
p2494
g11
(tRp2495
S'SUCCESS_RATE'
p2496
F0.85709691327919024
sS'QUOTA_USED_FAILURE'
p2497
F8.0845911426107211
sS'FAILURE_RATE'
p2498
F0.14290308672080973
sS'QUOTA_USED_SUCCESS'
p2499
F22.350778356398713
sg2489
F1.1426599503796706
sS'NUM_SUCCESS_FIRST_TIME'
p2500
F0.85552868746329958
ssS'LATENCY'
p2501
g11
(tRp2502
g2489
F5.129833333333333
sstp2503
a(g11
(tRp2504
S'workload'
p2505
g11
(tRp2506
S'n_contents'
p2507
I10000
sS'name'
p2508
S'STATIONARY'
p2509
sS'n_warmup'
p2510
I720000
sS'rate'
p2511
I100
sS'n_measured'
p2512
I360000
sS'alpha'
p2513
F0.59999999999999998
ssS'cache_policy'
p2514
g11
(tRp2515
g2508
S'LRU'
p2516
ssS'desc'
p2517
S'strategy zipf: 0.6'
p2518
sS'strategy'
p2519
g11
(tRp2520
S'extra_quota'
p2521
I2
sS'fan_out'
p2522
I2
sg2508
S'TFIB_DC'
p2523
ssS'content_placement'
p2524
g11
(tRp2525
g2508
S'UNIFORM'
p2526
ssS'joint_cache_rsn_placement'
p2527
g11
(tRp2528
S'network_cache'
p2529
F0.69999999999999996
sS'network_rsn'
p2530
F89.599999999999994
sg2508
S'CACHE_ALL_RSN_ALL'
p2531
sS'rsn_cache_ratio'
p2532
I128
ssS'warmup_strategy'
p2533
g11
(tRp2534
g2521
I10000
sg2522
I10
sg2508
g2523
ssS'topology'
p2535
g11
(tRp2536
S'ext_delay'
p2537
I0
sS'source_ratio'
p2538
F0.10000000000000001
sg2508
S'ROCKET_FUEL'
p2539
sS'asn'
p2540
I3257
ssg11
(tRp2541
S'SAT_RATE'
p2542
g11
(tRp2543
S'MEAN_CACHE_HIT'
p2544
F0.79244999999999999
sS'MEAN_SERVER_HIT'
p2545
F0.18565555555555555
sS'MEAN_SERVER_CACHE_HITS'
p2546
F0.072716666666666666
sS'MEAN'
p2547
F0.90538888888888891
ssS'CACHE_HIT_RATIO'
p2548
g11
(tRp2549
S'MEAN_OFF_PATH'
p2550
F0.66615168778648071
sS'MEAN_ON_PATH'
p2551
F0.12629831221351928
sg2547
F0.79244999999999999
ssS'OVERHEAD'
p2552
g11
(tRp2553
S'SUCCESS_RATE'
p2554
F0.83549647736030497
sS'QUOTA_USED_FAILURE'
p2555
F7.5021427656467505
sS'FAILURE_RATE'
p2556
F0.164503522639695
sS'QUOTA_USED_SUCCESS'
p2557
F19.526973642117888
sg2547
F1.1431643860833283
sS'NUM_SUCCESS_FIRST_TIME'
p2558
F0.83350499463852357
ssS'LATENCY'
p2559
g11
(tRp2560
g2547
F6.0510361111111113
sstp2561
a(g11
(tRp2562
S'workload'
p2563
g11
(tRp2564
S'n_contents'
p2565
I10000
sS'name'
p2566
S'STATIONARY'
p2567
sS'n_warmup'
p2568
I720000
sS'rate'
p2569
I100
sS'n_measured'
p2570
I360000
sS'alpha'
p2571
F0.29999999999999999
ssS'cache_policy'
p2572
g11
(tRp2573
g2566
S'LRU'
p2574
ssS'desc'
p2575
S'strategy zipf: 0.3'
p2576
sS'strategy'
p2577
g11
(tRp2578
S'extra_quota'
p2579
I2
sS'fan_out'
p2580
I2
sg2566
S'TFIB_DC'
p2581
ssS'content_placement'
p2582
g11
(tRp2583
g2566
S'UNIFORM'
p2584
ssS'joint_cache_rsn_placement'
p2585
g11
(tRp2586
S'network_cache'
p2587
F0.69999999999999996
sS'network_rsn'
p2588
F89.599999999999994
sg2566
S'CACHE_ALL_RSN_ALL'
p2589
sS'rsn_cache_ratio'
p2590
I128
ssS'warmup_strategy'
p2591
g11
(tRp2592
g2579
I10000
sg2580
I10
sg2566
g2581
ssS'topology'
p2593
g11
(tRp2594
S'ext_delay'
p2595
I0
sS'source_ratio'
p2596
F0.10000000000000001
sg2566
S'ROCKET_FUEL'
p2597
sS'asn'
p2598
I3257
ssg11
(tRp2599
S'SAT_RATE'
p2600
g11
(tRp2601
S'MEAN_CACHE_HIT'
p2602
F0.70903888888888889
sS'MEAN_SERVER_HIT'
p2603
F0.27664444444444447
sS'MEAN_SERVER_CACHE_HITS'
p2604
F0.11822777777777778
sS'MEAN'
p2605
F0.86745555555555554
ssS'CACHE_HIT_RATIO'
p2606
g11
(tRp2607
S'MEAN_OFF_PATH'
p2608
F0.67261854438263358
sS'MEAN_ON_PATH'
p2609
F0.036420344506255309
sg2605
F0.70903888888888889
ssS'OVERHEAD'
p2610
g11
(tRp2611
S'SUCCESS_RATE'
p2612
F0.78565840192349279
sS'QUOTA_USED_FAILURE'
p2613
F5.8724225118064979
sS'FAILURE_RATE'
p2614
F0.21434159807650718
sS'QUOTA_USED_SUCCESS'
p2615
F9.7234566412508716
sg2605
F1.1675590167924068
sS'NUM_SUCCESS_FIRST_TIME'
p2616
F0.78291074201629085
ssS'LATENCY'
p2617
g11
(tRp2618
g2605
F8.8295638888888881
sstp2619
a(g11
(tRp2620
S'workload'
p2621
g11
(tRp2622
S'n_contents'
p2623
I10000
sS'name'
p2624
S'STATIONARY'
p2625
sS'n_warmup'
p2626
I720000
sS'rate'
p2627
I100
sS'n_measured'
p2628
I360000
sS'alpha'
p2629
F0.5
ssS'cache_policy'
p2630
g11
(tRp2631
g2624
S'LRU'
p2632
ssS'desc'
p2633
S'strategy zipf: 0.5'
p2634
sS'strategy'
p2635
g11
(tRp2636
S'extra_quota'
p2637
I2
sS'fan_out'
p2638
I2
sg2624
S'TFIB_DC'
p2639
ssS'content_placement'
p2640
g11
(tRp2641
g2624
S'UNIFORM'
p2642
ssS'joint_cache_rsn_placement'
p2643
g11
(tRp2644
S'network_cache'
p2645
F0.69999999999999996
sS'network_rsn'
p2646
F89.599999999999994
sg2624
S'CACHE_ALL_RSN_ALL'
p2647
sS'rsn_cache_ratio'
p2648
I128
ssS'warmup_strategy'
p2649
g11
(tRp2650
g2637
I10000
sg2638
I10
sg2624
g2639
ssS'topology'
p2651
g11
(tRp2652
S'ext_delay'
p2653
I0
sS'source_ratio'
p2654
F0.10000000000000001
sg2624
S'ROCKET_FUEL'
p2655
sS'asn'
p2656
I3257
ssg11
(tRp2657
S'SAT_RATE'
p2658
g11
(tRp2659
S'MEAN_CACHE_HIT'
p2660
F0.7613361111111111
sS'MEAN_SERVER_HIT'
p2661
F0.21565000000000001
sS'MEAN_SERVER_CACHE_HITS'
p2662
F0.086219444444444446
sS'MEAN'
p2663
F0.89076666666666671
ssS'CACHE_HIT_RATIO'
p2664
g11
(tRp2665
S'MEAN_OFF_PATH'
p2666
F0.68144378260807759
sS'MEAN_ON_PATH'
p2667
F0.079892328503033516
sg2663
F0.7613361111111111
ssS'OVERHEAD'
p2668
g11
(tRp2669
S'SUCCESS_RATE'
p2670
F0.81906385769325352
sS'QUOTA_USED_FAILURE'
p2671
F6.909496578598592
sS'FAILURE_RATE'
p2672
F0.18093614230674646
sS'QUOTA_USED_SUCCESS'
p2673
F14.596154230882027
sg2663
F1.1510434207736158
sS'NUM_SUCCESS_FIRST_TIME'
p2674
F0.81663727618014104
ssS'LATENCY'
p2675
g11
(tRp2676
g2663
F7.0251138888888889
sstp2677
a(g11
(tRp2678
S'workload'
p2679
g11
(tRp2680
S'n_contents'
p2681
I10000
sS'name'
p2682
S'STATIONARY'
p2683
sS'n_warmup'
p2684
I720000
sS'rate'
p2685
I100
sS'n_measured'
p2686
I360000
sS'alpha'
p2687
F0.20000000000000001
ssS'cache_policy'
p2688
g11
(tRp2689
g2682
S'LRU'
p2690
ssS'desc'
p2691
S'strategy zipf: 0.2'
p2692
sS'strategy'
p2693
g11
(tRp2694
S'extra_quota'
p2695
I2
sS'fan_out'
p2696
I2
sg2682
S'TFIB_DC'
p2697
ssS'content_placement'
p2698
g11
(tRp2699
g2682
S'UNIFORM'
p2700
ssS'joint_cache_rsn_placement'
p2701
g11
(tRp2702
S'network_cache'
p2703
F0.69999999999999996
sS'network_rsn'
p2704
F89.599999999999994
sg2682
S'CACHE_ALL_RSN_ALL'
p2705
sS'rsn_cache_ratio'
p2706
I128
ssS'warmup_strategy'
p2707
g11
(tRp2708
g2695
I10000
sg2696
I10
sg2682
g2697
ssS'topology'
p2709
g11
(tRp2710
S'ext_delay'
p2711
I0
sS'source_ratio'
p2712
F0.10000000000000001
sg2682
S'ROCKET_FUEL'
p2713
sS'asn'
p2714
I3257
ssg11
(tRp2715
S'SAT_RATE'
p2716
g11
(tRp2717
S'MEAN_CACHE_HIT'
p2718
F0.68707777777777779
sS'MEAN_SERVER_HIT'
p2719
F0.30380000000000001
sS'MEAN_SERVER_CACHE_HITS'
p2720
F0.13124166666666667
sS'MEAN'
p2721
F0.85963611111111116
ssS'CACHE_HIT_RATIO'
p2722
g11
(tRp2723
S'MEAN_OFF_PATH'
p2724
F0.66067684096031576
sS'MEAN_ON_PATH'
p2725
F0.026400936817462028
sg2721
F0.68707777777777779
ssS'OVERHEAD'
p2726
g11
(tRp2727
S'SUCCESS_RATE'
p2728
F0.76973430150480182
sS'QUOTA_USED_FAILURE'
p2729
F5.5672118031310536
sS'FAILURE_RATE'
p2730
F0.23026569849519818
sS'QUOTA_USED_SUCCESS'
p2731
F9.3355268081735705
sg2721
F1.1805512022205777
sS'NUM_SUCCESS_FIRST_TIME'
p2732
F0.76720120614035092
ssS'LATENCY'
p2733
g11
(tRp2734
g2721
F9.6252861111111105
sstp2735
a(g11
(tRp2736
S'workload'
p2737
g11
(tRp2738
S'n_contents'
p2739
I10000
sS'name'
p2740
S'STATIONARY'
p2741
sS'n_warmup'
p2742
I720000
sS'rate'
p2743
I100
sS'n_measured'
p2744
I360000
sS'alpha'
p2745
F0.40000000000000002
ssS'cache_policy'
p2746
g11
(tRp2747
g2740
S'LRU'
p2748
ssS'desc'
p2749
S'strategy zipf: 0.4'
p2750
sS'strategy'
p2751
g11
(tRp2752
S'extra_quota'
p2753
I2
sS'fan_out'
p2754
I2
sg2740
S'TFIB_DC'
p2755
ssS'content_placement'
p2756
g11
(tRp2757
g2740
S'UNIFORM'
p2758
ssS'joint_cache_rsn_placement'
p2759
g11
(tRp2760
S'network_cache'
p2761
F0.69999999999999996
sS'network_rsn'
p2762
F89.599999999999994
sg2740
S'CACHE_ALL_RSN_ALL'
p2763
sS'rsn_cache_ratio'
p2764
I128
ssS'warmup_strategy'
p2765
g11
(tRp2766
g2753
I10000
sg2754
I10
sg2740
g2755
ssS'topology'
p2767
g11
(tRp2768
S'ext_delay'
p2769
I0
sS'source_ratio'
p2770
F0.10000000000000001
sg2740
S'ROCKET_FUEL'
p2771
sS'asn'
p2772
I3257
ssg11
(tRp2773
S'SAT_RATE'
p2774
g11
(tRp2775
S'MEAN_CACHE_HIT'
p2776
F0.7351805555555555
sS'MEAN_SERVER_HIT'
p2777
F0.24352777777777779
sS'MEAN_SERVER_CACHE_HITS'
p2778
F0.10004722222222222
sS'MEAN'
p2779
F0.87866111111111111
ssS'CACHE_HIT_RATIO'
p2780
g11
(tRp2781
S'MEAN_OFF_PATH'
p2782
F0.68206110661728181
sS'MEAN_ON_PATH'
p2783
F0.053119448938273695
sg2779
F0.7351805555555555
ssS'OVERHEAD'
p2784
g11
(tRp2785
S'SUCCESS_RATE'
p2786
F0.80261145861166461
sS'QUOTA_USED_FAILURE'
p2787
F6.3936019038347078
sS'FAILURE_RATE'
p2788
F0.19738854138833536
sS'QUOTA_USED_SUCCESS'
p2789
F11.304839089633493
sg2779
F1.154088607034693
sS'NUM_SUCCESS_FIRST_TIME'
p2790
F0.80019420252263751
ssS'LATENCY'
p2791
g11
(tRp2792
g2779
F7.8623750000000001
sstp2793
a(g11
(tRp2794
S'workload'
p2795
g11
(tRp2796
S'n_contents'
p2797
I10000
sS'name'
p2798
S'STATIONARY'
p2799
sS'n_warmup'
p2800
I720000
sS'rate'
p2801
I100
sS'n_measured'
p2802
I360000
sS'alpha'
p2803
F0.10000000000000001
ssS'cache_policy'
p2804
g11
(tRp2805
g2798
S'LRU'
p2806
ssS'desc'
p2807
S'strategy zipf: 0.1'
p2808
sS'strategy'
p2809
g11
(tRp2810
S'extra_quota'
p2811
I2
sS'fan_out'
p2812
I2
sg2798
S'TFIB_DC'
p2813
ssS'content_placement'
p2814
g11
(tRp2815
g2798
S'UNIFORM'
p2816
ssS'joint_cache_rsn_placement'
p2817
g11
(tRp2818
S'network_cache'
p2819
F0.69999999999999996
sS'network_rsn'
p2820
F89.599999999999994
sg2798
S'CACHE_ALL_RSN_ALL'
p2821
sS'rsn_cache_ratio'
p2822
I128
ssS'warmup_strategy'
p2823
g11
(tRp2824
g2811
I10000
sg2812
I10
sg2798
g2813
ssS'topology'
p2825
g11
(tRp2826
S'ext_delay'
p2827
I0
sS'source_ratio'
p2828
F0.10000000000000001
sg2798
S'ROCKET_FUEL'
p2829
sS'asn'
p2830
I3257
ssg11
(tRp2831
S'SAT_RATE'
p2832
g11
(tRp2833
S'MEAN_CACHE_HIT'
p2834
F0.66915277777777782
sS'MEAN_SERVER_HIT'
p2835
F0.33431944444444445
sS'MEAN_SERVER_CACHE_HITS'
p2836
F0.14987222222222221
sS'MEAN'
p2837
F0.85360000000000003
ssS'CACHE_HIT_RATIO'
p2838
g11
(tRp2839
S'MEAN_OFF_PATH'
p2840
F0.64105190311418681
sS'MEAN_ON_PATH'
p2841
F0.028100874663591013
sg2837
F0.66915277777777782
ssS'OVERHEAD'
p2842
g11
(tRp2843
S'SUCCESS_RATE'
p2844
F0.75440186308835411
sS'QUOTA_USED_FAILURE'
p2845
F5.1514783553637296
sS'FAILURE_RATE'
p2846
F0.24559813691164589
sS'QUOTA_USED_SUCCESS'
p2847
F7.978072121455865
sg2837
F1.1992834270540456
sS'NUM_SUCCESS_FIRST_TIME'
p2848
F0.75202497083911668
ssS'LATENCY'
p2849
g11
(tRp2850
g2837
F10.410577777777778
sstp2851
atRp2852
sb.