ccopy_reg
_reconstructor
p1
(cicarus.results.readwrite
ResultSet
p2
c__builtin__
object
p3
NtRp4
(dp5
S'attr'
p6
(dp7
sS'_results'
p8
ccollections
deque
p9
((lp10
(cicarus.util
Tree
p11
(tRp12
S'workload'
p13
g11
(tRp14
S'n_contents'
p15
I10000
sS'name'
p16
S'STATIONARY'
p17
sS'n_warmup'
p18
I720000
sS'rate'
p19
I100
sS'n_measured'
p20
I360000
sS'alpha'
p21
F0.69999999999999996
ssS'cache_policy'
p22
g11
(tRp23
g16
S'LRU'
p24
ssS'desc'
p25
S'quota_increment: 2.0'
p26
sS'strategy'
p27
g11
(tRp28
S'extra_quota'
p29
I2
sS'fan_out'
p30
I1
sg16
S'TFIB_DC'
p31
sS'quota_increment'
p32
F2
ssS'content_placement'
p33
g11
(tRp34
g16
S'UNIFORM'
p35
ssS'joint_cache_rsn_placement'
p36
g11
(tRp37
S'network_cache'
p38
F0.29999999999999999
sS'network_rsn'
p39
F38.399999999999999
sg16
S'CACHE_ALL_RSN_ALL'
p40
sS'rsn_cache_ratio'
p41
I128
ssS'warmup_strategy'
p42
g11
(tRp43
g29
I1000000
sg30
I10
sg16
g31
ssS'topology'
p44
g11
(tRp45
S'ext_delay'
p46
I0
sS'source_ratio'
p47
F0.10000000000000001
sg16
S'ROCKET_FUEL'
p48
sS'asn'
p49
I3257
ssg11
(tRp50
S'SAT_RATE'
p51
g11
(tRp52
S'MEAN_CACHE_HIT'
p53
F0.55217499999999997
sS'MEAN_SERVER_HIT'
p54
F0.40007777777777775
sS'MEAN_SERVER_CACHE_HITS'
p55
F0.088275000000000006
sS'MEAN'
p56
F0.86397777777777773
ssS'CACHE_HIT_RATIO'
p57
g11
(tRp58
S'MEAN_OFF_PATH'
p59
F0.40367432783662133
sS'MEAN_ON_PATH'
p60
F0.14850067216337864
sg56
F0.55217499999999997
ssS'OVERHEAD'
p61
g11
(tRp62
S'INTEREST_HOPS'
p63
F6.4259947529514649
sS'SUCCESS_RATE'
p64
F0.59143260270376685
sS'QUOTA_USED_FAILURE'
p65
F4.5928763680211544
sS'FAILURE_RATE'
p66
F0.40856739729623309
sS'QUOTA_USED_SUCCESS'
p67
F10.719137091023411
sS'NUM_SUCCESS_FIRST_TIME'
p68
F0.59459896163315296
sg56
F1.126263535584763
ssS'LATENCY'
p69
g11
(tRp70
g56
F15.129288888888889
sstp71
a(g11
(tRp72
S'workload'
p73
g11
(tRp74
S'n_contents'
p75
I10000
sS'name'
p76
S'STATIONARY'
p77
sS'n_warmup'
p78
I720000
sS'rate'
p79
I100
sS'n_measured'
p80
I360000
sS'alpha'
p81
F0.69999999999999996
ssS'cache_policy'
p82
g11
(tRp83
g76
S'LRU'
p84
ssS'desc'
p85
S'quota_increment: 2.5'
p86
sS'strategy'
p87
g11
(tRp88
S'extra_quota'
p89
I2
sS'fan_out'
p90
I1
sg76
S'TFIB_DC'
p91
sS'quota_increment'
p92
F2.5
ssS'content_placement'
p93
g11
(tRp94
g76
S'UNIFORM'
p95
ssS'joint_cache_rsn_placement'
p96
g11
(tRp97
S'network_cache'
p98
F0.29999999999999999
sS'network_rsn'
p99
F38.399999999999999
sg76
S'CACHE_ALL_RSN_ALL'
p100
sS'rsn_cache_ratio'
p101
I128
ssS'warmup_strategy'
p102
g11
(tRp103
g89
I1000000
sg90
I10
sg76
g91
ssS'topology'
p104
g11
(tRp105
S'ext_delay'
p106
I0
sS'source_ratio'
p107
F0.10000000000000001
sg76
S'ROCKET_FUEL'
p108
sS'asn'
p109
I3257
ssg11
(tRp110
S'SAT_RATE'
p111
g11
(tRp112
S'MEAN_CACHE_HIT'
p113
F0.55423333333333336
sS'MEAN_SERVER_HIT'
p114
F0.37878333333333336
sS'MEAN_SERVER_CACHE_HITS'
p115
F0.075080555555555553
sS'MEAN'
p116
F0.85793611111111112
ssS'CACHE_HIT_RATIO'
p117
g11
(tRp118
S'MEAN_OFF_PATH'
p119
F0.40491416730676477
sS'MEAN_ON_PATH'
p120
F0.14931916602656858
sg116
F0.55423333333333336
ssS'OVERHEAD'
p121
g11
(tRp122
S'INTEREST_HOPS'
p123
F6.4584645968846424
sS'SUCCESS_RATE'
p124
F0.59222867910055776
sS'QUOTA_USED_FAILURE'
p125
F5.5743520941854223
sS'FAILURE_RATE'
p126
F0.40777132089944224
sS'QUOTA_USED_SUCCESS'
p127
F13.596833755465395
sS'NUM_SUCCESS_FIRST_TIME'
p128
F0.59549699814242552
sg116
F1.1116503754164548
ssS'LATENCY'
p129
g11
(tRp130
g116
F14.679797222222222
sstp131
a(g11
(tRp132
S'workload'
p133
g11
(tRp134
S'n_contents'
p135
I10000
sS'name'
p136
S'STATIONARY'
p137
sS'n_warmup'
p138
I720000
sS'rate'
p139
I100
sS'n_measured'
p140
I360000
sS'alpha'
p141
F0.69999999999999996
ssS'cache_policy'
p142
g11
(tRp143
g136
S'LRU'
p144
ssS'desc'
p145
S'quota_increment: 3.0'
p146
sS'strategy'
p147
g11
(tRp148
S'extra_quota'
p149
I2
sS'fan_out'
p150
I1
sg136
S'TFIB_DC'
p151
sS'quota_increment'
p152
F3
ssS'content_placement'
p153
g11
(tRp154
g136
S'UNIFORM'
p155
ssS'joint_cache_rsn_placement'
p156
g11
(tRp157
S'network_cache'
p158
F0.29999999999999999
sS'network_rsn'
p159
F38.399999999999999
sg136
S'CACHE_ALL_RSN_ALL'
p160
sS'rsn_cache_ratio'
p161
I128
ssS'warmup_strategy'
p162
g11
(tRp163
g149
I1000000
sg150
I10
sg136
g151
ssS'topology'
p164
g11
(tRp165
S'ext_delay'
p166
I0
sS'source_ratio'
p167
F0.10000000000000001
sg136
S'ROCKET_FUEL'
p168
sS'asn'
p169
I3257
ssg11
(tRp170
S'SAT_RATE'
p171
g11
(tRp172
S'MEAN_CACHE_HIT'
p173
F0.55833055555555555
sS'MEAN_SERVER_HIT'
p174
F0.36627777777777776
sS'MEAN_SERVER_CACHE_HITS'
p175
F0.069497222222222224
sS'MEAN'
p176
F0.85511111111111116
ssS'CACHE_HIT_RATIO'
p177
g11
(tRp178
S'MEAN_OFF_PATH'
p179
F0.42641779251875417
sS'MEAN_ON_PATH'
p180
F0.13191276303680138
sg176
F0.55833055555555555
ssS'OVERHEAD'
p181
g11
(tRp182
S'INTEREST_HOPS'
p183
F6.5081243503118502
sS'SUCCESS_RATE'
p184
F0.60411355521051702
sS'QUOTA_USED_FAILURE'
p185
F6.7536793573486795
sS'FAILURE_RATE'
p186
F0.39588644478948298
sS'QUOTA_USED_SUCCESS'
p187
F17.036190376459693
sS'NUM_SUCCESS_FIRST_TIME'
p188
F0.60808057656556391
sg176
F1.1056847713097713
ssS'LATENCY'
p189
g11
(tRp190
g176
F14.198741666666667
sstp191
a(g11
(tRp192
S'workload'
p193
g11
(tRp194
S'n_contents'
p195
I10000
sS'name'
p196
S'STATIONARY'
p197
sS'n_warmup'
p198
I720000
sS'rate'
p199
I100
sS'n_measured'
p200
I360000
sS'alpha'
p201
F0.69999999999999996
ssS'cache_policy'
p202
g11
(tRp203
g196
S'LRU'
p204
ssS'desc'
p205
S'quota_increment: 2.75'
p206
sS'strategy'
p207
g11
(tRp208
S'extra_quota'
p209
I2
sS'fan_out'
p210
I1
sg196
S'TFIB_DC'
p211
sS'quota_increment'
p212
F2.75
ssS'content_placement'
p213
g11
(tRp214
g196
S'UNIFORM'
p215
ssS'joint_cache_rsn_placement'
p216
g11
(tRp217
S'network_cache'
p218
F0.29999999999999999
sS'network_rsn'
p219
F38.399999999999999
sg196
S'CACHE_ALL_RSN_ALL'
p220
sS'rsn_cache_ratio'
p221
I128
ssS'warmup_strategy'
p222
g11
(tRp223
g209
I1000000
sg210
I10
sg196
g211
ssS'topology'
p224
g11
(tRp225
S'ext_delay'
p226
I0
sS'source_ratio'
p227
F0.10000000000000001
sg196
S'ROCKET_FUEL'
p228
sS'asn'
p229
I3257
ssg11
(tRp230
S'SAT_RATE'
p231
g11
(tRp232
S'MEAN_CACHE_HIT'
p233
F0.55617499999999997
sS'MEAN_SERVER_HIT'
p234
F0.36913055555555557
sS'MEAN_SERVER_CACHE_HITS'
p235
F0.070561111111111116
sS'MEAN'
p236
F0.85474444444444442
ssS'CACHE_HIT_RATIO'
p237
g11
(tRp238
S'MEAN_OFF_PATH'
p239
F0.42189366875806789
sS'MEAN_ON_PATH'
p240
F0.13428133124193209
sg236
F0.55617499999999997
ssS'OVERHEAD'
p241
g11
(tRp242
S'INTEREST_HOPS'
p243
F6.4433456393723922
sS'SUCCESS_RATE'
p244
F0.60085540384931735
sS'QUOTA_USED_FAILURE'
p245
F6.3674043371011537
sS'FAILURE_RATE'
p246
F0.39914459615068265
sS'QUOTA_USED_SUCCESS'
p247
F15.404015468977269
sS'NUM_SUCCESS_FIRST_TIME'
p248
F0.60430395343402799
sg236
F1.1084274701990198
ssS'LATENCY'
p249
g11
(tRp250
g236
F14.509255555555555
sstp251
a(g11
(tRp252
S'workload'
p253
g11
(tRp254
S'n_contents'
p255
I10000
sS'name'
p256
S'STATIONARY'
p257
sS'n_warmup'
p258
I720000
sS'rate'
p259
I100
sS'n_measured'
p260
I360000
sS'alpha'
p261
F0.69999999999999996
ssS'cache_policy'
p262
g11
(tRp263
g256
S'LRU'
p264
ssS'desc'
p265
S'quota_increment: 1.0'
p266
sS'strategy'
p267
g11
(tRp268
S'extra_quota'
p269
I2
sS'fan_out'
p270
I1
sg256
S'TFIB_DC'
p271
sS'quota_increment'
p272
F1
ssS'content_placement'
p273
g11
(tRp274
g256
S'UNIFORM'
p275
ssS'joint_cache_rsn_placement'
p276
g11
(tRp277
S'network_cache'
p278
F0.29999999999999999
sS'network_rsn'
p279
F38.399999999999999
sg256
S'CACHE_ALL_RSN_ALL'
p280
sS'rsn_cache_ratio'
p281
I128
ssS'warmup_strategy'
p282
g11
(tRp283
g269
I1000000
sg270
I10
sg256
g271
ssS'topology'
p284
g11
(tRp285
S'ext_delay'
p286
I0
sS'source_ratio'
p287
F0.10000000000000001
sg256
S'ROCKET_FUEL'
p288
sS'asn'
p289
I3257
ssg11
(tRp290
S'SAT_RATE'
p291
g11
(tRp292
S'MEAN_CACHE_HIT'
p293
F0.5523555555555556
sS'MEAN_SERVER_HIT'
p294
F0.50187499999999996
sS'MEAN_SERVER_CACHE_HITS'
p295
F0.14896944444444443
sS'MEAN'
p296
F0.90526111111111107
ssS'CACHE_HIT_RATIO'
p297
g11
(tRp298
S'MEAN_OFF_PATH'
p299
F0.35100375998292593
sS'MEAN_ON_PATH'
p300
F0.20135179557262967
sg296
F0.5523555555555556
ssS'OVERHEAD'
p301
g11
(tRp302
S'INTEREST_HOPS'
p303
F6.4523219206244979
sS'SUCCESS_RATE'
p304
F0.56862036773957869
sS'QUOTA_USED_FAILURE'
p305
F2.8826184131610857
sS'FAILURE_RATE'
p306
F0.43137963226042131
sS'QUOTA_USED_SUCCESS'
p307
F6.2003455763614941
sS'NUM_SUCCESS_FIRST_TIME'
p308
F0.57062998023773959
sg296
F1.1904699073932015
ssS'LATENCY'
p309
g11
(tRp310
g296
F18.003105555555557
sstp311
a(g11
(tRp312
S'workload'
p313
g11
(tRp314
S'n_contents'
p315
I10000
sS'name'
p316
S'STATIONARY'
p317
sS'n_warmup'
p318
I720000
sS'rate'
p319
I100
sS'n_measured'
p320
I360000
sS'alpha'
p321
F0.69999999999999996
ssS'cache_policy'
p322
g11
(tRp323
g316
S'LRU'
p324
ssS'desc'
p325
S'quota_increment: 1.5'
p326
sS'strategy'
p327
g11
(tRp328
S'extra_quota'
p329
I2
sS'fan_out'
p330
I1
sg316
S'TFIB_DC'
p331
sS'quota_increment'
p332
F1.5
ssS'content_placement'
p333
g11
(tRp334
g316
S'UNIFORM'
p335
ssS'joint_cache_rsn_placement'
p336
g11
(tRp337
S'network_cache'
p338
F0.29999999999999999
sS'network_rsn'
p339
F38.399999999999999
sg316
S'CACHE_ALL_RSN_ALL'
p340
sS'rsn_cache_ratio'
p341
I128
ssS'warmup_strategy'
p342
g11
(tRp343
g329
I1000000
sg330
I10
sg316
g331
ssS'topology'
p344
g11
(tRp345
S'ext_delay'
p346
I0
sS'source_ratio'
p347
F0.10000000000000001
sg316
S'ROCKET_FUEL'
p348
sS'asn'
p349
I3257
ssg11
(tRp350
S'SAT_RATE'
p351
g11
(tRp352
S'MEAN_CACHE_HIT'
p353
F0.55422222222222217
sS'MEAN_SERVER_HIT'
p354
F0.46060000000000001
sS'MEAN_SERVER_CACHE_HITS'
p355
F0.12146944444444445
sS'MEAN'
p356
F0.89335277777777777
ssS'CACHE_HIT_RATIO'
p357
g11
(tRp358
S'MEAN_OFF_PATH'
p359
F0.3787992423412968
sS'MEAN_ON_PATH'
p360
F0.17542297988092537
sg356
F0.55422222222222217
ssS'OVERHEAD'
p361
g11
(tRp362
S'INTEREST_HOPS'
p363
F6.4739417985305048
sS'SUCCESS_RATE'
p364
F0.58174895722184494
sS'QUOTA_USED_FAILURE'
p365
F3.7804003945408624
sS'FAILURE_RATE'
p366
F0.418251042778155
sS'QUOTA_USED_SUCCESS'
p367
F9.0981562593223515
sS'NUM_SUCCESS_FIRST_TIME'
p368
F0.58425989322333627
sg356
F1.1587652010061971
ssS'LATENCY'
p369
g11
(tRp370
g356
F16.95516388888889
sstp371
a(g11
(tRp372
S'workload'
p373
g11
(tRp374
S'n_contents'
p375
I10000
sS'name'
p376
S'STATIONARY'
p377
sS'n_warmup'
p378
I720000
sS'rate'
p379
I100
sS'n_measured'
p380
I360000
sS'alpha'
p381
F0.69999999999999996
ssS'cache_policy'
p382
g11
(tRp383
g376
S'LRU'
p384
ssS'desc'
p385
S'quota_increment: 1.75'
p386
sS'strategy'
p387
g11
(tRp388
S'extra_quota'
p389
I2
sS'fan_out'
p390
I1
sg376
S'TFIB_DC'
p391
sS'quota_increment'
p392
F1.75
ssS'content_placement'
p393
g11
(tRp394
g376
S'UNIFORM'
p395
ssS'joint_cache_rsn_placement'
p396
g11
(tRp397
S'network_cache'
p398
F0.29999999999999999
sS'network_rsn'
p399
F38.399999999999999
sg376
S'CACHE_ALL_RSN_ALL'
p400
sS'rsn_cache_ratio'
p401
I128
ssS'warmup_strategy'
p402
g11
(tRp403
g389
I1000000
sg390
I10
sg376
g391
ssS'topology'
p404
g11
(tRp405
S'ext_delay'
p406
I0
sS'source_ratio'
p407
F0.10000000000000001
sg376
S'ROCKET_FUEL'
p408
sS'asn'
p409
I3257
ssg11
(tRp410
S'SAT_RATE'
p411
g11
(tRp412
S'MEAN_CACHE_HIT'
p413
F0.55184999999999995
sS'MEAN_SERVER_HIT'
p414
F0.44015833333333332
sS'MEAN_SERVER_CACHE_HITS'
p415
F0.10766111111111111
sS'MEAN'
p416
F0.88434722222222217
ssS'CACHE_HIT_RATIO'
p417
g11
(tRp418
S'MEAN_OFF_PATH'
p419
F0.37414000218412141
sS'MEAN_ON_PATH'
p420
F0.17770999781587854
sg416
F0.55184999999999995
ssS'OVERHEAD'
p421
g11
(tRp422
S'INTEREST_HOPS'
p423
F6.4808097623796588
sS'SUCCESS_RATE'
p424
F0.57498212300201301
sS'QUOTA_USED_FAILURE'
p425
F4.1487472503213381
sS'FAILURE_RATE'
p426
F0.42501787699798704
sS'QUOTA_USED_SUCCESS'
p427
F9.3595624753460775
sS'NUM_SUCCESS_FIRST_TIME'
p428
F0.57754992599583865
sg416
F1.1481130149356871
ssS'LATENCY'
p429
g11
(tRp430
g416
F16.587388888888889
sstp431
a(g11
(tRp432
S'workload'
p433
g11
(tRp434
S'n_contents'
p435
I10000
sS'name'
p436
S'STATIONARY'
p437
sS'n_warmup'
p438
I720000
sS'rate'
p439
I100
sS'n_measured'
p440
I360000
sS'alpha'
p441
F0.69999999999999996
ssS'cache_policy'
p442
g11
(tRp443
g436
S'LRU'
p444
ssS'desc'
p445
S'quota_increment: 1.25'
p446
sS'strategy'
p447
g11
(tRp448
S'extra_quota'
p449
I2
sS'fan_out'
p450
I1
sg436
S'TFIB_DC'
p451
sS'quota_increment'
p452
F1.25
ssS'content_placement'
p453
g11
(tRp454
g436
S'UNIFORM'
p455
ssS'joint_cache_rsn_placement'
p456
g11
(tRp457
S'network_cache'
p458
F0.29999999999999999
sS'network_rsn'
p459
F38.399999999999999
sg436
S'CACHE_ALL_RSN_ALL'
p460
sS'rsn_cache_ratio'
p461
I128
ssS'warmup_strategy'
p462
g11
(tRp463
g449
I1000000
sg450
I10
sg436
g451
ssS'topology'
p464
g11
(tRp465
S'ext_delay'
p466
I0
sS'source_ratio'
p467
F0.10000000000000001
sg436
S'ROCKET_FUEL'
p468
sS'asn'
p469
I3257
ssg11
(tRp470
S'SAT_RATE'
p471
g11
(tRp472
S'MEAN_CACHE_HIT'
p473
F0.55116944444444449
sS'MEAN_SERVER_HIT'
p474
F0.4808472222222222
sS'MEAN_SERVER_CACHE_HITS'
p475
F0.13393055555555555
sS'MEAN'
p476
F0.89808611111111114
ssS'CACHE_HIT_RATIO'
p477
g11
(tRp478
S'MEAN_OFF_PATH'
p479
F0.36705102738435536
sS'MEAN_ON_PATH'
p480
F0.18411841706008913
sg476
F0.55116944444444449
ssS'OVERHEAD'
p481
g11
(tRp482
S'INTEREST_HOPS'
p483
F6.5017398108941542
sS'SUCCESS_RATE'
p484
F0.57314571693281169
sS'QUOTA_USED_FAILURE'
p485
F3.3177598533634076
sS'FAILURE_RATE'
p486
F0.42685428306718831
sS'QUOTA_USED_SUCCESS'
p487
F6.9361754362451595
sS'NUM_SUCCESS_FIRST_TIME'
p488
F0.57637986637570371
sg476
F1.1744172020129224
ssS'LATENCY'
p489
g11
(tRp490
g476
F17.441519444444445
sstp491
a(g11
(tRp492
S'workload'
p493
g11
(tRp494
S'n_contents'
p495
I10000
sS'name'
p496
S'STATIONARY'
p497
sS'n_warmup'
p498
I720000
sS'rate'
p499
I100
sS'n_measured'
p500
I360000
sS'alpha'
p501
F0.69999999999999996
ssS'cache_policy'
p502
g11
(tRp503
g496
S'LRU'
p504
ssS'desc'
p505
S'quota_increment: 2.25'
p506
sS'strategy'
p507
g11
(tRp508
S'extra_quota'
p509
I2
sS'fan_out'
p510
I1
sg496
S'TFIB_DC'
p511
sS'quota_increment'
p512
F2.25
ssS'content_placement'
p513
g11
(tRp514
g496
S'UNIFORM'
p515
ssS'joint_cache_rsn_placement'
p516
g11
(tRp517
S'network_cache'
p518
F0.29999999999999999
sS'network_rsn'
p519
F38.399999999999999
sg496
S'CACHE_ALL_RSN_ALL'
p520
sS'rsn_cache_ratio'
p521
I128
ssS'warmup_strategy'
p522
g11
(tRp523
g509
I1000000
sg510
I10
sg496
g511
ssS'topology'
p524
g11
(tRp525
S'ext_delay'
p526
I0
sS'source_ratio'
p527
F0.10000000000000001
sg496
S'ROCKET_FUEL'
p528
sS'asn'
p529
I3257
ssg11
(tRp530
S'SAT_RATE'
p531
g11
(tRp532
S'MEAN_CACHE_HIT'
p533
F0.55463611111111111
sS'MEAN_SERVER_HIT'
p534
F0.38629999999999998
sS'MEAN_SERVER_CACHE_HITS'
p535
F0.079799999999999996
sS'MEAN'
p536
F0.8611361111111111
ssS'CACHE_HIT_RATIO'
p537
g11
(tRp538
S'MEAN_OFF_PATH'
p539
F0.40362286965994265
sS'MEAN_ON_PATH'
p540
F0.15101324145116846
sg536
F0.55463611111111111
ssS'OVERHEAD'
p541
g11
(tRp542
S'INTEREST_HOPS'
p543
F6.541400410955811
sS'SUCCESS_RATE'
p544
F0.59089606360045355
sS'QUOTA_USED_FAILURE'
p545
F5.2521303619594999
sS'FAILURE_RATE'
p546
F0.4091039363995464
sS'QUOTA_USED_SUCCESS'
p547
F13.936991212161166
sS'NUM_SUCCESS_FIRST_TIME'
p548
F0.5938839471885331
sg536
F1.1161224351551084
ssS'LATENCY'
p549
g11
(tRp550
g536
F14.979538888888889
sstp551
a(g11
(tRp552
S'workload'
p553
g11
(tRp554
S'n_contents'
p555
I10000
sS'name'
p556
S'STATIONARY'
p557
sS'n_warmup'
p558
I720000
sS'rate'
p559
I100
sS'n_measured'
p560
I360000
sS'alpha'
p561
F0.69999999999999996
ssS'cache_policy'
p562
g11
(tRp563
g556
S'LRU'
p564
ssS'desc'
p565
S'quota_increment: 0.5'
p566
sS'strategy'
p567
g11
(tRp568
S'extra_quota'
p569
I2
sS'fan_out'
p570
I1
sg556
S'TFIB_DC'
p571
sS'quota_increment'
p572
F0.5
ssS'content_placement'
p573
g11
(tRp574
g556
S'UNIFORM'
p575
ssS'joint_cache_rsn_placement'
p576
g11
(tRp577
S'network_cache'
p578
F0.29999999999999999
sS'network_rsn'
p579
F38.399999999999999
sg556
S'CACHE_ALL_RSN_ALL'
p580
sS'rsn_cache_ratio'
p581
I128
ssS'warmup_strategy'
p582
g11
(tRp583
g569
I1000000
sg570
I10
sg556
g571
ssS'topology'
p584
g11
(tRp585
S'ext_delay'
p586
I0
sS'source_ratio'
p587
F0.10000000000000001
sg556
S'ROCKET_FUEL'
p588
sS'asn'
p589
I3257
ssg11
(tRp590
S'SAT_RATE'
p591
g11
(tRp592
S'MEAN_CACHE_HIT'
p593
F0.54672500000000002
sS'MEAN_SERVER_HIT'
p594
F0.61851111111111112
sS'MEAN_SERVER_CACHE_HITS'
p595
F0.21733888888888889
sS'MEAN'
p596
F0.94789722222222217
ssS'CACHE_HIT_RATIO'
p597
g11
(tRp598
S'MEAN_OFF_PATH'
p599
F0.31120540662955765
sS'MEAN_ON_PATH'
p600
F0.23551959337044237
sg596
F0.54672500000000002
ssS'OVERHEAD'
p601
g11
(tRp602
S'INTEREST_HOPS'
p603
F6.4960043136415981
sS'SUCCESS_RATE'
p604
F0.5483147047511806
sS'QUOTA_USED_FAILURE'
p605
F2.045556514855452
sS'FAILURE_RATE'
p606
F0.45168529524881945
sS'QUOTA_USED_SUCCESS'
p607
F4.4073113093399767
sS'NUM_SUCCESS_FIRST_TIME'
p608
F0.54833241707898117
sg596
F1.261552617929159
ssS'LATENCY'
p609
g11
(tRp610
g596
F21.063936111111111
sstp611
a(g11
(tRp612
S'workload'
p613
g11
(tRp614
S'n_contents'
p615
I10000
sS'name'
p616
S'STATIONARY'
p617
sS'n_warmup'
p618
I720000
sS'rate'
p619
I100
sS'n_measured'
p620
I360000
sS'alpha'
p621
F0.69999999999999996
ssS'cache_policy'
p622
g11
(tRp623
g616
S'LRU'
p624
ssS'desc'
p625
S'quota_increment: 0.75'
p626
sS'strategy'
p627
g11
(tRp628
S'extra_quota'
p629
I2
sS'fan_out'
p630
I1
sg616
S'TFIB_DC'
p631
sS'quota_increment'
p632
F0.75
ssS'content_placement'
p633
g11
(tRp634
g616
S'UNIFORM'
p635
ssS'joint_cache_rsn_placement'
p636
g11
(tRp637
S'network_cache'
p638
F0.29999999999999999
sS'network_rsn'
p639
F38.399999999999999
sg616
S'CACHE_ALL_RSN_ALL'
p640
sS'rsn_cache_ratio'
p641
I128
ssS'warmup_strategy'
p642
g11
(tRp643
g629
I1000000
sg630
I10
sg616
g631
ssS'topology'
p644
g11
(tRp645
S'ext_delay'
p646
I0
sS'source_ratio'
p647
F0.10000000000000001
sg616
S'ROCKET_FUEL'
p648
sS'asn'
p649
I3257
ssg11
(tRp650
S'SAT_RATE'
p651
g11
(tRp652
S'MEAN_CACHE_HIT'
p653
F0.54901388888888891
sS'MEAN_SERVER_HIT'
p654
F0.56419444444444444
sS'MEAN_SERVER_CACHE_HITS'
p655
F0.18503333333333333
sS'MEAN'
p656
F0.92817499999999997
ssS'CACHE_HIT_RATIO'
p657
g11
(tRp658
S'MEAN_OFF_PATH'
p659
F0.34893638257788423
sS'MEAN_ON_PATH'
p660
F0.20007750631100468
sg656
F0.54901388888888891
ssS'OVERHEAD'
p661
g11
(tRp662
S'INTEREST_HOPS'
p663
F6.5230185878501121
sS'SUCCESS_RATE'
p664
F0.57077207309310518
sS'QUOTA_USED_FAILURE'
p665
F2.521869485592823
sS'FAILURE_RATE'
p666
F0.42922792690689476
sS'QUOTA_USED_SUCCESS'
p667
F6.0096478108145757
sS'NUM_SUCCESS_FIRST_TIME'
p668
F0.57272568888744824
sg656
F1.2378682180982394
ssS'LATENCY'
p669
g11
(tRp670
g656
F19.680072222222222
sstp671
a(g11
(tRp672
S'workload'
p673
g11
(tRp674
S'n_contents'
p675
I10000
sS'name'
p676
S'STATIONARY'
p677
sS'n_warmup'
p678
I720000
sS'rate'
p679
I100
sS'n_measured'
p680
I360000
sS'alpha'
p681
F0.69999999999999996
ssS'cache_policy'
p682
g11
(tRp683
g676
S'LRU'
p684
ssS'desc'
p685
S'quota_increment: 0.25'
p686
sS'strategy'
p687
g11
(tRp688
S'extra_quota'
p689
I2
sS'fan_out'
p690
I1
sg676
S'TFIB_DC'
p691
sS'quota_increment'
p692
F0.25
ssS'content_placement'
p693
g11
(tRp694
g676
S'UNIFORM'
p695
ssS'joint_cache_rsn_placement'
p696
g11
(tRp697
S'network_cache'
p698
F0.29999999999999999
sS'network_rsn'
p699
F38.399999999999999
sg676
S'CACHE_ALL_RSN_ALL'
p700
sS'rsn_cache_ratio'
p701
I128
ssS'warmup_strategy'
p702
g11
(tRp703
g689
I1000000
sg690
I10
sg676
g691
ssS'topology'
p704
g11
(tRp705
S'ext_delay'
p706
I0
sS'source_ratio'
p707
F0.10000000000000001
sg676
S'ROCKET_FUEL'
p708
sS'asn'
p709
I3257
ssg11
(tRp710
S'SAT_RATE'
p711
g11
(tRp712
S'MEAN_CACHE_HIT'
p713
F0.54845555555555559
sS'MEAN_SERVER_HIT'
p714
F0.68939166666666662
sS'MEAN_SERVER_CACHE_HITS'
p715
F0.2691527777777778
sS'MEAN'
p716
F0.96869444444444441
ssS'CACHE_HIT_RATIO'
p717
g11
(tRp718
S'MEAN_OFF_PATH'
p719
F0.29905638148667602
sS'MEAN_ON_PATH'
p720
F0.24939917406887957
sg716
F0.54845555555555559
ssS'OVERHEAD'
p721
g11
(tRp722
S'INTEREST_HOPS'
p723
F6.5031915808791902
sS'SUCCESS_RATE'
p724
F0.54582534425658014
sS'QUOTA_USED_FAILURE'
p725
F1.7238986437910364
sS'FAILURE_RATE'
p726
F0.45417465574341992
sS'QUOTA_USED_SUCCESS'
p727
F3.2667347209399602
sS'NUM_SUCCESS_FIRST_TIME'
p728
F0.54628891636032406
sg716
F1.3149341897743241
ssS'LATENCY'
p729
g11
(tRp730
g716
F22.583702777777777
sstp731
atRp732
sb.