ccopy_reg
_reconstructor
p1
(cicarus.results.readwrite
ResultSet
p2
c__builtin__
object
p3
NtRp4
(dp5
S'attr'
p6
(dp7
sS'_results'
p8
ccollections
deque
p9
((lp10
(cicarus.util
Tree
p11
(tRp12
S'workload'
p13
g11
(tRp14
S'n_contents'
p15
I10000
sS'name'
p16
S'STATIONARY'
p17
sS'n_warmup'
p18
I720000
sS'rate'
p19
I100
sS'n_measured'
p20
I360000
sS'alpha'
p21
F0.69999999999999996
ssS'cache_policy'
p22
g11
(tRp23
g16
S'LRU'
p24
ssS'desc'
p25
S'extra quota: 2'
p26
sS'strategy'
p27
g11
(tRp28
S'extra_quota'
p29
I2
sS'fan_out'
p30
I2
sg16
S'LIRA_DFIB_OPH'
p31
sS'p'
F0.25
ssS'content_placement'
p32
g11
(tRp33
g16
S'UNIFORM'
p34
ssS'joint_cache_rsn_placement'
p35
g11
(tRp36
S'network_cache'
p37
F0.94999999999999996
sS'network_rsn'
p38
F121.59999999999999
sg16
S'CACHE_ALL_RSN_ALL'
p39
sS'rsn_cache_ratio'
p40
I128
ssS'warmup_strategy'
p41
g11
(tRp42
g29
I1000000
sS'p'
F0.25
sg16
g31
sg30
I10
ssS'topology'
p43
g11
(tRp44
S'ext_delay'
p45
I0
sS'source_ratio'
p46
F0.10000000000000001
sg16
S'ROCKET_FUEL'
p47
sS'asn'
p48
I3257
ssg11
(tRp49
S'SAT_RATE'
p50
g11
(tRp51
S'MEAN_CACHE_HIT'
p52
F0.71823611111111108
sS'MEAN_SERVER_HIT'
p53
F0.33413888888888887
sS'MEAN_SERVER_CACHE_HITS'
p54
F0.11413888888888889
sS'MEAN'
p55
F0.93823611111111116
ssS'CACHE_HIT_RATIO'
p56
g11
(tRp57
S'MEAN_OFF_PATH'
p58
F0.53946760634015656
sS'MEAN_ON_PATH'
p59
F0.17876850477095452
sg55
F0.71823611111111108
ssS'OVERHEAD'
p60
g11
(tRp61
S'SUCCESS_RATE'
p62
F0.71289621541397219
sS'QUOTA_USED_FAILURE'
p63
F3.6892380160624638
sS'FAILURE_RATE'
p64
F0.28710378458602775
sS'QUOTA_USED_SUCCESS'
p65
F24.540989351760725
sg55
F1.2841146951282696
sS'NUM_SUCCESS_FIRST_TIME'
p66
F0.70698147241741649
ssS'LATENCY'
p67
g11
(tRp68
g55
F24.13355
sstp69
a(g11
(tRp70
S'workload'
p71
g11
(tRp72
S'n_contents'
p73
I10000
sS'name'
p74
S'STATIONARY'
p75
sS'n_warmup'
p76
I720000
sS'rate'
p77
I100
sS'n_measured'
p78
I360000
sS'alpha'
p79
F0.69999999999999996
ssS'cache_policy'
p80
g11
(tRp81
g74
S'LRU'
p82
ssS'desc'
p83
S'extra quota: 4'
p84
sS'strategy'
p85
g11
(tRp86
S'extra_quota'
p87
I4
sS'fan_out'
p88
I2
sg74
S'LIRA_DFIB_SC'
p89
sS'p'
F0.25
ssS'content_placement'
p90
g11
(tRp91
g74
S'UNIFORM'
p92
ssS'joint_cache_rsn_placement'
p93
g11
(tRp94
S'network_cache'
p95
F0.94999999999999996
sS'network_rsn'
p96
F121.59999999999999
sg74
S'CACHE_ALL_RSN_ALL'
p97
sS'rsn_cache_ratio'
p98
I128
ssS'warmup_strategy'
p99
g11
(tRp100
g87
I1000000
sS'p'
F0.25
sg74
g89
sg88
I10
ssS'topology'
p101
g11
(tRp102
S'ext_delay'
p103
I0
sS'source_ratio'
p104
F0.10000000000000001
sg74
S'ROCKET_FUEL'
p105
sS'asn'
p106
I3257
ssg11
(tRp107
S'SAT_RATE'
p108
g11
(tRp109
S'MEAN_CACHE_HIT'
p110
F0.71343333333333336
sS'MEAN_SERVER_HIT'
p111
F0.59423333333333328
sS'MEAN_SERVER_CACHE_HITS'
p112
F0.30766666666666664
sS'MEAN'
p113
F1
ssS'CACHE_HIT_RATIO'
p114
g11
(tRp115
S'MEAN_OFF_PATH'
p116
F0.41510748576769479
sS'MEAN_ON_PATH'
p117
F0.29832584756563857
sg113
F0.71343333333333336
ssS'OVERHEAD'
p118
g11
(tRp119
S'SUCCESS_RATE'
p120
F0.67366002344665887
sS'QUOTA_USED_FAILURE'
p121
F1
sS'FAILURE_RATE'
p122
F0.32633997655334113
sS'QUOTA_USED_SUCCESS'
p123
F1
sg113
F1.5985666666666667
sS'NUM_SUCCESS_FIRST_TIME'
p124
F0.65939463390884734
ssS'LATENCY'
p125
g11
(tRp126
g113
F31.669127777777778
sstp127
a(g11
(tRp128
S'workload'
p129
g11
(tRp130
S'n_contents'
p131
I10000
sS'name'
p132
S'STATIONARY'
p133
sS'n_warmup'
p134
I720000
sS'rate'
p135
I100
sS'n_measured'
p136
I360000
sS'alpha'
p137
F0.69999999999999996
ssS'cache_policy'
p138
g11
(tRp139
g132
S'LRU'
p140
ssS'desc'
p141
S'extra quota: 1'
p142
sS'strategy'
p143
g11
(tRp144
S'extra_quota'
p145
I1
sS'fan_out'
p146
I2
sg132
S'LIRA_DFIB_OPH'
p147
sS'p'
F0.25
ssS'content_placement'
p148
g11
(tRp149
g132
S'UNIFORM'
p150
ssS'joint_cache_rsn_placement'
p151
g11
(tRp152
S'network_cache'
p153
F0.94999999999999996
sS'network_rsn'
p154
F121.59999999999999
sg132
S'CACHE_ALL_RSN_ALL'
p155
sS'rsn_cache_ratio'
p156
I128
ssS'warmup_strategy'
p157
g11
(tRp158
g145
I1000000
sS'p'
F0.25
sg132
g147
sg146
I10
ssS'topology'
p159
g11
(tRp160
S'ext_delay'
p161
I0
sS'source_ratio'
p162
F0.10000000000000001
sg132
S'ROCKET_FUEL'
p163
sS'asn'
p164
I3257
ssg11
(tRp165
S'SAT_RATE'
p166
g11
(tRp167
S'MEAN_CACHE_HIT'
p168
F0.7238
sS'MEAN_SERVER_HIT'
p169
F0.25338888888888889
sS'MEAN_SERVER_CACHE_HITS'
p170
F0.067505555555555555
sS'MEAN'
p171
F0.90968333333333329
ssS'CACHE_HIT_RATIO'
p172
g11
(tRp173
S'MEAN_OFF_PATH'
p174
F0.58264068131943103
sS'MEAN_ON_PATH'
p175
F0.14115931868056897
sg171
F0.7238
ssS'OVERHEAD'
p176
g11
(tRp177
S'SUCCESS_RATE'
p178
F0.73518316936748207
sS'QUOTA_USED_FAILURE'
p179
F3.8505695186931814
sS'FAILURE_RATE'
p180
F0.26481683063251793
sS'QUOTA_USED_SUCCESS'
p181
F23.062349778018774
sg171
F1.2156702881955259
sS'NUM_SUCCESS_FIRST_TIME'
p182
F0.73076503367021151
ssS'LATENCY'
p183
g11
(tRp184
g171
F22.343619444444446
sstp185
a(g11
(tRp186
S'workload'
p187
g11
(tRp188
S'n_contents'
p189
I10000
sS'name'
p190
S'STATIONARY'
p191
sS'n_warmup'
p192
I720000
sS'rate'
p193
I100
sS'n_measured'
p194
I360000
sS'alpha'
p195
F0.69999999999999996
ssS'cache_policy'
p196
g11
(tRp197
g190
S'LRU'
p198
ssS'desc'
p199
S'extra quota: 3'
p200
sS'strategy'
p201
g11
(tRp202
S'extra_quota'
p203
I3
sS'fan_out'
p204
I2
sg190
S'LIRA_DFIB_OPH'
p205
sS'p'
F0.25
ssS'content_placement'
p206
g11
(tRp207
g190
S'UNIFORM'
p208
ssS'joint_cache_rsn_placement'
p209
g11
(tRp210
S'network_cache'
p211
F0.94999999999999996
sS'network_rsn'
p212
F121.59999999999999
sg190
S'CACHE_ALL_RSN_ALL'
p213
sS'rsn_cache_ratio'
p214
I128
ssS'warmup_strategy'
p215
g11
(tRp216
g203
I1000000
sS'p'
F0.25
sg190
g205
sg204
I10
ssS'topology'
p217
g11
(tRp218
S'ext_delay'
p219
I0
sS'source_ratio'
p220
F0.10000000000000001
sg190
S'ROCKET_FUEL'
p221
sS'asn'
p222
I3257
ssg11
(tRp223
S'SAT_RATE'
p224
g11
(tRp225
S'MEAN_CACHE_HIT'
p226
F0.71638611111111106
sS'MEAN_SERVER_HIT'
p227
F0.38719999999999999
sS'MEAN_SERVER_CACHE_HITS'
p228
F0.14931111111111112
sS'MEAN'
p229
F0.95427499999999998
ssS'CACHE_HIT_RATIO'
p230
g11
(tRp231
S'MEAN_OFF_PATH'
p232
F0.51120463337956312
sS'MEAN_ON_PATH'
p233
F0.20518147773154793
sg229
F0.71638611111111106
ssS'OVERHEAD'
p234
g11
(tRp235
S'SUCCESS_RATE'
p236
F0.70216512325551061
sS'QUOTA_USED_FAILURE'
p237
F3.6801270090065517
sS'FAILURE_RATE'
p238
F0.29783487674448939
sS'QUOTA_USED_SUCCESS'
p239
F21.559801803099514
sg229
F1.3094262951222424
sS'NUM_SUCCESS_FIRST_TIME'
p240
F0.69537532268133428
ssS'LATENCY'
p241
g11
(tRp242
g229
F25.656097222222222
sstp243
a(g11
(tRp244
S'workload'
p245
g11
(tRp246
S'n_contents'
p247
I10000
sS'name'
p248
S'STATIONARY'
p249
sS'n_warmup'
p250
I720000
sS'rate'
p251
I100
sS'n_measured'
p252
I360000
sS'alpha'
p253
F0.69999999999999996
ssS'cache_policy'
p254
g11
(tRp255
g248
S'LRU'
p256
ssS'desc'
p257
S'extra quota: 2'
p258
sS'strategy'
p259
g11
(tRp260
S'extra_quota'
p261
I2
sS'fan_out'
p262
I2
sg248
S'LIRA_DFIB_SC'
p263
sS'p'
F0.25
ssS'content_placement'
p264
g11
(tRp265
g248
S'UNIFORM'
p266
ssS'joint_cache_rsn_placement'
p267
g11
(tRp268
S'network_cache'
p269
F0.94999999999999996
sS'network_rsn'
p270
F121.59999999999999
sg248
S'CACHE_ALL_RSN_ALL'
p271
sS'rsn_cache_ratio'
p272
I128
ssS'warmup_strategy'
p273
g11
(tRp274
g261
I1000000
sS'p'
F0.25
sg248
g263
sg262
I10
ssS'topology'
p275
g11
(tRp276
S'ext_delay'
p277
I0
sS'source_ratio'
p278
F0.10000000000000001
sg248
S'ROCKET_FUEL'
p279
sS'asn'
p280
I3257
ssg11
(tRp281
S'SAT_RATE'
p282
g11
(tRp283
S'MEAN_CACHE_HIT'
p284
F0.71211666666666662
sS'MEAN_SERVER_HIT'
p285
F0.592275
sS'MEAN_SERVER_CACHE_HITS'
p286
F0.30453055555555558
sS'MEAN'
p287
F0.99986111111111109
ssS'CACHE_HIT_RATIO'
p288
g11
(tRp289
S'MEAN_OFF_PATH'
p290
F0.42508321248091385
sS'MEAN_ON_PATH'
p291
F0.28703345418575277
sg287
F0.71211666666666662
ssS'OVERHEAD'
p292
g11
(tRp293
S'SUCCESS_RATE'
p294
F0.67425241317544038
sS'QUOTA_USED_FAILURE'
p295
F1
sS'FAILURE_RATE'
p296
F0.32574758682455968
sS'QUOTA_USED_SUCCESS'
p297
F1
sg287
F1.6006417557994166
sS'NUM_SUCCESS_FIRST_TIME'
p298
F0.66258001660814581
ssS'LATENCY'
p299
g11
(tRp300
g287
F31.375713888888889
sstp301
a(g11
(tRp302
S'workload'
p303
g11
(tRp304
S'n_contents'
p305
I10000
sS'name'
p306
S'STATIONARY'
p307
sS'n_warmup'
p308
I720000
sS'rate'
p309
I100
sS'n_measured'
p310
I360000
sS'alpha'
p311
F0.69999999999999996
ssS'cache_policy'
p312
g11
(tRp313
g306
S'LRU'
p314
ssS'desc'
p315
S'extra quota: 4'
p316
sS'strategy'
p317
g11
(tRp318
S'extra_quota'
p319
I4
sS'fan_out'
p320
I2
sg306
S'LIRA_DFIB_OPH'
p321
sS'p'
F0.25
ssS'content_placement'
p322
g11
(tRp323
g306
S'UNIFORM'
p324
ssS'joint_cache_rsn_placement'
p325
g11
(tRp326
S'network_cache'
p327
F0.94999999999999996
sS'network_rsn'
p328
F121.59999999999999
sg306
S'CACHE_ALL_RSN_ALL'
p329
sS'rsn_cache_ratio'
p330
I128
ssS'warmup_strategy'
p331
g11
(tRp332
g319
I1000000
sS'p'
F0.25
sg306
g321
sg320
I10
ssS'topology'
p333
g11
(tRp334
S'ext_delay'
p335
I0
sS'source_ratio'
p336
F0.10000000000000001
sg306
S'ROCKET_FUEL'
p337
sS'asn'
p338
I3257
ssg11
(tRp339
S'SAT_RATE'
p340
g11
(tRp341
S'MEAN_CACHE_HIT'
p342
F0.71758611111111115
sS'MEAN_SERVER_HIT'
p343
F0.42201666666666665
sS'MEAN_SERVER_CACHE_HITS'
p344
F0.17399166666666666
sS'MEAN'
p345
F0.96561111111111109
ssS'CACHE_HIT_RATIO'
p346
g11
(tRp347
S'MEAN_OFF_PATH'
p348
F0.4748048174680749
sS'MEAN_ON_PATH'
p349
F0.24278129364303624
sg345
F0.71758611111111115
ssS'OVERHEAD'
p350
g11
(tRp351
S'SUCCESS_RATE'
p352
F0.68627667144389104
sS'QUOTA_USED_FAILURE'
p353
F3.5520189361442083
sS'FAILURE_RATE'
p354
F0.31372332855610902
sS'QUOTA_USED_SUCCESS'
p355
F19.652701175028838
sg345
F1.3306225188424141
sS'NUM_SUCCESS_FIRST_TIME'
p356
F0.67909959610572546
ssS'LATENCY'
p357
g11
(tRp358
g345
F26.356352777777779
sstp359
a(g11
(tRp360
S'workload'
p361
g11
(tRp362
S'n_contents'
p363
I10000
sS'name'
p364
S'STATIONARY'
p365
sS'n_warmup'
p366
I720000
sS'rate'
p367
I100
sS'n_measured'
p368
I360000
sS'alpha'
p369
F0.69999999999999996
ssS'cache_policy'
p370
g11
(tRp371
g364
S'LRU'
p372
ssS'desc'
p373
S'extra quota: 1'
p374
sS'strategy'
p375
g11
(tRp376
S'extra_quota'
p377
I1
sS'fan_out'
p378
I2
sg364
S'LIRA_DFIB_SC'
p379
sS'p'
F0.25
ssS'content_placement'
p380
g11
(tRp381
g364
S'UNIFORM'
p382
ssS'joint_cache_rsn_placement'
p383
g11
(tRp384
S'network_cache'
p385
F0.94999999999999996
sS'network_rsn'
p386
F121.59999999999999
sg364
S'CACHE_ALL_RSN_ALL'
p387
sS'rsn_cache_ratio'
p388
I128
ssS'warmup_strategy'
p389
g11
(tRp390
g377
I1000000
sS'p'
F0.25
sg364
g379
sg378
I10
ssS'topology'
p391
g11
(tRp392
S'ext_delay'
p393
I0
sS'source_ratio'
p394
F0.10000000000000001
sg364
S'ROCKET_FUEL'
p395
sS'asn'
p396
I3257
ssg11
(tRp397
S'SAT_RATE'
p398
g11
(tRp399
S'MEAN_CACHE_HIT'
p400
F0.71621944444444441
sS'MEAN_SERVER_HIT'
p401
F0.57496388888888894
sS'MEAN_SERVER_CACHE_HITS'
p402
F0.29420833333333335
sS'MEAN'
p403
F0.99697499999999994
ssS'CACHE_HIT_RATIO'
p404
g11
(tRp405
S'MEAN_OFF_PATH'
p406
F0.42669299910073877
sS'MEAN_ON_PATH'
p407
F0.28952644534370564
sg403
F0.71621944444444441
ssS'OVERHEAD'
p408
g11
(tRp409
S'SUCCESS_RATE'
p410
F0.67754749731444464
sS'QUOTA_USED_FAILURE'
p411
F1
sS'FAILURE_RATE'
p412
F0.32245250268555531
sS'QUOTA_USED_SUCCESS'
p413
F1
sg403
F1.5753599081666485
sS'NUM_SUCCESS_FIRST_TIME'
p414
F0.66518941012417565
ssS'LATENCY'
p415
g11
(tRp416
g403
F31.750627777777776
sstp417
a(g11
(tRp418
S'workload'
p419
g11
(tRp420
S'n_contents'
p421
I10000
sS'name'
p422
S'STATIONARY'
p423
sS'n_warmup'
p424
I720000
sS'rate'
p425
I100
sS'n_measured'
p426
I360000
sS'alpha'
p427
F0.69999999999999996
ssS'cache_policy'
p428
g11
(tRp429
g422
S'LRU'
p430
ssS'desc'
p431
S'extra quota: 3'
p432
sS'strategy'
p433
g11
(tRp434
S'extra_quota'
p435
I3
sS'fan_out'
p436
I2
sg422
S'LIRA_DFIB_SC'
p437
sS'p'
F0.25
ssS'content_placement'
p438
g11
(tRp439
g422
S'UNIFORM'
p440
ssS'joint_cache_rsn_placement'
p441
g11
(tRp442
S'network_cache'
p443
F0.94999999999999996
sS'network_rsn'
p444
F121.59999999999999
sg422
S'CACHE_ALL_RSN_ALL'
p445
sS'rsn_cache_ratio'
p446
I128
ssS'warmup_strategy'
p447
g11
(tRp448
g435
I1000000
sS'p'
F0.25
sg422
g437
sg436
I10
ssS'topology'
p449
g11
(tRp450
S'ext_delay'
p451
I0
sS'source_ratio'
p452
F0.10000000000000001
sg422
S'ROCKET_FUEL'
p453
sS'asn'
p454
I3257
ssg11
(tRp455
S'SAT_RATE'
p456
g11
(tRp457
S'MEAN_CACHE_HIT'
p458
F0.71108333333333329
sS'MEAN_SERVER_HIT'
p459
F0.59693055555555552
sS'MEAN_SERVER_CACHE_HITS'
p460
F0.30801388888888886
sS'MEAN'
p461
F1
ssS'CACHE_HIT_RATIO'
p462
g11
(tRp463
S'MEAN_OFF_PATH'
p464
F0.41167588689382756
sS'MEAN_ON_PATH'
p465
F0.29940744643950573
sg461
F0.71108333333333329
ssS'OVERHEAD'
p466
g11
(tRp467
S'SUCCESS_RATE'
p468
F0.66982208815948729
sS'QUOTA_USED_FAILURE'
p469
F1
sS'FAILURE_RATE'
p470
F0.33017791184051271
sS'QUOTA_USED_SUCCESS'
p471
F1
sg461
F1.5933444444444445
sS'NUM_SUCCESS_FIRST_TIME'
p472
F0.65514882425023324
ssS'LATENCY'
p473
g11
(tRp474
g461
F32.657486111111112
sstp475
atRp476
sb.