ccopy_reg
_reconstructor
p1
(cicarus.results.readwrite
ResultSet
p2
c__builtin__
object
p3
NtRp4
(dp5
S'attr'
p6
(dp7
sS'_results'
p8
ccollections
deque
p9
((lp10
(cicarus.util
Tree
p11
(tRp12
S'workload'
p13
g11
(tRp14
S'n_contents'
p15
I10000
sS'name'
p16
S'STATIONARY'
p17
sS'n_warmup'
p18
I720000
sS'rate'
p19
I100
sS'n_measured'
p20
I360000
sS'alpha'
p21
F0.69999999999999996
ssS'cache_policy'
p22
g11
(tRp23
g16
S'LRU'
p24
ssS'desc'
p25
S'strategy network_cache: 0.3'
p26
sS'strategy'
p27
g11
(tRp28
g16
S'NDN_PROB'
p29
ssS'content_placement'
p30
g11
(tRp31
g16
S'UNIFORM'
p32
ssS'joint_cache_rsn_placement'
p33
g11
(tRp34
S'network_cache'
p35
F0.29999999999999999
sS'network_rsn'
p36
F38.399999999999999
sg16
S'CACHE_ALL_RSN_ALL'
p37
sS'rsn_cache_ratio'
p38
I128
ssS'warmup_strategy'
p39
g11
(tRp40
g16
g29
ssS'topology'
p41
g11
(tRp42
S'ext_delay'
p43
I0
sS'source_ratio'
p44
F0.10000000000000001
sg16
S'ROCKET_FUEL'
p45
sS'asn'
p46
I3257
ssg11
(tRp47
S'SAT_RATE'
p48
g11
(tRp49
S'MEAN_CACHE_HIT'
p50
F0.2324
sS'MEAN_SERVER_HIT'
p51
F0.76759999999999995
sS'MEAN_SERVER_CACHE_HITS'
p52
F0
sS'MEAN'
p53
F1
ssS'CACHE_HIT_RATIO'
p54
g11
(tRp55
S'MEAN_OFF_PATH'
p56
F0
sS'MEAN_ON_PATH'
p57
F0.2324
sg53
F0.2324
ssS'OVERHEAD'
p58
g11
(tRp59
S'INTEREST_HOPS'
p60
F6.4542388888888889
sS'SUCCESS_RATE'
p61
F0
sS'QUOTA_USED_FAILURE'
p62
F0
sS'FAILURE_RATE'
p63
F0
sS'QUOTA_USED_SUCCESS'
p64
F0
sS'NUM_SUCCESS_FIRST_TIME'
p65
F0
sg53
F1
ssS'LATENCY'
p66
g11
(tRp67
g53
F80.99829444444444
sstp68
a(g11
(tRp69
S'workload'
p70
g11
(tRp71
S'n_contents'
p72
I10000
sS'name'
p73
S'STATIONARY'
p74
sS'n_warmup'
p75
I720000
sS'rate'
p76
I100
sS'n_measured'
p77
I360000
sS'alpha'
p78
F0.69999999999999996
ssS'cache_policy'
p79
g11
(tRp80
g73
S'LRU'
p81
ssS'desc'
p82
S'strategy network_cache: 0.3'
p83
sS'strategy'
p84
g11
(tRp85
g73
S'TFIB_BC'
p86
ssS'content_placement'
p87
g11
(tRp88
g73
S'UNIFORM'
p89
ssS'joint_cache_rsn_placement'
p90
g11
(tRp91
S'network_cache'
p92
F0.29999999999999999
sS'network_rsn'
p93
F38.399999999999999
sg73
S'CACHE_ALL_RSN_ALL'
p94
sS'rsn_cache_ratio'
p95
I128
ssS'warmup_strategy'
p96
g11
(tRp97
g73
g86
ssS'topology'
p98
g11
(tRp99
S'ext_delay'
p100
I0
sS'source_ratio'
p101
F0.10000000000000001
sg73
S'ROCKET_FUEL'
p102
sS'asn'
p103
I3257
ssg11
(tRp104
S'SAT_RATE'
p105
g11
(tRp106
S'MEAN_CACHE_HIT'
p107
F0.59714166666666668
sS'MEAN_SERVER_HIT'
p108
F0.40285833333333332
sS'MEAN_SERVER_CACHE_HITS'
p109
F0
sS'MEAN'
p110
F1
ssS'CACHE_HIT_RATIO'
p111
g11
(tRp112
S'MEAN_OFF_PATH'
p113
F0.57704999999999995
sS'MEAN_ON_PATH'
p114
F0.02009166666666673
sg110
F0.59714166666666668
ssS'OVERHEAD'
p115
g11
(tRp116
S'INTEREST_HOPS'
p117
F9.6401111111111106
sS'SUCCESS_RATE'
p118
F0.60526308122172012
sS'QUOTA_USED_FAILURE'
p119
F0
sS'FAILURE_RATE'
p120
F0.39473691877827988
sS'QUOTA_USED_SUCCESS'
p121
F0
sS'NUM_SUCCESS_FIRST_TIME'
p122
F0.61530948051752898
sg110
F1
ssS'LATENCY'
p123
g11
(tRp124
g110
F62.880288888888892
sstp125
a(g11
(tRp126
S'workload'
p127
g11
(tRp128
S'n_contents'
p129
I10000
sS'name'
p130
S'STATIONARY'
p131
sS'n_warmup'
p132
I720000
sS'rate'
p133
I100
sS'n_measured'
p134
I360000
sS'alpha'
p135
F0.69999999999999996
ssS'cache_policy'
p136
g11
(tRp137
g130
S'LRU'
p138
ssS'desc'
p139
S'strategy network_cache: 0.3'
p140
sS'strategy'
p141
g11
(tRp142
g130
S'NRR_PROB'
p143
ssS'content_placement'
p144
g11
(tRp145
g130
S'UNIFORM'
p146
ssS'joint_cache_rsn_placement'
p147
g11
(tRp148
S'network_cache'
p149
F0.29999999999999999
sS'network_rsn'
p150
F38.399999999999999
sg130
S'CACHE_ALL_RSN_ALL'
p151
sS'rsn_cache_ratio'
p152
I128
ssS'warmup_strategy'
p153
g11
(tRp154
g130
g143
ssS'topology'
p155
g11
(tRp156
S'ext_delay'
p157
I0
sS'source_ratio'
p158
F0.10000000000000001
sg130
S'ROCKET_FUEL'
p159
sS'asn'
p160
I3257
ssg11
(tRp161
S'SAT_RATE'
p162
g11
(tRp163
S'MEAN_CACHE_HIT'
p164
F0.60586111111111107
sS'MEAN_SERVER_HIT'
p165
F0.39413888888888887
sS'MEAN_SERVER_CACHE_HITS'
p166
F0
sS'MEAN'
p167
F1
ssS'CACHE_HIT_RATIO'
p168
g11
(tRp169
S'MEAN_OFF_PATH'
p170
F0.57943611111111115
sS'MEAN_ON_PATH'
p171
F0.026424999999999921
sg167
F0.60586111111111107
ssS'OVERHEAD'
p172
g11
(tRp173
S'INTEREST_HOPS'
p174
F6.0361500000000001
sS'SUCCESS_RATE'
p175
F0
sS'QUOTA_USED_FAILURE'
p176
F0
sS'FAILURE_RATE'
p177
F0
sS'QUOTA_USED_SUCCESS'
p178
F0
sS'NUM_SUCCESS_FIRST_TIME'
p179
F0
sg167
F1
ssS'LATENCY'
p180
g11
(tRp181
g167
F56.963922222222223
sstp182
a(g11
(tRp183
S'workload'
p184
g11
(tRp185
S'n_contents'
p186
I10000
sS'name'
p187
S'STATIONARY'
p188
sS'n_warmup'
p189
I720000
sS'rate'
p190
I100
sS'n_measured'
p191
I360000
sS'alpha'
p192
F0.69999999999999996
ssS'cache_policy'
p193
g11
(tRp194
g187
S'LRU'
p195
ssS'desc'
p196
S'strategy network_cache: 0.3'
p197
sS'strategy'
p198
g11
(tRp199
S'extra_quota'
p200
I10000
sS'fan_out'
p201
I1
sg187
S'TFIB_SC'
p202
ssS'content_placement'
p203
g11
(tRp204
g187
S'UNIFORM'
p205
ssS'joint_cache_rsn_placement'
p206
g11
(tRp207
S'network_cache'
p208
F0.29999999999999999
sS'network_rsn'
p209
F38.399999999999999
sg187
S'CACHE_ALL_RSN_ALL'
p210
sS'rsn_cache_ratio'
p211
I128
ssS'warmup_strategy'
p212
g11
(tRp213
g200
I10000
sg201
I10
sg187
g202
ssS'topology'
p214
g11
(tRp215
S'ext_delay'
p216
I0
sS'source_ratio'
p217
F0.10000000000000001
sg187
S'ROCKET_FUEL'
p218
sS'asn'
p219
I3257
ssg11
(tRp220
S'SAT_RATE'
p221
g11
(tRp222
S'MEAN_CACHE_HIT'
p223
F0.54560833333333336
sS'MEAN_SERVER_HIT'
p224
F0.74559166666666665
sS'MEAN_SERVER_CACHE_HITS'
p225
F0.29120000000000001
sS'MEAN'
p226
F1
ssS'CACHE_HIT_RATIO'
p227
g11
(tRp228
S'MEAN_OFF_PATH'
p229
F0.27162716852540275
sS'MEAN_ON_PATH'
p230
F0.27398116480793061
sg226
F0.54560833333333336
ssS'OVERHEAD'
p231
g11
(tRp232
S'INTEREST_HOPS'
p233
F6.5902194444444442
sS'SUCCESS_RATE'
p234
F0.54657870349580118
sS'QUOTA_USED_FAILURE'
p235
F1
sS'FAILURE_RATE'
p236
F0.45342129650419882
sS'QUOTA_USED_SUCCESS'
p237
F1
sS'NUM_SUCCESS_FIRST_TIME'
p238
F0.54355761513966916
sg226
F1.3719027777777777
ssS'LATENCY'
p239
g11
(tRp240
g226
F51.939522222222223
sstp241
atRp242
sb.