ccopy_reg
_reconstructor
p1
(cicarus.results.readwrite
ResultSet
p2
c__builtin__
object
p3
NtRp4
(dp5
S'attr'
p6
(dp7
sS'_results'
p8
ccollections
deque
p9
((lp10
(cicarus.util
Tree
p11
(tRp12
S'workload'
p13
g11
(tRp14
S'n_contents'
p15
I10000
sS'name'
p16
S'STATIONARY'
p17
sS'n_warmup'
p18
I720000
sS'rate'
p19
I100
sS'n_measured'
p20
I360000
sS'alpha'
p21
F0.69999999999999996
ssS'cache_policy'
p22
g11
(tRp23
g16
S'LRU'
p24
ssS'desc'
p25
S'RSN size sensitivity -> RSN/cache ratio: 2.0'
p26
sS'strategy'
p27
g11
(tRp28
S'p'
F0.25
sg16
S'LIRA_BC'
p29
ssS'content_placement'
p30
g11
(tRp31
g16
S'UNIFORM'
p32
ssS'joint_cache_rsn_placement'
p33
g11
(tRp34
S'network_cache'
p35
F0.94999999999999996
sS'network_rsn'
p36
F1.8999999999999999
sg16
S'CACHE_ALL_RSN_ALL'
p37
sS'rsn_cache_ratio'
p38
F2
ssS'warmup_strategy'
p39
g11
(tRp40
S'p'
F0.25
sg16
g29
ssS'topology'
p41
g11
(tRp42
S'ext_delay'
p43
I0
sS'source_ratio'
p44
F0.10000000000000001
sg16
S'ROCKET_FUEL'
p45
sS'asn'
p46
I3257
ssg11
(tRp47
S'SAT_RATE'
p48
g11
(tRp49
S'MEAN_CACHE_HIT'
p50
F0.3817638888888889
sS'MEAN_SERVER_HIT'
p51
F0.6182361111111111
sS'MEAN_SERVER_CACHE_HITS'
p52
F0
sS'MEAN'
p53
F1
ssS'CACHE_HIT_RATIO'
p54
g11
(tRp55
S'MEAN_OFF_PATH'
p56
F0.046463888888888888
sS'MEAN_ON_PATH'
p57
F0.33530000000000004
sg53
F0.3817638888888889
ssS'OVERHEAD'
p58
g11
(tRp59
S'SUCCESS_RATE'
p60
F0.046463888888888888
sS'QUOTA_USED_FAILURE'
p61
F0
sS'FAILURE_RATE'
p62
F0.95353611111111114
sS'QUOTA_USED_SUCCESS'
p63
F0
sg53
F1
sS'NUM_SUCCESS_FIRST_TIME'
p64
F0.046463888888888888
ssS'LATENCY'
p65
g11
(tRp66
g53
F76.382643064583874
sstp67
a(g11
(tRp68
S'workload'
p69
g11
(tRp70
S'n_contents'
p71
I10000
sS'name'
p72
S'STATIONARY'
p73
sS'n_warmup'
p74
I720000
sS'rate'
p75
I100
sS'n_measured'
p76
I360000
sS'alpha'
p77
F0.69999999999999996
ssS'cache_policy'
p78
g11
(tRp79
g72
S'LRU'
p80
ssS'desc'
p81
S'RSN size sensitivity -> RSN/cache ratio: 8.0'
p82
sS'strategy'
p83
g11
(tRp84
S'p'
F0.25
sg72
S'LIRA_BC'
p85
ssS'content_placement'
p86
g11
(tRp87
g72
S'UNIFORM'
p88
ssS'joint_cache_rsn_placement'
p89
g11
(tRp90
S'network_cache'
p91
F0.94999999999999996
sS'network_rsn'
p92
F7.5999999999999996
sg72
S'CACHE_ALL_RSN_ALL'
p93
sS'rsn_cache_ratio'
p94
F8
ssS'warmup_strategy'
p95
g11
(tRp96
S'p'
F0.25
sg72
g85
ssS'topology'
p97
g11
(tRp98
S'ext_delay'
p99
I0
sS'source_ratio'
p100
F0.10000000000000001
sg72
S'ROCKET_FUEL'
p101
sS'asn'
p102
I3257
ssg11
(tRp103
S'SAT_RATE'
p104
g11
(tRp105
S'MEAN_CACHE_HIT'
p106
F0.42686944444444447
sS'MEAN_SERVER_HIT'
p107
F0.57313055555555559
sS'MEAN_SERVER_CACHE_HITS'
p108
F0
sS'MEAN'
p109
F1
ssS'CACHE_HIT_RATIO'
p110
g11
(tRp111
S'MEAN_OFF_PATH'
p112
F0.18028055555555556
sS'MEAN_ON_PATH'
p113
F0.24658888888888891
sg109
F0.42686944444444447
ssS'OVERHEAD'
p114
g11
(tRp115
S'SUCCESS_RATE'
p116
F0.18028888888888889
sS'QUOTA_USED_FAILURE'
p117
F0
sS'FAILURE_RATE'
p118
F0.81971111111111106
sS'QUOTA_USED_SUCCESS'
p119
F0
sg109
F1
sS'NUM_SUCCESS_FIRST_TIME'
p120
F0.18028888888888889
ssS'LATENCY'
p121
g11
(tRp122
g109
F73.944389555248236
sstp123
a(g11
(tRp124
S'workload'
p125
g11
(tRp126
S'n_contents'
p127
I10000
sS'name'
p128
S'STATIONARY'
p129
sS'n_warmup'
p130
I720000
sS'rate'
p131
I100
sS'n_measured'
p132
I360000
sS'alpha'
p133
F0.69999999999999996
ssS'cache_policy'
p134
g11
(tRp135
g128
S'LRU'
p136
ssS'desc'
p137
S'RSN size sensitivity -> RSN/cache ratio: 4.0'
p138
sS'strategy'
p139
g11
(tRp140
S'p'
F0.25
sg128
S'LIRA_BC'
p141
ssS'content_placement'
p142
g11
(tRp143
g128
S'UNIFORM'
p144
ssS'joint_cache_rsn_placement'
p145
g11
(tRp146
S'network_cache'
p147
F0.94999999999999996
sS'network_rsn'
p148
F3.7999999999999998
sg128
S'CACHE_ALL_RSN_ALL'
p149
sS'rsn_cache_ratio'
p150
F4
ssS'warmup_strategy'
p151
g11
(tRp152
S'p'
F0.25
sg128
g141
ssS'topology'
p153
g11
(tRp154
S'ext_delay'
p155
I0
sS'source_ratio'
p156
F0.10000000000000001
sg128
S'ROCKET_FUEL'
p157
sS'asn'
p158
I3257
ssg11
(tRp159
S'SAT_RATE'
p160
g11
(tRp161
S'MEAN_CACHE_HIT'
p162
F0.39229722222222224
sS'MEAN_SERVER_HIT'
p163
F0.60770277777777781
sS'MEAN_SERVER_CACHE_HITS'
p164
F0
sS'MEAN'
p165
F1
ssS'CACHE_HIT_RATIO'
p166
g11
(tRp167
S'MEAN_OFF_PATH'
p168
F0.090158333333333326
sS'MEAN_ON_PATH'
p169
F0.3021388888888889
sg165
F0.39229722222222224
ssS'OVERHEAD'
p170
g11
(tRp171
S'SUCCESS_RATE'
p172
F0.090158333333333326
sS'QUOTA_USED_FAILURE'
p173
F0
sS'FAILURE_RATE'
p174
F0.90984166666666666
sS'QUOTA_USED_SUCCESS'
p175
F0
sg165
F1
sS'NUM_SUCCESS_FIRST_TIME'
p176
F0.090158333333333326
ssS'LATENCY'
p177
g11
(tRp178
g165
F75.824948050991964
sstp179
a(g11
(tRp180
S'workload'
p181
g11
(tRp182
S'n_contents'
p183
I10000
sS'name'
p184
S'STATIONARY'
p185
sS'n_warmup'
p186
I720000
sS'rate'
p187
I100
sS'n_measured'
p188
I360000
sS'alpha'
p189
F0.69999999999999996
ssS'cache_policy'
p190
g11
(tRp191
g184
S'LRU'
p192
ssS'desc'
p193
S'RSN size sensitivity -> RSN/cache ratio: 16.0'
p194
sS'strategy'
p195
g11
(tRp196
S'p'
F0.25
sg184
S'LIRA_BC'
p197
ssS'content_placement'
p198
g11
(tRp199
g184
S'UNIFORM'
p200
ssS'joint_cache_rsn_placement'
p201
g11
(tRp202
S'network_cache'
p203
F0.94999999999999996
sS'network_rsn'
p204
F15.199999999999999
sg184
S'CACHE_ALL_RSN_ALL'
p205
sS'rsn_cache_ratio'
p206
F16
ssS'warmup_strategy'
p207
g11
(tRp208
S'p'
F0.25
sg184
g197
ssS'topology'
p209
g11
(tRp210
S'ext_delay'
p211
I0
sS'source_ratio'
p212
F0.10000000000000001
sg184
S'ROCKET_FUEL'
p213
sS'asn'
p214
I3257
ssg11
(tRp215
S'SAT_RATE'
p216
g11
(tRp217
S'MEAN_CACHE_HIT'
p218
F0.50515555555555558
sS'MEAN_SERVER_HIT'
p219
F0.49484444444444442
sS'MEAN_SERVER_CACHE_HITS'
p220
F0
sS'MEAN'
p221
F1
ssS'CACHE_HIT_RATIO'
p222
g11
(tRp223
S'MEAN_OFF_PATH'
p224
F0.29495555555555558
sS'MEAN_ON_PATH'
p225
F0.2102
sg221
F0.50515555555555558
ssS'OVERHEAD'
p226
g11
(tRp227
S'SUCCESS_RATE'
p228
F0.29501111111111111
sS'QUOTA_USED_FAILURE'
p229
F0
sS'FAILURE_RATE'
p230
F0.70498888888888889
sS'QUOTA_USED_SUCCESS'
p231
F0
sg221
F1
sS'NUM_SUCCESS_FIRST_TIME'
p232
F0.29501111111111111
ssS'LATENCY'
p233
g11
(tRp234
g221
F69.55611837294289
sstp235
a(g11
(tRp236
S'workload'
p237
g11
(tRp238
S'n_contents'
p239
I10000
sS'name'
p240
S'STATIONARY'
p241
sS'n_warmup'
p242
I720000
sS'rate'
p243
I100
sS'n_measured'
p244
I360000
sS'alpha'
p245
F0.69999999999999996
ssS'cache_policy'
p246
g11
(tRp247
g240
S'LRU'
p248
ssS'desc'
p249
S'RSN size sensitivity -> RSN/cache ratio: 32.0'
p250
sS'strategy'
p251
g11
(tRp252
S'p'
F0.25
sg240
S'LIRA_BC'
p253
ssS'content_placement'
p254
g11
(tRp255
g240
S'UNIFORM'
p256
ssS'joint_cache_rsn_placement'
p257
g11
(tRp258
S'network_cache'
p259
F0.94999999999999996
sS'network_rsn'
p260
F30.399999999999999
sg240
S'CACHE_ALL_RSN_ALL'
p261
sS'rsn_cache_ratio'
p262
F32
ssS'warmup_strategy'
p263
g11
(tRp264
S'p'
F0.25
sg240
g253
ssS'topology'
p265
g11
(tRp266
S'ext_delay'
p267
I0
sS'source_ratio'
p268
F0.10000000000000001
sg240
S'ROCKET_FUEL'
p269
sS'asn'
p270
I3257
ssg11
(tRp271
S'SAT_RATE'
p272
g11
(tRp273
S'MEAN_CACHE_HIT'
p274
F0.60649444444444445
sS'MEAN_SERVER_HIT'
p275
F0.39350555555555555
sS'MEAN_SERVER_CACHE_HITS'
p276
F0
sS'MEAN'
p277
F1
ssS'CACHE_HIT_RATIO'
p278
g11
(tRp279
S'MEAN_OFF_PATH'
p280
F0.39904722222222222
sS'MEAN_ON_PATH'
p281
F0.20744722222222223
sg277
F0.60649444444444445
ssS'OVERHEAD'
p282
g11
(tRp283
S'SUCCESS_RATE'
p284
F0.39933888888888891
sS'QUOTA_USED_FAILURE'
p285
F0
sS'FAILURE_RATE'
p286
F0.60066111111111109
sS'QUOTA_USED_SUCCESS'
p287
F0
sg277
F1
sS'NUM_SUCCESS_FIRST_TIME'
p288
F0.39933888888888891
ssS'LATENCY'
p289
g11
(tRp290
g277
F65.019089435786071
sstp291
a(g11
(tRp292
S'workload'
p293
g11
(tRp294
S'n_contents'
p295
I10000
sS'name'
p296
S'STATIONARY'
p297
sS'n_warmup'
p298
I720000
sS'rate'
p299
I100
sS'n_measured'
p300
I360000
sS'alpha'
p301
F0.69999999999999996
ssS'cache_policy'
p302
g11
(tRp303
g296
S'LRU'
p304
ssS'desc'
p305
S'RSN size sensitivity -> RSN/cache ratio: 256.0'
p306
sS'strategy'
p307
g11
(tRp308
S'p'
F0.25
sg296
S'LIRA_BC'
p309
ssS'content_placement'
p310
g11
(tRp311
g296
S'UNIFORM'
p312
ssS'joint_cache_rsn_placement'
p313
g11
(tRp314
S'network_cache'
p315
F0.94999999999999996
sS'network_rsn'
p316
F243.19999999999999
sg296
S'CACHE_ALL_RSN_ALL'
p317
sS'rsn_cache_ratio'
p318
F256
ssS'warmup_strategy'
p319
g11
(tRp320
S'p'
F0.25
sg296
g309
ssS'topology'
p321
g11
(tRp322
S'ext_delay'
p323
I0
sS'source_ratio'
p324
F0.10000000000000001
sg296
S'ROCKET_FUEL'
p325
sS'asn'
p326
I3257
ssg11
(tRp327
S'SAT_RATE'
p328
g11
(tRp329
S'MEAN_CACHE_HIT'
p330
F0.60176944444444447
sS'MEAN_SERVER_HIT'
p331
F0.39823055555555553
sS'MEAN_SERVER_CACHE_HITS'
p332
F0
sS'MEAN'
p333
F1
ssS'CACHE_HIT_RATIO'
p334
g11
(tRp335
S'MEAN_OFF_PATH'
p336
F0.38393055555555555
sS'MEAN_ON_PATH'
p337
F0.21783888888888892
sg333
F0.60176944444444447
ssS'OVERHEAD'
p338
g11
(tRp339
S'SUCCESS_RATE'
p340
F0.38471944444444445
sS'QUOTA_USED_FAILURE'
p341
F0
sS'FAILURE_RATE'
p342
F0.61528055555555561
sS'QUOTA_USED_SUCCESS'
p343
F0
sg333
F1
sS'NUM_SUCCESS_FIRST_TIME'
p344
F0.38471944444444445
ssS'LATENCY'
p345
g11
(tRp346
g333
F68.434346198123862
sstp347
a(g11
(tRp348
S'workload'
p349
g11
(tRp350
S'n_contents'
p351
I10000
sS'name'
p352
S'STATIONARY'
p353
sS'n_warmup'
p354
I720000
sS'rate'
p355
I100
sS'n_measured'
p356
I360000
sS'alpha'
p357
F0.69999999999999996
ssS'cache_policy'
p358
g11
(tRp359
g352
S'LRU'
p360
ssS'desc'
p361
S'RSN size sensitivity -> RSN/cache ratio: 64.0'
p362
sS'strategy'
p363
g11
(tRp364
S'p'
F0.25
sg352
S'LIRA_BC'
p365
ssS'content_placement'
p366
g11
(tRp367
g352
S'UNIFORM'
p368
ssS'joint_cache_rsn_placement'
p369
g11
(tRp370
S'network_cache'
p371
F0.94999999999999996
sS'network_rsn'
p372
F60.799999999999997
sg352
S'CACHE_ALL_RSN_ALL'
p373
sS'rsn_cache_ratio'
p374
F64
ssS'warmup_strategy'
p375
g11
(tRp376
S'p'
F0.25
sg352
g365
ssS'topology'
p377
g11
(tRp378
S'ext_delay'
p379
I0
sS'source_ratio'
p380
F0.10000000000000001
sg352
S'ROCKET_FUEL'
p381
sS'asn'
p382
I3257
ssg11
(tRp383
S'SAT_RATE'
p384
g11
(tRp385
S'MEAN_CACHE_HIT'
p386
F0.62126111111111115
sS'MEAN_SERVER_HIT'
p387
F0.3787388888888889
sS'MEAN_SERVER_CACHE_HITS'
p388
F0
sS'MEAN'
p389
F1
ssS'CACHE_HIT_RATIO'
p390
g11
(tRp391
S'MEAN_OFF_PATH'
p392
F0.40330277777777779
sS'MEAN_ON_PATH'
p393
F0.21795833333333337
sg389
F0.62126111111111115
ssS'OVERHEAD'
p394
g11
(tRp395
S'SUCCESS_RATE'
p396
F0.40397499999999997
sS'QUOTA_USED_FAILURE'
p397
F0
sS'FAILURE_RATE'
p398
F0.59602500000000003
sS'QUOTA_USED_SUCCESS'
p399
F0
sg389
F1
sS'NUM_SUCCESS_FIRST_TIME'
p400
F0.40397499999999997
ssS'LATENCY'
p401
g11
(tRp402
g389
F66.337972765785025
sstp403
a(g11
(tRp404
S'workload'
p405
g11
(tRp406
S'n_contents'
p407
I10000
sS'name'
p408
S'STATIONARY'
p409
sS'n_warmup'
p410
I720000
sS'rate'
p411
I100
sS'n_measured'
p412
I360000
sS'alpha'
p413
F0.69999999999999996
ssS'cache_policy'
p414
g11
(tRp415
g408
S'LRU'
p416
ssS'desc'
p417
S'RSN size sensitivity -> RSN/cache ratio: 128.0'
p418
sS'strategy'
p419
g11
(tRp420
S'p'
F0.25
sg408
S'LIRA_BC'
p421
ssS'content_placement'
p422
g11
(tRp423
g408
S'UNIFORM'
p424
ssS'joint_cache_rsn_placement'
p425
g11
(tRp426
S'network_cache'
p427
F0.94999999999999996
sS'network_rsn'
p428
F121.59999999999999
sg408
S'CACHE_ALL_RSN_ALL'
p429
sS'rsn_cache_ratio'
p430
F128
ssS'warmup_strategy'
p431
g11
(tRp432
S'p'
F0.25
sg408
g421
ssS'topology'
p433
g11
(tRp434
S'ext_delay'
p435
I0
sS'source_ratio'
p436
F0.10000000000000001
sg408
S'ROCKET_FUEL'
p437
sS'asn'
p438
I3257
ssg11
(tRp439
S'SAT_RATE'
p440
g11
(tRp441
S'MEAN_CACHE_HIT'
p442
F0.59680277777777779
sS'MEAN_SERVER_HIT'
p443
F0.40319722222222221
sS'MEAN_SERVER_CACHE_HITS'
p444
F0
sS'MEAN'
p445
F1
ssS'CACHE_HIT_RATIO'
p446
g11
(tRp447
S'MEAN_OFF_PATH'
p448
F0.38141388888888889
sS'MEAN_ON_PATH'
p449
F0.21538888888888891
sg445
F0.59680277777777779
ssS'OVERHEAD'
p450
g11
(tRp451
S'SUCCESS_RATE'
p452
F0.38213055555555553
sS'QUOTA_USED_FAILURE'
p453
F0
sS'FAILURE_RATE'
p454
F0.61786944444444447
sS'QUOTA_USED_SUCCESS'
p455
F0
sg445
F1
sS'NUM_SUCCESS_FIRST_TIME'
p456
F0.38213055555555553
ssS'LATENCY'
p457
g11
(tRp458
g445
F68.274521855052242
sstp459
a(g11
(tRp460
S'workload'
p461
g11
(tRp462
S'n_contents'
p463
I10000
sS'name'
p464
S'STATIONARY'
p465
sS'n_warmup'
p466
I720000
sS'rate'
p467
I100
sS'n_measured'
p468
I360000
sS'alpha'
p469
F0.69999999999999996
ssS'cache_policy'
p470
g11
(tRp471
g464
S'LRU'
p472
ssS'desc'
p473
S'RSN size sensitivity -> RSN/cache ratio: 2.0'
p474
sS'strategy'
p475
g11
(tRp476
S'extra_quota'
p477
I1000
sS'p'
F0.25
sg464
S'LIRA_DFIB_SC'
p478
sS'fan_out'
p479
I2
ssS'content_placement'
p480
g11
(tRp481
g464
S'UNIFORM'
p482
ssS'joint_cache_rsn_placement'
p483
g11
(tRp484
S'network_cache'
p485
F0.94999999999999996
sS'network_rsn'
p486
F1.8999999999999999
sg464
S'CACHE_ALL_RSN_ALL'
p487
sS'rsn_cache_ratio'
p488
F2
ssS'warmup_strategy'
p489
g11
(tRp490
g477
I10000
sS'p'
F0.25
sg464
g478
sg479
I100
ssS'topology'
p491
g11
(tRp492
S'ext_delay'
p493
I0
sS'source_ratio'
p494
F0.10000000000000001
sg464
S'ROCKET_FUEL'
p495
sS'asn'
p496
I3257
ssg11
(tRp497
S'SAT_RATE'
p498
g11
(tRp499
S'MEAN_CACHE_HIT'
p500
F0.41595833333333332
sS'MEAN_SERVER_HIT'
p501
F0.59238888888888885
sS'MEAN_SERVER_CACHE_HITS'
p502
F0.0083472222222222229
sS'MEAN'
p503
F1
ssS'CACHE_HIT_RATIO'
p504
g11
(tRp505
S'MEAN_OFF_PATH'
p506
F0.029897659811848321
sS'MEAN_ON_PATH'
p507
F0.38606067352148499
sg503
F0.41595833333333332
ssS'OVERHEAD'
p508
g11
(tRp509
S'SUCCESS_RATE'
p510
F0.56794425087108014
sS'QUOTA_USED_FAILURE'
p511
F1
sS'FAILURE_RATE'
p512
F0.43205574912891986
sS'QUOTA_USED_SUCCESS'
p513
F1
sg503
F1.0326
sS'NUM_SUCCESS_FIRST_TIME'
p514
F0.5663427259852517
ssS'LATENCY'
p515
g11
(tRp516
g503
F35.869266666666668
sstp517
a(g11
(tRp518
S'workload'
p519
g11
(tRp520
S'n_contents'
p521
I10000
sS'name'
p522
S'STATIONARY'
p523
sS'n_warmup'
p524
I720000
sS'rate'
p525
I100
sS'n_measured'
p526
I360000
sS'alpha'
p527
F0.69999999999999996
ssS'cache_policy'
p528
g11
(tRp529
g522
S'LRU'
p530
ssS'desc'
p531
S'RSN size sensitivity -> RSN/cache ratio: 4.0'
p532
sS'strategy'
p533
g11
(tRp534
S'extra_quota'
p535
I1000
sS'p'
F0.25
sg522
S'LIRA_DFIB_SC'
p536
sS'fan_out'
p537
I2
ssS'content_placement'
p538
g11
(tRp539
g522
S'UNIFORM'
p540
ssS'joint_cache_rsn_placement'
p541
g11
(tRp542
S'network_cache'
p543
F0.94999999999999996
sS'network_rsn'
p544
F3.7999999999999998
sg522
S'CACHE_ALL_RSN_ALL'
p545
sS'rsn_cache_ratio'
p546
F4
ssS'warmup_strategy'
p547
g11
(tRp548
g535
I10000
sS'p'
F0.25
sg522
g536
sg537
I100
ssS'topology'
p549
g11
(tRp550
S'ext_delay'
p551
I0
sS'source_ratio'
p552
F0.10000000000000001
sg522
S'ROCKET_FUEL'
p553
sS'asn'
p554
I3257
ssg11
(tRp555
S'SAT_RATE'
p556
g11
(tRp557
S'MEAN_CACHE_HIT'
p558
F0.425875
sS'MEAN_SERVER_HIT'
p559
F0.59110277777777775
sS'MEAN_SERVER_CACHE_HITS'
p560
F0.016977777777777779
sS'MEAN'
p561
F1
ssS'CACHE_HIT_RATIO'
p562
g11
(tRp563
S'MEAN_OFF_PATH'
p564
F0.027835744253124729
sS'MEAN_ON_PATH'
p565
F0.39803925574687526
sg561
F0.425875
ssS'OVERHEAD'
p566
g11
(tRp567
S'SUCCESS_RATE'
p568
F0.39006184687566647
sS'QUOTA_USED_FAILURE'
p569
F1
sS'FAILURE_RATE'
p570
F0.60993815312433353
sS'QUOTA_USED_SUCCESS'
p571
F1
sg561
F1.0304833333333334
sS'NUM_SUCCESS_FIRST_TIME'
p572
F0.38908685167188567
ssS'LATENCY'
p573
g11
(tRp574
g561
F35.433894444444448
sstp575
a(g11
(tRp576
S'workload'
p577
g11
(tRp578
S'n_contents'
p579
I10000
sS'name'
p580
S'STATIONARY'
p581
sS'n_warmup'
p582
I720000
sS'rate'
p583
I100
sS'n_measured'
p584
I360000
sS'alpha'
p585
F0.69999999999999996
ssS'cache_policy'
p586
g11
(tRp587
g580
S'LRU'
p588
ssS'desc'
p589
S'RSN size sensitivity -> RSN/cache ratio: 8.0'
p590
sS'strategy'
p591
g11
(tRp592
S'extra_quota'
p593
I1000
sS'p'
F0.25
sg580
S'LIRA_DFIB_SC'
p594
sS'fan_out'
p595
I2
ssS'content_placement'
p596
g11
(tRp597
g580
S'UNIFORM'
p598
ssS'joint_cache_rsn_placement'
p599
g11
(tRp600
S'network_cache'
p601
F0.94999999999999996
sS'network_rsn'
p602
F7.5999999999999996
sg580
S'CACHE_ALL_RSN_ALL'
p603
sS'rsn_cache_ratio'
p604
F8
ssS'warmup_strategy'
p605
g11
(tRp606
g593
I10000
sS'p'
F0.25
sg580
g594
sg595
I100
ssS'topology'
p607
g11
(tRp608
S'ext_delay'
p609
I0
sS'source_ratio'
p610
F0.10000000000000001
sg580
S'ROCKET_FUEL'
p611
sS'asn'
p612
I3257
ssg11
(tRp613
S'SAT_RATE'
p614
g11
(tRp615
S'MEAN_CACHE_HIT'
p616
F0.44315555555555558
sS'MEAN_SERVER_HIT'
p617
F0.59151666666666669
sS'MEAN_SERVER_CACHE_HITS'
p618
F0.034672222222222222
sS'MEAN'
p619
F1
ssS'CACHE_HIT_RATIO'
p620
g11
(tRp621
S'MEAN_OFF_PATH'
p622
F0.080385092433996816
sS'MEAN_ON_PATH'
p623
F0.36277046312155875
sg619
F0.44315555555555558
ssS'OVERHEAD'
p624
g11
(tRp625
S'SUCCESS_RATE'
p626
F0.46378313675113864
sS'QUOTA_USED_FAILURE'
p627
F1
sS'FAILURE_RATE'
p628
F0.53621686324886142
sS'QUOTA_USED_SUCCESS'
p629
F1
sg619
F1.0882527777777777
sS'NUM_SUCCESS_FIRST_TIME'
p630
F0.46179750056125124
ssS'LATENCY'
p631
g11
(tRp632
g619
F35.488691666666668
sstp633
a(g11
(tRp634
S'workload'
p635
g11
(tRp636
S'n_contents'
p637
I10000
sS'name'
p638
S'STATIONARY'
p639
sS'n_warmup'
p640
I720000
sS'rate'
p641
I100
sS'n_measured'
p642
I360000
sS'alpha'
p643
F0.69999999999999996
ssS'cache_policy'
p644
g11
(tRp645
g638
S'LRU'
p646
ssS'desc'
p647
S'RSN size sensitivity -> RSN/cache ratio: 16.0'
p648
sS'strategy'
p649
g11
(tRp650
S'extra_quota'
p651
I1000
sS'p'
F0.25
sg638
S'LIRA_DFIB_SC'
p652
sS'fan_out'
p653
I2
ssS'content_placement'
p654
g11
(tRp655
g638
S'UNIFORM'
p656
ssS'joint_cache_rsn_placement'
p657
g11
(tRp658
S'network_cache'
p659
F0.94999999999999996
sS'network_rsn'
p660
F15.199999999999999
sg638
S'CACHE_ALL_RSN_ALL'
p661
sS'rsn_cache_ratio'
p662
F16
ssS'warmup_strategy'
p663
g11
(tRp664
g651
I10000
sS'p'
F0.25
sg638
g652
sg653
I100
ssS'topology'
p665
g11
(tRp666
S'ext_delay'
p667
I0
sS'source_ratio'
p668
F0.10000000000000001
sg638
S'ROCKET_FUEL'
p669
sS'asn'
p670
I3257
ssg11
(tRp671
S'SAT_RATE'
p672
g11
(tRp673
S'MEAN_CACHE_HIT'
p674
F0.48239444444444446
sS'MEAN_SERVER_HIT'
p675
F0.59597222222222224
sS'MEAN_SERVER_CACHE_HITS'
p676
F0.078366666666666668
sS'MEAN'
p677
F1
ssS'CACHE_HIT_RATIO'
p678
g11
(tRp679
S'MEAN_OFF_PATH'
p680
F0.18071826733846455
sS'MEAN_ON_PATH'
p681
F0.30167617710597994
sg677
F0.48239444444444446
ssS'OVERHEAD'
p682
g11
(tRp683
S'SUCCESS_RATE'
p684
F0.52051622357706717
sS'QUOTA_USED_FAILURE'
p685
F1
sS'FAILURE_RATE'
p686
F0.47948377642293283
sS'QUOTA_USED_SUCCESS'
p687
F1
sg677
F1.2091694444444445
sS'NUM_SUCCESS_FIRST_TIME'
p688
F0.51733466788517046
ssS'LATENCY'
p689
g11
(tRp690
g677
F34.989905555555552
sstp691
a(g11
(tRp692
S'workload'
p693
g11
(tRp694
S'n_contents'
p695
I10000
sS'name'
p696
S'STATIONARY'
p697
sS'n_warmup'
p698
I720000
sS'rate'
p699
I100
sS'n_measured'
p700
I360000
sS'alpha'
p701
F0.69999999999999996
ssS'cache_policy'
p702
g11
(tRp703
g696
S'LRU'
p704
ssS'desc'
p705
S'RSN size sensitivity -> RSN/cache ratio: 32.0'
p706
sS'strategy'
p707
g11
(tRp708
S'extra_quota'
p709
I1000
sS'p'
F0.25
sg696
S'LIRA_DFIB_SC'
p710
sS'fan_out'
p711
I2
ssS'content_placement'
p712
g11
(tRp713
g696
S'UNIFORM'
p714
ssS'joint_cache_rsn_placement'
p715
g11
(tRp716
S'network_cache'
p717
F0.94999999999999996
sS'network_rsn'
p718
F30.399999999999999
sg696
S'CACHE_ALL_RSN_ALL'
p719
sS'rsn_cache_ratio'
p720
F32
ssS'warmup_strategy'
p721
g11
(tRp722
g709
I10000
sS'p'
F0.25
sg696
g710
sg711
I100
ssS'topology'
p723
g11
(tRp724
S'ext_delay'
p725
I0
sS'source_ratio'
p726
F0.10000000000000001
sg696
S'ROCKET_FUEL'
p727
sS'asn'
p728
I3257
ssg11
(tRp729
S'SAT_RATE'
p730
g11
(tRp731
S'MEAN_CACHE_HIT'
p732
F0.58420277777777774
sS'MEAN_SERVER_HIT'
p733
F0.59724722222222226
sS'MEAN_SERVER_CACHE_HITS'
p734
F0.18145
sS'MEAN'
p735
F1
ssS'CACHE_HIT_RATIO'
p736
g11
(tRp737
S'MEAN_OFF_PATH'
p738
F0.32422258900315526
sS'MEAN_ON_PATH'
p739
F0.25998018877462248
sg735
F0.58420277777777774
ssS'OVERHEAD'
p740
g11
(tRp741
S'SUCCESS_RATE'
p742
F0.61463744817666466
sS'QUOTA_USED_FAILURE'
p743
F1
sS'FAILURE_RATE'
p744
F0.38536255182333529
sS'QUOTA_USED_SUCCESS'
p745
F1
sg735
F1.4035777777777778
sS'NUM_SUCCESS_FIRST_TIME'
p746
F0.61558489198656152
ssS'LATENCY'
p747
g11
(tRp748
g735
F33.414594444444447
sstp749
a(g11
(tRp750
S'workload'
p751
g11
(tRp752
S'n_contents'
p753
I10000
sS'name'
p754
S'STATIONARY'
p755
sS'n_warmup'
p756
I720000
sS'rate'
p757
I100
sS'n_measured'
p758
I360000
sS'alpha'
p759
F0.69999999999999996
ssS'cache_policy'
p760
g11
(tRp761
g754
S'LRU'
p762
ssS'desc'
p763
S'caching probability: 0.25'
p764
sS'strategy'
p765
g11
(tRp766
S'p'
F0.25
sg754
S'LIRA_BC'
p767
ssS'content_placement'
p768
g11
(tRp769
g754
S'UNIFORM'
p770
ssS'joint_cache_rsn_placement'
p771
g11
(tRp772
S'network_cache'
p773
F0.94999999999999996
sS'network_rsn'
p774
F121.59999999999999
sg754
S'CACHE_ALL_RSN_ALL'
p775
sS'rsn_cache_ratio'
p776
I128
ssS'warmup_strategy'
p777
g11
(tRp778
S'p'
F0.25
sg754
g767
ssS'topology'
p779
g11
(tRp780
S'ext_delay'
p781
I0
sS'source_ratio'
p782
F0.10000000000000001
sg754
S'ROCKET_FUEL'
p783
sS'asn'
p784
I3257
ssg11
(tRp785
S'SAT_RATE'
p786
g11
(tRp787
S'MEAN_CACHE_HIT'
p788
F0.60086111111111107
sS'MEAN_SERVER_HIT'
p789
F0.39913888888888888
sS'MEAN_SERVER_CACHE_HITS'
p790
F0
sS'MEAN'
p791
F1
ssS'CACHE_HIT_RATIO'
p792
g11
(tRp793
S'MEAN_OFF_PATH'
p794
F0.38538055555555556
sS'MEAN_ON_PATH'
p795
F0.21548055555555551
sg791
F0.60086111111111107
ssS'OVERHEAD'
p796
g11
(tRp797
S'SUCCESS_RATE'
p798
F0.38608611111111113
sS'QUOTA_USED_FAILURE'
p799
F0
sS'FAILURE_RATE'
p800
F0.61391388888888887
sS'QUOTA_USED_SUCCESS'
p801
F0
sg791
F1
sS'NUM_SUCCESS_FIRST_TIME'
p802
F0.38608611111111113
ssS'LATENCY'
p803
g11
(tRp804
g791
F68.181840169605678
sstp805
a(g11
(tRp806
S'workload'
p807
g11
(tRp808
S'n_contents'
p809
I10000
sS'name'
p810
S'STATIONARY'
p811
sS'n_warmup'
p812
I720000
sS'rate'
p813
I100
sS'n_measured'
p814
I360000
sS'alpha'
p815
F0.69999999999999996
ssS'cache_policy'
p816
g11
(tRp817
g810
S'LRU'
p818
ssS'desc'
p819
S'caching probability: 0.5'
p820
sS'strategy'
p821
g11
(tRp822
S'p'
F0.25
sg810
S'LIRA_BC'
p823
ssS'content_placement'
p824
g11
(tRp825
g810
S'UNIFORM'
p826
ssS'joint_cache_rsn_placement'
p827
g11
(tRp828
S'network_cache'
p829
F0.94999999999999996
sS'network_rsn'
p830
F121.59999999999999
sg810
S'CACHE_ALL_RSN_ALL'
p831
sS'rsn_cache_ratio'
p832
I128
ssS'warmup_strategy'
p833
g11
(tRp834
S'p'
F0.25
sg810
g823
ssS'topology'
p835
g11
(tRp836
S'ext_delay'
p837
I0
sS'source_ratio'
p838
F0.10000000000000001
sg810
S'ROCKET_FUEL'
p839
sS'asn'
p840
I3257
ssg11
(tRp841
S'SAT_RATE'
p842
g11
(tRp843
S'MEAN_CACHE_HIT'
p844
F0.59758888888888884
sS'MEAN_SERVER_HIT'
p845
F0.40241111111111111
sS'MEAN_SERVER_CACHE_HITS'
p846
F0
sS'MEAN'
p847
F1
ssS'CACHE_HIT_RATIO'
p848
g11
(tRp849
S'MEAN_OFF_PATH'
p850
F0.38148611111111114
sS'MEAN_ON_PATH'
p851
F0.2161027777777777
sg847
F0.59758888888888884
ssS'OVERHEAD'
p852
g11
(tRp853
S'SUCCESS_RATE'
p854
F0.38221944444444444
sS'QUOTA_USED_FAILURE'
p855
F0
sS'FAILURE_RATE'
p856
F0.61778055555555556
sS'QUOTA_USED_SUCCESS'
p857
F0
sg847
F1
sS'NUM_SUCCESS_FIRST_TIME'
p858
F0.38221944444444444
ssS'LATENCY'
p859
g11
(tRp860
g847
F68.25608099014741
sstp861
a(g11
(tRp862
S'workload'
p863
g11
(tRp864
S'n_contents'
p865
I10000
sS'name'
p866
S'STATIONARY'
p867
sS'n_warmup'
p868
I720000
sS'rate'
p869
I100
sS'n_measured'
p870
I360000
sS'alpha'
p871
F0.69999999999999996
ssS'cache_policy'
p872
g11
(tRp873
g866
S'LRU'
p874
ssS'desc'
p875
S'caching probability: 0.75'
p876
sS'strategy'
p877
g11
(tRp878
S'p'
F0.25
sg866
S'LIRA_BC'
p879
ssS'content_placement'
p880
g11
(tRp881
g866
S'UNIFORM'
p882
ssS'joint_cache_rsn_placement'
p883
g11
(tRp884
S'network_cache'
p885
F0.94999999999999996
sS'network_rsn'
p886
F121.59999999999999
sg866
S'CACHE_ALL_RSN_ALL'
p887
sS'rsn_cache_ratio'
p888
I128
ssS'warmup_strategy'
p889
g11
(tRp890
S'p'
F0.25
sg866
g879
ssS'topology'
p891
g11
(tRp892
S'ext_delay'
p893
I0
sS'source_ratio'
p894
F0.10000000000000001
sg866
S'ROCKET_FUEL'
p895
sS'asn'
p896
I3257
ssg11
(tRp897
S'SAT_RATE'
p898
g11
(tRp899
S'MEAN_CACHE_HIT'
p900
F0.59995277777777778
sS'MEAN_SERVER_HIT'
p901
F0.40004722222222222
sS'MEAN_SERVER_CACHE_HITS'
p902
F0
sS'MEAN'
p903
F1
ssS'CACHE_HIT_RATIO'
p904
g11
(tRp905
S'MEAN_OFF_PATH'
p906
F0.38338888888888889
sS'MEAN_ON_PATH'
p907
F0.21656388888888889
sg903
F0.59995277777777778
ssS'OVERHEAD'
p908
g11
(tRp909
S'SUCCESS_RATE'
p910
F0.38421944444444445
sS'QUOTA_USED_FAILURE'
p911
F0
sS'FAILURE_RATE'
p912
F0.61578055555555555
sS'QUOTA_USED_SUCCESS'
p913
F0
sg903
F1
sS'NUM_SUCCESS_FIRST_TIME'
p914
F0.38421944444444445
ssS'LATENCY'
p915
g11
(tRp916
g903
F68.114013582628516
sstp917
a(g11
(tRp918
S'workload'
p919
g11
(tRp920
S'n_contents'
p921
I10000
sS'name'
p922
S'STATIONARY'
p923
sS'n_warmup'
p924
I720000
sS'rate'
p925
I100
sS'n_measured'
p926
I360000
sS'alpha'
p927
F0.69999999999999996
ssS'cache_policy'
p928
g11
(tRp929
g922
S'LRU'
p930
ssS'desc'
p931
S'caching probability: 1.0'
p932
sS'strategy'
p933
g11
(tRp934
S'p'
F0.25
sg922
S'LIRA_BC'
p935
ssS'content_placement'
p936
g11
(tRp937
g922
S'UNIFORM'
p938
ssS'joint_cache_rsn_placement'
p939
g11
(tRp940
S'network_cache'
p941
F0.94999999999999996
sS'network_rsn'
p942
F121.59999999999999
sg922
S'CACHE_ALL_RSN_ALL'
p943
sS'rsn_cache_ratio'
p944
I128
ssS'warmup_strategy'
p945
g11
(tRp946
S'p'
F0.25
sg922
g935
ssS'topology'
p947
g11
(tRp948
S'ext_delay'
p949
I0
sS'source_ratio'
p950
F0.10000000000000001
sg922
S'ROCKET_FUEL'
p951
sS'asn'
p952
I3257
ssg11
(tRp953
S'SAT_RATE'
p954
g11
(tRp955
S'MEAN_CACHE_HIT'
p956
F0.59910555555555556
sS'MEAN_SERVER_HIT'
p957
F0.40089444444444444
sS'MEAN_SERVER_CACHE_HITS'
p958
F0
sS'MEAN'
p959
F1
ssS'CACHE_HIT_RATIO'
p960
g11
(tRp961
S'MEAN_OFF_PATH'
p962
F0.38001944444444447
sS'MEAN_ON_PATH'
p963
F0.21908611111111109
sg959
F0.59910555555555556
ssS'OVERHEAD'
p964
g11
(tRp965
S'SUCCESS_RATE'
p966
F0.38074999999999998
sS'QUOTA_USED_FAILURE'
p967
F0
sS'FAILURE_RATE'
p968
F0.61924999999999997
sS'QUOTA_USED_SUCCESS'
p969
F0
sg959
F1
sS'NUM_SUCCESS_FIRST_TIME'
p970
F0.38074999999999998
ssS'LATENCY'
p971
g11
(tRp972
g959
F68.328996087776787
sstp973
a(g11
(tRp974
S'workload'
p975
g11
(tRp976
S'n_contents'
p977
I10000
sS'name'
p978
S'STATIONARY'
p979
sS'n_warmup'
p980
I720000
sS'rate'
p981
I100
sS'n_measured'
p982
I360000
sS'alpha'
p983
F0.69999999999999996
ssS'cache_policy'
p984
g11
(tRp985
g978
S'LRU'
p986
ssS'desc'
p987
S'RSN size sensitivity -> RSN/cache ratio: 64.0'
p988
sS'strategy'
p989
g11
(tRp990
S'extra_quota'
p991
I1000
sS'p'
F0.25
sg978
S'LIRA_DFIB_SC'
p992
sS'fan_out'
p993
I2
ssS'content_placement'
p994
g11
(tRp995
g978
S'UNIFORM'
p996
ssS'joint_cache_rsn_placement'
p997
g11
(tRp998
S'network_cache'
p999
F0.94999999999999996
sS'network_rsn'
p1000
F60.799999999999997
sg978
S'CACHE_ALL_RSN_ALL'
p1001
sS'rsn_cache_ratio'
p1002
F64
ssS'warmup_strategy'
p1003
g11
(tRp1004
g991
I10000
sS'p'
F0.25
sg978
g992
sg993
I100
ssS'topology'
p1005
g11
(tRp1006
S'ext_delay'
p1007
I0
sS'source_ratio'
p1008
F0.10000000000000001
sg978
S'ROCKET_FUEL'
p1009
sS'asn'
p1010
I3257
ssg11
(tRp1011
S'SAT_RATE'
p1012
g11
(tRp1013
S'MEAN_CACHE_HIT'
p1014
F0.69294999999999995
sS'MEAN_SERVER_HIT'
p1015
F0.59720555555555555
sS'MEAN_SERVER_CACHE_HITS'
p1016
F0.29015555555555556
sS'MEAN'
p1017
F1
ssS'CACHE_HIT_RATIO'
p1018
g11
(tRp1019
S'MEAN_OFF_PATH'
p1020
F0.41345574177101813
sS'MEAN_ON_PATH'
p1021
F0.27949425822898183
sg1017
F0.69294999999999995
ssS'OVERHEAD'
p1022
g11
(tRp1023
S'SUCCESS_RATE'
p1024
F0.67658794065640793
sS'QUOTA_USED_FAILURE'
p1025
F1
sS'FAILURE_RATE'
p1026
F0.32341205934359202
sS'QUOTA_USED_SUCCESS'
p1027
F1
sg1017
F1.5718333333333334
sS'NUM_SUCCESS_FIRST_TIME'
p1028
F0.67335848582467484
ssS'LATENCY'
p1029
g11
(tRp1030
g1017
F31.756691666666665
sstp1031
a(g11
(tRp1032
S'workload'
p1033
g11
(tRp1034
S'n_contents'
p1035
I10000
sS'name'
p1036
S'STATIONARY'
p1037
sS'n_warmup'
p1038
I720000
sS'rate'
p1039
I100
sS'n_measured'
p1040
I360000
sS'alpha'
p1041
F0.69999999999999996
ssS'cache_policy'
p1042
g11
(tRp1043
g1036
S'LRU'
p1044
ssS'desc'
p1045
S'caching probability: 0.25'
p1046
sS'strategy'
p1047
g11
(tRp1048
S'extra_quota'
p1049
I2
sS'fan_out'
p1050
I2
sg1036
S'LIRA_DFIB_SC'
p1051
sS'p'
F0.25
ssS'content_placement'
p1052
g11
(tRp1053
g1036
S'UNIFORM'
p1054
ssS'joint_cache_rsn_placement'
p1055
g11
(tRp1056
S'network_cache'
p1057
F0.94999999999999996
sS'network_rsn'
p1058
F121.59999999999999
sg1036
S'CACHE_ALL_RSN_ALL'
p1059
sS'rsn_cache_ratio'
p1060
I128
ssS'warmup_strategy'
p1061
g11
(tRp1062
g1049
I10000
sS'p'
F0.25
sg1036
g1051
sg1050
I10
ssS'topology'
p1063
g11
(tRp1064
S'ext_delay'
p1065
I0
sS'source_ratio'
p1066
F0.10000000000000001
sg1036
S'ROCKET_FUEL'
p1067
sS'asn'
p1068
I3257
ssg11
(tRp1069
S'SAT_RATE'
p1070
g11
(tRp1071
S'MEAN_CACHE_HIT'
p1072
F0.71271388888888887
sS'MEAN_SERVER_HIT'
p1073
F0.59351944444444449
sS'MEAN_SERVER_CACHE_HITS'
p1074
F0.30632777777777775
sS'MEAN'
p1075
F0.9999055555555556
ssS'CACHE_HIT_RATIO'
p1076
g11
(tRp1077
S'MEAN_OFF_PATH'
p1078
F0.42528559641377667
sS'MEAN_ON_PATH'
p1079
F0.2874282924751122
sg1075
F0.71271388888888887
ssS'OVERHEAD'
p1080
g11
(tRp1081
S'SUCCESS_RATE'
p1082
F0.67841811728916679
sS'QUOTA_USED_FAILURE'
p1083
F1
sS'FAILURE_RATE'
p1084
F0.32158188271083321
sS'QUOTA_USED_SUCCESS'
p1085
F1
sg1075
F1.6115049754699056
sS'NUM_SUCCESS_FIRST_TIME'
p1086
F0.66345410099836488
ssS'LATENCY'
p1087
g11
(tRp1088
g1075
F32.03575277777778
sstp1089
a(g11
(tRp1090
S'workload'
p1091
g11
(tRp1092
S'n_contents'
p1093
I10000
sS'name'
p1094
S'STATIONARY'
p1095
sS'n_warmup'
p1096
I720000
sS'rate'
p1097
I100
sS'n_measured'
p1098
I360000
sS'alpha'
p1099
F0.69999999999999996
ssS'cache_policy'
p1100
g11
(tRp1101
g1094
S'LRU'
p1102
ssS'desc'
p1103
S'caching probability: 0.25'
p1104
sS'strategy'
p1105
g11
(tRp1106
S'extra_quota'
p1107
I2
sS'fan_out'
p1108
I3
sg1094
S'LIRA_DFIB_SC'
p1109
sS'p'
F0.25
ssS'content_placement'
p1110
g11
(tRp1111
g1094
S'UNIFORM'
p1112
ssS'joint_cache_rsn_placement'
p1113
g11
(tRp1114
S'network_cache'
p1115
F0.94999999999999996
sS'network_rsn'
p1116
F121.59999999999999
sg1094
S'CACHE_ALL_RSN_ALL'
p1117
sS'rsn_cache_ratio'
p1118
I128
ssS'warmup_strategy'
p1119
g11
(tRp1120
g1107
I10000
sS'p'
F0.25
sg1094
g1109
sg1108
I10
ssS'topology'
p1121
g11
(tRp1122
S'ext_delay'
p1123
I0
sS'source_ratio'
p1124
F0.10000000000000001
sg1094
S'ROCKET_FUEL'
p1125
sS'asn'
p1126
I3257
ssg11
(tRp1127
S'SAT_RATE'
p1128
g11
(tRp1129
S'MEAN_CACHE_HIT'
p1130
F0.71353055555555556
sS'MEAN_SERVER_HIT'
p1131
F0.59115833333333334
sS'MEAN_SERVER_CACHE_HITS'
p1132
F0.30483055555555555
sS'MEAN'
p1133
F0.99985833333333329
ssS'CACHE_HIT_RATIO'
p1134
g11
(tRp1135
S'MEAN_OFF_PATH'
p1136
F0.42078358399618471
sS'MEAN_ON_PATH'
p1137
F0.29274697155937085
sg1133
F0.71353055555555556
ssS'OVERHEAD'
p1138
g11
(tRp1139
S'SUCCESS_RATE'
p1140
F0.67677525571185404
sS'QUOTA_USED_FAILURE'
p1141
F1
sS'FAILURE_RATE'
p1142
F0.32322474428814596
sS'QUOTA_USED_SUCCESS'
p1143
F1
sg1133
F1.6046273222039789
sS'NUM_SUCCESS_FIRST_TIME'
p1144
F0.66118943573316458
ssS'LATENCY'
p1145
g11
(tRp1146
g1133
F32.027524999999997
sstp1147
a(g11
(tRp1148
S'workload'
p1149
g11
(tRp1150
S'n_contents'
p1151
I10000
sS'name'
p1152
S'STATIONARY'
p1153
sS'n_warmup'
p1154
I720000
sS'rate'
p1155
I100
sS'n_measured'
p1156
I360000
sS'alpha'
p1157
F0.69999999999999996
ssS'cache_policy'
p1158
g11
(tRp1159
g1152
S'LRU'
p1160
ssS'desc'
p1161
S'caching probability: 0.5'
p1162
sS'strategy'
p1163
g11
(tRp1164
S'extra_quota'
p1165
I2
sS'fan_out'
p1166
I1
sg1152
S'LIRA_DFIB_SC'
p1167
sS'p'
F0.5
ssS'content_placement'
p1168
g11
(tRp1169
g1152
S'UNIFORM'
p1170
ssS'joint_cache_rsn_placement'
p1171
g11
(tRp1172
S'network_cache'
p1173
F0.94999999999999996
sS'network_rsn'
p1174
F121.59999999999999
sg1152
S'CACHE_ALL_RSN_ALL'
p1175
sS'rsn_cache_ratio'
p1176
I128
ssS'warmup_strategy'
p1177
g11
(tRp1178
g1165
I10000
sS'p'
F0.25
sg1152
g1167
sg1166
I10
ssS'topology'
p1179
g11
(tRp1180
S'ext_delay'
p1181
I0
sS'source_ratio'
p1182
F0.10000000000000001
sg1152
S'ROCKET_FUEL'
p1183
sS'asn'
p1184
I3257
ssg11
(tRp1185
S'SAT_RATE'
p1186
g11
(tRp1187
S'MEAN_CACHE_HIT'
p1188
F0.58561666666666667
sS'MEAN_SERVER_HIT'
p1189
F0.62468888888888885
sS'MEAN_SERVER_CACHE_HITS'
p1190
F0.21265833333333334
sS'MEAN'
p1191
F0.99764722222222224
ssS'CACHE_HIT_RATIO'
p1192
g11
(tRp1193
S'MEAN_OFF_PATH'
p1194
F0.29921736935117393
sS'MEAN_ON_PATH'
p1195
F0.28639929731549274
sg1191
F0.58561666666666667
ssS'OVERHEAD'
p1196
g11
(tRp1197
S'SUCCESS_RATE'
p1198
F0.52872760599646496
sS'QUOTA_USED_FAILURE'
p1199
F1
sS'FAILURE_RATE'
p1200
F0.47127239400353504
sS'QUOTA_USED_SUCCESS'
p1201
F1
sg1191
F1.4027698501752734
sS'NUM_SUCCESS_FIRST_TIME'
p1202
F0.53684011670619847
ssS'LATENCY'
p1203
g11
(tRp1204
g1191
F35.195950000000003
sstp1205
a(g11
(tRp1206
S'workload'
p1207
g11
(tRp1208
S'n_contents'
p1209
I10000
sS'name'
p1210
S'STATIONARY'
p1211
sS'n_warmup'
p1212
I720000
sS'rate'
p1213
I100
sS'n_measured'
p1214
I360000
sS'alpha'
p1215
F0.69999999999999996
ssS'cache_policy'
p1216
g11
(tRp1217
g1210
S'LRU'
p1218
ssS'desc'
p1219
S'caching probability: 0.25'
p1220
sS'strategy'
p1221
g11
(tRp1222
S'extra_quota'
p1223
I2
sS'fan_out'
p1224
I4
sg1210
S'LIRA_DFIB_SC'
p1225
sS'p'
F0.25
ssS'content_placement'
p1226
g11
(tRp1227
g1210
S'UNIFORM'
p1228
ssS'joint_cache_rsn_placement'
p1229
g11
(tRp1230
S'network_cache'
p1231
F0.94999999999999996
sS'network_rsn'
p1232
F121.59999999999999
sg1210
S'CACHE_ALL_RSN_ALL'
p1233
sS'rsn_cache_ratio'
p1234
I128
ssS'warmup_strategy'
p1235
g11
(tRp1236
g1223
I10000
sS'p'
F0.25
sg1210
g1225
sg1224
I10
ssS'topology'
p1237
g11
(tRp1238
S'ext_delay'
p1239
I0
sS'source_ratio'
p1240
F0.10000000000000001
sg1210
S'ROCKET_FUEL'
p1241
sS'asn'
p1242
I3257
ssg11
(tRp1243
S'SAT_RATE'
p1244
g11
(tRp1245
S'MEAN_CACHE_HIT'
p1246
F0.71111388888888893
sS'MEAN_SERVER_HIT'
p1247
F0.59282222222222225
sS'MEAN_SERVER_CACHE_HITS'
p1248
F0.30407222222222224
sS'MEAN'
p1249
F0.99986388888888889
ssS'CACHE_HIT_RATIO'
p1250
g11
(tRp1251
S'MEAN_OFF_PATH'
p1252
F0.41391129848301189
sS'MEAN_ON_PATH'
p1253
F0.29720259040587704
sg1249
F0.71111388888888893
ssS'OVERHEAD'
p1254
g11
(tRp1255
S'SUCCESS_RATE'
p1256
F0.67129272278975871
sS'QUOTA_USED_FAILURE'
p1257
F1
sS'FAILURE_RATE'
p1258
F0.32870727721024129
sS'QUOTA_USED_SUCCESS'
p1259
F1
sg1249
F1.5944892499256844
sS'NUM_SUCCESS_FIRST_TIME'
p1260
F0.65565945290571181
ssS'LATENCY'
p1261
g11
(tRp1262
g1249
F31.953050000000001
sstp1263
a(g11
(tRp1264
S'workload'
p1265
g11
(tRp1266
S'n_contents'
p1267
I10000
sS'name'
p1268
S'STATIONARY'
p1269
sS'n_warmup'
p1270
I720000
sS'rate'
p1271
I100
sS'n_measured'
p1272
I360000
sS'alpha'
p1273
F0.69999999999999996
ssS'cache_policy'
p1274
g11
(tRp1275
g1268
S'LRU'
p1276
ssS'desc'
p1277
S'caching probability: 0.75'
p1278
sS'strategy'
p1279
g11
(tRp1280
S'extra_quota'
p1281
I2
sS'fan_out'
p1282
I3
sg1268
S'LIRA_DFIB_SC'
p1283
sS'p'
F0.75
ssS'content_placement'
p1284
g11
(tRp1285
g1268
S'UNIFORM'
p1286
ssS'joint_cache_rsn_placement'
p1287
g11
(tRp1288
S'network_cache'
p1289
F0.94999999999999996
sS'network_rsn'
p1290
F121.59999999999999
sg1268
S'CACHE_ALL_RSN_ALL'
p1291
sS'rsn_cache_ratio'
p1292
I128
ssS'warmup_strategy'
p1293
g11
(tRp1294
g1281
I10000
sS'p'
F0.25
sg1268
g1283
sg1282
I10
ssS'topology'
p1295
g11
(tRp1296
S'ext_delay'
p1297
I0
sS'source_ratio'
p1298
F0.10000000000000001
sg1268
S'ROCKET_FUEL'
p1299
sS'asn'
p1300
I3257
ssg11
(tRp1301
S'SAT_RATE'
p1302
g11
(tRp1303
S'MEAN_CACHE_HIT'
p1304
F0.6547694444444444
sS'MEAN_SERVER_HIT'
p1305
F0.65415277777777781
sS'MEAN_SERVER_CACHE_HITS'
p1306
F0.30907777777777778
sS'MEAN'
p1307
F0.99984444444444442
ssS'CACHE_HIT_RATIO'
p1308
g11
(tRp1309
S'MEAN_OFF_PATH'
p1310
F0.41521438333488958
sS'MEAN_ON_PATH'
p1311
F0.23955506110955482
sg1307
F0.6547694444444444
ssS'OVERHEAD'
p1312
g11
(tRp1313
S'SUCCESS_RATE'
p1314
F0.63029616491034568
sS'QUOTA_USED_FAILURE'
p1315
F1
sS'FAILURE_RATE'
p1316
F0.36970383508965438
sS'QUOTA_USED_SUCCESS'
p1317
F1
sg1307
F1.5863439868423976
sS'NUM_SUCCESS_FIRST_TIME'
p1318
F0.61699859536470347
ssS'LATENCY'
p1319
g11
(tRp1320
g1307
F33.657552777777781
sstp1321
a(g11
(tRp1322
S'workload'
p1323
g11
(tRp1324
S'n_contents'
p1325
I10000
sS'name'
p1326
S'STATIONARY'
p1327
sS'n_warmup'
p1328
I720000
sS'rate'
p1329
I100
sS'n_measured'
p1330
I360000
sS'alpha'
p1331
F0.69999999999999996
ssS'cache_policy'
p1332
g11
(tRp1333
g1326
S'LRU'
p1334
ssS'desc'
p1335
S'caching probability: 0.25'
p1336
sS'strategy'
p1337
g11
(tRp1338
S'extra_quota'
p1339
I2
sS'fan_out'
p1340
I1
sg1326
S'LIRA_DFIB_SC'
p1341
sS'p'
F0.25
ssS'content_placement'
p1342
g11
(tRp1343
g1326
S'UNIFORM'
p1344
ssS'joint_cache_rsn_placement'
p1345
g11
(tRp1346
S'network_cache'
p1347
F0.94999999999999996
sS'network_rsn'
p1348
F121.59999999999999
sg1326
S'CACHE_ALL_RSN_ALL'
p1349
sS'rsn_cache_ratio'
p1350
I128
ssS'warmup_strategy'
p1351
g11
(tRp1352
g1339
I10000
sS'p'
F0.25
sg1326
g1341
sg1340
I10
ssS'topology'
p1353
g11
(tRp1354
S'ext_delay'
p1355
I0
sS'source_ratio'
p1356
F0.10000000000000001
sg1326
S'ROCKET_FUEL'
p1357
sS'asn'
p1358
I3257
ssg11
(tRp1359
S'SAT_RATE'
p1360
g11
(tRp1361
S'MEAN_CACHE_HIT'
p1362
F0.6152305555555555
sS'MEAN_SERVER_HIT'
p1363
F0.58976944444444446
sS'MEAN_SERVER_CACHE_HITS'
p1364
F0.2071361111111111
sS'MEAN'
p1365
F0.99786388888888888
ssS'CACHE_HIT_RATIO'
p1366
g11
(tRp1367
S'MEAN_OFF_PATH'
p1368
F0.28342323651452284
sS'MEAN_ON_PATH'
p1369
F0.33180731904103267
sg1365
F0.6152305555555555
ssS'OVERHEAD'
p1370
g11
(tRp1371
S'SUCCESS_RATE'
p1372
F0.52796743389408973
sS'QUOTA_USED_FAILURE'
p1373
F1
sS'FAILURE_RATE'
p1374
F0.47203256610591021
sS'QUOTA_USED_SUCCESS'
p1375
F1
sg1365
F1.373843014661875
sS'NUM_SUCCESS_FIRST_TIME'
p1376
F0.54216218158301299
ssS'LATENCY'
p1377
g11
(tRp1378
g1365
F32.964830555555558
sstp1379
a(g11
(tRp1380
S'workload'
p1381
g11
(tRp1382
S'n_contents'
p1383
I10000
sS'name'
p1384
S'STATIONARY'
p1385
sS'n_warmup'
p1386
I720000
sS'rate'
p1387
I100
sS'n_measured'
p1388
I360000
sS'alpha'
p1389
F0.69999999999999996
ssS'cache_policy'
p1390
g11
(tRp1391
g1384
S'LRU'
p1392
ssS'desc'
p1393
S'caching probability: 0.5'
p1394
sS'strategy'
p1395
g11
(tRp1396
S'extra_quota'
p1397
I2
sS'fan_out'
p1398
I4
sg1384
S'LIRA_DFIB_SC'
p1399
sS'p'
F0.5
ssS'content_placement'
p1400
g11
(tRp1401
g1384
S'UNIFORM'
p1402
ssS'joint_cache_rsn_placement'
p1403
g11
(tRp1404
S'network_cache'
p1405
F0.94999999999999996
sS'network_rsn'
p1406
F121.59999999999999
sg1384
S'CACHE_ALL_RSN_ALL'
p1407
sS'rsn_cache_ratio'
p1408
I128
ssS'warmup_strategy'
p1409
g11
(tRp1410
g1397
I10000
sS'p'
F0.25
sg1384
g1399
sg1398
I10
ssS'topology'
p1411
g11
(tRp1412
S'ext_delay'
p1413
I0
sS'source_ratio'
p1414
F0.10000000000000001
sg1384
S'ROCKET_FUEL'
p1415
sS'asn'
p1416
I3257
ssg11
(tRp1417
S'SAT_RATE'
p1418
g11
(tRp1419
S'MEAN_CACHE_HIT'
p1420
F0.68194166666666667
sS'MEAN_SERVER_HIT'
p1421
F0.62766388888888891
sS'MEAN_SERVER_CACHE_HITS'
p1422
F0.30981111111111109
sS'MEAN'
p1423
F0.99979444444444443
ssS'CACHE_HIT_RATIO'
p1424
g11
(tRp1425
S'MEAN_OFF_PATH'
p1426
F0.40295211874652676
sS'MEAN_ON_PATH'
p1427
F0.27898954792013991
sg1423
F0.68194166666666667
ssS'OVERHEAD'
p1428
g11
(tRp1429
S'SUCCESS_RATE'
p1430
F0.64181433153747935
sS'QUOTA_USED_FAILURE'
p1431
F1
sS'FAILURE_RATE'
p1432
F0.35818566846252065
sS'QUOTA_USED_SUCCESS'
p1433
F1
sg1423
F1.5708840150475376
sS'NUM_SUCCESS_FIRST_TIME'
p1434
F0.62971718935462673
ssS'LATENCY'
p1435
g11
(tRp1436
g1423
F32.513169444444443
sstp1437
a(g11
(tRp1438
S'workload'
p1439
g11
(tRp1440
S'n_contents'
p1441
I10000
sS'name'
p1442
S'STATIONARY'
p1443
sS'n_warmup'
p1444
I720000
sS'rate'
p1445
I100
sS'n_measured'
p1446
I360000
sS'alpha'
p1447
F0.69999999999999996
ssS'cache_policy'
p1448
g11
(tRp1449
g1442
S'LRU'
p1450
ssS'desc'
p1451
S'caching probability: 0.75'
p1452
sS'strategy'
p1453
g11
(tRp1454
S'extra_quota'
p1455
I2
sS'fan_out'
p1456
I1
sg1442
S'LIRA_DFIB_SC'
p1457
sS'p'
F0.75
ssS'content_placement'
p1458
g11
(tRp1459
g1442
S'UNIFORM'
p1460
ssS'joint_cache_rsn_placement'
p1461
g11
(tRp1462
S'network_cache'
p1463
F0.94999999999999996
sS'network_rsn'
p1464
F121.59999999999999
sg1442
S'CACHE_ALL_RSN_ALL'
p1465
sS'rsn_cache_ratio'
p1466
I128
ssS'warmup_strategy'
p1467
g11
(tRp1468
g1455
I10000
sS'p'
F0.25
sg1442
g1457
sg1456
I10
ssS'topology'
p1469
g11
(tRp1470
S'ext_delay'
p1471
I0
sS'source_ratio'
p1472
F0.10000000000000001
sg1442
S'ROCKET_FUEL'
p1473
sS'asn'
p1474
I3257
ssg11
(tRp1475
S'SAT_RATE'
p1476
g11
(tRp1477
S'MEAN_CACHE_HIT'
p1478
F0.56446944444444447
sS'MEAN_SERVER_HIT'
p1479
F0.64798888888888884
sS'MEAN_SERVER_CACHE_HITS'
p1480
F0.21524166666666666
sS'MEAN'
p1481
F0.99721666666666664
ssS'CACHE_HIT_RATIO'
p1482
g11
(tRp1483
S'MEAN_OFF_PATH'
p1484
F0.31478515871106683
sS'MEAN_ON_PATH'
p1485
F0.24968428573337764
sg1481
F0.56446944444444447
ssS'OVERHEAD'
p1486
g11
(tRp1487
S'SUCCESS_RATE'
p1488
F0.52824480913702765
sS'QUOTA_USED_FAILURE'
p1489
F1
sS'FAILURE_RATE'
p1490
F0.4717551908629723
sS'QUOTA_USED_SUCCESS'
p1491
F1
sg1481
F1.4223394002194998
sS'NUM_SUCCESS_FIRST_TIME'
p1492
F0.53191626903481515
ssS'LATENCY'
p1493
g11
(tRp1494
g1481
F34.957255555555555
sstp1495
a(g11
(tRp1496
S'workload'
p1497
g11
(tRp1498
S'n_contents'
p1499
I10000
sS'name'
p1500
S'STATIONARY'
p1501
sS'n_warmup'
p1502
I720000
sS'rate'
p1503
I100
sS'n_measured'
p1504
I360000
sS'alpha'
p1505
F0.69999999999999996
ssS'cache_policy'
p1506
g11
(tRp1507
g1500
S'LRU'
p1508
ssS'desc'
p1509
S'RSN size sensitivity -> RSN/cache ratio: 128.0'
p1510
sS'strategy'
p1511
g11
(tRp1512
S'extra_quota'
p1513
I1000
sS'p'
F0.25
sg1500
S'LIRA_DFIB_SC'
p1514
sS'fan_out'
p1515
I2
ssS'content_placement'
p1516
g11
(tRp1517
g1500
S'UNIFORM'
p1518
ssS'joint_cache_rsn_placement'
p1519
g11
(tRp1520
S'network_cache'
p1521
F0.94999999999999996
sS'network_rsn'
p1522
F121.59999999999999
sg1500
S'CACHE_ALL_RSN_ALL'
p1523
sS'rsn_cache_ratio'
p1524
F128
ssS'warmup_strategy'
p1525
g11
(tRp1526
g1513
I10000
sS'p'
F0.25
sg1500
g1514
sg1515
I100
ssS'topology'
p1527
g11
(tRp1528
S'ext_delay'
p1529
I0
sS'source_ratio'
p1530
F0.10000000000000001
sg1500
S'ROCKET_FUEL'
p1531
sS'asn'
p1532
I3257
ssg11
(tRp1533
S'SAT_RATE'
p1534
g11
(tRp1535
S'MEAN_CACHE_HIT'
p1536
F0.71161111111111108
sS'MEAN_SERVER_HIT'
p1537
F0.59509999999999996
sS'MEAN_SERVER_CACHE_HITS'
p1538
F0.3067111111111111
sS'MEAN'
p1539
F1
ssS'CACHE_HIT_RATIO'
p1540
g11
(tRp1541
S'MEAN_OFF_PATH'
p1542
F0.43041478181014253
sS'MEAN_ON_PATH'
p1543
F0.28119632930096855
sg1539
F0.71161111111111108
ssS'OVERHEAD'
p1544
g11
(tRp1545
S'SUCCESS_RATE'
p1546
F0.67588812325654435
sS'QUOTA_USED_FAILURE'
p1547
F1
sS'FAILURE_RATE'
p1548
F0.32411187674345571
sS'QUOTA_USED_SUCCESS'
p1549
F1
sg1539
F1.609775
sS'NUM_SUCCESS_FIRST_TIME'
p1550
F0.66417439432927128
ssS'LATENCY'
p1551
g11
(tRp1552
g1539
F33.180063888888888
sstp1553
a(g11
(tRp1554
S'workload'
p1555
g11
(tRp1556
S'n_contents'
p1557
I10000
sS'name'
p1558
S'STATIONARY'
p1559
sS'n_warmup'
p1560
I720000
sS'rate'
p1561
I100
sS'n_measured'
p1562
I360000
sS'alpha'
p1563
F0.69999999999999996
ssS'cache_policy'
p1564
g11
(tRp1565
g1558
S'LRU'
p1566
ssS'desc'
p1567
S'caching probability: 0.75'
p1568
sS'strategy'
p1569
g11
(tRp1570
S'extra_quota'
p1571
I2
sS'fan_out'
p1572
I2
sg1558
S'LIRA_DFIB_SC'
p1573
sS'p'
F0.75
ssS'content_placement'
p1574
g11
(tRp1575
g1558
S'UNIFORM'
p1576
ssS'joint_cache_rsn_placement'
p1577
g11
(tRp1578
S'network_cache'
p1579
F0.94999999999999996
sS'network_rsn'
p1580
F121.59999999999999
sg1558
S'CACHE_ALL_RSN_ALL'
p1581
sS'rsn_cache_ratio'
p1582
I128
ssS'warmup_strategy'
p1583
g11
(tRp1584
g1571
I10000
sS'p'
F0.25
sg1558
g1573
sg1572
I10
ssS'topology'
p1585
g11
(tRp1586
S'ext_delay'
p1587
I0
sS'source_ratio'
p1588
F0.10000000000000001
sg1558
S'ROCKET_FUEL'
p1589
sS'asn'
p1590
I3257
ssg11
(tRp1591
S'SAT_RATE'
p1592
g11
(tRp1593
S'MEAN_CACHE_HIT'
p1594
F0.65833055555555553
sS'MEAN_SERVER_HIT'
p1595
F0.65025277777777779
sS'MEAN_SERVER_CACHE_HITS'
p1596
F0.3087611111111111
sS'MEAN'
p1597
F0.99982222222222217
ssS'CACHE_HIT_RATIO'
p1598
g11
(tRp1599
S'MEAN_OFF_PATH'
p1600
F0.40325627799358932
sS'MEAN_ON_PATH'
p1601
F0.25507427756196621
sg1597
F0.65833055555555553
ssS'OVERHEAD'
p1602
g11
(tRp1603
S'SUCCESS_RATE'
p1604
F0.6251234951882616
sS'QUOTA_USED_FAILURE'
p1605
F1
sS'FAILURE_RATE'
p1606
F0.37487650481173845
sS'QUOTA_USED_SUCCESS'
p1607
F1
sg1597
F1.5683927142603129
sS'NUM_SUCCESS_FIRST_TIME'
p1608
F0.61248935638968738
ssS'LATENCY'
p1609
g11
(tRp1610
g1597
F33.906519444444442
sstp1611
a(g11
(tRp1612
S'workload'
p1613
g11
(tRp1614
S'n_contents'
p1615
I10000
sS'name'
p1616
S'STATIONARY'
p1617
sS'n_warmup'
p1618
I720000
sS'rate'
p1619
I100
sS'n_measured'
p1620
I360000
sS'alpha'
p1621
F0.69999999999999996
ssS'cache_policy'
p1622
g11
(tRp1623
g1616
S'LRU'
p1624
ssS'desc'
p1625
S'RSN size sensitivity -> RSN/cache ratio: 256.0'
p1626
sS'strategy'
p1627
g11
(tRp1628
S'extra_quota'
p1629
I1000
sS'p'
F0.25
sg1616
S'LIRA_DFIB_SC'
p1630
sS'fan_out'
p1631
I2
ssS'content_placement'
p1632
g11
(tRp1633
g1616
S'UNIFORM'
p1634
ssS'joint_cache_rsn_placement'
p1635
g11
(tRp1636
S'network_cache'
p1637
F0.94999999999999996
sS'network_rsn'
p1638
F243.19999999999999
sg1616
S'CACHE_ALL_RSN_ALL'
p1639
sS'rsn_cache_ratio'
p1640
F256
ssS'warmup_strategy'
p1641
g11
(tRp1642
g1629
I10000
sS'p'
F0.25
sg1616
g1630
sg1631
I100
ssS'topology'
p1643
g11
(tRp1644
S'ext_delay'
p1645
I0
sS'source_ratio'
p1646
F0.10000000000000001
sg1616
S'ROCKET_FUEL'
p1647
sS'asn'
p1648
I3257
ssg11
(tRp1649
S'SAT_RATE'
p1650
g11
(tRp1651
S'MEAN_CACHE_HIT'
p1652
F0.71198055555555551
sS'MEAN_SERVER_HIT'
p1653
F0.59248611111111116
sS'MEAN_SERVER_CACHE_HITS'
p1654
F0.30446666666666666
sS'MEAN'
p1655
F1
ssS'CACHE_HIT_RATIO'
p1656
g11
(tRp1657
S'MEAN_OFF_PATH'
p1658
F0.43630858077375173
sS'MEAN_ON_PATH'
p1659
F0.27567197478180377
sg1655
F0.71198055555555551
ssS'OVERHEAD'
p1660
g11
(tRp1661
S'SUCCESS_RATE'
p1662
F0.67924304099839128
sS'QUOTA_USED_FAILURE'
p1663
F1
sS'FAILURE_RATE'
p1664
F0.32075695900160872
sS'QUOTA_USED_SUCCESS'
p1665
F1
sg1655
F1.6192583333333332
sS'NUM_SUCCESS_FIRST_TIME'
p1666
F0.66623599098795072
ssS'LATENCY'
p1667
g11
(tRp1668
g1655
F31.50705
sstp1669
a(g11
(tRp1670
S'workload'
p1671
g11
(tRp1672
S'n_contents'
p1673
I10000
sS'name'
p1674
S'STATIONARY'
p1675
sS'n_warmup'
p1676
I720000
sS'rate'
p1677
I100
sS'n_measured'
p1678
I360000
sS'alpha'
p1679
F0.69999999999999996
ssS'cache_policy'
p1680
g11
(tRp1681
g1674
S'LRU'
p1682
ssS'desc'
p1683
S'caching probability: 0.75'
p1684
sS'strategy'
p1685
g11
(tRp1686
S'extra_quota'
p1687
I2
sS'fan_out'
p1688
I4
sg1674
S'LIRA_DFIB_SC'
p1689
sS'p'
F0.75
ssS'content_placement'
p1690
g11
(tRp1691
g1674
S'UNIFORM'
p1692
ssS'joint_cache_rsn_placement'
p1693
g11
(tRp1694
S'network_cache'
p1695
F0.94999999999999996
sS'network_rsn'
p1696
F121.59999999999999
sg1674
S'CACHE_ALL_RSN_ALL'
p1697
sS'rsn_cache_ratio'
p1698
I128
ssS'warmup_strategy'
p1699
g11
(tRp1700
g1687
I10000
sS'p'
F0.25
sg1674
g1689
sg1688
I10
ssS'topology'
p1701
g11
(tRp1702
S'ext_delay'
p1703
I0
sS'source_ratio'
p1704
F0.10000000000000001
sg1674
S'ROCKET_FUEL'
p1705
sS'asn'
p1706
I3257
ssg11
(tRp1707
S'SAT_RATE'
p1708
g11
(tRp1709
S'MEAN_CACHE_HIT'
p1710
F0.65797499999999998
sS'MEAN_SERVER_HIT'
p1711
F0.64835555555555557
sS'MEAN_SERVER_CACHE_HITS'
p1712
F0.30651944444444446
sS'MEAN'
p1713
F0.99981111111111109
ssS'CACHE_HIT_RATIO'
p1714
g11
(tRp1715
S'MEAN_OFF_PATH'
p1716
F0.41386921380712299
sS'MEAN_ON_PATH'
p1717
F0.24410578619287698
sg1713
F0.65797499999999998
ssS'OVERHEAD'
p1718
g11
(tRp1719
S'SUCCESS_RATE'
p1720
F0.6319420541446551
sS'QUOTA_USED_FAILURE'
p1721
F1
sS'FAILURE_RATE'
p1722
F0.3680579458553449
sS'QUOTA_USED_SUCCESS'
p1723
F1
sg1713
F1.5846465443472655
sS'NUM_SUCCESS_FIRST_TIME'
p1724
F0.61866183219081072
ssS'LATENCY'
p1725
g11
(tRp1726
g1713
F33.42744722222222
sstp1727
a(g11
(tRp1728
S'workload'
p1729
g11
(tRp1730
S'n_contents'
p1731
I10000
sS'name'
p1732
S'STATIONARY'
p1733
sS'n_warmup'
p1734
I720000
sS'rate'
p1735
I100
sS'n_measured'
p1736
I360000
sS'alpha'
p1737
F0.69999999999999996
ssS'cache_policy'
p1738
g11
(tRp1739
g1732
S'LRU'
p1740
ssS'desc'
p1741
S'caching probability: 0.5'
p1742
sS'strategy'
p1743
g11
(tRp1744
S'extra_quota'
p1745
I2
sS'fan_out'
p1746
I2
sg1732
S'LIRA_DFIB_SC'
p1747
sS'p'
F0.5
ssS'content_placement'
p1748
g11
(tRp1749
g1732
S'UNIFORM'
p1750
ssS'joint_cache_rsn_placement'
p1751
g11
(tRp1752
S'network_cache'
p1753
F0.94999999999999996
sS'network_rsn'
p1754
F121.59999999999999
sg1732
S'CACHE_ALL_RSN_ALL'
p1755
sS'rsn_cache_ratio'
p1756
I128
ssS'warmup_strategy'
p1757
g11
(tRp1758
g1745
I10000
sS'p'
F0.25
sg1732
g1747
sg1746
I10
ssS'topology'
p1759
g11
(tRp1760
S'ext_delay'
p1761
I0
sS'source_ratio'
p1762
F0.10000000000000001
sg1732
S'ROCKET_FUEL'
p1763
sS'asn'
p1764
I3257
ssg11
(tRp1765
S'SAT_RATE'
p1766
g11
(tRp1767
S'MEAN_CACHE_HIT'
p1768
F0.68290833333333334
sS'MEAN_SERVER_HIT'
p1769
F0.6255694444444444
sS'MEAN_SERVER_CACHE_HITS'
p1770
F0.30862777777777778
sS'MEAN'
p1771
F0.99985000000000002
ssS'CACHE_HIT_RATIO'
p1772
g11
(tRp1773
S'MEAN_OFF_PATH'
p1774
F0.41531295907882781
sS'MEAN_ON_PATH'
p1775
F0.26759537425450552
sg1771
F0.68290833333333334
ssS'OVERHEAD'
p1776
g11
(tRp1777
S'SUCCESS_RATE'
p1778
F0.64671299265032312
sS'QUOTA_USED_FAILURE'
p1779
F1
sS'FAILURE_RATE'
p1780
F0.35328700734967688
sS'QUOTA_USED_SUCCESS'
p1781
F1
sg1771
F1.5810593811293916
sS'NUM_SUCCESS_FIRST_TIME'
p1782
F0.63567694138668407
ssS'LATENCY'
p1783
g11
(tRp1784
g1771
F32.070227777777781
sstp1785
a(g11
(tRp1786
S'workload'
p1787
g11
(tRp1788
S'n_contents'
p1789
I10000
sS'name'
p1790
S'STATIONARY'
p1791
sS'n_warmup'
p1792
I720000
sS'rate'
p1793
I100
sS'n_measured'
p1794
I360000
sS'alpha'
p1795
F0.69999999999999996
ssS'cache_policy'
p1796
g11
(tRp1797
g1790
S'LRU'
p1798
ssS'desc'
p1799
S'caching probability: 0.5'
p1800
sS'strategy'
p1801
g11
(tRp1802
S'extra_quota'
p1803
I2
sS'fan_out'
p1804
I3
sg1790
S'LIRA_DFIB_SC'
p1805
sS'p'
F0.5
ssS'content_placement'
p1806
g11
(tRp1807
g1790
S'UNIFORM'
p1808
ssS'joint_cache_rsn_placement'
p1809
g11
(tRp1810
S'network_cache'
p1811
F0.94999999999999996
sS'network_rsn'
p1812
F121.59999999999999
sg1790
S'CACHE_ALL_RSN_ALL'
p1813
sS'rsn_cache_ratio'
p1814
I128
ssS'warmup_strategy'
p1815
g11
(tRp1816
g1803
I10000
sS'p'
F0.25
sg1790
g1805
sg1804
I10
ssS'topology'
p1817
g11
(tRp1818
S'ext_delay'
p1819
I0
sS'source_ratio'
p1820
F0.10000000000000001
sg1790
S'ROCKET_FUEL'
p1821
sS'asn'
p1822
I3257
ssg11
(tRp1823
S'SAT_RATE'
p1824
g11
(tRp1825
S'MEAN_CACHE_HIT'
p1826
F0.68029444444444442
sS'MEAN_SERVER_HIT'
p1827
F0.62684166666666663
sS'MEAN_SERVER_CACHE_HITS'
p1828
F0.30730277777777776
sS'MEAN'
p1829
F0.99983333333333335
ssS'CACHE_HIT_RATIO'
p1830
g11
(tRp1831
S'MEAN_OFF_PATH'
p1832
F0.41031602166738568
sS'MEAN_ON_PATH'
p1833
F0.26997842277705875
sg1829
F0.68029444444444442
ssS'OVERHEAD'
p1834
g11
(tRp1835
S'SUCCESS_RATE'
p1836
F0.64598684391937233
sS'QUOTA_USED_FAILURE'
p1837
F1
sS'FAILURE_RATE'
p1838
F0.35401315608062772
sS'QUOTA_USED_SUCCESS'
p1839
F1
sg1829
F1.5837695171417459
sS'NUM_SUCCESS_FIRST_TIME'
p1840
F0.63159648748163821
ssS'LATENCY'
p1841
g11
(tRp1842
g1829
F32.747252777777781
sstp1843
a(g11
(tRp1844
S'workload'
p1845
g11
(tRp1846
S'n_contents'
p1847
I10000
sS'name'
p1848
S'STATIONARY'
p1849
sS'n_warmup'
p1850
I720000
sS'rate'
p1851
I100
sS'n_measured'
p1852
I360000
sS'alpha'
p1853
F0.69999999999999996
ssS'cache_policy'
p1854
g11
(tRp1855
g1848
S'LRU'
p1856
ssS'desc'
p1857
S'caching probability: 1.0'
p1858
sS'strategy'
p1859
g11
(tRp1860
S'extra_quota'
p1861
I2
sS'fan_out'
p1862
I1
sg1848
S'LIRA_DFIB_SC'
p1863
sS'p'
F1
ssS'content_placement'
p1864
g11
(tRp1865
g1848
S'UNIFORM'
p1866
ssS'joint_cache_rsn_placement'
p1867
g11
(tRp1868
S'network_cache'
p1869
F0.94999999999999996
sS'network_rsn'
p1870
F121.59999999999999
sg1848
S'CACHE_ALL_RSN_ALL'
p1871
sS'rsn_cache_ratio'
p1872
I128
ssS'warmup_strategy'
p1873
g11
(tRp1874
g1861
I10000
sS'p'
F0.25
sg1848
g1863
sg1862
I10
ssS'topology'
p1875
g11
(tRp1876
S'ext_delay'
p1877
I0
sS'source_ratio'
p1878
F0.10000000000000001
sg1848
S'ROCKET_FUEL'
p1879
sS'asn'
p1880
I3257
ssg11
(tRp1881
S'SAT_RATE'
p1882
g11
(tRp1883
S'MEAN_CACHE_HIT'
p1884
F0.54186388888888892
sS'MEAN_SERVER_HIT'
p1885
F0.66669722222222227
sS'MEAN_SERVER_CACHE_HITS'
p1886
F0.21141944444444444
sS'MEAN'
p1887
F0.9971416666666667
ssS'CACHE_HIT_RATIO'
p1888
g11
(tRp1889
S'MEAN_OFF_PATH'
p1890
F0.3092152743620743
sS'MEAN_ON_PATH'
p1891
F0.23264861452681462
sg1887
F0.54186388888888892
ssS'OVERHEAD'
p1892
g11
(tRp1893
S'SUCCESS_RATE'
p1894
F0.50911509858770554
sS'QUOTA_USED_FAILURE'
p1895
F1
sS'FAILURE_RATE'
p1896
F0.49088490141229446
sS'QUOTA_USED_SUCCESS'
p1897
F1
sg1887
F1.4131336514648816
sS'NUM_SUCCESS_FIRST_TIME'
p1898
F0.50986843421911088
ssS'LATENCY'
p1899
g11
(tRp1900
g1887
F34.99474166666667
sstp1901
a(g11
(tRp1902
S'workload'
p1903
g11
(tRp1904
S'n_contents'
p1905
I10000
sS'name'
p1906
S'STATIONARY'
p1907
sS'n_warmup'
p1908
I720000
sS'rate'
p1909
I100
sS'n_measured'
p1910
I360000
sS'alpha'
p1911
F0.69999999999999996
ssS'cache_policy'
p1912
g11
(tRp1913
g1906
S'LRU'
p1914
ssS'desc'
p1915
S'caching probability: 1.0'
p1916
sS'strategy'
p1917
g11
(tRp1918
S'extra_quota'
p1919
I2
sS'fan_out'
p1920
I2
sg1906
S'LIRA_DFIB_SC'
p1921
sS'p'
F1
ssS'content_placement'
p1922
g11
(tRp1923
g1906
S'UNIFORM'
p1924
ssS'joint_cache_rsn_placement'
p1925
g11
(tRp1926
S'network_cache'
p1927
F0.94999999999999996
sS'network_rsn'
p1928
F121.59999999999999
sg1906
S'CACHE_ALL_RSN_ALL'
p1929
sS'rsn_cache_ratio'
p1930
I128
ssS'warmup_strategy'
p1931
g11
(tRp1932
g1919
I10000
sS'p'
F0.25
sg1906
g1921
sg1920
I10
ssS'topology'
p1933
g11
(tRp1934
S'ext_delay'
p1935
I0
sS'source_ratio'
p1936
F0.10000000000000001
sg1906
S'ROCKET_FUEL'
p1937
sS'asn'
p1938
I3257
ssg11
(tRp1939
S'SAT_RATE'
p1940
g11
(tRp1941
S'MEAN_CACHE_HIT'
p1942
F0.63474722222222224
sS'MEAN_SERVER_HIT'
p1943
F0.671875
sS'MEAN_SERVER_CACHE_HITS'
p1944
F0.30682777777777775
sS'MEAN'
p1945
F0.99979444444444443
ssS'CACHE_HIT_RATIO'
p1946
g11
(tRp1947
S'MEAN_OFF_PATH'
p1948
F0.40471827273036498
sS'MEAN_ON_PATH'
p1949
F0.23002894949185726
sg1945
F0.63474722222222224
ssS'OVERHEAD'
p1950
g11
(tRp1951
S'SUCCESS_RATE'
p1952
F0.61021635404909913
sS'QUOTA_USED_FAILURE'
p1953
F1
sS'FAILURE_RATE'
p1954
F0.38978364595090081
sS'QUOTA_USED_SUCCESS'
p1955
F1
sg1945
F1.5666803731878221
sS'NUM_SUCCESS_FIRST_TIME'
p1956
F0.59848744844283319
ssS'LATENCY'
p1957
g11
(tRp1958
g1945
F33.742283333333333
sstp1959
a(g11
(tRp1960
S'workload'
p1961
g11
(tRp1962
S'n_contents'
p1963
I10000
sS'name'
p1964
S'STATIONARY'
p1965
sS'n_warmup'
p1966
I720000
sS'rate'
p1967
I100
sS'n_measured'
p1968
I360000
sS'alpha'
p1969
F0.69999999999999996
ssS'cache_policy'
p1970
g11
(tRp1971
g1964
S'LRU'
p1972
ssS'desc'
p1973
S'caching probability: 1.0'
p1974
sS'strategy'
p1975
g11
(tRp1976
S'extra_quota'
p1977
I2
sS'fan_out'
p1978
I3
sg1964
S'LIRA_DFIB_SC'
p1979
sS'p'
F1
ssS'content_placement'
p1980
g11
(tRp1981
g1964
S'UNIFORM'
p1982
ssS'joint_cache_rsn_placement'
p1983
g11
(tRp1984
S'network_cache'
p1985
F0.94999999999999996
sS'network_rsn'
p1986
F121.59999999999999
sg1964
S'CACHE_ALL_RSN_ALL'
p1987
sS'rsn_cache_ratio'
p1988
I128
ssS'warmup_strategy'
p1989
g11
(tRp1990
g1977
I10000
sS'p'
F0.25
sg1964
g1979
sg1978
I10
ssS'topology'
p1991
g11
(tRp1992
S'ext_delay'
p1993
I0
sS'source_ratio'
p1994
F0.10000000000000001
sg1964
S'ROCKET_FUEL'
p1995
sS'asn'
p1996
I3257
ssg11
(tRp1997
S'SAT_RATE'
p1998
g11
(tRp1999
S'MEAN_CACHE_HIT'
p2000
F0.63735277777777777
sS'MEAN_SERVER_HIT'
p2001
F0.66958055555555551
sS'MEAN_SERVER_CACHE_HITS'
p2002
F0.30715833333333331
sS'MEAN'
p2003
F0.99977499999999997
ssS'CACHE_HIT_RATIO'
p2004
g11
(tRp2005
S'MEAN_OFF_PATH'
p2006
F0.41090466231381351
sS'MEAN_ON_PATH'
p2007
F0.22644811546396426
sg2003
F0.63735277777777777
ssS'OVERHEAD'
p2008
g11
(tRp2009
S'SUCCESS_RATE'
p2010
F0.61956391289966606
sS'QUOTA_USED_FAILURE'
p2011
F1
sS'FAILURE_RATE'
p2012
F0.380436087100334
sS'QUOTA_USED_SUCCESS'
p2013
F1
sg2003
F1.5863791575326671
sS'NUM_SUCCESS_FIRST_TIME'
p2014
F0.60325995995561643
ssS'LATENCY'
p2015
g11
(tRp2016
g2003
F34.299216666666666
sstp2017
a(g11
(tRp2018
S'workload'
p2019
g11
(tRp2020
S'n_contents'
p2021
I10000
sS'name'
p2022
S'STATIONARY'
p2023
sS'n_warmup'
p2024
I720000
sS'rate'
p2025
I100
sS'n_measured'
p2026
I360000
sS'alpha'
p2027
F0.69999999999999996
ssS'cache_policy'
p2028
g11
(tRp2029
g2022
S'LRU'
p2030
ssS'desc'
p2031
S'caching probability: 1.0'
p2032
sS'strategy'
p2033
g11
(tRp2034
S'extra_quota'
p2035
I2
sS'fan_out'
p2036
I4
sg2022
S'LIRA_DFIB_SC'
p2037
sS'p'
F1
ssS'content_placement'
p2038
g11
(tRp2039
g2022
S'UNIFORM'
p2040
ssS'joint_cache_rsn_placement'
p2041
g11
(tRp2042
S'network_cache'
p2043
F0.94999999999999996
sS'network_rsn'
p2044
F121.59999999999999
sg2022
S'CACHE_ALL_RSN_ALL'
p2045
sS'rsn_cache_ratio'
p2046
I128
ssS'warmup_strategy'
p2047
g11
(tRp2048
g2035
I10000
sS'p'
F0.25
sg2022
g2037
sg2036
I10
ssS'topology'
p2049
g11
(tRp2050
S'ext_delay'
p2051
I0
sS'source_ratio'
p2052
F0.10000000000000001
sg2022
S'ROCKET_FUEL'
p2053
sS'asn'
p2054
I3257
ssg11
(tRp2055
S'SAT_RATE'
p2056
g11
(tRp2057
S'MEAN_CACHE_HIT'
p2058
F0.63613611111111112
sS'MEAN_SERVER_HIT'
p2059
F0.67086944444444441
sS'MEAN_SERVER_CACHE_HITS'
p2060
F0.30725555555555556
sS'MEAN'
p2061
F0.99975000000000003
ssS'CACHE_HIT_RATIO'
p2062
g11
(tRp2063
S'MEAN_OFF_PATH'
p2064
F0.40705216759258867
sS'MEAN_ON_PATH'
p2065
F0.22908394351852246
sg2061
F0.63613611111111112
ssS'OVERHEAD'
p2066
g11
(tRp2067
S'SUCCESS_RATE'
p2068
F0.61570849820435558
sS'QUOTA_USED_FAILURE'
p2069
F1
sS'FAILURE_RATE'
p2070
F0.38429150179564447
sS'QUOTA_USED_SUCCESS'
p2071
F1
sg2061
F1.5789336222944625
sS'NUM_SUCCESS_FIRST_TIME'
p2072
F0.60120839352002853
ssS'LATENCY'
p2073
g11
(tRp2074
g2061
F34.036730555555557
sstp2075
a(g11
(tRp2076
S'workload'
p2077
g11
(tRp2078
S'n_contents'
p2079
I10000
sS'name'
p2080
S'STATIONARY'
p2081
sS'n_warmup'
p2082
I720000
sS'rate'
p2083
I100
sS'n_measured'
p2084
I360000
sS'alpha'
p2085
F0.69999999999999996
ssS'cache_policy'
p2086
g11
(tRp2087
g2080
S'LRU'
p2088
ssS'desc'
p2089
S'caching probability: 1.0'
p2090
sS'strategy'
p2091
g11
(tRp2092
S'extra_quota'
p2093
I1
sS'fan_out'
p2094
I2
sg2080
S'LIRA_DFIB_OPH'
p2095
sS'p'
F0.25
ssS'content_placement'
p2096
g11
(tRp2097
g2080
S'UNIFORM'
p2098
ssS'joint_cache_rsn_placement'
p2099
g11
(tRp2100
S'network_cache'
p2101
F0.94999999999999996
sS'network_rsn'
p2102
F121.59999999999999
sg2080
S'CACHE_ALL_RSN_ALL'
p2103
sS'rsn_cache_ratio'
p2104
I128
ssS'warmup_strategy'
p2105
g11
(tRp2106
g2093
I1000000
sS'p'
F0.25
sg2080
g2095
sg2094
I10
ssS'topology'
p2107
g11
(tRp2108
S'ext_delay'
p2109
I0
sS'source_ratio'
p2110
F0.10000000000000001
sg2080
S'ROCKET_FUEL'
p2111
sS'asn'
p2112
I3257
ssg11
(tRp2113
S'SAT_RATE'
p2114
g11
(tRp2115
S'MEAN_CACHE_HIT'
p2116
F0.71661111111111109
sS'MEAN_SERVER_HIT'
p2117
F0.43141666666666667
sS'MEAN_SERVER_CACHE_HITS'
p2118
F0.17993055555555557
sS'MEAN'
p2119
F0.96809722222222228
ssS'CACHE_HIT_RATIO'
p2120
g11
(tRp2121
S'MEAN_OFF_PATH'
p2122
F0.48662924338841973
sS'MEAN_ON_PATH'
p2123
F0.22998186772269136
sg2119
F0.71661111111111109
ssS'OVERHEAD'
p2124
g11
(tRp2125
S'SUCCESS_RATE'
p2126
F0.69472588860288076
sS'QUOTA_USED_FAILURE'
p2127
F1.6958374864097892
sS'FAILURE_RATE'
p2128
F0.30527411139711924
sS'QUOTA_USED_SUCCESS'
p2129
F6.6476531683230107
sg2119
F1.3777455776652368
sS'NUM_SUCCESS_FIRST_TIME'
p2130
F0.68596308724832211
ssS'LATENCY'
p2131
g11
(tRp2132
g2119
F26.917786111111113
sstp2133
a(g11
(tRp2134
S'workload'
p2135
g11
(tRp2136
S'n_contents'
p2137
I10000
sS'name'
p2138
S'STATIONARY'
p2139
sS'n_warmup'
p2140
I720000
sS'rate'
p2141
I100
sS'n_measured'
p2142
I360000
sS'alpha'
p2143
F0.69999999999999996
ssS'cache_policy'
p2144
g11
(tRp2145
g2138
S'LRU'
p2146
ssS'desc'
p2147
S'caching probability: 1.0'
p2148
sS'strategy'
p2149
g11
(tRp2150
S'extra_quota'
p2151
I3
sS'fan_out'
p2152
I2
sg2138
S'LIRA_DFIB_OPH'
p2153
sS'p'
F0.25
ssS'content_placement'
p2154
g11
(tRp2155
g2138
S'UNIFORM'
p2156
ssS'joint_cache_rsn_placement'
p2157
g11
(tRp2158
S'network_cache'
p2159
F0.94999999999999996
sS'network_rsn'
p2160
F121.59999999999999
sg2138
S'CACHE_ALL_RSN_ALL'
p2161
sS'rsn_cache_ratio'
p2162
I128
ssS'warmup_strategy'
p2163
g11
(tRp2164
g2151
I1000000
sS'p'
F0.25
sg2138
g2153
sg2152
I10
ssS'topology'
p2165
g11
(tRp2166
S'ext_delay'
p2167
I0
sS'source_ratio'
p2168
F0.10000000000000001
sg2138
S'ROCKET_FUEL'
p2169
sS'asn'
p2170
I3257
ssg11
(tRp2171
S'SAT_RATE'
p2172
g11
(tRp2173
S'MEAN_CACHE_HIT'
p2174
F0.71392222222222224
sS'MEAN_SERVER_HIT'
p2175
F0.52343333333333331
sS'MEAN_SERVER_CACHE_HITS'
p2176
F0.24743611111111111
sS'MEAN'
p2177
F0.98991944444444446
ssS'CACHE_HIT_RATIO'
p2178
g11
(tRp2179
S'MEAN_OFF_PATH'
p2180
F0.45285869506653975
sS'MEAN_ON_PATH'
p2181
F0.26106352715568248
sg2177
F0.71392222222222224
ssS'OVERHEAD'
p2182
g11
(tRp2183
S'SUCCESS_RATE'
p2184
F0.68053247206155409
sS'QUOTA_USED_FAILURE'
p2185
F1.6649818368831037
sS'FAILURE_RATE'
p2186
F0.31946752793844591
sS'QUOTA_USED_SUCCESS'
p2187
F6.6983389815326051
sg2177
F1.4745812650299828
sS'NUM_SUCCESS_FIRST_TIME'
p2188
F0.66989422133872212
ssS'LATENCY'
p2189
g11
(tRp2190
g2177
F29.953624999999999
sstp2191
a(g11
(tRp2192
S'workload'
p2193
g11
(tRp2194
S'n_contents'
p2195
I10000
sS'name'
p2196
S'STATIONARY'
p2197
sS'n_warmup'
p2198
I720000
sS'rate'
p2199
I100
sS'n_measured'
p2200
I360000
sS'alpha'
p2201
F0.69999999999999996
ssS'cache_policy'
p2202
g11
(tRp2203
g2196
S'LRU'
p2204
ssS'desc'
p2205
S'caching probability: 1.0'
p2206
sS'strategy'
p2207
g11
(tRp2208
S'extra_quota'
p2209
I4
sS'fan_out'
p2210
I2
sg2196
S'LIRA_DFIB_OPH'
p2211
sS'p'
F0.25
ssS'content_placement'
p2212
g11
(tRp2213
g2196
S'UNIFORM'
p2214
ssS'joint_cache_rsn_placement'
p2215
g11
(tRp2216
S'network_cache'
p2217
F0.94999999999999996
sS'network_rsn'
p2218
F121.59999999999999
sg2196
S'CACHE_ALL_RSN_ALL'
p2219
sS'rsn_cache_ratio'
p2220
I128
ssS'warmup_strategy'
p2221
g11
(tRp2222
g2209
I1000000
sS'p'
F0.25
sg2196
g2211
sg2210
I10
ssS'topology'
p2223
g11
(tRp2224
S'ext_delay'
p2225
I0
sS'source_ratio'
p2226
F0.10000000000000001
sg2196
S'ROCKET_FUEL'
p2227
sS'asn'
p2228
I3257
ssg11
(tRp2229
S'SAT_RATE'
p2230
g11
(tRp2231
S'MEAN_CACHE_HIT'
p2232
F0.71043888888888884
sS'MEAN_SERVER_HIT'
p2233
F0.54051666666666665
sS'MEAN_SERVER_CACHE_HITS'
p2234
F0.25875555555555557
sS'MEAN'
p2235
F0.99219999999999997
ssS'CACHE_HIT_RATIO'
p2236
g11
(tRp2237
S'MEAN_OFF_PATH'
p2238
F0.42608761302470999
sS'MEAN_ON_PATH'
p2239
F0.28435127586417885
sg2235
F0.71043888888888884
ssS'OVERHEAD'
p2240
g11
(tRp2241
S'SUCCESS_RATE'
p2242
F0.66893289505331521
sS'QUOTA_USED_FAILURE'
p2243
F1.6434148675184783
sS'FAILURE_RATE'
p2244
F0.33106710494668484
sS'QUOTA_USED_SUCCESS'
p2245
F5.5348823080482275
sg2235
F1.4830847275414902
sS'NUM_SUCCESS_FIRST_TIME'
p2246
F0.65750409724348902
ssS'LATENCY'
p2247
g11
(tRp2248
g2235
F29.89703888888889
sstp2249
a(g11
(tRp2250
S'workload'
p2251
g11
(tRp2252
S'n_contents'
p2253
I10000
sS'name'
p2254
S'STATIONARY'
p2255
sS'n_warmup'
p2256
I720000
sS'rate'
p2257
I100
sS'n_measured'
p2258
I360000
sS'alpha'
p2259
F0.69999999999999996
ssS'cache_policy'
p2260
g11
(tRp2261
g2254
S'LRU'
p2262
ssS'desc'
p2263
S'caching probability: 1.0'
p2264
sS'strategy'
p2265
g11
(tRp2266
S'extra_quota'
p2267
I2
sS'fan_out'
p2268
I2
sg2254
S'LIRA_DFIB_OPH'
p2269
sS'p'
F0.25
ssS'content_placement'
p2270
g11
(tRp2271
g2254
S'UNIFORM'
p2272
ssS'joint_cache_rsn_placement'
p2273
g11
(tRp2274
S'network_cache'
p2275
F0.94999999999999996
sS'network_rsn'
p2276
F121.59999999999999
sg2254
S'CACHE_ALL_RSN_ALL'
p2277
sS'rsn_cache_ratio'
p2278
I128
ssS'warmup_strategy'
p2279
g11
(tRp2280
g2267
I1000000
sS'p'
F0.25
sg2254
g2269
sg2268
I10
ssS'topology'
p2281
g11
(tRp2282
S'ext_delay'
p2283
I0
sS'source_ratio'
p2284
F0.10000000000000001
sg2254
S'ROCKET_FUEL'
p2285
sS'asn'
p2286
I3257
ssg11
(tRp2287
S'SAT_RATE'
p2288
g11
(tRp2289
S'MEAN_CACHE_HIT'
p2290
F0.71138333333333337
sS'MEAN_SERVER_HIT'
p2291
F0.49685833333333335
sS'MEAN_SERVER_CACHE_HITS'
p2292
F0.22442222222222222
sS'MEAN'
p2293
F0.98381944444444447
ssS'CACHE_HIT_RATIO'
p2294
g11
(tRp2295
S'MEAN_OFF_PATH'
p2296
F0.45094685343945634
sS'MEAN_ON_PATH'
p2297
F0.26043647989387703
sg2293
F0.71138333333333337
ssS'OVERHEAD'
p2298
g11
(tRp2299
S'SUCCESS_RATE'
p2300
F0.67745974611551618
sS'QUOTA_USED_FAILURE'
p2301
F1.6519801368416462
sS'FAILURE_RATE'
p2302
F0.32254025388448382
sS'QUOTA_USED_SUCCESS'
p2303
F6.4540933375767935
sg2293
F1.4244511893837792
sS'NUM_SUCCESS_FIRST_TIME'
p2304
F0.66686771614494322
ssS'LATENCY'
p2305
g11
(tRp2306
g2293
F28.720416666666665
sstp2307
a(g11
(tRp2308
S'workload'
p2309
g11
(tRp2310
S'n_contents'
p2311
I10000
sS'name'
p2312
S'STATIONARY'
p2313
sS'n_warmup'
p2314
I720000
sS'rate'
p2315
I100
sS'n_measured'
p2316
I360000
sS'alpha'
p2317
F0.69999999999999996
ssS'cache_policy'
p2318
g11
(tRp2319
g2312
S'LRU'
p2320
ssS'desc'
p2321
S'quota_increment: 1.25'
p2322
sS'strategy'
p2323
g11
(tRp2324
S'extra_quota'
p2325
I2
sS'p'
F0.25
sS'quota_increment'
p2326
F1.25
sg2312
S'LIRA_DFIB_OPH'
p2327
sS'fan_out'
p2328
I2
ssS'content_placement'
p2329
g11
(tRp2330
g2312
S'UNIFORM'
p2331
ssS'joint_cache_rsn_placement'
p2332
g11
(tRp2333
S'network_cache'
p2334
F0.94999999999999996
sS'network_rsn'
p2335
F121.59999999999999
sg2312
S'CACHE_ALL_RSN_ALL'
p2336
sS'rsn_cache_ratio'
p2337
I128
ssS'warmup_strategy'
p2338
g11
(tRp2339
g2325
I1000000
sS'p'
F0.25
sg2312
g2327
sg2328
I10
ssS'topology'
p2340
g11
(tRp2341
S'ext_delay'
p2342
I0
sS'source_ratio'
p2343
F0.10000000000000001
sg2312
S'ROCKET_FUEL'
p2344
sS'asn'
p2345
I3257
ssg11
(tRp2346
S'SAT_RATE'
p2347
g11
(tRp2348
S'MEAN_CACHE_HIT'
p2349
F0.71762499999999996
sS'MEAN_SERVER_HIT'
p2350
F0.37088333333333334
sS'MEAN_SERVER_CACHE_HITS'
p2351
F0.13980833333333334
sS'MEAN'
p2352
F0.94869999999999999
ssS'CACHE_HIT_RATIO'
p2353
g11
(tRp2354
S'MEAN_OFF_PATH'
p2355
F0.51541992992448893
sS'MEAN_ON_PATH'
p2356
F0.20220507007551103
sg2352
F0.71762499999999996
ssS'OVERHEAD'
p2357
g11
(tRp2358
S'SUCCESS_RATE'
p2359
F0.70431961597552373
sS'QUOTA_USED_FAILURE'
p2360
F2.9850871106245926
sS'FAILURE_RATE'
p2361
F0.29568038402447627
sS'QUOTA_USED_SUCCESS'
p2362
F17.411517550511277
sg2352
F1.3130277689938279
sS'NUM_SUCCESS_FIRST_TIME'
p2363
F0.6975942789490025
ssS'LATENCY'
p2364
g11
(tRp2365
g2352
F25.279350000000001
sstp2366
a(g11
(tRp2367
S'workload'
p2368
g11
(tRp2369
S'n_contents'
p2370
I10000
sS'name'
p2371
S'STATIONARY'
p2372
sS'n_warmup'
p2373
I720000
sS'rate'
p2374
I100
sS'n_measured'
p2375
I360000
sS'alpha'
p2376
F0.69999999999999996
ssS'cache_policy'
p2377
g11
(tRp2378
g2371
S'LRU'
p2379
ssS'desc'
p2380
S'quota_increment: 1.5'
p2381
sS'strategy'
p2382
g11
(tRp2383
S'extra_quota'
p2384
I2
sS'p'
F0.25
sS'quota_increment'
p2385
F1.5
sg2371
S'LIRA_DFIB_OPH'
p2386
sS'fan_out'
p2387
I2
ssS'content_placement'
p2388
g11
(tRp2389
g2371
S'UNIFORM'
p2390
ssS'joint_cache_rsn_placement'
p2391
g11
(tRp2392
S'network_cache'
p2393
F0.94999999999999996
sS'network_rsn'
p2394
F121.59999999999999
sg2371
S'CACHE_ALL_RSN_ALL'
p2395
sS'rsn_cache_ratio'
p2396
I128
ssS'warmup_strategy'
p2397
g11
(tRp2398
g2384
I1000000
sS'p'
F0.25
sg2371
g2386
sg2387
I10
ssS'topology'
p2399
g11
(tRp2400
S'ext_delay'
p2401
I0
sS'source_ratio'
p2402
F0.10000000000000001
sg2371
S'ROCKET_FUEL'
p2403
sS'asn'
p2404
I3257
ssg11
(tRp2405
S'SAT_RATE'
p2406
g11
(tRp2407
S'MEAN_CACHE_HIT'
p2408
F0.71532222222222219
sS'MEAN_SERVER_HIT'
p2409
F0.36088611111111113
sS'MEAN_SERVER_CACHE_HITS'
p2410
F0.13055555555555556
sS'MEAN'
p2411
F0.94565277777777779
ssS'CACHE_HIT_RATIO'
p2412
g11
(tRp2413
S'MEAN_OFF_PATH'
p2414
F0.53061803915495498
sS'MEAN_ON_PATH'
p2415
F0.18470418306726721
sg2411
F0.71532222222222219
ssS'OVERHEAD'
p2416
g11
(tRp2417
S'SUCCESS_RATE'
p2418
F0.70770819850033018
sS'QUOTA_USED_FAILURE'
p2419
F3.3405750041045681
sS'FAILURE_RATE'
p2420
F0.29229180149966988
sS'QUOTA_USED_SUCCESS'
p2421
F21.975489955155787
sg2411
F1.2925463010560019
sS'NUM_SUCCESS_FIRST_TIME'
p2422
F0.7014788273395629
ssS'LATENCY'
p2423
g11
(tRp2424
g2411
F25.061233333333334
sstp2425
a(g11
(tRp2426
S'workload'
p2427
g11
(tRp2428
S'n_contents'
p2429
I10000
sS'name'
p2430
S'STATIONARY'
p2431
sS'n_warmup'
p2432
I720000
sS'rate'
p2433
I100
sS'n_measured'
p2434
I360000
sS'alpha'
p2435
F0.69999999999999996
ssS'cache_policy'
p2436
g11
(tRp2437
g2430
S'LRU'
p2438
ssS'desc'
p2439
S'quota_increment: 0.75'
p2440
sS'strategy'
p2441
g11
(tRp2442
S'extra_quota'
p2443
I2
sS'p'
F0.25
sS'quota_increment'
p2444
F0.75
sg2430
S'LIRA_DFIB_OPH'
p2445
sS'fan_out'
p2446
I2
ssS'content_placement'
p2447
g11
(tRp2448
g2430
S'UNIFORM'
p2449
ssS'joint_cache_rsn_placement'
p2450
g11
(tRp2451
S'network_cache'
p2452
F0.94999999999999996
sS'network_rsn'
p2453
F121.59999999999999
sg2430
S'CACHE_ALL_RSN_ALL'
p2454
sS'rsn_cache_ratio'
p2455
I128
ssS'warmup_strategy'
p2456
g11
(tRp2457
g2443
I1000000
sS'p'
F0.25
sg2430
g2445
sg2446
I10
ssS'topology'
p2458
g11
(tRp2459
S'ext_delay'
p2460
I0
sS'source_ratio'
p2461
F0.10000000000000001
sg2430
S'ROCKET_FUEL'
p2462
sS'asn'
p2463
I3257
ssg11
(tRp2464
S'SAT_RATE'
p2465
g11
(tRp2466
S'MEAN_CACHE_HIT'
p2467
F0.71785555555555558
sS'MEAN_SERVER_HIT'
p2468
F0.42256944444444444
sS'MEAN_SERVER_CACHE_HITS'
p2469
F0.17469999999999999
sS'MEAN'
p2470
F0.96572499999999994
ssS'CACHE_HIT_RATIO'
p2471
g11
(tRp2472
S'MEAN_OFF_PATH'
p2473
F0.49804044788370805
sS'MEAN_ON_PATH'
p2474
F0.21981510767184753
sg2470
F0.71785555555555558
ssS'OVERHEAD'
p2475
g11
(tRp2476
S'SUCCESS_RATE'
p2477
F0.69930868573512528
sS'QUOTA_USED_FAILURE'
p2478
F2.2897820739802808
sS'FAILURE_RATE'
p2479
F0.30069131426487478
sS'QUOTA_USED_SUCCESS'
p2480
F10.939431614576003
sg2470
F1.3608400136914984
sS'NUM_SUCCESS_FIRST_TIME'
p2481
F0.69182287656320529
ssS'LATENCY'
p2482
g11
(tRp2483
g2470
F26.967047222222224
sstp2484
a(g11
(tRp2485
S'workload'
p2486
g11
(tRp2487
S'n_contents'
p2488
I10000
sS'name'
p2489
S'STATIONARY'
p2490
sS'n_warmup'
p2491
I720000
sS'rate'
p2492
I100
sS'n_measured'
p2493
I360000
sS'alpha'
p2494
F0.69999999999999996
ssS'cache_policy'
p2495
g11
(tRp2496
g2489
S'LRU'
p2497
ssS'desc'
p2498
S'caching probability: 1.0'
p2499
sS'strategy'
p2500
g11
(tRp2501
S'extra_quota'
p2502
I1
sS'fan_out'
p2503
I2
sg2489
S'LIRA_DFIB_SC'
p2504
sS'p'
F0.25
ssS'content_placement'
p2505
g11
(tRp2506
g2489
S'UNIFORM'
p2507
ssS'joint_cache_rsn_placement'
p2508
g11
(tRp2509
S'network_cache'
p2510
F0.94999999999999996
sS'network_rsn'
p2511
F121.59999999999999
sg2489
S'CACHE_ALL_RSN_ALL'
p2512
sS'rsn_cache_ratio'
p2513
I128
ssS'warmup_strategy'
p2514
g11
(tRp2515
g2502
I1000000
sS'p'
F0.25
sg2489
g2504
sg2503
I10
ssS'topology'
p2516
g11
(tRp2517
S'ext_delay'
p2518
I0
sS'source_ratio'
p2519
F0.10000000000000001
sg2489
S'ROCKET_FUEL'
p2520
sS'asn'
p2521
I3257
ssg11
(tRp2522
S'SAT_RATE'
p2523
g11
(tRp2524
S'MEAN_CACHE_HIT'
p2525
F0.71276111111111107
sS'MEAN_SERVER_HIT'
p2526
F0.57567777777777773
sS'MEAN_SERVER_CACHE_HITS'
p2527
F0.29141388888888886
sS'MEAN'
p2528
F0.99702500000000005
ssS'CACHE_HIT_RATIO'
p2529
g11
(tRp2530
S'MEAN_OFF_PATH'
p2531
F0.43958882195939097
sS'MEAN_ON_PATH'
p2532
F0.27317228915172009
sg2528
F0.71276111111111107
ssS'OVERHEAD'
p2533
g11
(tRp2534
S'SUCCESS_RATE'
p2535
F0.68171793989728968
sS'QUOTA_USED_FAILURE'
p2536
F1
sS'FAILURE_RATE'
p2537
F0.31828206010271026
sS'QUOTA_USED_SUCCESS'
p2538
F1
sg2528
F1.5955467515859683
sS'NUM_SUCCESS_FIRST_TIME'
p2539
F0.6685605692715112
ssS'LATENCY'
p2540
g11
(tRp2541
g2528
F31.848644444444446
sstp2542
a(g11
(tRp2543
S'workload'
p2544
g11
(tRp2545
S'n_contents'
p2546
I10000
sS'name'
p2547
S'STATIONARY'
p2548
sS'n_warmup'
p2549
I720000
sS'rate'
p2550
I100
sS'n_measured'
p2551
I360000
sS'alpha'
p2552
F0.69999999999999996
ssS'cache_policy'
p2553
g11
(tRp2554
g2547
S'LRU'
p2555
ssS'desc'
p2556
S'quota_increment: 1.75'
p2557
sS'strategy'
p2558
g11
(tRp2559
S'extra_quota'
p2560
I2
sS'p'
F0.25
sS'quota_increment'
p2561
F1.75
sg2547
S'LIRA_DFIB_OPH'
p2562
sS'fan_out'
p2563
I2
ssS'content_placement'
p2564
g11
(tRp2565
g2547
S'UNIFORM'
p2566
ssS'joint_cache_rsn_placement'
p2567
g11
(tRp2568
S'network_cache'
p2569
F0.94999999999999996
sS'network_rsn'
p2570
F121.59999999999999
sg2547
S'CACHE_ALL_RSN_ALL'
p2571
sS'rsn_cache_ratio'
p2572
I128
ssS'warmup_strategy'
p2573
g11
(tRp2574
g2560
I1000000
sS'p'
F0.25
sg2547
g2562
sg2563
I10
ssS'topology'
p2575
g11
(tRp2576
S'ext_delay'
p2577
I0
sS'source_ratio'
p2578
F0.10000000000000001
sg2547
S'ROCKET_FUEL'
p2579
sS'asn'
p2580
I3257
ssg11
(tRp2581
S'SAT_RATE'
p2582
g11
(tRp2583
S'MEAN_CACHE_HIT'
p2584
F0.71714166666666668
sS'MEAN_SERVER_HIT'
p2585
F0.34085555555555558
sS'MEAN_SERVER_CACHE_HITS'
p2586
F0.11916666666666667
sS'MEAN'
p2587
F0.9388305555555555
ssS'CACHE_HIT_RATIO'
p2588
g11
(tRp2589
S'MEAN_OFF_PATH'
p2590
F0.52776866143840961
sS'MEAN_ON_PATH'
p2591
F0.18937300522825706
sg2587
F0.71714166666666668
ssS'OVERHEAD'
p2592
g11
(tRp2593
S'SUCCESS_RATE'
p2594
F0.70843270327494334
sS'QUOTA_USED_FAILURE'
p2595
F3.6445727253213329
sS'FAILURE_RATE'
p2596
F0.2915672967250566
sS'QUOTA_USED_SUCCESS'
p2597
F19.150445413649038
sg2587
F1.2824583775915073
sS'NUM_SUCCESS_FIRST_TIME'
p2598
F0.70256973287621571
ssS'LATENCY'
p2599
g11
(tRp2600
g2587
F24.524930555555557
sstp2601
a(g11
(tRp2602
S'workload'
p2603
g11
(tRp2604
S'n_contents'
p2605
I10000
sS'name'
p2606
S'STATIONARY'
p2607
sS'n_warmup'
p2608
I720000
sS'rate'
p2609
I100
sS'n_measured'
p2610
I360000
sS'alpha'
p2611
F0.69999999999999996
ssS'cache_policy'
p2612
g11
(tRp2613
g2606
S'LRU'
p2614
ssS'desc'
p2615
S'quota_increment: 0.25'
p2616
sS'strategy'
p2617
g11
(tRp2618
S'extra_quota'
p2619
I2
sS'p'
F0.25
sS'quota_increment'
p2620
F0.25
sg2606
S'LIRA_DFIB_OPH'
p2621
sS'fan_out'
p2622
I2
ssS'content_placement'
p2623
g11
(tRp2624
g2606
S'UNIFORM'
p2625
ssS'joint_cache_rsn_placement'
p2626
g11
(tRp2627
S'network_cache'
p2628
F0.94999999999999996
sS'network_rsn'
p2629
F121.59999999999999
sg2606
S'CACHE_ALL_RSN_ALL'
p2630
sS'rsn_cache_ratio'
p2631
I128
ssS'warmup_strategy'
p2632
g11
(tRp2633
g2619
I1000000
sS'p'
F0.25
sg2606
g2621
sg2622
I10
ssS'topology'
p2634
g11
(tRp2635
S'ext_delay'
p2636
I0
sS'source_ratio'
p2637
F0.10000000000000001
sg2606
S'ROCKET_FUEL'
p2638
sS'asn'
p2639
I3257
ssg11
(tRp2640
S'SAT_RATE'
p2641
g11
(tRp2642
S'MEAN_CACHE_HIT'
p2643
F0.71370555555555559
sS'MEAN_SERVER_HIT'
p2644
F0.50159166666666666
sS'MEAN_SERVER_CACHE_HITS'
p2645
F0.23002777777777778
sS'MEAN'
p2646
F0.98526944444444442
ssS'CACHE_HIT_RATIO'
p2647
g11
(tRp2648
S'MEAN_OFF_PATH'
p2649
F0.45741439565538378
sS'MEAN_ON_PATH'
p2650
F0.25629115990017182
sg2646
F0.71370555555555559
ssS'OVERHEAD'
p2651
g11
(tRp2652
S'SUCCESS_RATE'
p2653
F0.68133929081435129
sS'QUOTA_USED_FAILURE'
p2654
F1.5836181754299608
sS'FAILURE_RATE'
p2655
F0.31866070918564876
sS'QUOTA_USED_SUCCESS'
p2656
F6.1338840615164427
sg2646
F1.4504746304592371
sS'NUM_SUCCESS_FIRST_TIME'
p2657
F0.67125282350482773
ssS'LATENCY'
p2658
g11
(tRp2659
g2646
F28.877408333333332
sstp2660
a(g11
(tRp2661
S'workload'
p2662
g11
(tRp2663
S'n_contents'
p2664
I10000
sS'name'
p2665
S'STATIONARY'
p2666
sS'n_warmup'
p2667
I720000
sS'rate'
p2668
I100
sS'n_measured'
p2669
I360000
sS'alpha'
p2670
F0.69999999999999996
ssS'cache_policy'
p2671
g11
(tRp2672
g2665
S'LRU'
p2673
ssS'desc'
p2674
S'caching probability: 1.0'
p2675
sS'strategy'
p2676
g11
(tRp2677
S'extra_quota'
p2678
I3
sS'fan_out'
p2679
I2
sg2665
S'LIRA_DFIB_SC'
p2680
sS'p'
F0.25
ssS'content_placement'
p2681
g11
(tRp2682
g2665
S'UNIFORM'
p2683
ssS'joint_cache_rsn_placement'
p2684
g11
(tRp2685
S'network_cache'
p2686
F0.94999999999999996
sS'network_rsn'
p2687
F121.59999999999999
sg2665
S'CACHE_ALL_RSN_ALL'
p2688
sS'rsn_cache_ratio'
p2689
I128
ssS'warmup_strategy'
p2690
g11
(tRp2691
g2678
I1000000
sS'p'
F0.25
sg2665
g2680
sg2679
I10
ssS'topology'
p2692
g11
(tRp2693
S'ext_delay'
p2694
I0
sS'source_ratio'
p2695
F0.10000000000000001
sg2665
S'ROCKET_FUEL'
p2696
sS'asn'
p2697
I3257
ssg11
(tRp2698
S'SAT_RATE'
p2699
g11
(tRp2700
S'MEAN_CACHE_HIT'
p2701
F0.71256111111111109
sS'MEAN_SERVER_HIT'
p2702
F0.59263055555555555
sS'MEAN_SERVER_CACHE_HITS'
p2703
F0.30519722222222223
sS'MEAN'
p2704
F0.99999444444444441
ssS'CACHE_HIT_RATIO'
p2705
g11
(tRp2706
S'MEAN_OFF_PATH'
p2707
F0.4327589179111625
sS'MEAN_ON_PATH'
p2708
F0.27980219319994859
sg2704
F0.71256111111111109
ssS'OVERHEAD'
p2709
g11
(tRp2710
S'SUCCESS_RATE'
p2711
F0.68056593813980026
sS'QUOTA_USED_FAILURE'
p2712
F1
sS'FAILURE_RATE'
p2713
F0.31943406186019974
sS'QUOTA_USED_SUCCESS'
p2714
F1
sg2704
F1.6195256640314668
sS'NUM_SUCCESS_FIRST_TIME'
p2715
F0.66721153443145143
ssS'LATENCY'
p2716
g11
(tRp2717
g2704
F32.093036111111111
sstp2718
a(g11
(tRp2719
S'workload'
p2720
g11
(tRp2721
S'n_contents'
p2722
I10000
sS'name'
p2723
S'STATIONARY'
p2724
sS'n_warmup'
p2725
I720000
sS'rate'
p2726
I100
sS'n_measured'
p2727
I360000
sS'alpha'
p2728
F0.69999999999999996
ssS'cache_policy'
p2729
g11
(tRp2730
g2723
S'LRU'
p2731
ssS'desc'
p2732
S'quota_increment: 0.5'
p2733
sS'strategy'
p2734
g11
(tRp2735
S'extra_quota'
p2736
I2
sS'p'
F0.25
sS'quota_increment'
p2737
F0.5
sg2723
S'LIRA_DFIB_OPH'
p2738
sS'fan_out'
p2739
I2
ssS'content_placement'
p2740
g11
(tRp2741
g2723
S'UNIFORM'
p2742
ssS'joint_cache_rsn_placement'
p2743
g11
(tRp2744
S'network_cache'
p2745
F0.94999999999999996
sS'network_rsn'
p2746
F121.59999999999999
sg2723
S'CACHE_ALL_RSN_ALL'
p2747
sS'rsn_cache_ratio'
p2748
I128
ssS'warmup_strategy'
p2749
g11
(tRp2750
g2736
I1000000
sS'p'
F0.25
sg2723
g2738
sg2739
I10
ssS'topology'
p2751
g11
(tRp2752
S'ext_delay'
p2753
I0
sS'source_ratio'
p2754
F0.10000000000000001
sg2723
S'ROCKET_FUEL'
p2755
sS'asn'
p2756
I3257
ssg11
(tRp2757
S'SAT_RATE'
p2758
g11
(tRp2759
S'MEAN_CACHE_HIT'
p2760
F0.71413333333333329
sS'MEAN_SERVER_HIT'
p2761
F0.46107222222222222
sS'MEAN_SERVER_CACHE_HITS'
p2762
F0.20052777777777778
sS'MEAN'
p2763
F0.97467777777777775
ssS'CACHE_HIT_RATIO'
p2764
g11
(tRp2765
S'MEAN_OFF_PATH'
p2766
F0.45956972066352458
sS'MEAN_ON_PATH'
p2767
F0.2545636126698087
sg2763
F0.71413333333333329
ssS'OVERHEAD'
p2768
g11
(tRp2769
S'SUCCESS_RATE'
p2770
F0.67988301787592009
sS'QUOTA_USED_FAILURE'
p2771
F1.9226651387381017
sS'FAILURE_RATE'
p2772
F0.32011698212407991
sS'QUOTA_USED_SUCCESS'
p2773
F7.3504110973333407
sg2763
F1.3815192485265786
sS'NUM_SUCCESS_FIRST_TIME'
p2774
F0.67171391422750493
ssS'LATENCY'
p2775
g11
(tRp2776
g2763
F27.839008333333332
sstp2777
a(g11
(tRp2778
S'workload'
p2779
g11
(tRp2780
S'n_contents'
p2781
I10000
sS'name'
p2782
S'STATIONARY'
p2783
sS'n_warmup'
p2784
I720000
sS'rate'
p2785
I100
sS'n_measured'
p2786
I360000
sS'alpha'
p2787
F0.69999999999999996
ssS'cache_policy'
p2788
g11
(tRp2789
g2782
S'LRU'
p2790
ssS'desc'
p2791
S'quota_increment: 1.0'
p2792
sS'strategy'
p2793
g11
(tRp2794
S'extra_quota'
p2795
I2
sS'p'
F0.25
sS'quota_increment'
p2796
F1
sg2782
S'LIRA_DFIB_OPH'
p2797
sS'fan_out'
p2798
I2
ssS'content_placement'
p2799
g11
(tRp2800
g2782
S'UNIFORM'
p2801
ssS'joint_cache_rsn_placement'
p2802
g11
(tRp2803
S'network_cache'
p2804
F0.94999999999999996
sS'network_rsn'
p2805
F121.59999999999999
sg2782
S'CACHE_ALL_RSN_ALL'
p2806
sS'rsn_cache_ratio'
p2807
I128
ssS'warmup_strategy'
p2808
g11
(tRp2809
g2795
I1000000
sS'p'
F0.25
sg2782
g2797
sg2798
I10
ssS'topology'
p2810
g11
(tRp2811
S'ext_delay'
p2812
I0
sS'source_ratio'
p2813
F0.10000000000000001
sg2782
S'ROCKET_FUEL'
p2814
sS'asn'
p2815
I3257
ssg11
(tRp2816
S'SAT_RATE'
p2817
g11
(tRp2818
S'MEAN_CACHE_HIT'
p2819
F0.7205611111111111
sS'MEAN_SERVER_HIT'
p2820
F0.37961388888888886
sS'MEAN_SERVER_CACHE_HITS'
p2821
F0.14748055555555556
sS'MEAN'
p2822
F0.9526944444444444
ssS'CACHE_HIT_RATIO'
p2823
g11
(tRp2824
S'MEAN_OFF_PATH'
p2825
F0.49669623267005503
sS'MEAN_ON_PATH'
p2826
F0.22386487844105607
sg2822
F0.7205611111111111
ssS'OVERHEAD'
p2827
g11
(tRp2828
S'SUCCESS_RATE'
p2829
F0.69895142838904323
sS'QUOTA_USED_FAILURE'
p2830
F2.546948266611309
sS'FAILURE_RATE'
p2831
F0.30104857161095677
sS'QUOTA_USED_SUCCESS'
p2832
F17.177495250300748
sg2822
F1.3166486864740357
sS'NUM_SUCCESS_FIRST_TIME'
p2833
F0.69191017570233959
ssS'LATENCY'
p2834
g11
(tRp2835
g2822
F25.393155555555555
sstp2836
a(g11
(tRp2837
S'workload'
p2838
g11
(tRp2839
S'n_contents'
p2840
I10000
sS'name'
p2841
S'STATIONARY'
p2842
sS'n_warmup'
p2843
I720000
sS'rate'
p2844
I100
sS'n_measured'
p2845
I360000
sS'alpha'
p2846
F0.69999999999999996
ssS'cache_policy'
p2847
g11
(tRp2848
g2841
S'LRU'
p2849
ssS'desc'
p2850
S'caching probability: 1.0'
p2851
sS'strategy'
p2852
g11
(tRp2853
S'extra_quota'
p2854
I4
sS'fan_out'
p2855
I2
sg2841
S'LIRA_DFIB_SC'
p2856
sS'p'
F0.25
ssS'content_placement'
p2857
g11
(tRp2858
g2841
S'UNIFORM'
p2859
ssS'joint_cache_rsn_placement'
p2860
g11
(tRp2861
S'network_cache'
p2862
F0.94999999999999996
sS'network_rsn'
p2863
F121.59999999999999
sg2841
S'CACHE_ALL_RSN_ALL'
p2864
sS'rsn_cache_ratio'
p2865
I128
ssS'warmup_strategy'
p2866
g11
(tRp2867
g2854
I1000000
sS'p'
F0.25
sg2841
g2856
sg2855
I10
ssS'topology'
p2868
g11
(tRp2869
S'ext_delay'
p2870
I0
sS'source_ratio'
p2871
F0.10000000000000001
sg2841
S'ROCKET_FUEL'
p2872
sS'asn'
p2873
I3257
ssg11
(tRp2874
S'SAT_RATE'
p2875
g11
(tRp2876
S'MEAN_CACHE_HIT'
p2877
F0.7119361111111111
sS'MEAN_SERVER_HIT'
p2878
F0.59436388888888891
sS'MEAN_SERVER_CACHE_HITS'
p2879
F0.30630000000000002
sS'MEAN'
p2880
F1
ssS'CACHE_HIT_RATIO'
p2881
g11
(tRp2882
S'MEAN_OFF_PATH'
p2883
F0.41946081808670799
sS'MEAN_ON_PATH'
p2884
F0.29247529302440312
sg2880
F0.7119361111111111
ssS'OVERHEAD'
p2885
g11
(tRp2886
S'SUCCESS_RATE'
p2887
F0.67350173476774078
sS'QUOTA_USED_FAILURE'
p2888
F1
sS'FAILURE_RATE'
p2889
F0.32649826523225917
sS'QUOTA_USED_SUCCESS'
p2890
F1
sg2880
F1.5996027777777777
sS'NUM_SUCCESS_FIRST_TIME'
p2891
F0.65962811946851607
ssS'LATENCY'
p2892
g11
(tRp2893
g2880
F31.843755555555557
sstp2894
a(g11
(tRp2895
S'workload'
p2896
g11
(tRp2897
S'n_contents'
p2898
I10000
sS'name'
p2899
S'STATIONARY'
p2900
sS'n_warmup'
p2901
I720000
sS'rate'
p2902
I100
sS'n_measured'
p2903
I360000
sS'alpha'
p2904
F0.69999999999999996
ssS'cache_policy'
p2905
g11
(tRp2906
g2899
S'LRU'
p2907
ssS'desc'
p2908
S'caching probability: 1.0'
p2909
sS'strategy'
p2910
g11
(tRp2911
S'extra_quota'
p2912
I2
sS'fan_out'
p2913
I2
sg2899
S'LIRA_DFIB_SC'
p2914
sS'p'
F0.25
ssS'content_placement'
p2915
g11
(tRp2916
g2899
S'UNIFORM'
p2917
ssS'joint_cache_rsn_placement'
p2918
g11
(tRp2919
S'network_cache'
p2920
F0.94999999999999996
sS'network_rsn'
p2921
F121.59999999999999
sg2899
S'CACHE_ALL_RSN_ALL'
p2922
sS'rsn_cache_ratio'
p2923
I128
ssS'warmup_strategy'
p2924
g11
(tRp2925
g2912
I1000000
sS'p'
F0.25
sg2899
g2914
sg2913
I10
ssS'topology'
p2926
g11
(tRp2927
S'ext_delay'
p2928
I0
sS'source_ratio'
p2929
F0.10000000000000001
sg2899
S'ROCKET_FUEL'
p2930
sS'asn'
p2931
I3257
ssg11
(tRp2932
S'SAT_RATE'
p2933
g11
(tRp2934
S'MEAN_CACHE_HIT'
p2935
F0.71044722222222223
sS'MEAN_SERVER_HIT'
p2936
F0.59595555555555557
sS'MEAN_SERVER_CACHE_HITS'
p2937
F0.30655555555555558
sS'MEAN'
p2938
F0.99984722222222222
ssS'CACHE_HIT_RATIO'
p2939
g11
(tRp2940
S'MEAN_OFF_PATH'
p2941
F0.44167933575020463
sS'MEAN_ON_PATH'
p2942
F0.2687678864720176
sg2938
F0.71044722222222223
ssS'OVERHEAD'
p2943
g11
(tRp2944
S'SUCCESS_RATE'
p2945
F0.6809863265596221
sS'QUOTA_USED_FAILURE'
p2946
F1
sS'FAILURE_RATE'
p2947
F0.31901367344037795
sS'QUOTA_USED_SUCCESS'
p2948
F1
sg2938
F1.6243426078984289
sS'NUM_SUCCESS_FIRST_TIME'
p2949
F0.66940105451062626
ssS'LATENCY'
p2950
g11
(tRp2951
g2938
F31.698897222222222
sstp2952
a(g11
(tRp2953
S'workload'
p2954
g11
(tRp2955
S'n_contents'
p2956
I10000
sS'name'
p2957
S'STATIONARY'
p2958
sS'n_warmup'
p2959
I720000
sS'rate'
p2960
I100
sS'n_measured'
p2961
I360000
sS'alpha'
p2962
F0.69999999999999996
ssS'cache_policy'
p2963
g11
(tRp2964
g2957
S'LRU'
p2965
ssS'desc'
p2966
S'quota_increment: 2.0'
p2967
sS'strategy'
p2968
g11
(tRp2969
S'extra_quota'
p2970
I2
sS'p'
F0.25
sS'quota_increment'
p2971
F2
sg2957
S'LIRA_DFIB_OPH'
p2972
sS'fan_out'
p2973
I2
ssS'content_placement'
p2974
g11
(tRp2975
g2957
S'UNIFORM'
p2976
ssS'joint_cache_rsn_placement'
p2977
g11
(tRp2978
S'network_cache'
p2979
F0.94999999999999996
sS'network_rsn'
p2980
F121.59999999999999
sg2957
S'CACHE_ALL_RSN_ALL'
p2981
sS'rsn_cache_ratio'
p2982
I128
ssS'warmup_strategy'
p2983
g11
(tRp2984
g2970
I1000000
sS'p'
F0.25
sg2957
g2972
sg2973
I10
ssS'topology'
p2985
g11
(tRp2986
S'ext_delay'
p2987
I0
sS'source_ratio'
p2988
F0.10000000000000001
sg2957
S'ROCKET_FUEL'
p2989
sS'asn'
p2990
I3257
ssg11
(tRp2991
S'SAT_RATE'
p2992
g11
(tRp2993
S'MEAN_CACHE_HIT'
p2994
F0.72028055555555559
sS'MEAN_SERVER_HIT'
p2995
F0.29718055555555556
sS'MEAN_SERVER_CACHE_HITS'
p2996
F0.094794444444444445
sS'MEAN'
p2997
F0.92266666666666663
ssS'CACHE_HIT_RATIO'
p2998
g11
(tRp2999
S'MEAN_OFF_PATH'
p3000
F0.55209317309424877
sS'MEAN_ON_PATH'
p3001
F0.16818738246130682
sg2997
F0.72028055555555559
ssS'OVERHEAD'
p3002
g11
(tRp3003
S'SUCCESS_RATE'
p3004
F0.72275526906397125
sS'QUOTA_USED_FAILURE'
p3005
F4.0799430372217493
sS'FAILURE_RATE'
p3006
F0.27724473093602875
sS'QUOTA_USED_SUCCESS'
p3007
F22.715622289719345
sg2997
F1.2580954961464355
sS'NUM_SUCCESS_FIRST_TIME'
p3008
F0.71767528380939138
ssS'LATENCY'
p3009
g11
(tRp3010
g2997
F24.191638888888889
sstp3011
a(g11
(tRp3012
S'workload'
p3013
g11
(tRp3014
S'n_contents'
p3015
I10000
sS'name'
p3016
S'STATIONARY'
p3017
sS'n_warmup'
p3018
I720000
sS'rate'
p3019
I100
sS'n_measured'
p3020
I360000
sS'alpha'
p3021
F0.69999999999999996
ssS'cache_policy'
p3022
g11
(tRp3023
g3016
S'LRU'
p3024
ssS'desc'
p3025
S'quota_increment: 2.25'
p3026
sS'strategy'
p3027
g11
(tRp3028
S'extra_quota'
p3029
I2
sS'p'
F0.25
sS'quota_increment'
p3030
F2.25
sg3016
S'LIRA_DFIB_OPH'
p3031
sS'fan_out'
p3032
I2
ssS'content_placement'
p3033
g11
(tRp3034
g3016
S'UNIFORM'
p3035
ssS'joint_cache_rsn_placement'
p3036
g11
(tRp3037
S'network_cache'
p3038
F0.94999999999999996
sS'network_rsn'
p3039
F121.59999999999999
sg3016
S'CACHE_ALL_RSN_ALL'
p3040
sS'rsn_cache_ratio'
p3041
I128
ssS'warmup_strategy'
p3042
g11
(tRp3043
g3029
I1000000
sS'p'
F0.25
sg3016
g3031
sg3032
I10
ssS'topology'
p3044
g11
(tRp3045
S'ext_delay'
p3046
I0
sS'source_ratio'
p3047
F0.10000000000000001
sg3016
S'ROCKET_FUEL'
p3048
sS'asn'
p3049
I3257
ssg11
(tRp3050
S'SAT_RATE'
p3051
g11
(tRp3052
S'MEAN_CACHE_HIT'
p3053
F0.72387222222222225
sS'MEAN_SERVER_HIT'
p3054
F0.28944999999999999
sS'MEAN_SERVER_CACHE_HITS'
p3055
F0.091611111111111115
sS'MEAN'
p3056
F0.92171111111111115
ssS'CACHE_HIT_RATIO'
p3057
g11
(tRp3058
S'MEAN_OFF_PATH'
p3059
F0.55738823890612832
sS'MEAN_ON_PATH'
p3060
F0.16648398331609393
sg3056
F0.72387222222222225
ssS'OVERHEAD'
p3061
g11
(tRp3062
S'SUCCESS_RATE'
p3063
F0.72615647619887524
sS'QUOTA_USED_FAILURE'
p3064
F4.4243789787676544
sS'FAILURE_RATE'
p3065
F0.27384352380112476
sS'QUOTA_USED_SUCCESS'
p3066
F24.20469981011172
sg3056
F1.246681895990549
sS'NUM_SUCCESS_FIRST_TIME'
p3067
F0.72053393126160525
ssS'LATENCY'
p3068
g11
(tRp3069
g3056
F23.14533888888889
sstp3070
a(g11
(tRp3071
S'workload'
p3072
g11
(tRp3073
S'n_contents'
p3074
I10000
sS'name'
p3075
S'STATIONARY'
p3076
sS'n_warmup'
p3077
I720000
sS'rate'
p3078
I100
sS'n_measured'
p3079
I360000
sS'alpha'
p3080
F0.69999999999999996
ssS'cache_policy'
p3081
g11
(tRp3082
g3075
S'LRU'
p3083
ssS'desc'
p3084
S'quota_increment: 3.0'
p3085
sS'strategy'
p3086
g11
(tRp3087
S'extra_quota'
p3088
I2
sS'p'
F0.25
sS'quota_increment'
p3089
F3
sg3075
S'LIRA_DFIB_OPH'
p3090
sS'fan_out'
p3091
I2
ssS'content_placement'
p3092
g11
(tRp3093
g3075
S'UNIFORM'
p3094
ssS'joint_cache_rsn_placement'
p3095
g11
(tRp3096
S'network_cache'
p3097
F0.94999999999999996
sS'network_rsn'
p3098
F121.59999999999999
sg3075
S'CACHE_ALL_RSN_ALL'
p3099
sS'rsn_cache_ratio'
p3100
I128
ssS'warmup_strategy'
p3101
g11
(tRp3102
g3088
I1000000
sS'p'
F0.25
sg3075
g3090
sg3091
I10
ssS'topology'
p3103
g11
(tRp3104
S'ext_delay'
p3105
I0
sS'source_ratio'
p3106
F0.10000000000000001
sg3075
S'ROCKET_FUEL'
p3107
sS'asn'
p3108
I3257
ssg11
(tRp3109
S'SAT_RATE'
p3110
g11
(tRp3111
S'MEAN_CACHE_HIT'
p3112
F0.7209416666666667
sS'MEAN_SERVER_HIT'
p3113
F0.28225
sS'MEAN_SERVER_CACHE_HITS'
p3114
F0.085222222222222227
sS'MEAN'
p3115
F0.91796944444444439
ssS'CACHE_HIT_RATIO'
p3116
g11
(tRp3117
S'MEAN_OFF_PATH'
p3118
F0.55638808358876812
sS'MEAN_ON_PATH'
p3119
F0.16455358307789858
sg3115
F0.7209416666666667
ssS'OVERHEAD'
p3120
g11
(tRp3121
S'SUCCESS_RATE'
p3122
F0.72469530524129644
sS'QUOTA_USED_FAILURE'
p3123
F5.4876012361747657
sS'FAILURE_RATE'
p3124
F0.27530469475870362
sS'QUOTA_USED_SUCCESS'
p3125
F28.426900413627202
sg3115
F1.2356469139314126
sS'NUM_SUCCESS_FIRST_TIME'
p3126
F0.7200827241381732
ssS'LATENCY'
p3127
g11
(tRp3128
g3115
F22.705016666666666
sstp3129
a(g11
(tRp3130
S'workload'
p3131
g11
(tRp3132
S'n_contents'
p3133
I10000
sS'name'
p3134
S'STATIONARY'
p3135
sS'n_warmup'
p3136
I720000
sS'rate'
p3137
I100
sS'n_measured'
p3138
I360000
sS'alpha'
p3139
F0.69999999999999996
ssS'cache_policy'
p3140
g11
(tRp3141
g3134
S'LRU'
p3142
ssS'desc'
p3143
S'quota_increment: 2.75'
p3144
sS'strategy'
p3145
g11
(tRp3146
S'extra_quota'
p3147
I2
sS'p'
F0.25
sS'quota_increment'
p3148
F2.75
sg3134
S'LIRA_DFIB_OPH'
p3149
sS'fan_out'
p3150
I2
ssS'content_placement'
p3151
g11
(tRp3152
g3134
S'UNIFORM'
p3153
ssS'joint_cache_rsn_placement'
p3154
g11
(tRp3155
S'network_cache'
p3156
F0.94999999999999996
sS'network_rsn'
p3157
F121.59999999999999
sg3134
S'CACHE_ALL_RSN_ALL'
p3158
sS'rsn_cache_ratio'
p3159
I128
ssS'warmup_strategy'
p3160
g11
(tRp3161
g3147
I1000000
sS'p'
F0.25
sg3134
g3149
sg3150
I10
ssS'topology'
p3162
g11
(tRp3163
S'ext_delay'
p3164
I0
sS'source_ratio'
p3165
F0.10000000000000001
sg3134
S'ROCKET_FUEL'
p3166
sS'asn'
p3167
I3257
ssg11
(tRp3168
S'SAT_RATE'
p3169
g11
(tRp3170
S'MEAN_CACHE_HIT'
p3171
F0.72264444444444442
sS'MEAN_SERVER_HIT'
p3172
F0.28447777777777777
sS'MEAN_SERVER_CACHE_HITS'
p3173
F0.08748333333333333
sS'MEAN'
p3174
F0.91963888888888889
ssS'CACHE_HIT_RATIO'
p3175
g11
(tRp3176
S'MEAN_OFF_PATH'
p3177
F0.56886508313015083
sS'MEAN_ON_PATH'
p3178
F0.15377936131429359
sg3174
F0.72264444444444442
ssS'OVERHEAD'
p3179
g11
(tRp3180
S'SUCCESS_RATE'
p3181
F0.7282235725588504
sS'QUOTA_USED_FAILURE'
p3182
F5.0385068691643218
sS'FAILURE_RATE'
p3183
F0.2717764274411496
sS'QUOTA_USED_SUCCESS'
p3184
F39.034988508599099
sg3174
F1.2599299241852175
sS'NUM_SUCCESS_FIRST_TIME'
p3185
F0.72393031668244701
ssS'LATENCY'
p3186
g11
(tRp3187
g3174
F23.197649999999999
sstp3188
a(g11
(tRp3189
S'workload'
p3190
g11
(tRp3191
S'n_contents'
p3192
I10000
sS'name'
p3193
S'STATIONARY'
p3194
sS'n_warmup'
p3195
I720000
sS'rate'
p3196
I100
sS'n_measured'
p3197
I360000
sS'alpha'
p3198
F0.69999999999999996
ssS'cache_policy'
p3199
g11
(tRp3200
g3193
S'LRU'
p3201
ssS'desc'
p3202
S'quota_increment: 2.5'
p3203
sS'strategy'
p3204
g11
(tRp3205
S'extra_quota'
p3206
I2
sS'p'
F0.25
sS'quota_increment'
p3207
F2.5
sg3193
S'LIRA_DFIB_OPH'
p3208
sS'fan_out'
p3209
I2
ssS'content_placement'
p3210
g11
(tRp3211
g3193
S'UNIFORM'
p3212
ssS'joint_cache_rsn_placement'
p3213
g11
(tRp3214
S'network_cache'
p3215
F0.94999999999999996
sS'network_rsn'
p3216
F121.59999999999999
sg3193
S'CACHE_ALL_RSN_ALL'
p3217
sS'rsn_cache_ratio'
p3218
I128
ssS'warmup_strategy'
p3219
g11
(tRp3220
g3206
I1000000
sS'p'
F0.25
sg3193
g3208
sg3209
I10
ssS'topology'
p3221
g11
(tRp3222
S'ext_delay'
p3223
I0
sS'source_ratio'
p3224
F0.10000000000000001
sg3193
S'ROCKET_FUEL'
p3225
sS'asn'
p3226
I3257
ssg11
(tRp3227
S'SAT_RATE'
p3228
g11
(tRp3229
S'MEAN_CACHE_HIT'
p3230
F0.72351944444444449
sS'MEAN_SERVER_HIT'
p3231
F0.28249722222222223
sS'MEAN_SERVER_CACHE_HITS'
p3232
F0.087083333333333332
sS'MEAN'
p3233
F0.91893333333333338
ssS'CACHE_HIT_RATIO'
p3234
g11
(tRp3235
S'MEAN_OFF_PATH'
p3236
F0.56105487538863397
sS'MEAN_ON_PATH'
p3237
F0.16246456905581053
sg3233
F0.72351944444444449
ssS'OVERHEAD'
p3238
g11
(tRp3239
S'SUCCESS_RATE'
p3240
F0.72776945418058836
sS'QUOTA_USED_FAILURE'
p3241
F4.8441090494517889
sS'FAILURE_RATE'
p3242
F0.2722305458194117
sS'QUOTA_USED_SUCCESS'
p3243
F25.093790487697991
sg3233
F1.2387369413813116
sS'NUM_SUCCESS_FIRST_TIME'
p3244
F0.72251281257039879
ssS'LATENCY'
p3245
g11
(tRp3246
g3233
F22.791894444444445
sstp3247
atRp3248
sb.