ccopy_reg
_reconstructor
p1
(cicarus.results.readwrite
ResultSet
p2
c__builtin__
object
p3
NtRp4
(dp5
S'attr'
p6
(dp7
sS'_results'
p8
ccollections
deque
p9
((lp10
(cicarus.util
Tree
p11
(tRp12
S'workload'
p13
g11
(tRp14
S'n_contents'
p15
I10000
sS'name'
p16
S'STATIONARY'
p17
sS'n_warmup'
p18
I720000
sS'rate'
p19
I100
sS'n_measured'
p20
I360000
sS'alpha'
p21
F0.69999999999999996
ssS'cache_policy'
p22
g11
(tRp23
g16
S'LRU'
p24
ssS'desc'
p25
S'extra_quota: 1'
p26
sS'strategy'
p27
g11
(tRp28
S'extra_quota'
p29
I1
sS'fan_out'
p30
I1
sg16
S'TFIB_SC'
p31
ssS'content_placement'
p32
g11
(tRp33
g16
S'UNIFORM'
p34
ssS'joint_cache_rsn_placement'
p35
g11
(tRp36
S'network_cache'
p37
F0.29999999999999999
sS'network_rsn'
p38
F38.399999999999999
sg16
S'CACHE_ALL_RSN_ALL'
p39
sS'rsn_cache_ratio'
p40
I128
ssS'warmup_strategy'
p41
g11
(tRp42
g29
I1000000
sg30
I10
sg16
g31
ssS'topology'
p43
g11
(tRp44
S'ext_delay'
p45
I0
sS'source_ratio'
p46
F0.10000000000000001
sg16
S'ROCKET_FUEL'
p47
sS'asn'
p48
I3257
ssg11
(tRp49
S'SAT_RATE'
p50
g11
(tRp51
S'MEAN_CACHE_HIT'
p52
F0.54595833333333332
sS'MEAN_SERVER_HIT'
p53
F0.71337222222222219
sS'MEAN_SERVER_CACHE_HITS'
p54
F0.27191944444444444
sS'MEAN'
p55
F0.98741111111111113
ssS'CACHE_HIT_RATIO'
p56
g11
(tRp57
S'MEAN_OFF_PATH'
p58
F0.26894139081831397
sS'MEAN_ON_PATH'
p59
F0.27701694251501935
sg55
F0.54595833333333332
ssS'OVERHEAD'
p60
g11
(tRp61
S'INTEREST_HOPS'
p62
F6.5763022269233797
sS'SUCCESS_RATE'
p63
F0.54325941302550085
sS'QUOTA_USED_FAILURE'
p64
F1
sS'FAILURE_RATE'
p65
F0.45674058697449921
sS'QUOTA_USED_SUCCESS'
p66
F1
sS'NUM_SUCCESS_FIRST_TIME'
p67
F0.54332161920526867
sg55
F1.3465403355576311
ssS'LATENCY'
p68
g11
(tRp69
g55
F51.077541666666669
sstp70
a(g11
(tRp71
S'workload'
p72
g11
(tRp73
S'n_contents'
p74
I10000
sS'name'
p75
S'STATIONARY'
p76
sS'n_warmup'
p77
I720000
sS'rate'
p78
I100
sS'n_measured'
p79
I360000
sS'alpha'
p80
F0.69999999999999996
ssS'cache_policy'
p81
g11
(tRp82
g75
S'LRU'
p83
ssS'desc'
p84
S'extra_quota: 2'
p85
sS'strategy'
p86
g11
(tRp87
S'extra_quota'
p88
I2
sS'fan_out'
p89
I1
sg75
S'TFIB_SC'
p90
ssS'content_placement'
p91
g11
(tRp92
g75
S'UNIFORM'
p93
ssS'joint_cache_rsn_placement'
p94
g11
(tRp95
S'network_cache'
p96
F0.29999999999999999
sS'network_rsn'
p97
F38.399999999999999
sg75
S'CACHE_ALL_RSN_ALL'
p98
sS'rsn_cache_ratio'
p99
I128
ssS'warmup_strategy'
p100
g11
(tRp101
g88
I1000000
sg89
I10
sg75
g90
ssS'topology'
p102
g11
(tRp103
S'ext_delay'
p104
I0
sS'source_ratio'
p105
F0.10000000000000001
sg75
S'ROCKET_FUEL'
p106
sS'asn'
p107
I3257
ssg11
(tRp108
S'SAT_RATE'
p109
g11
(tRp110
S'MEAN_CACHE_HIT'
p111
F0.54776111111111114
sS'MEAN_SERVER_HIT'
p112
F0.74966388888888891
sS'MEAN_SERVER_CACHE_HITS'
p113
F0.29762222222222223
sS'MEAN'
p114
F0.99980277777777782
ssS'CACHE_HIT_RATIO'
p115
g11
(tRp116
S'MEAN_OFF_PATH'
p117
F0.25343789942899719
sS'MEAN_ON_PATH'
p118
F0.29432321168211395
sg114
F0.54776111111111114
ssS'OVERHEAD'
p119
g11
(tRp120
S'INTEREST_HOPS'
p121
F6.6097424769885169
sS'SUCCESS_RATE'
p122
F0.53381683538283853
sS'QUOTA_USED_FAILURE'
p123
F1
sS'FAILURE_RATE'
p124
F0.46618316461716147
sS'QUOTA_USED_SUCCESS'
p125
F1
sS'NUM_SUCCESS_FIRST_TIME'
p126
F0.53263145675109724
sg114
F1.3488410214236697
ssS'LATENCY'
p127
g11
(tRp128
g114
F52.151516666666666
sstp129
a(g11
(tRp130
S'workload'
p131
g11
(tRp132
S'n_contents'
p133
I10000
sS'name'
p134
S'STATIONARY'
p135
sS'n_warmup'
p136
I720000
sS'rate'
p137
I100
sS'n_measured'
p138
I360000
sS'alpha'
p139
F0.69999999999999996
ssS'cache_policy'
p140
g11
(tRp141
g134
S'LRU'
p142
ssS'desc'
p143
S'extra_quota: 4'
p144
sS'strategy'
p145
g11
(tRp146
S'extra_quota'
p147
I4
sS'fan_out'
p148
I1
sg134
S'TFIB_SC'
p149
ssS'content_placement'
p150
g11
(tRp151
g134
S'UNIFORM'
p152
ssS'joint_cache_rsn_placement'
p153
g11
(tRp154
S'network_cache'
p155
F0.29999999999999999
sS'network_rsn'
p156
F38.399999999999999
sg134
S'CACHE_ALL_RSN_ALL'
p157
sS'rsn_cache_ratio'
p158
I128
ssS'warmup_strategy'
p159
g11
(tRp160
g147
I1000000
sg148
I10
sg134
g149
ssS'topology'
p161
g11
(tRp162
S'ext_delay'
p163
I0
sS'source_ratio'
p164
F0.10000000000000001
sg134
S'ROCKET_FUEL'
p165
sS'asn'
p166
I3257
ssg11
(tRp167
S'SAT_RATE'
p168
g11
(tRp169
S'MEAN_CACHE_HIT'
p170
F0.54702222222222219
sS'MEAN_SERVER_HIT'
p171
F0.74788888888888894
sS'MEAN_SERVER_CACHE_HITS'
p172
F0.29491111111111112
sS'MEAN'
p173
F1
ssS'CACHE_HIT_RATIO'
p174
g11
(tRp175
S'MEAN_OFF_PATH'
p176
F0.26939644076813507
sS'MEAN_ON_PATH'
p177
F0.27762578145408712
sg173
F0.54702222222222219
ssS'OVERHEAD'
p178
g11
(tRp179
S'INTEREST_HOPS'
p180
F6.6057916666666667
sS'SUCCESS_RATE'
p181
F0.54524732446106561
sS'QUOTA_USED_FAILURE'
p182
F1
sS'FAILURE_RATE'
p183
F0.45475267553893439
sS'QUOTA_USED_SUCCESS'
p184
F1
sS'NUM_SUCCESS_FIRST_TIME'
p185
F0.5442747958855394
sg173
F1.3661138888888888
ssS'LATENCY'
p186
g11
(tRp187
g173
F52.06494166666667
sstp188
a(g11
(tRp189
S'workload'
p190
g11
(tRp191
S'n_contents'
p192
I10000
sS'name'
p193
S'STATIONARY'
p194
sS'n_warmup'
p195
I720000
sS'rate'
p196
I100
sS'n_measured'
p197
I360000
sS'alpha'
p198
F0.69999999999999996
ssS'cache_policy'
p199
g11
(tRp200
g193
S'LRU'
p201
ssS'desc'
p202
S'extra_quota: 3'
p203
sS'strategy'
p204
g11
(tRp205
S'extra_quota'
p206
I3
sS'fan_out'
p207
I1
sg193
S'TFIB_SC'
p208
ssS'content_placement'
p209
g11
(tRp210
g193
S'UNIFORM'
p211
ssS'joint_cache_rsn_placement'
p212
g11
(tRp213
S'network_cache'
p214
F0.29999999999999999
sS'network_rsn'
p215
F38.399999999999999
sg193
S'CACHE_ALL_RSN_ALL'
p216
sS'rsn_cache_ratio'
p217
I128
ssS'warmup_strategy'
p218
g11
(tRp219
g206
I1000000
sg207
I10
sg193
g208
ssS'topology'
p220
g11
(tRp221
S'ext_delay'
p222
I0
sS'source_ratio'
p223
F0.10000000000000001
sg193
S'ROCKET_FUEL'
p224
sS'asn'
p225
I3257
ssg11
(tRp226
S'SAT_RATE'
p227
g11
(tRp228
S'MEAN_CACHE_HIT'
p229
F0.54346388888888886
sS'MEAN_SERVER_HIT'
p230
F0.74970000000000003
sS'MEAN_SERVER_CACHE_HITS'
p231
F0.29316666666666669
sS'MEAN'
p232
F0.9999972222222222
ssS'CACHE_HIT_RATIO'
p233
g11
(tRp234
S'MEAN_OFF_PATH'
p235
F0.26182124376260635
sS'MEAN_ON_PATH'
p236
F0.28164264512628251
sg232
F0.54346388888888886
ssS'OVERHEAD'
p237
g11
(tRp238
S'INTEREST_HOPS'
p239
F6.6177989383303846
sS'SUCCESS_RATE'
p240
F0.53955092824887108
sS'QUOTA_USED_FAILURE'
p241
F1
sS'FAILURE_RATE'
p242
F0.46044907175112892
sS'QUOTA_USED_SUCCESS'
p243
F1
sS'NUM_SUCCESS_FIRST_TIME'
p244
F0.53847778359519027
sg232
F1.3584259956277656
ssS'LATENCY'
p245
g11
(tRp246
g232
F52.1738
sstp247
a(g11
(tRp248
S'workload'
p249
g11
(tRp250
S'n_contents'
p251
I10000
sS'name'
p252
S'STATIONARY'
p253
sS'n_warmup'
p254
I720000
sS'rate'
p255
I100
sS'n_measured'
p256
I360000
sS'alpha'
p257
F0.69999999999999996
ssS'cache_policy'
p258
g11
(tRp259
g252
S'LRU'
p260
ssS'desc'
p261
S'quota_increment: 2.75'
p262
sS'strategy'
p263
g11
(tRp264
S'extra_quota'
p265
I2
sS'fan_out'
p266
I1
sg252
S'TFIB_DC'
p267
sS'quota_increment'
p268
F2.75
ssS'content_placement'
p269
g11
(tRp270
g252
S'UNIFORM'
p271
ssS'joint_cache_rsn_placement'
p272
g11
(tRp273
S'network_cache'
p274
F0.29999999999999999
sS'network_rsn'
p275
F38.399999999999999
sg252
S'CACHE_ALL_RSN_ALL'
p276
sS'rsn_cache_ratio'
p277
I128
ssS'warmup_strategy'
p278
g11
(tRp279
g265
I1000000
sg266
I10
sg252
g267
ssS'topology'
p280
g11
(tRp281
S'ext_delay'
p282
I0
sS'source_ratio'
p283
F0.10000000000000001
sg252
S'ROCKET_FUEL'
p284
sS'asn'
p285
I3257
ssg11
(tRp286
S'SAT_RATE'
p287
g11
(tRp288
S'MEAN_CACHE_HIT'
p289
F0.558975
sS'MEAN_SERVER_HIT'
p290
F0.37136388888888888
sS'MEAN_SERVER_CACHE_HITS'
p291
F0.057133333333333335
sS'MEAN'
p292
F0.87320555555555557
ssS'CACHE_HIT_RATIO'
p293
g11
(tRp294
S'MEAN_OFF_PATH'
p295
F0.37884641797194568
sS'MEAN_ON_PATH'
p296
F0.18012858202805432
sg292
F0.558975
ssS'OVERHEAD'
p297
g11
(tRp298
S'INTEREST_HOPS'
p299
F6.5171081010580432
sS'SUCCESS_RATE'
p300
F0.58921040825482274
sS'QUOTA_USED_FAILURE'
p301
F5.8873402763955882
sS'FAILURE_RATE'
p302
F0.41078959174517721
sS'QUOTA_USED_SUCCESS'
p303
F13.306355550151588
sS'NUM_SUCCESS_FIRST_TIME'
p304
F0.59276129680637235
sg292
F1.103555227546015
ssS'LATENCY'
p305
g11
(tRp306
g292
F38.855502777777779
sstp307
a(g11
(tRp308
S'workload'
p309
g11
(tRp310
S'n_contents'
p311
I10000
sS'name'
p312
S'STATIONARY'
p313
sS'n_warmup'
p314
I720000
sS'rate'
p315
I100
sS'n_measured'
p316
I360000
sS'alpha'
p317
F0.69999999999999996
ssS'cache_policy'
p318
g11
(tRp319
g312
S'LRU'
p320
ssS'desc'
p321
S'quota_increment: 3.0'
p322
sS'strategy'
p323
g11
(tRp324
S'extra_quota'
p325
I2
sS'fan_out'
p326
I1
sg312
S'TFIB_DC'
p327
sS'quota_increment'
p328
F3
ssS'content_placement'
p329
g11
(tRp330
g312
S'UNIFORM'
p331
ssS'joint_cache_rsn_placement'
p332
g11
(tRp333
S'network_cache'
p334
F0.29999999999999999
sS'network_rsn'
p335
F38.399999999999999
sg312
S'CACHE_ALL_RSN_ALL'
p336
sS'rsn_cache_ratio'
p337
I128
ssS'warmup_strategy'
p338
g11
(tRp339
g325
I1000000
sg326
I10
sg312
g327
ssS'topology'
p340
g11
(tRp341
S'ext_delay'
p342
I0
sS'source_ratio'
p343
F0.10000000000000001
sg312
S'ROCKET_FUEL'
p344
sS'asn'
p345
I3257
ssg11
(tRp346
S'SAT_RATE'
p347
g11
(tRp348
S'MEAN_CACHE_HIT'
p349
F0.55827222222222217
sS'MEAN_SERVER_HIT'
p350
F0.36798888888888887
sS'MEAN_SERVER_CACHE_HITS'
p351
F0.054633333333333332
sS'MEAN'
p352
F0.87162777777777778
ssS'CACHE_HIT_RATIO'
p353
g11
(tRp354
S'MEAN_OFF_PATH'
p355
F0.37650470529668262
sS'MEAN_ON_PATH'
p356
F0.18176751692553955
sg352
F0.55827222222222217
ssS'OVERHEAD'
p357
g11
(tRp358
S'INTEREST_HOPS'
p359
F6.5554422440771738
sS'SUCCESS_RATE'
p360
F0.58618503575099734
sS'QUOTA_USED_FAILURE'
p361
F6.302410866084232
sS'FAILURE_RATE'
p362
F0.41381496424900266
sS'QUOTA_USED_SUCCESS'
p363
F13.902159297573073
sS'NUM_SUCCESS_FIRST_TIME'
p364
F0.58966672296346334
sg352
F1.094873576258979
ssS'LATENCY'
p365
g11
(tRp366
g352
F38.868986111111113
sstp367
a(g11
(tRp368
S'workload'
p369
g11
(tRp370
S'n_contents'
p371
I10000
sS'name'
p372
S'STATIONARY'
p373
sS'n_warmup'
p374
I720000
sS'rate'
p375
I100
sS'n_measured'
p376
I360000
sS'alpha'
p377
F0.69999999999999996
ssS'cache_policy'
p378
g11
(tRp379
g372
S'LRU'
p380
ssS'desc'
p381
S'quota_increment: 2.5'
p382
sS'strategy'
p383
g11
(tRp384
S'extra_quota'
p385
I2
sS'fan_out'
p386
I1
sg372
S'TFIB_DC'
p387
sS'quota_increment'
p388
F2.5
ssS'content_placement'
p389
g11
(tRp390
g372
S'UNIFORM'
p391
ssS'joint_cache_rsn_placement'
p392
g11
(tRp393
S'network_cache'
p394
F0.29999999999999999
sS'network_rsn'
p395
F38.399999999999999
sg372
S'CACHE_ALL_RSN_ALL'
p396
sS'rsn_cache_ratio'
p397
I128
ssS'warmup_strategy'
p398
g11
(tRp399
g385
I1000000
sg386
I10
sg372
g387
ssS'topology'
p400
g11
(tRp401
S'ext_delay'
p402
I0
sS'source_ratio'
p403
F0.10000000000000001
sg372
S'ROCKET_FUEL'
p404
sS'asn'
p405
I3257
ssg11
(tRp406
S'SAT_RATE'
p407
g11
(tRp408
S'MEAN_CACHE_HIT'
p409
F0.5547333333333333
sS'MEAN_SERVER_HIT'
p410
F0.37836111111111109
sS'MEAN_SERVER_CACHE_HITS'
p411
F0.059316666666666663
sS'MEAN'
p412
F0.87377777777777776
ssS'CACHE_HIT_RATIO'
p413
g11
(tRp414
S'MEAN_OFF_PATH'
p415
F0.39545836136630208
sS'MEAN_ON_PATH'
p416
F0.15927497196703122
sg412
F0.5547333333333333
ssS'OVERHEAD'
p417
g11
(tRp418
S'INTEREST_HOPS'
p419
F6.563895600203459
sS'SUCCESS_RATE'
p420
F0.59434483538763416
sS'QUOTA_USED_FAILURE'
p421
F5.5973179825777635
sS'FAILURE_RATE'
p422
F0.40565516461236584
sS'QUOTA_USED_SUCCESS'
p423
F14.187194501837173
sS'NUM_SUCCESS_FIRST_TIME'
p424
F0.59816347587872454
sg412
F1.1186895981688707
ssS'LATENCY'
p425
g11
(tRp426
g412
F39.527116666666664
sstp427
a(g11
(tRp428
S'workload'
p429
g11
(tRp430
S'n_contents'
p431
I10000
sS'name'
p432
S'STATIONARY'
p433
sS'n_warmup'
p434
I720000
sS'rate'
p435
I100
sS'n_measured'
p436
I360000
sS'alpha'
p437
F0.69999999999999996
ssS'cache_policy'
p438
g11
(tRp439
g432
S'LRU'
p440
ssS'desc'
p441
S'quota_increment: 1.25'
p442
sS'strategy'
p443
g11
(tRp444
S'extra_quota'
p445
I2
sS'fan_out'
p446
I1
sg432
S'TFIB_DC'
p447
sS'quota_increment'
p448
F1.25
ssS'content_placement'
p449
g11
(tRp450
g432
S'UNIFORM'
p451
ssS'joint_cache_rsn_placement'
p452
g11
(tRp453
S'network_cache'
p454
F0.29999999999999999
sS'network_rsn'
p455
F38.399999999999999
sg432
S'CACHE_ALL_RSN_ALL'
p456
sS'rsn_cache_ratio'
p457
I128
ssS'warmup_strategy'
p458
g11
(tRp459
g445
I1000000
sg446
I10
sg432
g447
ssS'topology'
p460
g11
(tRp461
S'ext_delay'
p462
I0
sS'source_ratio'
p463
F0.10000000000000001
sg432
S'ROCKET_FUEL'
p464
sS'asn'
p465
I3257
ssg11
(tRp466
S'SAT_RATE'
p467
g11
(tRp468
S'MEAN_CACHE_HIT'
p469
F0.55630833333333329
sS'MEAN_SERVER_HIT'
p470
F0.45442222222222223
sS'MEAN_SERVER_CACHE_HITS'
p471
F0.10347777777777778
sS'MEAN'
p472
F0.9072527777777778
ssS'CACHE_HIT_RATIO'
p473
g11
(tRp474
S'MEAN_OFF_PATH'
p475
F0.34185119124505653
sS'MEAN_ON_PATH'
p476
F0.21445714208827676
sg472
F0.55630833333333329
ssS'OVERHEAD'
p477
g11
(tRp478
S'INTEREST_HOPS'
p479
F6.5528962588522734
sS'SUCCESS_RATE'
p480
F0.57300224459467208
sS'QUOTA_USED_FAILURE'
p481
F3.3907830406670967
sS'FAILURE_RATE'
p482
F0.42699775540532792
sS'QUOTA_USED_SUCCESS'
p483
F7.3410904430307671
sS'NUM_SUCCESS_FIRST_TIME'
p484
F0.57554897618071899
sg472
F1.1521810349314627
ssS'LATENCY'
p485
g11
(tRp486
g472
F41.239024999999998
sstp487
a(g11
(tRp488
S'workload'
p489
g11
(tRp490
S'n_contents'
p491
I10000
sS'name'
p492
S'STATIONARY'
p493
sS'n_warmup'
p494
I720000
sS'rate'
p495
I100
sS'n_measured'
p496
I360000
sS'alpha'
p497
F0.69999999999999996
ssS'cache_policy'
p498
g11
(tRp499
g492
S'LRU'
p500
ssS'desc'
p501
S'quota_increment: 1.0'
p502
sS'strategy'
p503
g11
(tRp504
S'extra_quota'
p505
I2
sS'fan_out'
p506
I1
sg492
S'TFIB_DC'
p507
sS'quota_increment'
p508
F1
ssS'content_placement'
p509
g11
(tRp510
g492
S'UNIFORM'
p511
ssS'joint_cache_rsn_placement'
p512
g11
(tRp513
S'network_cache'
p514
F0.29999999999999999
sS'network_rsn'
p515
F38.399999999999999
sg492
S'CACHE_ALL_RSN_ALL'
p516
sS'rsn_cache_ratio'
p517
I128
ssS'warmup_strategy'
p518
g11
(tRp519
g505
I1000000
sg506
I10
sg492
g507
ssS'topology'
p520
g11
(tRp521
S'ext_delay'
p522
I0
sS'source_ratio'
p523
F0.10000000000000001
sg492
S'ROCKET_FUEL'
p524
sS'asn'
p525
I3257
ssg11
(tRp526
S'SAT_RATE'
p527
g11
(tRp528
S'MEAN_CACHE_HIT'
p529
F0.55511111111111111
sS'MEAN_SERVER_HIT'
p530
F0.47230555555555553
sS'MEAN_SERVER_CACHE_HITS'
p531
F0.11440555555555555
sS'MEAN'
p532
F0.91301111111111111
ssS'CACHE_HIT_RATIO'
p533
g11
(tRp534
S'MEAN_OFF_PATH'
p535
F0.3503014572687701
sS'MEAN_ON_PATH'
p536
F0.20480965384234101
sg532
F0.55511111111111111
ssS'OVERHEAD'
p537
g11
(tRp538
S'INTEREST_HOPS'
p539
F6.5494821774105221
sS'SUCCESS_RATE'
p540
F0.57822782423910069
sS'QUOTA_USED_FAILURE'
p541
F3.0443865751875214
sS'FAILURE_RATE'
p542
F0.42177217576089937
sS'QUOTA_USED_SUCCESS'
p543
F7.1701414801142267
sS'NUM_SUCCESS_FIRST_TIME'
p544
F0.58085674119574848
sg532
F1.1789865037543659
ssS'LATENCY'
p545
g11
(tRp546
g532
F42.052752777777776
sstp547
a(g11
(tRp548
S'workload'
p549
g11
(tRp550
S'n_contents'
p551
I10000
sS'name'
p552
S'STATIONARY'
p553
sS'n_warmup'
p554
I720000
sS'rate'
p555
I100
sS'n_measured'
p556
I360000
sS'alpha'
p557
F0.69999999999999996
ssS'cache_policy'
p558
g11
(tRp559
g552
S'LRU'
p560
ssS'desc'
p561
S'quota_increment: 2.0'
p562
sS'strategy'
p563
g11
(tRp564
S'extra_quota'
p565
I2
sS'fan_out'
p566
I1
sg552
S'TFIB_DC'
p567
sS'quota_increment'
p568
F2
ssS'content_placement'
p569
g11
(tRp570
g552
S'UNIFORM'
p571
ssS'joint_cache_rsn_placement'
p572
g11
(tRp573
S'network_cache'
p574
F0.29999999999999999
sS'network_rsn'
p575
F38.399999999999999
sg552
S'CACHE_ALL_RSN_ALL'
p576
sS'rsn_cache_ratio'
p577
I128
ssS'warmup_strategy'
p578
g11
(tRp579
g565
I1000000
sg566
I10
sg552
g567
ssS'topology'
p580
g11
(tRp581
S'ext_delay'
p582
I0
sS'source_ratio'
p583
F0.10000000000000001
sg552
S'ROCKET_FUEL'
p584
sS'asn'
p585
I3257
ssg11
(tRp586
S'SAT_RATE'
p587
g11
(tRp588
S'MEAN_CACHE_HIT'
p589
F0.55632222222222227
sS'MEAN_SERVER_HIT'
p590
F0.38882777777777777
sS'MEAN_SERVER_CACHE_HITS'
p591
F0.065591666666666673
sS'MEAN'
p592
F0.87955833333333333
ssS'CACHE_HIT_RATIO'
p593
g11
(tRp594
S'MEAN_OFF_PATH'
p595
F0.381814761913159
sS'MEAN_ON_PATH'
p596
F0.17450746030906328
sg592
F0.55632222222222227
ssS'OVERHEAD'
p597
g11
(tRp598
S'INTEREST_HOPS'
p599
F6.5713505199895152
sS'SUCCESS_RATE'
p600
F0.5925899859682151
sS'QUOTA_USED_FAILURE'
p601
F4.762598803475961
sS'FAILURE_RATE'
p602
F0.40741001403178484
sS'QUOTA_USED_SUCCESS'
p603
F13.603454324214745
sS'NUM_SUCCESS_FIRST_TIME'
p604
F0.59598961285957242
sg592
F1.1267681696305911
ssS'LATENCY'
p605
g11
(tRp606
g592
F39.493194444444441
sstp607
a(g11
(tRp608
S'workload'
p609
g11
(tRp610
S'n_contents'
p611
I10000
sS'name'
p612
S'STATIONARY'
p613
sS'n_warmup'
p614
I720000
sS'rate'
p615
I100
sS'n_measured'
p616
I360000
sS'alpha'
p617
F0.69999999999999996
ssS'cache_policy'
p618
g11
(tRp619
g612
S'LRU'
p620
ssS'desc'
p621
S'extra_quota: 1'
p622
sS'strategy'
p623
g11
(tRp624
S'extra_quota'
p625
I1
sS'fan_out'
p626
I1
sg612
S'TFIB_DC'
p627
ssS'content_placement'
p628
g11
(tRp629
g612
S'UNIFORM'
p630
ssS'joint_cache_rsn_placement'
p631
g11
(tRp632
S'network_cache'
p633
F0.29999999999999999
sS'network_rsn'
p634
F38.399999999999999
sg612
S'CACHE_ALL_RSN_ALL'
p635
sS'rsn_cache_ratio'
p636
I128
ssS'warmup_strategy'
p637
g11
(tRp638
g625
I1000000
sg626
I10
sg612
g627
ssS'topology'
p639
g11
(tRp640
S'ext_delay'
p641
I0
sS'source_ratio'
p642
F0.10000000000000001
sg612
S'ROCKET_FUEL'
p643
sS'asn'
p644
I3257
ssg11
(tRp645
S'SAT_RATE'
p646
g11
(tRp647
S'MEAN_CACHE_HIT'
p648
F0.55441666666666667
sS'MEAN_SERVER_HIT'
p649
F0.38056388888888887
sS'MEAN_SERVER_CACHE_HITS'
p650
F0.061866666666666667
sS'MEAN'
p651
F0.87311388888888886
ssS'CACHE_HIT_RATIO'
p652
g11
(tRp653
S'MEAN_OFF_PATH'
p654
F0.36874801317912137
sS'MEAN_ON_PATH'
p655
F0.1856686534875453
sg651
F0.55441666666666667
ssS'OVERHEAD'
p656
g11
(tRp657
S'INTEREST_HOPS'
p658
F6.5572551627158226
sS'SUCCESS_RATE'
p659
F0.58334273987818153
sS'QUOTA_USED_FAILURE'
p660
F3.1192169201299151
sS'FAILURE_RATE'
p661
F0.41665726012181853
sS'QUOTA_USED_SUCCESS'
p662
F6.4284423218521862
sS'NUM_SUCCESS_FIRST_TIME'
p663
F0.5863115512729562
sg651
F1.1029457147311188
ssS'LATENCY'
p664
g11
(tRp665
g651
F39.405208333333334
sstp666
a(g11
(tRp667
S'workload'
p668
g11
(tRp669
S'n_contents'
p670
I10000
sS'name'
p671
S'STATIONARY'
p672
sS'n_warmup'
p673
I720000
sS'rate'
p674
I100
sS'n_measured'
p675
I360000
sS'alpha'
p676
F0.69999999999999996
ssS'cache_policy'
p677
g11
(tRp678
g671
S'LRU'
p679
ssS'desc'
p680
S'quota_increment: 1.75'
p681
sS'strategy'
p682
g11
(tRp683
S'extra_quota'
p684
I2
sS'fan_out'
p685
I1
sg671
S'TFIB_DC'
p686
sS'quota_increment'
p687
F1.75
ssS'content_placement'
p688
g11
(tRp689
g671
S'UNIFORM'
p690
ssS'joint_cache_rsn_placement'
p691
g11
(tRp692
S'network_cache'
p693
F0.29999999999999999
sS'network_rsn'
p694
F38.399999999999999
sg671
S'CACHE_ALL_RSN_ALL'
p695
sS'rsn_cache_ratio'
p696
I128
ssS'warmup_strategy'
p697
g11
(tRp698
g684
I1000000
sg685
I10
sg671
g686
ssS'topology'
p699
g11
(tRp700
S'ext_delay'
p701
I0
sS'source_ratio'
p702
F0.10000000000000001
sg671
S'ROCKET_FUEL'
p703
sS'asn'
p704
I3257
ssg11
(tRp705
S'SAT_RATE'
p706
g11
(tRp707
S'MEAN_CACHE_HIT'
p708
F0.5577388888888889
sS'MEAN_SERVER_HIT'
p709
F0.42026111111111109
sS'MEAN_SERVER_CACHE_HITS'
p710
F0.08233611111111111
sS'MEAN'
p711
F0.89566388888888893
ssS'CACHE_HIT_RATIO'
p712
g11
(tRp713
S'MEAN_OFF_PATH'
p714
F0.37444898886616679
sS'MEAN_ON_PATH'
p715
F0.18328990002272211
sg711
F0.5577388888888889
ssS'OVERHEAD'
p716
g11
(tRp717
S'INTEREST_HOPS'
p718
F6.5566045050381625
sS'SUCCESS_RATE'
p719
F0.59032125827957449
sS'QUOTA_USED_FAILURE'
p720
F4.388916678204791
sS'FAILURE_RATE'
p721
F0.40967874172042545
sS'QUOTA_USED_SUCCESS'
p722
F11.456091536217563
sS'NUM_SUCCESS_FIRST_TIME'
p723
F0.59362109902736571
sg711
F1.1431464556086577
ssS'LATENCY'
p724
g11
(tRp725
g711
F40.128341666666664
sstp726
a(g11
(tRp727
S'workload'
p728
g11
(tRp729
S'n_contents'
p730
I10000
sS'name'
p731
S'STATIONARY'
p732
sS'n_warmup'
p733
I720000
sS'rate'
p734
I100
sS'n_measured'
p735
I360000
sS'alpha'
p736
F0.69999999999999996
ssS'cache_policy'
p737
g11
(tRp738
g731
S'LRU'
p739
ssS'desc'
p740
S'quota_increment: 0.75'
p741
sS'strategy'
p742
g11
(tRp743
S'extra_quota'
p744
I2
sS'fan_out'
p745
I1
sg731
S'TFIB_DC'
p746
sS'quota_increment'
p747
F0.75
ssS'content_placement'
p748
g11
(tRp749
g731
S'UNIFORM'
p750
ssS'joint_cache_rsn_placement'
p751
g11
(tRp752
S'network_cache'
p753
F0.29999999999999999
sS'network_rsn'
p754
F38.399999999999999
sg731
S'CACHE_ALL_RSN_ALL'
p755
sS'rsn_cache_ratio'
p756
I128
ssS'warmup_strategy'
p757
g11
(tRp758
g744
I1000000
sg745
I10
sg731
g746
ssS'topology'
p759
g11
(tRp760
S'ext_delay'
p761
I0
sS'source_ratio'
p762
F0.10000000000000001
sg731
S'ROCKET_FUEL'
p763
sS'asn'
p764
I3257
ssg11
(tRp765
S'SAT_RATE'
p766
g11
(tRp767
S'MEAN_CACHE_HIT'
p768
F0.55555277777777778
sS'MEAN_SERVER_HIT'
p769
F0.5227194444444444
sS'MEAN_SERVER_CACHE_HITS'
p770
F0.1456638888888889
sS'MEAN'
p771
F0.93260833333333337
ssS'CACHE_HIT_RATIO'
p772
g11
(tRp773
S'MEAN_OFF_PATH'
p774
F0.31846472494577233
sS'MEAN_ON_PATH'
p775
F0.23708805283200546
sg771
F0.55555277777777778
ssS'OVERHEAD'
p776
g11
(tRp777
S'INTEREST_HOPS'
p778
F6.5330896916950367
sS'SUCCESS_RATE'
p779
F0.56095391025084629
sS'QUOTA_USED_FAILURE'
p780
F2.6007841661252455
sS'FAILURE_RATE'
p781
F0.43904608974915371
sS'QUOTA_USED_SUCCESS'
p782
F5.4793066567309356
sS'NUM_SUCCESS_FIRST_TIME'
p783
F0.5630969010060014
sg771
F1.2015523963555024
ssS'LATENCY'
p784
g11
(tRp785
g771
F43.620327777777774
sstp786
a(g11
(tRp787
S'workload'
p788
g11
(tRp789
S'n_contents'
p790
I10000
sS'name'
p791
S'STATIONARY'
p792
sS'n_warmup'
p793
I720000
sS'rate'
p794
I100
sS'n_measured'
p795
I360000
sS'alpha'
p796
F0.69999999999999996
ssS'cache_policy'
p797
g11
(tRp798
g791
S'LRU'
p799
ssS'desc'
p800
S'quota_increment: 1.5'
p801
sS'strategy'
p802
g11
(tRp803
S'extra_quota'
p804
I2
sS'fan_out'
p805
I1
sg791
S'TFIB_DC'
p806
sS'quota_increment'
p807
F1.5
ssS'content_placement'
p808
g11
(tRp809
g791
S'UNIFORM'
p810
ssS'joint_cache_rsn_placement'
p811
g11
(tRp812
S'network_cache'
p813
F0.29999999999999999
sS'network_rsn'
p814
F38.399999999999999
sg791
S'CACHE_ALL_RSN_ALL'
p815
sS'rsn_cache_ratio'
p816
I128
ssS'warmup_strategy'
p817
g11
(tRp818
g804
I1000000
sg805
I10
sg791
g806
ssS'topology'
p819
g11
(tRp820
S'ext_delay'
p821
I0
sS'source_ratio'
p822
F0.10000000000000001
sg791
S'ROCKET_FUEL'
p823
sS'asn'
p824
I3257
ssg11
(tRp825
S'SAT_RATE'
p826
g11
(tRp827
S'MEAN_CACHE_HIT'
p828
F0.55771111111111116
sS'MEAN_SERVER_HIT'
p829
F0.43999722222222221
sS'MEAN_SERVER_CACHE_HITS'
p830
F0.094908333333333331
sS'MEAN'
p831
F0.90280000000000005
ssS'CACHE_HIT_RATIO'
p832
g11
(tRp833
S'MEAN_OFF_PATH'
p834
F0.35145263450964015
sS'MEAN_ON_PATH'
p835
F0.20625847660147101
sg831
F0.55771111111111116
ssS'OVERHEAD'
p836
g11
(tRp837
S'INTEREST_HOPS'
p838
F6.6005052183330868
sS'SUCCESS_RATE'
p839
F0.57929384915845605
sS'QUOTA_USED_FAILURE'
p840
F3.8553442764272727
sS'FAILURE_RATE'
p841
F0.42070615084154395
sS'QUOTA_USED_SUCCESS'
p842
F8.3715014747930088
sS'NUM_SUCCESS_FIRST_TIME'
p843
F0.58259852520582245
sg831
F1.1440056860138827
ssS'LATENCY'
p844
g11
(tRp845
g831
F40.65230833333333
sstp846
a(g11
(tRp847
S'workload'
p848
g11
(tRp849
S'n_contents'
p850
I10000
sS'name'
p851
S'STATIONARY'
p852
sS'n_warmup'
p853
I720000
sS'rate'
p854
I100
sS'n_measured'
p855
I360000
sS'alpha'
p856
F0.69999999999999996
ssS'cache_policy'
p857
g11
(tRp858
g851
S'LRU'
p859
ssS'desc'
p860
S'extra_quota: 3'
p861
sS'strategy'
p862
g11
(tRp863
S'extra_quota'
p864
I3
sS'fan_out'
p865
I1
sg851
S'TFIB_DC'
p866
ssS'content_placement'
p867
g11
(tRp868
g851
S'UNIFORM'
p869
ssS'joint_cache_rsn_placement'
p870
g11
(tRp871
S'network_cache'
p872
F0.29999999999999999
sS'network_rsn'
p873
F38.399999999999999
sg851
S'CACHE_ALL_RSN_ALL'
p874
sS'rsn_cache_ratio'
p875
I128
ssS'warmup_strategy'
p876
g11
(tRp877
g864
I1000000
sg865
I10
sg851
g866
ssS'topology'
p878
g11
(tRp879
S'ext_delay'
p880
I0
sS'source_ratio'
p881
F0.10000000000000001
sg851
S'ROCKET_FUEL'
p882
sS'asn'
p883
I3257
ssg11
(tRp884
S'SAT_RATE'
p885
g11
(tRp886
S'MEAN_CACHE_HIT'
p887
F0.55506944444444439
sS'MEAN_SERVER_HIT'
p888
F0.53759722222222217
sS'MEAN_SERVER_CACHE_HITS'
p889
F0.15579999999999999
sS'MEAN'
p890
F0.93686666666666663
ssS'CACHE_HIT_RATIO'
p891
g11
(tRp892
S'MEAN_OFF_PATH'
p893
F0.32044437665243036
sS'MEAN_ON_PATH'
p894
F0.23462506779201403
sg890
F0.55506944444444439
ssS'OVERHEAD'
p895
g11
(tRp896
S'INTEREST_HOPS'
p897
F6.5616979767072277
sS'SUCCESS_RATE'
p898
F0.56361153210545689
sS'QUOTA_USED_FAILURE'
p899
F2.9916605919151822
sS'FAILURE_RATE'
p900
F0.43638846789454305
sS'QUOTA_USED_SUCCESS'
p901
F6.2001249722714968
sS'NUM_SUCCESS_FIRST_TIME'
p902
F0.56642933364419779
sg890
F1.2106044972603716
ssS'LATENCY'
p903
g11
(tRp904
g890
F44.141475
sstp905
a(g11
(tRp906
S'workload'
p907
g11
(tRp908
S'n_contents'
p909
I10000
sS'name'
p910
S'STATIONARY'
p911
sS'n_warmup'
p912
I720000
sS'rate'
p913
I100
sS'n_measured'
p914
I360000
sS'alpha'
p915
F0.69999999999999996
ssS'cache_policy'
p916
g11
(tRp917
g910
S'LRU'
p918
ssS'desc'
p919
S'quota_increment: 2.25'
p920
sS'strategy'
p921
g11
(tRp922
S'extra_quota'
p923
I2
sS'fan_out'
p924
I1
sg910
S'TFIB_DC'
p925
sS'quota_increment'
p926
F2.25
ssS'content_placement'
p927
g11
(tRp928
g910
S'UNIFORM'
p929
ssS'joint_cache_rsn_placement'
p930
g11
(tRp931
S'network_cache'
p932
F0.29999999999999999
sS'network_rsn'
p933
F38.399999999999999
sg910
S'CACHE_ALL_RSN_ALL'
p934
sS'rsn_cache_ratio'
p935
I128
ssS'warmup_strategy'
p936
g11
(tRp937
g923
I1000000
sg924
I10
sg910
g925
ssS'topology'
p938
g11
(tRp939
S'ext_delay'
p940
I0
sS'source_ratio'
p941
F0.10000000000000001
sg910
S'ROCKET_FUEL'
p942
sS'asn'
p943
I3257
ssg11
(tRp944
S'SAT_RATE'
p945
g11
(tRp946
S'MEAN_CACHE_HIT'
p947
F0.55476111111111115
sS'MEAN_SERVER_HIT'
p948
F0.38473611111111111
sS'MEAN_SERVER_CACHE_HITS'
p949
F0.062672222222222226
sS'MEAN'
p950
F0.87682499999999997
ssS'CACHE_HIT_RATIO'
p951
g11
(tRp952
S'MEAN_OFF_PATH'
p953
F0.38580328130589941
sS'MEAN_ON_PATH'
p954
F0.16895782980521173
sg950
F0.55476111111111115
ssS'OVERHEAD'
p955
g11
(tRp956
S'INTEREST_HOPS'
p957
F6.6367766277953599
sS'SUCCESS_RATE'
p958
F0.59330510394340186
sS'QUOTA_USED_FAILURE'
p959
F5.3171123957306667
sS'FAILURE_RATE'
p960
F0.4066948960565982
sS'QUOTA_USED_SUCCESS'
p961
F14.326426996859878
sS'NUM_SUCCESS_FIRST_TIME'
p962
F0.59681677229208663
sg950
F1.1290704783990217
ssS'LATENCY'
p963
g11
(tRp964
g950
F39.664344444444446
sstp965
a(g11
(tRp966
S'workload'
p967
g11
(tRp968
S'n_contents'
p969
I10000
sS'name'
p970
S'STATIONARY'
p971
sS'n_warmup'
p972
I720000
sS'rate'
p973
I100
sS'n_measured'
p974
I360000
sS'alpha'
p975
F0.69999999999999996
ssS'cache_policy'
p976
g11
(tRp977
g970
S'LRU'
p978
ssS'desc'
p979
S'extra_quota: 2'
p980
sS'strategy'
p981
g11
(tRp982
S'extra_quota'
p983
I2
sS'fan_out'
p984
I1
sg970
S'TFIB_DC'
p985
ssS'content_placement'
p986
g11
(tRp987
g970
S'UNIFORM'
p988
ssS'joint_cache_rsn_placement'
p989
g11
(tRp990
S'network_cache'
p991
F0.29999999999999999
sS'network_rsn'
p992
F38.399999999999999
sg970
S'CACHE_ALL_RSN_ALL'
p993
sS'rsn_cache_ratio'
p994
I128
ssS'warmup_strategy'
p995
g11
(tRp996
g983
I1000000
sg984
I10
sg970
g985
ssS'topology'
p997
g11
(tRp998
S'ext_delay'
p999
I0
sS'source_ratio'
p1000
F0.10000000000000001
sg970
S'ROCKET_FUEL'
p1001
sS'asn'
p1002
I3257
ssg11
(tRp1003
S'SAT_RATE'
p1004
g11
(tRp1005
S'MEAN_CACHE_HIT'
p1006
F0.55699722222222225
sS'MEAN_SERVER_HIT'
p1007
F0.46862777777777775
sS'MEAN_SERVER_CACHE_HITS'
p1008
F0.11260000000000001
sS'MEAN'
p1009
F0.91302499999999998
ssS'CACHE_HIT_RATIO'
p1010
g11
(tRp1011
S'MEAN_OFF_PATH'
p1012
F0.35665515607014692
sS'MEAN_ON_PATH'
p1013
F0.20034206615207534
sg1009
F0.55699722222222225
ssS'OVERHEAD'
p1014
g11
(tRp1015
S'INTEREST_HOPS'
p1016
F6.6001448177456501
sS'SUCCESS_RATE'
p1017
F0.58525946865526546
sS'QUOTA_USED_FAILURE'
p1018
F3.1454032495126207
sS'FAILURE_RATE'
p1019
F0.41474053134473454
sS'QUOTA_USED_SUCCESS'
p1020
F17.147820822404032
sS'NUM_SUCCESS_FIRST_TIME'
p1021
F0.58846398498280761
sg1009
F1.1874112002531267
ssS'LATENCY'
p1022
g11
(tRp1023
g1009
F41.761538888888886
sstp1024
a(g11
(tRp1025
S'workload'
p1026
g11
(tRp1027
S'n_contents'
p1028
I10000
sS'name'
p1029
S'STATIONARY'
p1030
sS'n_warmup'
p1031
I720000
sS'rate'
p1032
I100
sS'n_measured'
p1033
I360000
sS'alpha'
p1034
F0.69999999999999996
ssS'cache_policy'
p1035
g11
(tRp1036
g1029
S'LRU'
p1037
ssS'desc'
p1038
S'quota_increment: 0.5'
p1039
sS'strategy'
p1040
g11
(tRp1041
S'extra_quota'
p1042
I2
sS'fan_out'
p1043
I1
sg1029
S'TFIB_DC'
p1044
sS'quota_increment'
p1045
F0.5
ssS'content_placement'
p1046
g11
(tRp1047
g1029
S'UNIFORM'
p1048
ssS'joint_cache_rsn_placement'
p1049
g11
(tRp1050
S'network_cache'
p1051
F0.29999999999999999
sS'network_rsn'
p1052
F38.399999999999999
sg1029
S'CACHE_ALL_RSN_ALL'
p1053
sS'rsn_cache_ratio'
p1054
I128
ssS'warmup_strategy'
p1055
g11
(tRp1056
g1042
I1000000
sg1043
I10
sg1029
g1044
ssS'topology'
p1057
g11
(tRp1058
S'ext_delay'
p1059
I0
sS'source_ratio'
p1060
F0.10000000000000001
sg1029
S'ROCKET_FUEL'
p1061
sS'asn'
p1062
I3257
ssg11
(tRp1063
S'SAT_RATE'
p1064
g11
(tRp1065
S'MEAN_CACHE_HIT'
p1066
F0.55369166666666669
sS'MEAN_SERVER_HIT'
p1067
F0.56622222222222218
sS'MEAN_SERVER_CACHE_HITS'
p1068
F0.17429722222222221
sS'MEAN'
p1069
F0.94561666666666666
ssS'CACHE_HIT_RATIO'
p1070
g11
(tRp1071
S'MEAN_OFF_PATH'
p1072
F0.30931693657002396
sS'MEAN_ON_PATH'
p1073
F0.24437473009664273
sg1069
F0.55369166666666669
ssS'OVERHEAD'
p1074
g11
(tRp1075
S'INTEREST_HOPS'
p1076
F6.5815987215867366
sS'SUCCESS_RATE'
p1077
F0.56045913909288914
sS'QUOTA_USED_FAILURE'
p1078
F2.2842056283541621
sS'FAILURE_RATE'
p1079
F0.43954086090711086
sS'QUOTA_USED_SUCCESS'
p1080
F4.8940030559730126
sS'NUM_SUCCESS_FIRST_TIME'
p1081
F0.56265739136646964
sg1069
F1.2307400814283449
ssS'LATENCY'
p1082
g11
(tRp1083
g1069
F44.98887222222222
sstp1084
a(g11
(tRp1085
S'workload'
p1086
g11
(tRp1087
S'n_contents'
p1088
I10000
sS'name'
p1089
S'STATIONARY'
p1090
sS'n_warmup'
p1091
I720000
sS'rate'
p1092
I100
sS'n_measured'
p1093
I360000
sS'alpha'
p1094
F0.69999999999999996
ssS'cache_policy'
p1095
g11
(tRp1096
g1089
S'LRU'
p1097
ssS'desc'
p1098
S'quota_increment: 0.25'
p1099
sS'strategy'
p1100
g11
(tRp1101
S'extra_quota'
p1102
I2
sS'fan_out'
p1103
I1
sg1089
S'TFIB_DC'
p1104
sS'quota_increment'
p1105
F0.25
ssS'content_placement'
p1106
g11
(tRp1107
g1089
S'UNIFORM'
p1108
ssS'joint_cache_rsn_placement'
p1109
g11
(tRp1110
S'network_cache'
p1111
F0.29999999999999999
sS'network_rsn'
p1112
F38.399999999999999
sg1089
S'CACHE_ALL_RSN_ALL'
p1113
sS'rsn_cache_ratio'
p1114
I128
ssS'warmup_strategy'
p1115
g11
(tRp1116
g1102
I1000000
sg1103
I10
sg1089
g1104
ssS'topology'
p1117
g11
(tRp1118
S'ext_delay'
p1119
I0
sS'source_ratio'
p1120
F0.10000000000000001
sg1089
S'ROCKET_FUEL'
p1121
sS'asn'
p1122
I3257
ssg11
(tRp1123
S'SAT_RATE'
p1124
g11
(tRp1125
S'MEAN_CACHE_HIT'
p1126
F0.55285277777777775
sS'MEAN_SERVER_HIT'
p1127
F0.61903333333333332
sS'MEAN_SERVER_CACHE_HITS'
p1128
F0.20858055555555555
sS'MEAN'
p1129
F0.96330555555555553
ssS'CACHE_HIT_RATIO'
p1130
g11
(tRp1131
S'MEAN_OFF_PATH'
p1132
F0.29356758691473145
sS'MEAN_ON_PATH'
p1133
F0.2592851908630463
sg1129
F0.55285277777777775
ssS'OVERHEAD'
p1134
g11
(tRp1135
S'INTEREST_HOPS'
p1136
F6.5926727991003204
sS'SUCCESS_RATE'
p1137
F0.5514244755215183
sS'QUOTA_USED_FAILURE'
p1138
F1.9324490534557088
sS'FAILURE_RATE'
p1139
F0.4485755244784817
sS'QUOTA_USED_SUCCESS'
p1140
F3.9834987492651766
sS'NUM_SUCCESS_FIRST_TIME'
p1141
F0.55253395400269312
sg1129
F1.2726808731508983
ssS'LATENCY'
p1142
g11
(tRp1143
g1129
F47.080575000000003
sstp1144
a(g11
(tRp1145
S'workload'
p1146
g11
(tRp1147
S'n_contents'
p1148
I10000
sS'name'
p1149
S'STATIONARY'
p1150
sS'n_warmup'
p1151
I720000
sS'rate'
p1152
I100
sS'n_measured'
p1153
I360000
sS'alpha'
p1154
F0.69999999999999996
ssS'cache_policy'
p1155
g11
(tRp1156
g1149
S'LRU'
p1157
ssS'desc'
p1158
S'extra_quota: 4'
p1159
sS'strategy'
p1160
g11
(tRp1161
S'extra_quota'
p1162
I4
sS'fan_out'
p1163
I1
sg1149
S'TFIB_DC'
p1164
ssS'content_placement'
p1165
g11
(tRp1166
g1149
S'UNIFORM'
p1167
ssS'joint_cache_rsn_placement'
p1168
g11
(tRp1169
S'network_cache'
p1170
F0.29999999999999999
sS'network_rsn'
p1171
F38.399999999999999
sg1149
S'CACHE_ALL_RSN_ALL'
p1172
sS'rsn_cache_ratio'
p1173
I128
ssS'warmup_strategy'
p1174
g11
(tRp1175
g1162
I1000000
sg1163
I10
sg1149
g1164
ssS'topology'
p1176
g11
(tRp1177
S'ext_delay'
p1178
I0
sS'source_ratio'
p1179
F0.10000000000000001
sg1149
S'ROCKET_FUEL'
p1180
sS'asn'
p1181
I3257
ssg11
(tRp1182
S'SAT_RATE'
p1183
g11
(tRp1184
S'MEAN_CACHE_HIT'
p1185
F0.55542222222222226
sS'MEAN_SERVER_HIT'
p1186
F0.58301111111111115
sS'MEAN_SERVER_CACHE_HITS'
p1187
F0.18494444444444444
sS'MEAN'
p1188
F0.95348888888888894
ssS'CACHE_HIT_RATIO'
p1189
g11
(tRp1190
S'MEAN_OFF_PATH'
p1191
F0.31875921100147375
sS'MEAN_ON_PATH'
p1192
F0.23666301122074851
sg1188
F0.55542222222222226
ssS'OVERHEAD'
p1193
g11
(tRp1194
S'INTEREST_HOPS'
p1195
F6.6282016920316034
sS'SUCCESS_RATE'
p1196
F0.56837051820931694
sS'QUOTA_USED_FAILURE'
p1197
F3.1401016908812784
sS'FAILURE_RATE'
p1198
F0.43162948179068311
sS'QUOTA_USED_SUCCESS'
p1199
F26.151483628068764
sS'NUM_SUCCESS_FIRST_TIME'
p1200
F0.56989762161785706
sg1188
F1.2583844127997763
ssS'LATENCY'
p1201
g11
(tRp1202
g1188
F45.483938888888886
sstp1203
atRp1204
sb.