ccopy_reg
_reconstructor
p1
(cicarus.results.readwrite
ResultSet
p2
c__builtin__
object
p3
NtRp4
(dp5
S'attr'
p6
(dp7
sS'_results'
p8
ccollections
deque
p9
((lp10
(cicarus.util
Tree
p11
(tRp12
S'workload'
p13
g11
(tRp14
S'n_contents'
p15
I10000
sS'name'
p16
S'STATIONARY'
p17
sS'n_warmup'
p18
I720000
sS'rate'
p19
I100
sS'n_measured'
p20
I360000
sS'alpha'
p21
F0.69999999999999996
ssS'cache_policy'
p22
g11
(tRp23
g16
S'LRU'
p24
ssS'desc'
p25
S'extra_quota: 1'
p26
sS'strategy'
p27
g11
(tRp28
S'extra_quota'
p29
I1
sS'fan_out'
p30
I1
sg16
S'TFIB_DC'
p31
ssS'content_placement'
p32
g11
(tRp33
g16
S'UNIFORM'
p34
ssS'joint_cache_rsn_placement'
p35
g11
(tRp36
S'network_cache'
p37
F0.29999999999999999
sS'network_rsn'
p38
F38.399999999999999
sg16
S'CACHE_ALL_RSN_ALL'
p39
sS'rsn_cache_ratio'
p40
I128
ssS'warmup_strategy'
p41
g11
(tRp42
g29
I1000000
sg30
I10
sg16
g31
ssS'topology'
p43
g11
(tRp44
S'ext_delay'
p45
I0
sS'source_ratio'
p46
F0.10000000000000001
sg16
S'ROCKET_FUEL'
p47
sS'asn'
p48
I3257
ssg11
(tRp49
S'SAT_RATE'
p50
g11
(tRp51
S'MEAN_CACHE_HIT'
p52
F0.55441388888888887
sS'MEAN_SERVER_HIT'
p53
F0.38201944444444447
sS'MEAN_SERVER_CACHE_HITS'
p54
F0.062472222222222221
sS'MEAN'
p55
F0.87396111111111108
ssS'CACHE_HIT_RATIO'
p56
g11
(tRp57
S'MEAN_OFF_PATH'
p58
F0.38361869504858864
sS'MEAN_ON_PATH'
p59
F0.17079519384030023
sg55
F0.55441388888888887
ssS'OVERHEAD'
p60
g11
(tRp61
S'DATA_HOPS'
p62
F2.4346027777777777
sS'INTEREST_HOPS'
p63
F7.7066555555555558
sS'SUCCESS_RATE'
p64
F0.59253042198665928
sS'QUOTA_USED_FAILURE'
p65
F3.1731974415876527
sS'FAILURE_RATE'
p66
F0.40746957801334072
sS'QUOTA_USED_SUCCESS'
p67
F7.5935347993653481
sS'NUM_SUCCESS_FIRST_TIME'
p68
F0.595724332956589
sg55
F1.118238797810734
ssS'LATENCY'
p69
g11
(tRp70
g55
F39.893144444444445
sstp71
a(g11
(tRp72
S'workload'
p73
g11
(tRp74
S'n_contents'
p75
I10000
sS'name'
p76
S'STATIONARY'
p77
sS'n_warmup'
p78
I720000
sS'rate'
p79
I100
sS'n_measured'
p80
I360000
sS'alpha'
p81
F0.69999999999999996
ssS'cache_policy'
p82
g11
(tRp83
g76
S'LRU'
p84
ssS'desc'
p85
S'extra_quota: 2'
p86
sS'strategy'
p87
g11
(tRp88
S'extra_quota'
p89
I2
sS'fan_out'
p90
I1
sg76
S'TFIB_DC'
p91
ssS'content_placement'
p92
g11
(tRp93
g76
S'UNIFORM'
p94
ssS'joint_cache_rsn_placement'
p95
g11
(tRp96
S'network_cache'
p97
F0.29999999999999999
sS'network_rsn'
p98
F38.399999999999999
sg76
S'CACHE_ALL_RSN_ALL'
p99
sS'rsn_cache_ratio'
p100
I128
ssS'warmup_strategy'
p101
g11
(tRp102
g89
I1000000
sg90
I10
sg76
g91
ssS'topology'
p103
g11
(tRp104
S'ext_delay'
p105
I0
sS'source_ratio'
p106
F0.10000000000000001
sg76
S'ROCKET_FUEL'
p107
sS'asn'
p108
I3257
ssg11
(tRp109
S'SAT_RATE'
p110
g11
(tRp111
S'MEAN_CACHE_HIT'
p112
F0.55774999999999997
sS'MEAN_SERVER_HIT'
p113
F0.46771111111111113
sS'MEAN_SERVER_CACHE_HITS'
p114
F0.112175
sS'MEAN'
p115
F0.91328611111111113
ssS'CACHE_HIT_RATIO'
p116
g11
(tRp117
S'MEAN_OFF_PATH'
p118
F0.34493967483462723
sS'MEAN_ON_PATH'
p119
F0.21281032516537274
sg115
F0.55774999999999997
ssS'OVERHEAD'
p120
g11
(tRp121
S'DATA_HOPS'
p122
F2.8338138888888889
sS'INTEREST_HOPS'
p123
F7.9060194444444445
sS'SUCCESS_RATE'
p124
F0.57767649593856918
sS'QUOTA_USED_FAILURE'
p125
F3.0821345315002522
sS'FAILURE_RATE'
p126
F0.42232350406143077
sS'QUOTA_USED_SUCCESS'
p127
F7.3618165208541324
sS'NUM_SUCCESS_FIRST_TIME'
p128
F0.57990367576900359
sg115
F1.1699692502349575
ssS'LATENCY'
p129
g11
(tRp130
g115
F41.745047222222219
sstp131
a(g11
(tRp132
S'workload'
p133
g11
(tRp134
S'n_contents'
p135
I10000
sS'name'
p136
S'STATIONARY'
p137
sS'n_warmup'
p138
I720000
sS'rate'
p139
I100
sS'n_measured'
p140
I360000
sS'alpha'
p141
F0.69999999999999996
ssS'cache_policy'
p142
g11
(tRp143
g136
S'LRU'
p144
ssS'desc'
p145
S'extra_quota: 3'
p146
sS'strategy'
p147
g11
(tRp148
S'extra_quota'
p149
I3
sS'fan_out'
p150
I1
sg136
S'TFIB_DC'
p151
ssS'content_placement'
p152
g11
(tRp153
g136
S'UNIFORM'
p154
ssS'joint_cache_rsn_placement'
p155
g11
(tRp156
S'network_cache'
p157
F0.29999999999999999
sS'network_rsn'
p158
F38.399999999999999
sg136
S'CACHE_ALL_RSN_ALL'
p159
sS'rsn_cache_ratio'
p160
I128
ssS'warmup_strategy'
p161
g11
(tRp162
g149
I1000000
sg150
I10
sg136
g151
ssS'topology'
p163
g11
(tRp164
S'ext_delay'
p165
I0
sS'source_ratio'
p166
F0.10000000000000001
sg136
S'ROCKET_FUEL'
p167
sS'asn'
p168
I3257
ssg11
(tRp169
S'SAT_RATE'
p170
g11
(tRp171
S'MEAN_CACHE_HIT'
p172
F0.55571111111111116
sS'MEAN_SERVER_HIT'
p173
F0.53871388888888894
sS'MEAN_SERVER_CACHE_HITS'
p174
F0.15619166666666667
sS'MEAN'
p175
F0.93823333333333336
ssS'CACHE_HIT_RATIO'
p176
g11
(tRp177
S'MEAN_OFF_PATH'
p178
F0.31656653798417739
sS'MEAN_ON_PATH'
p179
F0.23914457312693377
sg175
F0.55571111111111116
ssS'OVERHEAD'
p180
g11
(tRp181
S'DATA_HOPS'
p182
F3.1469833333333335
sS'INTEREST_HOPS'
p183
F8.0259055555555552
sS'SUCCESS_RATE'
p184
F0.56220479919869437
sS'QUOTA_USED_FAILURE'
p185
F2.9635020021874867
sS'FAILURE_RATE'
p186
F0.43779520080130557
sS'QUOTA_USED_SUCCESS'
p187
F6.4112097179422518
sS'NUM_SUCCESS_FIRST_TIME'
p188
F0.56393670019628195
sg175
F1.2099957366682061
ssS'LATENCY'
p189
g11
(tRp190
g175
F43.926905555555557
sstp191
a(g11
(tRp192
S'workload'
p193
g11
(tRp194
S'n_contents'
p195
I10000
sS'name'
p196
S'STATIONARY'
p197
sS'n_warmup'
p198
I720000
sS'rate'
p199
I100
sS'n_measured'
p200
I360000
sS'alpha'
p201
F0.69999999999999996
ssS'cache_policy'
p202
g11
(tRp203
g196
S'LRU'
p204
ssS'desc'
p205
S'extra_quota: 4'
p206
sS'strategy'
p207
g11
(tRp208
S'extra_quota'
p209
I4
sS'fan_out'
p210
I1
sg196
S'TFIB_DC'
p211
ssS'content_placement'
p212
g11
(tRp213
g196
S'UNIFORM'
p214
ssS'joint_cache_rsn_placement'
p215
g11
(tRp216
S'network_cache'
p217
F0.29999999999999999
sS'network_rsn'
p218
F38.399999999999999
sg196
S'CACHE_ALL_RSN_ALL'
p219
sS'rsn_cache_ratio'
p220
I128
ssS'warmup_strategy'
p221
g11
(tRp222
g209
I1000000
sg210
I10
sg196
g211
ssS'topology'
p223
g11
(tRp224
S'ext_delay'
p225
I0
sS'source_ratio'
p226
F0.10000000000000001
sg196
S'ROCKET_FUEL'
p227
sS'asn'
p228
I3257
ssg11
(tRp229
S'SAT_RATE'
p230
g11
(tRp231
S'MEAN_CACHE_HIT'
p232
F0.55342222222222226
sS'MEAN_SERVER_HIT'
p233
F0.58107500000000001
sS'MEAN_SERVER_CACHE_HITS'
p234
F0.18198055555555556
sS'MEAN'
p235
F0.95251666666666668
ssS'CACHE_HIT_RATIO'
p236
g11
(tRp237
S'MEAN_OFF_PATH'
p238
F0.31210350155110317
sS'MEAN_ON_PATH'
p239
F0.24131872067111909
sg235
F0.55342222222222226
ssS'OVERHEAD'
p240
g11
(tRp241
S'DATA_HOPS'
p242
F3.3354555555555554
sS'INTEREST_HOPS'
p243
F8.1752000000000002
sS'SUCCESS_RATE'
p244
F0.56338010481723955
sS'QUOTA_USED_FAILURE'
p245
F3.089657045250743
sS'FAILURE_RATE'
p246
F0.4366198951827604
sS'QUOTA_USED_SUCCESS'
p247
F7.6251223436631426
sS'NUM_SUCCESS_FIRST_TIME'
p248
F0.56454837715242001
sg235
F1.2438569170559861
ssS'LATENCY'
p249
g11
(tRp250
g235
F45.427933333333335
sstp251
a(g11
(tRp252
S'workload'
p253
g11
(tRp254
S'n_contents'
p255
I10000
sS'name'
p256
S'STATIONARY'
p257
sS'n_warmup'
p258
I720000
sS'rate'
p259
I100
sS'n_measured'
p260
I360000
sS'alpha'
p261
F0.69999999999999996
ssS'cache_policy'
p262
g11
(tRp263
g256
S'LRU'
p264
ssS'desc'
p265
S'extra_quota: 4'
p266
sS'strategy'
p267
g11
(tRp268
S'extra_quota'
p269
I4
sS'fan_out'
p270
I1
sg256
S'TFIB_SC'
p271
ssS'content_placement'
p272
g11
(tRp273
g256
S'UNIFORM'
p274
ssS'joint_cache_rsn_placement'
p275
g11
(tRp276
S'network_cache'
p277
F0.29999999999999999
sS'network_rsn'
p278
F38.399999999999999
sg256
S'CACHE_ALL_RSN_ALL'
p279
sS'rsn_cache_ratio'
p280
I128
ssS'warmup_strategy'
p281
g11
(tRp282
g269
I1000000
sg270
I10
sg256
g271
ssS'topology'
p283
g11
(tRp284
S'ext_delay'
p285
I0
sS'source_ratio'
p286
F0.10000000000000001
sg256
S'ROCKET_FUEL'
p287
sS'asn'
p288
I3257
ssg11
(tRp289
S'SAT_RATE'
p290
g11
(tRp291
S'MEAN_CACHE_HIT'
p292
F0.54854444444444439
sS'MEAN_SERVER_HIT'
p293
F0.74711388888888886
sS'MEAN_SERVER_CACHE_HITS'
p294
F0.29565833333333336
sS'MEAN'
p295
F1
ssS'CACHE_HIT_RATIO'
p296
g11
(tRp297
S'MEAN_OFF_PATH'
p298
F0.26422646573921021
sS'MEAN_ON_PATH'
p299
F0.28431797870523418
sg295
F0.54854444444444439
ssS'OVERHEAD'
p300
g11
(tRp301
S'DATA_HOPS'
p302
F4.0087166666666665
sS'INTEREST_HOPS'
p303
F8.4239083333333333
sS'SUCCESS_RATE'
p304
F0.54261189198220594
sS'QUOTA_USED_FAILURE'
p305
F1
sS'FAILURE_RATE'
p306
F0.45738810801779411
sS'QUOTA_USED_SUCCESS'
p307
F1
sS'NUM_SUCCESS_FIRST_TIME'
p308
F0.54106163313963462
sg295
F1.3608444444444445
ssS'LATENCY'
p309
g11
(tRp310
g295
F51.793599999999998
sstp311
a(g11
(tRp312
S'workload'
p313
g11
(tRp314
S'n_contents'
p315
I10000
sS'name'
p316
S'STATIONARY'
p317
sS'n_warmup'
p318
I720000
sS'rate'
p319
I100
sS'n_measured'
p320
I360000
sS'alpha'
p321
F0.69999999999999996
ssS'cache_policy'
p322
g11
(tRp323
g316
S'LRU'
p324
ssS'desc'
p325
S'extra_quota: 3'
p326
sS'strategy'
p327
g11
(tRp328
S'extra_quota'
p329
I3
sS'fan_out'
p330
I1
sg316
S'TFIB_SC'
p331
ssS'content_placement'
p332
g11
(tRp333
g316
S'UNIFORM'
p334
ssS'joint_cache_rsn_placement'
p335
g11
(tRp336
S'network_cache'
p337
F0.29999999999999999
sS'network_rsn'
p338
F38.399999999999999
sg316
S'CACHE_ALL_RSN_ALL'
p339
sS'rsn_cache_ratio'
p340
I128
ssS'warmup_strategy'
p341
g11
(tRp342
g329
I1000000
sg330
I10
sg316
g331
ssS'topology'
p343
g11
(tRp344
S'ext_delay'
p345
I0
sS'source_ratio'
p346
F0.10000000000000001
sg316
S'ROCKET_FUEL'
p347
sS'asn'
p348
I3257
ssg11
(tRp349
S'SAT_RATE'
p350
g11
(tRp351
S'MEAN_CACHE_HIT'
p352
F0.54610555555555551
sS'MEAN_SERVER_HIT'
p353
F0.74770277777777783
sS'MEAN_SERVER_CACHE_HITS'
p354
F0.29381666666666667
sS'MEAN'
p355
F0.99999166666666661
ssS'CACHE_HIT_RATIO'
p356
g11
(tRp357
S'MEAN_OFF_PATH'
p358
F0.26817040992247265
sS'MEAN_ON_PATH'
p359
F0.27793514563308286
sg355
F0.54610555555555551
ssS'OVERHEAD'
p360
g11
(tRp361
S'DATA_HOPS'
p362
F4.0281888888888888
sS'INTEREST_HOPS'
p363
F8.4938166666666675
sS'SUCCESS_RATE'
p364
F0.54585968530874784
sS'QUOTA_USED_FAILURE'
p365
F1
sS'FAILURE_RATE'
p366
F0.45414031469125216
sS'QUOTA_USED_SUCCESS'
p367
F1
sS'NUM_SUCCESS_FIRST_TIME'
p368
F0.54429809994930867
sg355
F1.3660836062522743
ssS'LATENCY'
p369
g11
(tRp370
g355
F52.183972222222224
sstp371
a(g11
(tRp372
S'workload'
p373
g11
(tRp374
S'n_contents'
p375
I10000
sS'name'
p376
S'STATIONARY'
p377
sS'n_warmup'
p378
I720000
sS'rate'
p379
I100
sS'n_measured'
p380
I360000
sS'alpha'
p381
F0.69999999999999996
ssS'cache_policy'
p382
g11
(tRp383
g376
S'LRU'
p384
ssS'desc'
p385
S'extra_quota: 1'
p386
sS'strategy'
p387
g11
(tRp388
S'extra_quota'
p389
I1
sS'fan_out'
p390
I1
sg376
S'TFIB_SC'
p391
ssS'content_placement'
p392
g11
(tRp393
g376
S'UNIFORM'
p394
ssS'joint_cache_rsn_placement'
p395
g11
(tRp396
S'network_cache'
p397
F0.29999999999999999
sS'network_rsn'
p398
F38.399999999999999
sg376
S'CACHE_ALL_RSN_ALL'
p399
sS'rsn_cache_ratio'
p400
I128
ssS'warmup_strategy'
p401
g11
(tRp402
g389
I1000000
sg390
I10
sg376
g391
ssS'topology'
p403
g11
(tRp404
S'ext_delay'
p405
I0
sS'source_ratio'
p406
F0.10000000000000001
sg376
S'ROCKET_FUEL'
p407
sS'asn'
p408
I3257
ssg11
(tRp409
S'SAT_RATE'
p410
g11
(tRp411
S'MEAN_CACHE_HIT'
p412
F0.54441944444444446
sS'MEAN_SERVER_HIT'
p413
F0.71625277777777774
sS'MEAN_SERVER_CACHE_HITS'
p414
F0.27318055555555554
sS'MEAN'
p415
F0.98749166666666666
ssS'CACHE_HIT_RATIO'
p416
g11
(tRp417
S'MEAN_OFF_PATH'
p418
F0.26886008787199067
sS'MEAN_ON_PATH'
p419
F0.27555935657245378
sg415
F0.54441944444444446
ssS'OVERHEAD'
p420
g11
(tRp421
S'DATA_HOPS'
p422
F3.8831666666666669
sS'INTEREST_HOPS'
p423
F8.3665805555555561
sS'SUCCESS_RATE'
p424
F0.54181360947998125
sS'QUOTA_USED_FAILURE'
p425
F1
sS'FAILURE_RATE'
p426
F0.4581863905200188
sS'QUOTA_USED_SUCCESS'
p427
F1
sS'NUM_SUCCESS_FIRST_TIME'
p428
F0.5422007598622306
sg415
F1.3443995307977283
ssS'LATENCY'
p429
g11
(tRp430
g415
F50.917936111111111
sstp431
a(g11
(tRp432
S'workload'
p433
g11
(tRp434
S'n_contents'
p435
I10000
sS'name'
p436
S'STATIONARY'
p437
sS'n_warmup'
p438
I720000
sS'rate'
p439
I100
sS'n_measured'
p440
I360000
sS'alpha'
p441
F0.69999999999999996
ssS'cache_policy'
p442
g11
(tRp443
g436
S'LRU'
p444
ssS'desc'
p445
S'extra_quota: 2'
p446
sS'strategy'
p447
g11
(tRp448
S'extra_quota'
p449
I2
sS'fan_out'
p450
I1
sg436
S'TFIB_SC'
p451
ssS'content_placement'
p452
g11
(tRp453
g436
S'UNIFORM'
p454
ssS'joint_cache_rsn_placement'
p455
g11
(tRp456
S'network_cache'
p457
F0.29999999999999999
sS'network_rsn'
p458
F38.399999999999999
sg436
S'CACHE_ALL_RSN_ALL'
p459
sS'rsn_cache_ratio'
p460
I128
ssS'warmup_strategy'
p461
g11
(tRp462
g449
I1000000
sg450
I10
sg436
g451
ssS'topology'
p463
g11
(tRp464
S'ext_delay'
p465
I0
sS'source_ratio'
p466
F0.10000000000000001
sg436
S'ROCKET_FUEL'
p467
sS'asn'
p468
I3257
ssg11
(tRp469
S'SAT_RATE'
p470
g11
(tRp471
S'MEAN_CACHE_HIT'
p472
F0.54467500000000002
sS'MEAN_SERVER_HIT'
p473
F0.7471444444444445
sS'MEAN_SERVER_CACHE_HITS'
p474
F0.29199444444444445
sS'MEAN'
p475
F0.99982499999999996
ssS'CACHE_HIT_RATIO'
p476
g11
(tRp477
S'MEAN_OFF_PATH'
p478
F0.26293449161927085
sS'MEAN_ON_PATH'
p479
F0.28174050838072917
sg475
F0.54467500000000002
ssS'OVERHEAD'
p480
g11
(tRp481
S'DATA_HOPS'
p482
F4.0356555555555556
sS'INTEREST_HOPS'
p483
F8.4284527777777782
sS'SUCCESS_RATE'
p484
F0.54048853870576308
sS'QUOTA_USED_FAILURE'
p485
F1
sS'FAILURE_RATE'
p486
F0.45951146129423692
sS'QUOTA_USED_SUCCESS'
p487
F1
sS'NUM_SUCCESS_FIRST_TIME'
p488
F0.53803976226792194
sg475
F1.360863151051434
ssS'LATENCY'
p489
g11
(tRp490
g475
F52.127308333333332
sstp491
atRp492
sb.