ccopy_reg
_reconstructor
p1
(cicarus.results.readwrite
ResultSet
p2
c__builtin__
object
p3
NtRp4
(dp5
S'attr'
p6
(dp7
sS'_results'
p8
ccollections
deque
p9
((lp10
(cicarus.util
Tree
p11
(tRp12
S'workload'
p13
g11
(tRp14
S'n_contents'
p15
I10000
sS'name'
p16
S'STATIONARY'
p17
sS'n_warmup'
p18
I720000
sS'rate'
p19
I100
sS'n_measured'
p20
I360000
sS'alpha'
p21
F0.69999999999999996
ssS'cache_policy'
p22
g11
(tRp23
g16
S'LRU'
p24
ssS'desc'
p25
S'RSN size sensitivity -> RSN/cache ratio: 2.0'
p26
sS'strategy'
p27
g11
(tRp28
S'extra_quota'
p29
I2
sS'fan_out'
p30
I1
sg16
S'TFIB_DC'
p31
ssS'content_placement'
p32
g11
(tRp33
g16
S'UNIFORM'
p34
ssS'joint_cache_rsn_placement'
p35
g11
(tRp36
S'network_cache'
p37
F0.29999999999999999
sS'network_rsn'
p38
F0.59999999999999998
sg16
S'CACHE_ALL_RSN_ALL'
p39
sS'rsn_cache_ratio'
p40
F2
ssS'warmup_strategy'
p41
g11
(tRp42
g29
I10000
sg30
I10
sg16
g31
ssS'topology'
p43
g11
(tRp44
S'ext_delay'
p45
I0
sS'source_ratio'
p46
F0.10000000000000001
sg16
S'ROCKET_FUEL'
p47
sS'asn'
p48
I3257
ssg11
(tRp49
S'SAT_RATE'
p50
g11
(tRp51
S'MEAN_CACHE_HIT'
p52
F0.25563055555555558
sS'MEAN_SERVER_HIT'
p53
F0.74854166666666666
sS'MEAN_SERVER_CACHE_HITS'
p54
F0.0056388888888888886
sS'MEAN'
p55
F0.99853333333333338
ssS'CACHE_HIT_RATIO'
p56
g11
(tRp57
S'MEAN_OFF_PATH'
p58
F0.0062876553933311572
sS'MEAN_ON_PATH'
p59
F0.24934290016222443
sg55
F0.25563055555555558
ssS'OVERHEAD'
p60
g11
(tRp61
S'DATA_HOPS'
p62
F5.2403833333333329
sS'INTEREST_HOPS'
p63
F6.6237000000000004
sS'SUCCESS_RATE'
p64
F0.27630145937704204
sS'QUOTA_USED_FAILURE'
p65
F1.4180557515048908
sS'FAILURE_RATE'
p66
F0.72369854062295791
sS'QUOTA_USED_SUCCESS'
p67
F1.5168721669294443
sS'NUM_SUCCESS_FIRST_TIME'
p68
F0.27661680598328203
sg55
F1.0064094004539992
ssS'LATENCY'
p69
g11
(tRp70
g55
F54.861622222222223
sstp71
a(g11
(tRp72
S'workload'
p73
g11
(tRp74
S'n_contents'
p75
I10000
sS'name'
p76
S'STATIONARY'
p77
sS'n_warmup'
p78
I720000
sS'rate'
p79
I100
sS'n_measured'
p80
I360000
sS'alpha'
p81
F0.69999999999999996
ssS'cache_policy'
p82
g11
(tRp83
g76
S'LRU'
p84
ssS'desc'
p85
S'RSN size sensitivity -> RSN/cache ratio: 2.0'
p86
sS'strategy'
p87
g11
(tRp88
S'extra_quota'
p89
I2
sS'fan_out'
p90
I1
sg76
S'TFIB_SC'
p91
ssS'content_placement'
p92
g11
(tRp93
g76
S'UNIFORM'
p94
ssS'joint_cache_rsn_placement'
p95
g11
(tRp96
S'network_cache'
p97
F0.29999999999999999
sS'network_rsn'
p98
F0.59999999999999998
sg76
S'CACHE_ALL_RSN_ALL'
p99
sS'rsn_cache_ratio'
p100
F2
ssS'warmup_strategy'
p101
g11
(tRp102
g89
I10000
sg90
I10
sg76
g91
ssS'topology'
p103
g11
(tRp104
S'ext_delay'
p105
I0
sS'source_ratio'
p106
F0.10000000000000001
sg76
S'ROCKET_FUEL'
p107
sS'asn'
p108
I3257
ssg11
(tRp109
S'SAT_RATE'
p110
g11
(tRp111
S'MEAN_CACHE_HIT'
p112
F0.25548888888888888
sS'MEAN_SERVER_HIT'
p113
F0.75051666666666672
sS'MEAN_SERVER_CACHE_HITS'
p114
F0.0060055555555555556
sS'MEAN'
p115
F1
ssS'CACHE_HIT_RATIO'
p116
g11
(tRp117
S'MEAN_OFF_PATH'
p118
F0.0059917937276688336
sS'MEAN_ON_PATH'
p119
F0.24949709516122004
sg115
F0.25548888888888888
ssS'OVERHEAD'
p120
g11
(tRp121
S'DATA_HOPS'
p122
F5.2510666666666665
sS'INTEREST_HOPS'
p123
F6.6970166666666664
sS'SUCCESS_RATE'
p124
F0.25588235294117645
sS'QUOTA_USED_FAILURE'
p125
F1
sS'FAILURE_RATE'
p126
F0.74411764705882355
sS'QUOTA_USED_SUCCESS'
p127
F1
sS'NUM_SUCCESS_FIRST_TIME'
p128
F0.2556227879894965
sg115
F1.0062833333333334
ssS'LATENCY'
p129
g11
(tRp130
g115
F55.165174999999998
sstp131
a(g11
(tRp132
S'workload'
p133
g11
(tRp134
S'n_contents'
p135
I10000
sS'name'
p136
S'STATIONARY'
p137
sS'n_warmup'
p138
I720000
sS'rate'
p139
I100
sS'n_measured'
p140
I360000
sS'alpha'
p141
F0.69999999999999996
ssS'cache_policy'
p142
g11
(tRp143
g136
S'LRU'
p144
ssS'desc'
p145
S'RSN size sensitivity -> RSN/cache ratio: 4.0'
p146
sS'strategy'
p147
g11
(tRp148
S'extra_quota'
p149
I2
sS'fan_out'
p150
I1
sg136
S'TFIB_DC'
p151
ssS'content_placement'
p152
g11
(tRp153
g136
S'UNIFORM'
p154
ssS'joint_cache_rsn_placement'
p155
g11
(tRp156
S'network_cache'
p157
F0.29999999999999999
sS'network_rsn'
p158
F1.2
sg136
S'CACHE_ALL_RSN_ALL'
p159
sS'rsn_cache_ratio'
p160
F4
ssS'warmup_strategy'
p161
g11
(tRp162
g149
I10000
sg150
I10
sg136
g151
ssS'topology'
p163
g11
(tRp164
S'ext_delay'
p165
I0
sS'source_ratio'
p166
F0.10000000000000001
sg136
S'ROCKET_FUEL'
p167
sS'asn'
p168
I3257
ssg11
(tRp169
S'SAT_RATE'
p170
g11
(tRp171
S'MEAN_CACHE_HIT'
p172
F0.26295277777777776
sS'MEAN_SERVER_HIT'
p173
F0.7440444444444444
sS'MEAN_SERVER_CACHE_HITS'
p174
F0.010763888888888889
sS'MEAN'
p175
F0.9962333333333333
ssS'CACHE_HIT_RATIO'
p176
g11
(tRp177
S'MEAN_OFF_PATH'
p178
F0.012760710473106238
sS'MEAN_ON_PATH'
p179
F0.25019206730467153
sg175
F0.26295277777777776
ssS'OVERHEAD'
p180
g11
(tRp181
S'DATA_HOPS'
p182
F5.1790777777777777
sS'INTEREST_HOPS'
p183
F6.7103194444444441
sS'SUCCESS_RATE'
p184
F0.30237487093092769
sS'QUOTA_USED_FAILURE'
p185
F1.5343280116782025
sS'FAILURE_RATE'
p186
F0.69762512906907237
sS'QUOTA_USED_SUCCESS'
p187
F1.6812656986721979
sS'NUM_SUCCESS_FIRST_TIME'
p188
F0.30295009649848359
sg175
F1.0135761367818783
ssS'LATENCY'
p189
g11
(tRp190
g175
F54.78756388888889
sstp191
a(g11
(tRp192
S'workload'
p193
g11
(tRp194
S'n_contents'
p195
I10000
sS'name'
p196
S'STATIONARY'
p197
sS'n_warmup'
p198
I720000
sS'rate'
p199
I100
sS'n_measured'
p200
I360000
sS'alpha'
p201
F0.69999999999999996
ssS'cache_policy'
p202
g11
(tRp203
g196
S'LRU'
p204
ssS'desc'
p205
S'RSN size sensitivity -> RSN/cache ratio: 8.0'
p206
sS'strategy'
p207
g11
(tRp208
S'extra_quota'
p209
I2
sS'fan_out'
p210
I1
sg196
S'TFIB_SC'
p211
ssS'content_placement'
p212
g11
(tRp213
g196
S'UNIFORM'
p214
ssS'joint_cache_rsn_placement'
p215
g11
(tRp216
S'network_cache'
p217
F0.29999999999999999
sS'network_rsn'
p218
F2.3999999999999999
sg196
S'CACHE_ALL_RSN_ALL'
p219
sS'rsn_cache_ratio'
p220
F8
ssS'warmup_strategy'
p221
g11
(tRp222
g209
I10000
sg210
I10
sg196
g211
ssS'topology'
p223
g11
(tRp224
S'ext_delay'
p225
I0
sS'source_ratio'
p226
F0.10000000000000001
sg196
S'ROCKET_FUEL'
p227
sS'asn'
p228
I3257
ssg11
(tRp229
S'SAT_RATE'
p230
g11
(tRp231
S'MEAN_CACHE_HIT'
p232
F0.28458333333333335
sS'MEAN_SERVER_HIT'
p233
F0.74046666666666672
sS'MEAN_SERVER_CACHE_HITS'
p234
F0.025049999999999999
sS'MEAN'
p235
F1
ssS'CACHE_HIT_RATIO'
p236
g11
(tRp237
S'MEAN_OFF_PATH'
p238
F0.024803668113750548
sS'MEAN_ON_PATH'
p239
F0.25977966521958279
sg235
F0.28458333333333335
ssS'OVERHEAD'
p240
g11
(tRp241
S'DATA_HOPS'
p242
F5.0977750000000004
sS'INTEREST_HOPS'
p243
F6.7926222222222226
sS'SUCCESS_RATE'
p244
F0.30166182739235187
sS'QUOTA_USED_FAILURE'
p245
F1
sS'FAILURE_RATE'
p246
F0.69833817260764808
sS'QUOTA_USED_SUCCESS'
p247
F1
sS'NUM_SUCCESS_FIRST_TIME'
p248
F0.30131636959123259
sg235
F1.0271277777777779
ssS'LATENCY'
p249
g11
(tRp250
g235
F54.135077777777781
sstp251
a(g11
(tRp252
S'workload'
p253
g11
(tRp254
S'n_contents'
p255
I10000
sS'name'
p256
S'STATIONARY'
p257
sS'n_warmup'
p258
I720000
sS'rate'
p259
I100
sS'n_measured'
p260
I360000
sS'alpha'
p261
F0.69999999999999996
ssS'cache_policy'
p262
g11
(tRp263
g256
S'LRU'
p264
ssS'desc'
p265
S'RSN size sensitivity -> RSN/cache ratio: 4.0'
p266
sS'strategy'
p267
g11
(tRp268
S'extra_quota'
p269
I2
sS'fan_out'
p270
I1
sg256
S'TFIB_SC'
p271
ssS'content_placement'
p272
g11
(tRp273
g256
S'UNIFORM'
p274
ssS'joint_cache_rsn_placement'
p275
g11
(tRp276
S'network_cache'
p277
F0.29999999999999999
sS'network_rsn'
p278
F1.2
sg256
S'CACHE_ALL_RSN_ALL'
p279
sS'rsn_cache_ratio'
p280
F4
ssS'warmup_strategy'
p281
g11
(tRp282
g269
I10000
sg270
I10
sg256
g271
ssS'topology'
p283
g11
(tRp284
S'ext_delay'
p285
I0
sS'source_ratio'
p286
F0.10000000000000001
sg256
S'ROCKET_FUEL'
p287
sS'asn'
p288
I3257
ssg11
(tRp289
S'SAT_RATE'
p290
g11
(tRp291
S'MEAN_CACHE_HIT'
p292
F0.26787222222222223
sS'MEAN_SERVER_HIT'
p293
F0.74453055555555558
sS'MEAN_SERVER_CACHE_HITS'
p294
F0.012408333333333334
sS'MEAN'
p295
F0.99999444444444441
ssS'CACHE_HIT_RATIO'
p296
g11
(tRp297
S'MEAN_OFF_PATH'
p298
F0.012426433265196933
sS'MEAN_ON_PATH'
p299
F0.2554457889570253
sg295
F0.26787222222222223
ssS'OVERHEAD'
p300
g11
(tRp301
S'DATA_HOPS'
p302
F5.1880388888888893
sS'INTEREST_HOPS'
p303
F6.7521861111111114
sS'SUCCESS_RATE'
p304
F0.27921187892632782
sS'QUOTA_USED_FAILURE'
p305
F1
sS'FAILURE_RATE'
p306
F0.72078812107367218
sS'QUOTA_USED_SUCCESS'
p307
F1
sS'NUM_SUCCESS_FIRST_TIME'
p308
F0.27899432278994324
sg295
F1.0135806310035056
ssS'LATENCY'
p309
g11
(tRp310
g295
F54.695799999999998
sstp311
a(g11
(tRp312
S'workload'
p313
g11
(tRp314
S'n_contents'
p315
I10000
sS'name'
p316
S'STATIONARY'
p317
sS'n_warmup'
p318
I720000
sS'rate'
p319
I100
sS'n_measured'
p320
I360000
sS'alpha'
p321
F0.69999999999999996
ssS'cache_policy'
p322
g11
(tRp323
g316
S'LRU'
p324
ssS'desc'
p325
S'RSN size sensitivity -> RSN/cache ratio: 8.0'
p326
sS'strategy'
p327
g11
(tRp328
S'extra_quota'
p329
I2
sS'fan_out'
p330
I1
sg316
S'TFIB_DC'
p331
ssS'content_placement'
p332
g11
(tRp333
g316
S'UNIFORM'
p334
ssS'joint_cache_rsn_placement'
p335
g11
(tRp336
S'network_cache'
p337
F0.29999999999999999
sS'network_rsn'
p338
F2.3999999999999999
sg316
S'CACHE_ALL_RSN_ALL'
p339
sS'rsn_cache_ratio'
p340
F8
ssS'warmup_strategy'
p341
g11
(tRp342
g329
I10000
sg330
I10
sg316
g331
ssS'topology'
p343
g11
(tRp344
S'ext_delay'
p345
I0
sS'source_ratio'
p346
F0.10000000000000001
sg316
S'ROCKET_FUEL'
p347
sS'asn'
p348
I3257
ssg11
(tRp349
S'SAT_RATE'
p350
g11
(tRp351
S'MEAN_CACHE_HIT'
p352
F0.28335833333333332
sS'MEAN_SERVER_HIT'
p353
F0.73190833333333338
sS'MEAN_SERVER_CACHE_HITS'
p354
F0.021441666666666668
sS'MEAN'
p355
F0.99382499999999996
ssS'CACHE_HIT_RATIO'
p356
g11
(tRp357
S'MEAN_OFF_PATH'
p358
F0.024339527655569418
sS'MEAN_ON_PATH'
p359
F0.25901880567776392
sg355
F0.28335833333333332
ssS'OVERHEAD'
p360
g11
(tRp361
S'DATA_HOPS'
p362
F5.0571861111111112
sS'INTEREST_HOPS'
p363
F6.8357722222222224
sS'SUCCESS_RATE'
p364
F0.30033044454143026
sS'QUOTA_USED_FAILURE'
p365
F1.4941774788779851
sS'FAILURE_RATE'
p366
F0.69966955545856968
sS'QUOTA_USED_SUCCESS'
p367
F1.6032797457247769
sS'NUM_SUCCESS_FIRST_TIME'
p368
F0.30047321116651315
sg355
F1.023696324805675
ssS'LATENCY'
p369
g11
(tRp370
g355
F54.110097222222223
sstp371
a(g11
(tRp372
S'workload'
p373
g11
(tRp374
S'n_contents'
p375
I10000
sS'name'
p376
S'STATIONARY'
p377
sS'n_warmup'
p378
I720000
sS'rate'
p379
I100
sS'n_measured'
p380
I360000
sS'alpha'
p381
F0.69999999999999996
ssS'cache_policy'
p382
g11
(tRp383
g376
S'LRU'
p384
ssS'desc'
p385
S'RSN size sensitivity -> RSN/cache ratio: 16.0'
p386
sS'strategy'
p387
g11
(tRp388
S'extra_quota'
p389
I2
sS'fan_out'
p390
I1
sg376
S'TFIB_SC'
p391
ssS'content_placement'
p392
g11
(tRp393
g376
S'UNIFORM'
p394
ssS'joint_cache_rsn_placement'
p395
g11
(tRp396
S'network_cache'
p397
F0.29999999999999999
sS'network_rsn'
p398
F4.7999999999999998
sg376
S'CACHE_ALL_RSN_ALL'
p399
sS'rsn_cache_ratio'
p400
F16
ssS'warmup_strategy'
p401
g11
(tRp402
g389
I10000
sg390
I10
sg376
g391
ssS'topology'
p403
g11
(tRp404
S'ext_delay'
p405
I0
sS'source_ratio'
p406
F0.10000000000000001
sg376
S'ROCKET_FUEL'
p407
sS'asn'
p408
I3257
ssg11
(tRp409
S'SAT_RATE'
p410
g11
(tRp411
S'MEAN_CACHE_HIT'
p412
F0.31315277777777778
sS'MEAN_SERVER_HIT'
p413
F0.74478333333333335
sS'MEAN_SERVER_CACHE_HITS'
p414
F0.057952777777777777
sS'MEAN'
p415
F0.99998333333333334
ssS'CACHE_HIT_RATIO'
p416
g11
(tRp417
S'MEAN_OFF_PATH'
p418
F0.055262211276148263
sS'MEAN_ON_PATH'
p419
F0.2578905665016295
sg415
F0.31315277777777778
ssS'OVERHEAD'
p420
g11
(tRp421
S'DATA_HOPS'
p422
F5.0037777777777777
sS'INTEREST_HOPS'
p423
F7.0654222222222218
sS'SUCCESS_RATE'
p424
F0.3604079105985078
sS'QUOTA_USED_FAILURE'
p425
F1
sS'FAILURE_RATE'
p426
F0.63959208940149215
sS'QUOTA_USED_SUCCESS'
p427
F1
sS'NUM_SUCCESS_FIRST_TIME'
p428
F0.35961441743503775
sg415
F1.0614482463596615
ssS'LATENCY'
p429
g11
(tRp430
g415
F54.138399999999997
sstp431
a(g11
(tRp432
S'workload'
p433
g11
(tRp434
S'n_contents'
p435
I10000
sS'name'
p436
S'STATIONARY'
p437
sS'n_warmup'
p438
I720000
sS'rate'
p439
I100
sS'n_measured'
p440
I360000
sS'alpha'
p441
F0.69999999999999996
ssS'cache_policy'
p442
g11
(tRp443
g436
S'LRU'
p444
ssS'desc'
p445
S'RSN size sensitivity -> RSN/cache ratio: 16.0'
p446
sS'strategy'
p447
g11
(tRp448
S'extra_quota'
p449
I2
sS'fan_out'
p450
I1
sg436
S'TFIB_DC'
p451
ssS'content_placement'
p452
g11
(tRp453
g436
S'UNIFORM'
p454
ssS'joint_cache_rsn_placement'
p455
g11
(tRp456
S'network_cache'
p457
F0.29999999999999999
sS'network_rsn'
p458
F4.7999999999999998
sg436
S'CACHE_ALL_RSN_ALL'
p459
sS'rsn_cache_ratio'
p460
F16
ssS'warmup_strategy'
p461
g11
(tRp462
g449
I10000
sg450
I10
sg436
g451
ssS'topology'
p463
g11
(tRp464
S'ext_delay'
p465
I0
sS'source_ratio'
p466
F0.10000000000000001
sg436
S'ROCKET_FUEL'
p467
sS'asn'
p468
I3257
ssg11
(tRp469
S'SAT_RATE'
p470
g11
(tRp471
S'MEAN_CACHE_HIT'
p472
F0.30894166666666667
sS'MEAN_SERVER_HIT'
p473
F0.71947222222222218
sS'MEAN_SERVER_CACHE_HITS'
p474
F0.044177777777777781
sS'MEAN'
p475
F0.98423611111111109
ssS'CACHE_HIT_RATIO'
p476
g11
(tRp477
S'MEAN_OFF_PATH'
p478
F0.069867568450877701
sS'MEAN_ON_PATH'
p479
F0.23907409821578895
sg475
F0.30894166666666667
ssS'OVERHEAD'
p480
g11
(tRp481
S'DATA_HOPS'
p482
F4.900322222222222
sS'INTEREST_HOPS'
p483
F7.0574666666666666
sS'SUCCESS_RATE'
p484
F0.41132338958878062
sS'QUOTA_USED_FAILURE'
p485
F1.7618641170907154
sS'FAILURE_RATE'
p486
F0.58867661041121944
sS'QUOTA_USED_SUCCESS'
p487
F9.6748408819627674
sS'NUM_SUCCESS_FIRST_TIME'
p488
F0.41172794341808427
sg475
F1.0672433500317504
ssS'LATENCY'
p489
g11
(tRp490
g475
F53.934480555555552
sstp491
a(g11
(tRp492
S'workload'
p493
g11
(tRp494
S'n_contents'
p495
I10000
sS'name'
p496
S'STATIONARY'
p497
sS'n_warmup'
p498
I720000
sS'rate'
p499
I100
sS'n_measured'
p500
I360000
sS'alpha'
p501
F0.69999999999999996
ssS'cache_policy'
p502
g11
(tRp503
g496
S'LRU'
p504
ssS'desc'
p505
S'RSN size sensitivity -> RSN/cache ratio: 32.0'
p506
sS'strategy'
p507
g11
(tRp508
S'extra_quota'
p509
I2
sS'fan_out'
p510
I1
sg496
S'TFIB_SC'
p511
ssS'content_placement'
p512
g11
(tRp513
g496
S'UNIFORM'
p514
ssS'joint_cache_rsn_placement'
p515
g11
(tRp516
S'network_cache'
p517
F0.29999999999999999
sS'network_rsn'
p518
F9.5999999999999996
sg496
S'CACHE_ALL_RSN_ALL'
p519
sS'rsn_cache_ratio'
p520
F32
ssS'warmup_strategy'
p521
g11
(tRp522
g509
I10000
sg510
I10
sg496
g511
ssS'topology'
p523
g11
(tRp524
S'ext_delay'
p525
I0
sS'source_ratio'
p526
F0.10000000000000001
sg496
S'ROCKET_FUEL'
p527
sS'asn'
p528
I3257
ssg11
(tRp529
S'SAT_RATE'
p530
g11
(tRp531
S'MEAN_CACHE_HIT'
p532
F0.3750722222222222
sS'MEAN_SERVER_HIT'
p533
F0.74343888888888887
sS'MEAN_SERVER_CACHE_HITS'
p534
F0.11854444444444444
sS'MEAN'
p535
F0.99996666666666667
ssS'CACHE_HIT_RATIO'
p536
g11
(tRp537
S'MEAN_OFF_PATH'
p538
F0.11999334432678362
sS'MEAN_ON_PATH'
p539
F0.25507887789543859
sg535
F0.3750722222222222
ssS'OVERHEAD'
p540
g11
(tRp541
S'DATA_HOPS'
p542
F4.7349055555555557
sS'INTEREST_HOPS'
p543
F7.4213666666666667
sS'SUCCESS_RATE'
p544
F0.46004255927899573
sS'QUOTA_USED_FAILURE'
p545
F1
sS'FAILURE_RATE'
p546
F0.53995744072100427
sS'QUOTA_USED_SUCCESS'
p547
F1
sS'NUM_SUCCESS_FIRST_TIME'
p548
F0.46017543534985289
sg535
F1.1428797626587552
ssS'LATENCY'
p549
g11
(tRp550
g535
F53.512680555555555
sstp551
a(g11
(tRp552
S'workload'
p553
g11
(tRp554
S'n_contents'
p555
I10000
sS'name'
p556
S'STATIONARY'
p557
sS'n_warmup'
p558
I720000
sS'rate'
p559
I100
sS'n_measured'
p560
I360000
sS'alpha'
p561
F0.69999999999999996
ssS'cache_policy'
p562
g11
(tRp563
g556
S'LRU'
p564
ssS'desc'
p565
S'RSN size sensitivity -> RSN/cache ratio: 32.0'
p566
sS'strategy'
p567
g11
(tRp568
S'extra_quota'
p569
I2
sS'fan_out'
p570
I1
sg556
S'TFIB_DC'
p571
ssS'content_placement'
p572
g11
(tRp573
g556
S'UNIFORM'
p574
ssS'joint_cache_rsn_placement'
p575
g11
(tRp576
S'network_cache'
p577
F0.29999999999999999
sS'network_rsn'
p578
F9.5999999999999996
sg556
S'CACHE_ALL_RSN_ALL'
p579
sS'rsn_cache_ratio'
p580
F32
ssS'warmup_strategy'
p581
g11
(tRp582
g569
I10000
sg570
I10
sg556
g571
ssS'topology'
p583
g11
(tRp584
S'ext_delay'
p585
I0
sS'source_ratio'
p586
F0.10000000000000001
sg556
S'ROCKET_FUEL'
p587
sS'asn'
p588
I3257
ssg11
(tRp589
S'SAT_RATE'
p590
g11
(tRp591
S'MEAN_CACHE_HIT'
p592
F0.36991111111111113
sS'MEAN_SERVER_HIT'
p593
F0.67512222222222218
sS'MEAN_SERVER_CACHE_HITS'
p594
F0.080522222222222217
sS'MEAN'
p595
F0.9645111111111111
ssS'CACHE_HIT_RATIO'
p596
g11
(tRp597
S'MEAN_OFF_PATH'
p598
F0.11641840239014173
sS'MEAN_ON_PATH'
p599
F0.25349270872096941
sg595
F0.36991111111111113
ssS'OVERHEAD'
p600
g11
(tRp601
S'DATA_HOPS'
p602
F4.4111722222222225
sS'INTEREST_HOPS'
p603
F7.2598333333333329
sS'SUCCESS_RATE'
p604
F0.44380640635959784
sS'QUOTA_USED_FAILURE'
p605
F1.9823445575380663
sS'FAILURE_RATE'
p606
F0.55619359364040211
sS'QUOTA_USED_SUCCESS'
p607
F2.5134899427469573
sS'NUM_SUCCESS_FIRST_TIME'
p608
F0.44362721378108971
sg595
F1.099016773034122
ssS'LATENCY'
p609
g11
(tRp610
g595
F52.288341666666668
sstp611
a(g11
(tRp612
S'workload'
p613
g11
(tRp614
S'n_contents'
p615
I10000
sS'name'
p616
S'STATIONARY'
p617
sS'n_warmup'
p618
I720000
sS'rate'
p619
I100
sS'n_measured'
p620
I360000
sS'alpha'
p621
F0.69999999999999996
ssS'cache_policy'
p622
g11
(tRp623
g616
S'LRU'
p624
ssS'desc'
p625
S'RSN size sensitivity -> RSN/cache ratio: 64.0'
p626
sS'strategy'
p627
g11
(tRp628
S'extra_quota'
p629
I2
sS'fan_out'
p630
I1
sg616
S'TFIB_SC'
p631
ssS'content_placement'
p632
g11
(tRp633
g616
S'UNIFORM'
p634
ssS'joint_cache_rsn_placement'
p635
g11
(tRp636
S'network_cache'
p637
F0.29999999999999999
sS'network_rsn'
p638
F19.199999999999999
sg616
S'CACHE_ALL_RSN_ALL'
p639
sS'rsn_cache_ratio'
p640
F64
ssS'warmup_strategy'
p641
g11
(tRp642
g629
I10000
sg630
I10
sg616
g631
ssS'topology'
p643
g11
(tRp644
S'ext_delay'
p645
I0
sS'source_ratio'
p646
F0.10000000000000001
sg616
S'ROCKET_FUEL'
p647
sS'asn'
p648
I3257
ssg11
(tRp649
S'SAT_RATE'
p650
g11
(tRp651
S'MEAN_CACHE_HIT'
p652
F0.46958611111111109
sS'MEAN_SERVER_HIT'
p653
F0.74717222222222224
sS'MEAN_SERVER_CACHE_HITS'
p654
F0.21683055555555555
sS'MEAN'
p655
F0.99992777777777775
ssS'CACHE_HIT_RATIO'
p656
g11
(tRp657
S'MEAN_OFF_PATH'
p658
F0.19705592957608217
sS'MEAN_ON_PATH'
p659
F0.27253018153502895
sg655
F0.46958611111111109
ssS'OVERHEAD'
p660
g11
(tRp661
S'DATA_HOPS'
p662
F4.3241555555555555
sS'INTEREST_HOPS'
p663
F7.8670027777777776
sS'SUCCESS_RATE'
p664
F0.52227978073682624
sS'QUOTA_USED_FAILURE'
p665
F1
sS'FAILURE_RATE'
p666
F0.47772021926317376
sS'QUOTA_USED_SUCCESS'
p667
F1
sS'NUM_SUCCESS_FIRST_TIME'
p668
F0.52220692653238665
sg655
F1.2502375171540168
ssS'LATENCY'
p669
g11
(tRp670
g655
F52.723419444444446
sstp671
a(g11
(tRp672
S'workload'
p673
g11
(tRp674
S'n_contents'
p675
I10000
sS'name'
p676
S'STATIONARY'
p677
sS'n_warmup'
p678
I720000
sS'rate'
p679
I100
sS'n_measured'
p680
I360000
sS'alpha'
p681
F0.69999999999999996
ssS'cache_policy'
p682
g11
(tRp683
g676
S'LRU'
p684
ssS'desc'
p685
S'RSN size sensitivity -> RSN/cache ratio: 64.0'
p686
sS'strategy'
p687
g11
(tRp688
S'extra_quota'
p689
I2
sS'fan_out'
p690
I1
sg676
S'TFIB_DC'
p691
ssS'content_placement'
p692
g11
(tRp693
g676
S'UNIFORM'
p694
ssS'joint_cache_rsn_placement'
p695
g11
(tRp696
S'network_cache'
p697
F0.29999999999999999
sS'network_rsn'
p698
F19.199999999999999
sg676
S'CACHE_ALL_RSN_ALL'
p699
sS'rsn_cache_ratio'
p700
F64
ssS'warmup_strategy'
p701
g11
(tRp702
g689
I10000
sg690
I10
sg676
g691
ssS'topology'
p703
g11
(tRp704
S'ext_delay'
p705
I0
sS'source_ratio'
p706
F0.10000000000000001
sg676
S'ROCKET_FUEL'
p707
sS'asn'
p708
I3257
ssg11
(tRp709
S'SAT_RATE'
p710
g11
(tRp711
S'MEAN_CACHE_HIT'
p712
F0.46746666666666664
sS'MEAN_SERVER_HIT'
p713
F0.57957777777777775
sS'MEAN_SERVER_CACHE_HITS'
p714
F0.11224444444444444
sS'MEAN'
p715
F0.93479999999999996
ssS'CACHE_HIT_RATIO'
p716
g11
(tRp717
S'MEAN_OFF_PATH'
p718
F0.24096928921620647
sS'MEAN_ON_PATH'
p719
F0.22649737745046017
sg715
F0.46746666666666664
ssS'OVERHEAD'
p720
g11
(tRp721
S'DATA_HOPS'
p722
F3.6223472222222224
sS'INTEREST_HOPS'
p723
F7.5958333333333332
sS'SUCCESS_RATE'
p724
F0.54648453799434371
sS'QUOTA_USED_FAILURE'
p725
F2.5712846994732192
sS'FAILURE_RATE'
p726
F0.45351546200565629
sS'QUOTA_USED_SUCCESS'
p727
F4.2901281398678144
sS'NUM_SUCCESS_FIRST_TIME'
p728
F0.54892281421175737
sg715
F1.1506620548661628
ssS'LATENCY'
p729
g11
(tRp730
g715
F47.433941666666669
sstp731
a(g11
(tRp732
S'workload'
p733
g11
(tRp734
S'n_contents'
p735
I10000
sS'name'
p736
S'STATIONARY'
p737
sS'n_warmup'
p738
I720000
sS'rate'
p739
I100
sS'n_measured'
p740
I360000
sS'alpha'
p741
F0.69999999999999996
ssS'cache_policy'
p742
g11
(tRp743
g736
S'LRU'
p744
ssS'desc'
p745
S'RSN size sensitivity -> RSN/cache ratio: 128.0'
p746
sS'strategy'
p747
g11
(tRp748
S'extra_quota'
p749
I2
sS'fan_out'
p750
I1
sg736
S'TFIB_SC'
p751
ssS'content_placement'
p752
g11
(tRp753
g736
S'UNIFORM'
p754
ssS'joint_cache_rsn_placement'
p755
g11
(tRp756
S'network_cache'
p757
F0.29999999999999999
sS'network_rsn'
p758
F38.399999999999999
sg736
S'CACHE_ALL_RSN_ALL'
p759
sS'rsn_cache_ratio'
p760
F128
ssS'warmup_strategy'
p761
g11
(tRp762
g749
I10000
sg750
I10
sg736
g751
ssS'topology'
p763
g11
(tRp764
S'ext_delay'
p765
I0
sS'source_ratio'
p766
F0.10000000000000001
sg736
S'ROCKET_FUEL'
p767
sS'asn'
p768
I3257
ssg11
(tRp769
S'SAT_RATE'
p770
g11
(tRp771
S'MEAN_CACHE_HIT'
p772
F0.5451138888888889
sS'MEAN_SERVER_HIT'
p773
F0.74610833333333337
sS'MEAN_SERVER_CACHE_HITS'
p774
F0.29144722222222225
sS'MEAN'
p775
F0.99977499999999997
ssS'CACHE_HIT_RATIO'
p776
g11
(tRp777
S'MEAN_OFF_PATH'
p778
F0.25594182944669136
sS'MEAN_ON_PATH'
p779
F0.28917205944219754
sg775
F0.5451138888888889
ssS'OVERHEAD'
p780
g11
(tRp781
S'DATA_HOPS'
p782
F4.0233083333333335
sS'INTEREST_HOPS'
p783
F8.3676166666666667
sS'SUCCESS_RATE'
p784
F0.53093711733775117
sS'QUOTA_USED_FAILURE'
p785
F1
sS'FAILURE_RATE'
p786
F0.46906288266224877
sS'QUOTA_USED_SUCCESS'
p787
F1
sS'NUM_SUCCESS_FIRST_TIME'
p788
F0.52912506421854411
sg775
F1.3476421083632706
ssS'LATENCY'
p789
g11
(tRp790
g775
F51.905236111111108
sstp791
a(g11
(tRp792
S'workload'
p793
g11
(tRp794
S'n_contents'
p795
I10000
sS'name'
p796
S'STATIONARY'
p797
sS'n_warmup'
p798
I720000
sS'rate'
p799
I100
sS'n_measured'
p800
I360000
sS'alpha'
p801
F0.69999999999999996
ssS'cache_policy'
p802
g11
(tRp803
g796
S'LRU'
p804
ssS'desc'
p805
S'RSN size sensitivity -> RSN/cache ratio: 512.0'
p806
sS'strategy'
p807
g11
(tRp808
S'extra_quota'
p809
I2
sS'fan_out'
p810
I1
sg796
S'TFIB_SC'
p811
ssS'content_placement'
p812
g11
(tRp813
g796
S'UNIFORM'
p814
ssS'joint_cache_rsn_placement'
p815
g11
(tRp816
S'network_cache'
p817
F0.29999999999999999
sS'network_rsn'
p818
F153.59999999999999
sg796
S'CACHE_ALL_RSN_ALL'
p819
sS'rsn_cache_ratio'
p820
F512
ssS'warmup_strategy'
p821
g11
(tRp822
g809
I10000
sg810
I10
sg796
g811
ssS'topology'
p823
g11
(tRp824
S'ext_delay'
p825
I0
sS'source_ratio'
p826
F0.10000000000000001
sg796
S'ROCKET_FUEL'
p827
sS'asn'
p828
I3257
ssg11
(tRp829
S'SAT_RATE'
p830
g11
(tRp831
S'MEAN_CACHE_HIT'
p832
F0.52014722222222221
sS'MEAN_SERVER_HIT'
p833
F0.74498333333333333
sS'MEAN_SERVER_CACHE_HITS'
p834
F0.26587777777777777
sS'MEAN'
p835
F0.99925277777777777
ssS'CACHE_HIT_RATIO'
p836
g11
(tRp837
S'MEAN_OFF_PATH'
p838
F0.24143753279744953
sS'MEAN_ON_PATH'
p839
F0.2787096894247727
sg835
F0.52014722222222221
ssS'OVERHEAD'
p840
g11
(tRp841
S'DATA_HOPS'
p842
F4.0968999999999998
sS'INTEREST_HOPS'
p843
F8.7066499999999998
sS'SUCCESS_RATE'
p844
F0.45508858120614532
sS'QUOTA_USED_FAILURE'
p845
F1
sS'FAILURE_RATE'
p846
F0.54491141879385474
sS'QUOTA_USED_SUCCESS'
p847
F1
sS'NUM_SUCCESS_FIRST_TIME'
p848
F0.44852153439433623
sg835
F1.3290152919820644
ssS'LATENCY'
p849
g11
(tRp850
g835
F52.085161111111113
sstp851
a(g11
(tRp852
S'workload'
p853
g11
(tRp854
S'n_contents'
p855
I10000
sS'name'
p856
S'STATIONARY'
p857
sS'n_warmup'
p858
I720000
sS'rate'
p859
I100
sS'n_measured'
p860
I360000
sS'alpha'
p861
F0.69999999999999996
ssS'cache_policy'
p862
g11
(tRp863
g856
S'LRU'
p864
ssS'desc'
p865
S'RSN size sensitivity -> RSN/cache ratio: 256.0'
p866
sS'strategy'
p867
g11
(tRp868
S'extra_quota'
p869
I2
sS'fan_out'
p870
I1
sg856
S'TFIB_SC'
p871
ssS'content_placement'
p872
g11
(tRp873
g856
S'UNIFORM'
p874
ssS'joint_cache_rsn_placement'
p875
g11
(tRp876
S'network_cache'
p877
F0.29999999999999999
sS'network_rsn'
p878
F76.799999999999997
sg856
S'CACHE_ALL_RSN_ALL'
p879
sS'rsn_cache_ratio'
p880
F256
ssS'warmup_strategy'
p881
g11
(tRp882
g869
I10000
sg870
I10
sg856
g871
ssS'topology'
p883
g11
(tRp884
S'ext_delay'
p885
I0
sS'source_ratio'
p886
F0.10000000000000001
sg856
S'ROCKET_FUEL'
p887
sS'asn'
p888
I3257
ssg11
(tRp889
S'SAT_RATE'
p890
g11
(tRp891
S'MEAN_CACHE_HIT'
p892
F0.53336944444444445
sS'MEAN_SERVER_HIT'
p893
F0.74349166666666666
sS'MEAN_SERVER_CACHE_HITS'
p894
F0.27735833333333332
sS'MEAN'
p895
F0.99950277777777774
ssS'CACHE_HIT_RATIO'
p896
g11
(tRp897
S'MEAN_OFF_PATH'
p898
F0.26205538756064134
sS'MEAN_ON_PATH'
p899
F0.27131405688380311
sg895
F0.53336944444444445
ssS'OVERHEAD'
p900
g11
(tRp901
S'DATA_HOPS'
p902
F4.0547000000000004
sS'INTEREST_HOPS'
p903
F8.7191472222222224
sS'SUCCESS_RATE'
p904
F0.47915600975270983
sS'QUOTA_USED_FAILURE'
p905
F1
sS'FAILURE_RATE'
p906
F0.52084399024729022
sS'QUOTA_USED_SUCCESS'
p907
F1
sS'NUM_SUCCESS_FIRST_TIME'
p908
F0.47549226622041368
sg895
F1.3556351630394001
ssS'LATENCY'
p909
g11
(tRp910
g895
F51.899052777777776
sstp911
a(g11
(tRp912
S'workload'
p913
g11
(tRp914
S'n_contents'
p915
I10000
sS'name'
p916
S'STATIONARY'
p917
sS'n_warmup'
p918
I720000
sS'rate'
p919
I100
sS'n_measured'
p920
I360000
sS'alpha'
p921
F0.69999999999999996
ssS'cache_policy'
p922
g11
(tRp923
g916
S'LRU'
p924
ssS'desc'
p925
S'RSN size sensitivity -> RSN/cache ratio: 128.0'
p926
sS'strategy'
p927
g11
(tRp928
S'extra_quota'
p929
I2
sS'fan_out'
p930
I1
sg916
S'TFIB_DC'
p931
ssS'content_placement'
p932
g11
(tRp933
g916
S'UNIFORM'
p934
ssS'joint_cache_rsn_placement'
p935
g11
(tRp936
S'network_cache'
p937
F0.29999999999999999
sS'network_rsn'
p938
F38.399999999999999
sg916
S'CACHE_ALL_RSN_ALL'
p939
sS'rsn_cache_ratio'
p940
F128
ssS'warmup_strategy'
p941
g11
(tRp942
g929
I10000
sg930
I10
sg916
g931
ssS'topology'
p943
g11
(tRp944
S'ext_delay'
p945
I0
sS'source_ratio'
p946
F0.10000000000000001
sg916
S'ROCKET_FUEL'
p947
sS'asn'
p948
I3257
ssg11
(tRp949
S'SAT_RATE'
p950
g11
(tRp951
S'MEAN_CACHE_HIT'
p952
F0.55566111111111116
sS'MEAN_SERVER_HIT'
p953
F0.47128055555555554
sS'MEAN_SERVER_CACHE_HITS'
p954
F0.11438055555555555
sS'MEAN'
p955
F0.91256111111111116
ssS'CACHE_HIT_RATIO'
p956
g11
(tRp957
S'MEAN_OFF_PATH'
p958
F0.34089083281263949
sS'MEAN_ON_PATH'
p959
F0.21477027829847167
sg955
F0.55566111111111116
ssS'OVERHEAD'
p960
g11
(tRp961
S'DATA_HOPS'
p962
F2.8515583333333332
sS'INTEREST_HOPS'
p963
F7.8734027777777778
sS'SUCCESS_RATE'
p964
F0.57292268150894576
sS'QUOTA_USED_FAILURE'
p965
F3.0389538126542215
sS'FAILURE_RATE'
p966
F0.42707731849105424
sS'QUOTA_USED_SUCCESS'
p967
F6.9043583255764478
sS'NUM_SUCCESS_FIRST_TIME'
p968
F0.57546579059615754
sg955
F1.162783618753082
ssS'LATENCY'
p969
g11
(tRp970
g955
F42.002644444444442
sstp971
a(g11
(tRp972
S'workload'
p973
g11
(tRp974
S'n_contents'
p975
I10000
sS'name'
p976
S'STATIONARY'
p977
sS'n_warmup'
p978
I720000
sS'rate'
p979
I100
sS'n_measured'
p980
I360000
sS'alpha'
p981
F0.69999999999999996
ssS'cache_policy'
p982
g11
(tRp983
g976
S'LRU'
p984
ssS'desc'
p985
S'RSN size sensitivity -> RSN/cache ratio: 256.0'
p986
sS'strategy'
p987
g11
(tRp988
S'extra_quota'
p989
I2
sS'fan_out'
p990
I1
sg976
S'TFIB_DC'
p991
ssS'content_placement'
p992
g11
(tRp993
g976
S'UNIFORM'
p994
ssS'joint_cache_rsn_placement'
p995
g11
(tRp996
S'network_cache'
p997
F0.29999999999999999
sS'network_rsn'
p998
F76.799999999999997
sg976
S'CACHE_ALL_RSN_ALL'
p999
sS'rsn_cache_ratio'
p1000
F256
ssS'warmup_strategy'
p1001
g11
(tRp1002
g989
I10000
sg990
I10
sg976
g991
ssS'topology'
p1003
g11
(tRp1004
S'ext_delay'
p1005
I0
sS'source_ratio'
p1006
F0.10000000000000001
sg976
S'ROCKET_FUEL'
p1007
sS'asn'
p1008
I3257
ssg11
(tRp1009
S'SAT_RATE'
p1010
g11
(tRp1011
S'MEAN_CACHE_HIT'
p1012
F0.55305833333333332
sS'MEAN_SERVER_HIT'
p1013
F0.466275
sS'MEAN_SERVER_CACHE_HITS'
p1014
F0.10769444444444444
sS'MEAN'
p1015
F0.91163888888888889
ssS'CACHE_HIT_RATIO'
p1016
g11
(tRp1017
S'MEAN_OFF_PATH'
p1018
F0.34103717026378899
sS'MEAN_ON_PATH'
p1019
F0.21202116306954433
sg1015
F0.55305833333333332
ssS'OVERHEAD'
p1020
g11
(tRp1021
S'DATA_HOPS'
p1022
F2.8452361111111113
sS'INTEREST_HOPS'
p1023
F8.1508166666666675
sS'SUCCESS_RATE'
p1024
F0.51943756472297586
sS'QUOTA_USED_FAILURE'
p1025
F2.7553443370582782
sS'FAILURE_RATE'
p1026
F0.48056243527702419
sS'QUOTA_USED_SUCCESS'
p1027
F6.7255881079680595
sS'NUM_SUCCESS_FIRST_TIME'
p1028
F0.52128478944191181
sg1015
F1.1627350010664554
ssS'LATENCY'
p1029
g11
(tRp1030
g1015
F41.691541666666666
sstp1031
a(g11
(tRp1032
S'workload'
p1033
g11
(tRp1034
S'n_contents'
p1035
I10000
sS'name'
p1036
S'STATIONARY'
p1037
sS'n_warmup'
p1038
I720000
sS'rate'
p1039
I100
sS'n_measured'
p1040
I360000
sS'alpha'
p1041
F0.69999999999999996
ssS'cache_policy'
p1042
g11
(tRp1043
g1036
S'LRU'
p1044
ssS'desc'
p1045
S'RSN size sensitivity -> RSN/cache ratio: 512.0'
p1046
sS'strategy'
p1047
g11
(tRp1048
S'extra_quota'
p1049
I2
sS'fan_out'
p1050
I1
sg1036
S'TFIB_DC'
p1051
ssS'content_placement'
p1052
g11
(tRp1053
g1036
S'UNIFORM'
p1054
ssS'joint_cache_rsn_placement'
p1055
g11
(tRp1056
S'network_cache'
p1057
F0.29999999999999999
sS'network_rsn'
p1058
F153.59999999999999
sg1036
S'CACHE_ALL_RSN_ALL'
p1059
sS'rsn_cache_ratio'
p1060
F512
ssS'warmup_strategy'
p1061
g11
(tRp1062
g1049
I10000
sg1050
I10
sg1036
g1051
ssS'topology'
p1063
g11
(tRp1064
S'ext_delay'
p1065
I0
sS'source_ratio'
p1066
F0.10000000000000001
sg1036
S'ROCKET_FUEL'
p1067
sS'asn'
p1068
I3257
ssg11
(tRp1069
S'SAT_RATE'
p1070
g11
(tRp1071
S'MEAN_CACHE_HIT'
p1072
F0.54828611111111114
sS'MEAN_SERVER_HIT'
p1073
F0.47233055555555553
sS'MEAN_SERVER_CACHE_HITS'
p1074
F0.10648888888888888
sS'MEAN'
p1075
F0.91412777777777776
ssS'CACHE_HIT_RATIO'
p1076
g11
(tRp1077
S'MEAN_OFF_PATH'
p1078
F0.3262706098165053
sS'MEAN_ON_PATH'
p1079
F0.22201550129460584
sg1075
F0.54828611111111114
ssS'OVERHEAD'
p1080
g11
(tRp1081
S'DATA_HOPS'
p1082
F2.8854722222222224
sS'INTEREST_HOPS'
p1083
F8.2147666666666659
sS'SUCCESS_RATE'
p1084
F0.50836227943073775
sS'QUOTA_USED_FAILURE'
p1085
F2.6754109697980959
sS'FAILURE_RATE'
p1086
F0.49163772056926225
sS'QUOTA_USED_SUCCESS'
p1087
F7.1383855051637406
sS'NUM_SUCCESS_FIRST_TIME'
p1088
F0.51161409136814595
sg1075
F1.1624073950274396
ssS'LATENCY'
p1089
g11
(tRp1090
g1075
F42.053316666666667
sstp1091
atRp1092
sb.